
results_omp_simple/bin/icx_Simple_N8192_T4_static:     file format elf64-x86-64


Disassembly of section .init:

0000000000401000 <_init>:
  401000:	48 83 ec 08          	sub    $0x8,%rsp
  401004:	48 8b 05 ad bf 00 00 	mov    0xbfad(%rip),%rax        # 40cfb8 <__gmon_start__@Base>
  40100b:	48 85 c0             	test   %rax,%rax
  40100e:	74 02                	je     401012 <_init+0x12>
  401010:	ff d0                	call   *%rax
  401012:	48 83 c4 08          	add    $0x8,%rsp
  401016:	c3                   	ret

Disassembly of section .plt:

0000000000401020 <__kmpc_dispatch_init_4@plt-0x10>:
  401020:	ff 35 ca bf 00 00    	push   0xbfca(%rip)        # 40cff0 <_GLOBAL_OFFSET_TABLE_+0x8>
  401026:	ff 25 cc bf 00 00    	jmp    *0xbfcc(%rip)        # 40cff8 <_GLOBAL_OFFSET_TABLE_+0x10>
  40102c:	0f 1f 40 00          	nopl   0x0(%rax)

0000000000401030 <__kmpc_dispatch_init_4@plt>:
  401030:	ff 25 ca bf 00 00    	jmp    *0xbfca(%rip)        # 40d000 <__kmpc_dispatch_init_4@VERSION>
  401036:	68 00 00 00 00       	push   $0x0
  40103b:	e9 e0 ff ff ff       	jmp    401020 <_init+0x20>

0000000000401040 <posix_memalign@plt>:
  401040:	ff 25 c2 bf 00 00    	jmp    *0xbfc2(%rip)        # 40d008 <posix_memalign@GLIBC_2.2.5>
  401046:	68 01 00 00 00       	push   $0x1
  40104b:	e9 d0 ff ff ff       	jmp    401020 <_init+0x20>

0000000000401050 <__strncpy_chk@plt>:
  401050:	ff 25 ba bf 00 00    	jmp    *0xbfba(%rip)        # 40d010 <__strncpy_chk@GLIBC_2.3.4>
  401056:	68 02 00 00 00       	push   $0x2
  40105b:	e9 c0 ff ff ff       	jmp    401020 <_init+0x20>

0000000000401060 <__fprintf_chk@plt>:
  401060:	ff 25 b2 bf 00 00    	jmp    *0xbfb2(%rip)        # 40d018 <__fprintf_chk@GLIBC_2.3.4>
  401066:	68 03 00 00 00       	push   $0x3
  40106b:	e9 b0 ff ff ff       	jmp    401020 <_init+0x20>

0000000000401070 <exit@plt>:
  401070:	ff 25 aa bf 00 00    	jmp    *0xbfaa(%rip)        # 40d020 <exit@GLIBC_2.2.5>
  401076:	68 04 00 00 00       	push   $0x4
  40107b:	e9 a0 ff ff ff       	jmp    401020 <_init+0x20>

0000000000401080 <__printf_chk@plt>:
  401080:	ff 25 a2 bf 00 00    	jmp    *0xbfa2(%rip)        # 40d028 <__printf_chk@GLIBC_2.3.4>
  401086:	68 05 00 00 00       	push   $0x5
  40108b:	e9 90 ff ff ff       	jmp    401020 <_init+0x20>

0000000000401090 <__kmpc_end_single@plt>:
  401090:	ff 25 9a bf 00 00    	jmp    *0xbf9a(%rip)        # 40d030 <__kmpc_end_single@VERSION>
  401096:	68 06 00 00 00       	push   $0x6
  40109b:	e9 80 ff ff ff       	jmp    401020 <_init+0x20>

00000000004010a0 <__kmpc_for_static_fini@plt>:
  4010a0:	ff 25 92 bf 00 00    	jmp    *0xbf92(%rip)        # 40d038 <__kmpc_for_static_fini@VERSION>
  4010a6:	68 07 00 00 00       	push   $0x7
  4010ab:	e9 70 ff ff ff       	jmp    401020 <_init+0x20>

00000000004010b0 <fopen@plt>:
  4010b0:	ff 25 8a bf 00 00    	jmp    *0xbf8a(%rip)        # 40d040 <fopen@GLIBC_2.2.5>
  4010b6:	68 08 00 00 00       	push   $0x8
  4010bb:	e9 60 ff ff ff       	jmp    401020 <_init+0x20>

00000000004010c0 <catgets@plt>:
  4010c0:	ff 25 82 bf 00 00    	jmp    *0xbf82(%rip)        # 40d048 <catgets@GLIBC_2.2.5>
  4010c6:	68 09 00 00 00       	push   $0x9
  4010cb:	e9 50 ff ff ff       	jmp    401020 <_init+0x20>

00000000004010d0 <__vsnprintf_chk@plt>:
  4010d0:	ff 25 7a bf 00 00    	jmp    *0xbf7a(%rip)        # 40d050 <__vsnprintf_chk@GLIBC_2.3.4>
  4010d6:	68 0a 00 00 00       	push   $0xa
  4010db:	e9 40 ff ff ff       	jmp    401020 <_init+0x20>

00000000004010e0 <__kmpc_single@plt>:
  4010e0:	ff 25 72 bf 00 00    	jmp    *0xbf72(%rip)        # 40d058 <__kmpc_single@VERSION>
  4010e6:	68 0b 00 00 00       	push   $0xb
  4010eb:	e9 30 ff ff ff       	jmp    401020 <_init+0x20>

00000000004010f0 <fputc@plt>:
  4010f0:	ff 25 6a bf 00 00    	jmp    *0xbf6a(%rip)        # 40d060 <fputc@GLIBC_2.2.5>
  4010f6:	68 0c 00 00 00       	push   $0xc
  4010fb:	e9 20 ff ff ff       	jmp    401020 <_init+0x20>

0000000000401100 <free@plt>:
  401100:	ff 25 62 bf 00 00    	jmp    *0xbf62(%rip)        # 40d068 <free@GLIBC_2.2.5>
  401106:	68 0d 00 00 00       	push   $0xd
  40110b:	e9 10 ff ff ff       	jmp    401020 <_init+0x20>

0000000000401110 <strlen@plt>:
  401110:	ff 25 5a bf 00 00    	jmp    *0xbf5a(%rip)        # 40d070 <strlen@GLIBC_2.2.5>
  401116:	68 0e 00 00 00       	push   $0xe
  40111b:	e9 00 ff ff ff       	jmp    401020 <_init+0x20>

0000000000401120 <__kmpc_fork_call@plt>:
  401120:	ff 25 52 bf 00 00    	jmp    *0xbf52(%rip)        # 40d078 <__kmpc_fork_call@VERSION>
  401126:	68 0f 00 00 00       	push   $0xf
  40112b:	e9 f0 fe ff ff       	jmp    401020 <_init+0x20>

0000000000401130 <strchr@plt>:
  401130:	ff 25 4a bf 00 00    	jmp    *0xbf4a(%rip)        # 40d080 <strchr@GLIBC_2.2.5>
  401136:	68 10 00 00 00       	push   $0x10
  40113b:	e9 e0 fe ff ff       	jmp    401020 <_init+0x20>

0000000000401140 <__kmpc_for_static_init_4@plt>:
  401140:	ff 25 42 bf 00 00    	jmp    *0xbf42(%rip)        # 40d088 <__kmpc_for_static_init_4@VERSION>
  401146:	68 11 00 00 00       	push   $0x11
  40114b:	e9 d0 fe ff ff       	jmp    401020 <_init+0x20>

0000000000401150 <setenv@plt>:
  401150:	ff 25 3a bf 00 00    	jmp    *0xbf3a(%rip)        # 40d090 <setenv@GLIBC_2.2.5>
  401156:	68 12 00 00 00       	push   $0x12
  40115b:	e9 c0 fe ff ff       	jmp    401020 <_init+0x20>

0000000000401160 <catopen@plt>:
  401160:	ff 25 32 bf 00 00    	jmp    *0xbf32(%rip)        # 40d098 <catopen@GLIBC_2.2.5>
  401166:	68 13 00 00 00       	push   $0x13
  40116b:	e9 b0 fe ff ff       	jmp    401020 <_init+0x20>

0000000000401170 <getenv@plt>:
  401170:	ff 25 2a bf 00 00    	jmp    *0xbf2a(%rip)        # 40d0a0 <getenv@GLIBC_2.2.5>
  401176:	68 14 00 00 00       	push   $0x14
  40117b:	e9 a0 fe ff ff       	jmp    401020 <_init+0x20>

0000000000401180 <__stack_chk_fail@plt>:
  401180:	ff 25 22 bf 00 00    	jmp    *0xbf22(%rip)        # 40d0a8 <__stack_chk_fail@GLIBC_2.4>
  401186:	68 15 00 00 00       	push   $0x15
  40118b:	e9 90 fe ff ff       	jmp    401020 <_init+0x20>

0000000000401190 <omp_get_num_threads@plt>:
  401190:	ff 25 1a bf 00 00    	jmp    *0xbf1a(%rip)        # 40d0b0 <omp_get_num_threads@VERSION>
  401196:	68 16 00 00 00       	push   $0x16
  40119b:	e9 80 fe ff ff       	jmp    401020 <_init+0x20>

00000000004011a0 <__kmpc_barrier@plt>:
  4011a0:	ff 25 12 bf 00 00    	jmp    *0xbf12(%rip)        # 40d0b8 <__kmpc_barrier@VERSION>
  4011a6:	68 17 00 00 00       	push   $0x17
  4011ab:	e9 70 fe ff ff       	jmp    401020 <_init+0x20>

00000000004011b0 <fclose@plt>:
  4011b0:	ff 25 0a bf 00 00    	jmp    *0xbf0a(%rip)        # 40d0c0 <fclose@GLIBC_2.2.5>
  4011b6:	68 18 00 00 00       	push   $0x18
  4011bb:	e9 60 fe ff ff       	jmp    401020 <_init+0x20>

00000000004011c0 <__kmpc_dispatch_next_4@plt>:
  4011c0:	ff 25 02 bf 00 00    	jmp    *0xbf02(%rip)        # 40d0c8 <__kmpc_dispatch_next_4@VERSION>
  4011c6:	68 19 00 00 00       	push   $0x19
  4011cb:	e9 50 fe ff ff       	jmp    401020 <_init+0x20>

00000000004011d0 <omp_get_wtime@plt>:
  4011d0:	ff 25 fa be 00 00    	jmp    *0xbefa(%rip)        # 40d0d0 <omp_get_wtime@VERSION>
  4011d6:	68 1a 00 00 00       	push   $0x1a
  4011db:	e9 40 fe ff ff       	jmp    401020 <_init+0x20>

00000000004011e0 <fprintf@plt>:
  4011e0:	ff 25 f2 be 00 00    	jmp    *0xbef2(%rip)        # 40d0d8 <fprintf@GLIBC_2.2.5>
  4011e6:	68 1b 00 00 00       	push   $0x1b
  4011eb:	e9 30 fe ff ff       	jmp    401020 <_init+0x20>

00000000004011f0 <__strncat_chk@plt>:
  4011f0:	ff 25 ea be 00 00    	jmp    *0xbeea(%rip)        # 40d0e0 <__strncat_chk@GLIBC_2.3.4>
  4011f6:	68 1c 00 00 00       	push   $0x1c
  4011fb:	e9 20 fe ff ff       	jmp    401020 <_init+0x20>

Disassembly of section .plt.got:

0000000000401200 <memset@plt>:
  401200:	ff 25 aa bd 00 00    	jmp    *0xbdaa(%rip)        # 40cfb0 <memset@GLIBC_2.2.5>
  401206:	66 90                	xchg   %ax,%ax

0000000000401208 <__cxa_finalize@plt>:
  401208:	ff 25 c2 bd 00 00    	jmp    *0xbdc2(%rip)        # 40cfd0 <__cxa_finalize@GLIBC_2.2.5>
  40120e:	66 90                	xchg   %ax,%ax

Disassembly of section .text:

0000000000401240 <_GLOBAL__sub_I_fast_mem_ops.c>:
  401240:	f3 0f 1e fa          	endbr64
  401244:	55                   	push   %rbp
  401245:	48 89 e5             	mov    %rsp,%rbp
  401248:	41 56                	push   %r14
  40124a:	53                   	push   %rbx
  40124b:	48 83 ec 20          	sub    $0x20,%rsp
  40124f:	83 3d 36 c7 00 00 00 	cmpl   $0x0,0xc736(%rip)        # 40d98c <_ZL18__libirc_cache_tbl+0xc>
  401256:	0f 84 05 01 00 00    	je     401361 <_GLOBAL__sub_I_fast_mem_ops.c+0x121>
  40125c:	83 3d 1d c7 00 00 00 	cmpl   $0x0,0xc71d(%rip)        # 40d980 <_ZL18__libirc_cache_tbl>
  401263:	0f 84 0a 01 00 00    	je     401373 <_GLOBAL__sub_I_fast_mem_ops.c+0x133>
  401269:	83 3d 14 c7 00 00 00 	cmpl   $0x0,0xc714(%rip)        # 40d984 <_ZL18__libirc_cache_tbl+0x4>
  401270:	0f 84 21 02 00 00    	je     401497 <_GLOBAL__sub_I_fast_mem_ops.c+0x257>
  401276:	53                   	push   %rbx
  401277:	b8 01 00 00 00       	mov    $0x1,%eax
  40127c:	0f a2                	cpuid
  40127e:	89 5d d0             	mov    %ebx,-0x30(%rbp)
  401281:	89 55 e0             	mov    %edx,-0x20(%rbp)
  401284:	89 45 ec             	mov    %eax,-0x14(%rbp)
  401287:	5b                   	pop    %rbx
  401288:	8b 45 e0             	mov    -0x20(%rbp),%eax
  40128b:	89 c1                	mov    %eax,%ecx
  40128d:	c1 e9 17             	shr    $0x17,%ecx
  401290:	83 e1 01             	and    $0x1,%ecx
  401293:	a9 00 00 00 04       	test   $0x4000000,%eax
  401298:	41 be 02 00 00 00    	mov    $0x2,%r14d
  40129e:	44 0f 44 f1          	cmove  %ecx,%r14d
  4012a2:	8b 05 e8 c6 00 00    	mov    0xc6e8(%rip),%eax        # 40d990 <_ZL18__libirc_cache_tbl+0x10>
  4012a8:	85 c0                	test   %eax,%eax
  4012aa:	0f 84 f8 01 00 00    	je     4014a8 <_GLOBAL__sub_I_fast_mem_ops.c+0x268>
  4012b0:	8b 0d f2 c6 00 00    	mov    0xc6f2(%rip),%ecx        # 40d9a8 <_ZL18__libirc_cache_tbl+0x28>
  4012b6:	0f af 0d e7 c6 00 00 	imul   0xc6e7(%rip),%ecx        # 40d9a4 <_ZL18__libirc_cache_tbl+0x24>
  4012bd:	8b 15 dd c6 00 00    	mov    0xc6dd(%rip),%edx        # 40d9a0 <_ZL18__libirc_cache_tbl+0x20>
  4012c3:	8b 35 cf c6 00 00    	mov    0xc6cf(%rip),%esi        # 40d998 <_ZL18__libirc_cache_tbl+0x18>
  4012c9:	0f af 35 c4 c6 00 00 	imul   0xc6c4(%rip),%esi        # 40d994 <_ZL18__libirc_cache_tbl+0x14>
  4012d0:	39 d0                	cmp    %edx,%eax
  4012d2:	0f 47 d0             	cmova  %eax,%edx
  4012d5:	0f 42 f1             	cmovb  %ecx,%esi
  4012d8:	8b 0d da c6 00 00    	mov    0xc6da(%rip),%ecx        # 40d9b8 <_ZL18__libirc_cache_tbl+0x38>
  4012de:	0f af 0d cf c6 00 00 	imul   0xc6cf(%rip),%ecx        # 40d9b4 <_ZL18__libirc_cache_tbl+0x34>
  4012e5:	8b 3d c5 c6 00 00    	mov    0xc6c5(%rip),%edi        # 40d9b0 <_ZL18__libirc_cache_tbl+0x30>
  4012eb:	39 fa                	cmp    %edi,%edx
  4012ed:	0f 43 ce             	cmovae %esi,%ecx
  4012f0:	0f 46 d7             	cmovbe %edi,%edx
  4012f3:	48 89 d6             	mov    %rdx,%rsi
  4012f6:	48 c1 e6 0a          	shl    $0xa,%rsi
  4012fa:	48 89 35 37 bf 00 00 	mov    %rsi,0xbf37(%rip)        # 40d238 <__libirc_largest_cache_size>
  401301:	48 c1 e2 09          	shl    $0x9,%rdx
  401305:	48 89 15 34 bf 00 00 	mov    %rdx,0xbf34(%rip)        # 40d240 <__libirc_largest_cache_size_half>
  40130c:	c1 e0 0a             	shl    $0xa,%eax
  40130f:	48 89 05 32 bf 00 00 	mov    %rax,0xbf32(%rip)        # 40d248 <__libirc_data_cache_size>
  401316:	48 89 c2             	mov    %rax,%rdx
  401319:	48 d1 ea             	shr    %rdx
  40131c:	48 89 15 2d bf 00 00 	mov    %rdx,0xbf2d(%rip)        # 40d250 <__libirc_data_cache_size_half>
  401323:	48 89 c2             	mov    %rax,%rdx
  401326:	48 c1 ea 02          	shr    $0x2,%rdx
  40132a:	48 89 15 27 bf 00 00 	mov    %rdx,0xbf27(%rip)        # 40d258 <__libirc_largest_cache_size_quoter>
  401331:	48 89 0d 90 c6 00 00 	mov    %rcx,0xc690(%rip)        # 40d9c8 <__libirc_largest_cachelinesize>
  401338:	48 c7 05 1d bf 00 00 	movq   $0x2000,0xbf1d(%rip)        # 40d260 <__libirc_copy_loop_threshold>
  40133f:	00 20 00 00 
  401343:	48 01 c0             	add    %rax,%rax
  401346:	48 8d 04 40          	lea    (%rax,%rax,2),%rax
  40134a:	48 89 05 17 bf 00 00 	mov    %rax,0xbf17(%rip)        # 40d268 <__libirc_rep_move_threshold>
  401351:	48 c7 05 14 bf 00 00 	movq   $0x800,0xbf14(%rip)        # 40d270 <__libirc_set_loop_threshold>
  401358:	00 08 00 00 
  40135c:	e9 5d 01 00 00       	jmp    4014be <_GLOBAL__sub_I_fast_mem_ops.c+0x27e>
  401361:	e8 9a 75 00 00       	call   408900 <_ZL23__libirc_init_cache_tblv>
  401366:	83 3d 13 c6 00 00 00 	cmpl   $0x0,0xc613(%rip)        # 40d980 <_ZL18__libirc_cache_tbl>
  40136d:	0f 85 f6 fe ff ff    	jne    401269 <_GLOBAL__sub_I_fast_mem_ops.c+0x29>
  401373:	c7 45 ec 00 00 00 00 	movl   $0x0,-0x14(%rbp)
  40137a:	48 8d 75 d0          	lea    -0x30(%rbp),%rsi
  40137e:	48 89 75 e0          	mov    %rsi,-0x20(%rbp)
  401382:	50                   	push   %rax
  401383:	53                   	push   %rbx
  401384:	51                   	push   %rcx
  401385:	52                   	push   %rdx
  401386:	4c 8b 45 e0          	mov    -0x20(%rbp),%r8
  40138a:	8b 45 ec             	mov    -0x14(%rbp),%eax
  40138d:	0f a2                	cpuid
  40138f:	41 89 00             	mov    %eax,(%r8)
  401392:	41 89 58 04          	mov    %ebx,0x4(%r8)
  401396:	41 89 48 08          	mov    %ecx,0x8(%r8)
  40139a:	41 89 50 0c          	mov    %edx,0xc(%r8)
  40139e:	5a                   	pop    %rdx
  40139f:	59                   	pop    %rcx
  4013a0:	5b                   	pop    %rbx
  4013a1:	58                   	pop    %rax
  4013a2:	45 31 f6             	xor    %r14d,%r14d
  4013a5:	81 7d d4 41 75 74 68 	cmpl   $0x68747541,-0x2c(%rbp)
  4013ac:	0f 85 0c 01 00 00    	jne    4014be <_GLOBAL__sub_I_fast_mem_ops.c+0x27e>
  4013b2:	81 7d dc 65 6e 74 69 	cmpl   $0x69746e65,-0x24(%rbp)
  4013b9:	0f 85 ff 00 00 00    	jne    4014be <_GLOBAL__sub_I_fast_mem_ops.c+0x27e>
  4013bf:	81 7d d8 63 41 4d 44 	cmpl   $0x444d4163,-0x28(%rbp)
  4013c6:	0f 85 f2 00 00 00    	jne    4014be <_GLOBAL__sub_I_fast_mem_ops.c+0x27e>
  4013cc:	c7 45 ec 01 00 00 00 	movl   $0x1,-0x14(%rbp)
  4013d3:	48 89 75 e0          	mov    %rsi,-0x20(%rbp)
  4013d7:	50                   	push   %rax
  4013d8:	53                   	push   %rbx
  4013d9:	51                   	push   %rcx
  4013da:	52                   	push   %rdx
  4013db:	4c 8b 45 e0          	mov    -0x20(%rbp),%r8
  4013df:	8b 45 ec             	mov    -0x14(%rbp),%eax
  4013e2:	0f a2                	cpuid
  4013e4:	41 89 00             	mov    %eax,(%r8)
  4013e7:	41 89 58 04          	mov    %ebx,0x4(%r8)
  4013eb:	41 89 48 08          	mov    %ecx,0x8(%r8)
  4013ef:	41 89 50 0c          	mov    %edx,0xc(%r8)
  4013f3:	5a                   	pop    %rdx
  4013f4:	59                   	pop    %rcx
  4013f5:	5b                   	pop    %rbx
  4013f6:	58                   	pop    %rax
  4013f7:	44 8b 75 dc          	mov    -0x24(%rbp),%r14d
  4013fb:	41 c1 ee 17          	shr    $0x17,%r14d
  4013ff:	41 83 e6 01          	and    $0x1,%r14d
  401403:	c7 45 ec 00 00 00 80 	movl   $0x80000000,-0x14(%rbp)
  40140a:	48 89 75 e0          	mov    %rsi,-0x20(%rbp)
  40140e:	50                   	push   %rax
  40140f:	53                   	push   %rbx
  401410:	51                   	push   %rcx
  401411:	52                   	push   %rdx
  401412:	4c 8b 45 e0          	mov    -0x20(%rbp),%r8
  401416:	8b 45 ec             	mov    -0x14(%rbp),%eax
  401419:	0f a2                	cpuid
  40141b:	41 89 00             	mov    %eax,(%r8)
  40141e:	41 89 58 04          	mov    %ebx,0x4(%r8)
  401422:	41 89 48 08          	mov    %ecx,0x8(%r8)
  401426:	41 89 50 0c          	mov    %edx,0xc(%r8)
  40142a:	5a                   	pop    %rdx
  40142b:	59                   	pop    %rcx
  40142c:	5b                   	pop    %rbx
  40142d:	58                   	pop    %rax
  40142e:	81 7d d0 06 00 00 80 	cmpl   $0x80000006,-0x30(%rbp)
  401435:	0f 82 83 00 00 00    	jb     4014be <_GLOBAL__sub_I_fast_mem_ops.c+0x27e>
  40143b:	c7 45 ec 06 00 00 80 	movl   $0x80000006,-0x14(%rbp)
  401442:	48 89 75 e0          	mov    %rsi,-0x20(%rbp)
  401446:	50                   	push   %rax
  401447:	53                   	push   %rbx
  401448:	51                   	push   %rcx
  401449:	52                   	push   %rdx
  40144a:	4c 8b 45 e0          	mov    -0x20(%rbp),%r8
  40144e:	8b 45 ec             	mov    -0x14(%rbp),%eax
  401451:	0f a2                	cpuid
  401453:	41 89 00             	mov    %eax,(%r8)
  401456:	41 89 58 04          	mov    %ebx,0x4(%r8)
  40145a:	41 89 48 08          	mov    %ecx,0x8(%r8)
  40145e:	41 89 50 0c          	mov    %edx,0xc(%r8)
  401462:	5a                   	pop    %rdx
  401463:	59                   	pop    %rcx
  401464:	5b                   	pop    %rbx
  401465:	58                   	pop    %rax
  401466:	8b 45 d8             	mov    -0x28(%rbp),%eax
  401469:	48 c1 e8 06          	shr    $0x6,%rax
  40146d:	25 00 fc ff 03       	and    $0x3fffc00,%eax
  401472:	48 89 05 bf bd 00 00 	mov    %rax,0xbdbf(%rip)        # 40d238 <__libirc_largest_cache_size>
  401479:	48 d1 e8             	shr    %rax
  40147c:	48 89 05 bd bd 00 00 	mov    %rax,0xbdbd(%rip)        # 40d240 <__libirc_largest_cache_size_half>
  401483:	48 8b 05 be bd 00 00 	mov    0xbdbe(%rip),%rax        # 40d248 <__libirc_data_cache_size>
  40148a:	48 c1 e8 02          	shr    $0x2,%rax
  40148e:	48 89 05 c3 bd 00 00 	mov    %rax,0xbdc3(%rip)        # 40d258 <__libirc_largest_cache_size_quoter>
  401495:	eb 27                	jmp    4014be <_GLOBAL__sub_I_fast_mem_ops.c+0x27e>
  401497:	45 31 f6             	xor    %r14d,%r14d
  40149a:	8b 05 f0 c4 00 00    	mov    0xc4f0(%rip),%eax        # 40d990 <_ZL18__libirc_cache_tbl+0x10>
  4014a0:	85 c0                	test   %eax,%eax
  4014a2:	0f 85 08 fe ff ff    	jne    4012b0 <_GLOBAL__sub_I_fast_mem_ops.c+0x70>
  4014a8:	48 8d 3d 01 98 00 00 	lea    0x9801(%rip),%rdi        # 40acb0 <_ZL16cpuid2_cache_tbl+0x800>
  4014af:	e8 bc fc ff ff       	call   401170 <getenv@plt>
  4014b4:	48 85 c0             	test   %rax,%rax
  4014b7:	74 05                	je     4014be <_GLOBAL__sub_I_fast_mem_ops.c+0x27e>
  4014b9:	80 38 00             	cmpb   $0x0,(%rax)
  4014bc:	75 17                	jne    4014d5 <_GLOBAL__sub_I_fast_mem_ops.c+0x295>
  4014be:	44 89 35 fb c4 00 00 	mov    %r14d,0xc4fb(%rip)        # 40d9c0 <__libirc_mem_ops_method>
  4014c5:	44 89 35 04 c5 00 00 	mov    %r14d,0xc504(%rip)        # 40d9d0 <_ZL12__libirc_tmp>
  4014cc:	48 83 c4 20          	add    $0x20,%rsp
  4014d0:	5b                   	pop    %rbx
  4014d1:	41 5e                	pop    %r14
  4014d3:	5d                   	pop    %rbp
  4014d4:	c3                   	ret
  4014d5:	bf 01 00 00 00       	mov    $0x1,%edi
  4014da:	31 f6                	xor    %esi,%esi
  4014dc:	31 d2                	xor    %edx,%edx
  4014de:	31 c0                	xor    %eax,%eax
  4014e0:	e8 4b 7d 00 00       	call   409230 <__libirc_print>
  4014e5:	bf 01 00 00 00       	mov    $0x1,%edi
  4014ea:	be 3d 00 00 00       	mov    $0x3d,%esi
  4014ef:	31 d2                	xor    %edx,%edx
  4014f1:	31 c0                	xor    %eax,%eax
  4014f3:	e8 38 7d 00 00       	call   409230 <__libirc_print>
  4014f8:	bf 01 00 00 00       	mov    $0x1,%edi
  4014fd:	31 f6                	xor    %esi,%esi
  4014ff:	31 d2                	xor    %edx,%edx
  401501:	31 c0                	xor    %eax,%eax
  401503:	e8 28 7d 00 00       	call   409230 <__libirc_print>
  401508:	bf 01 00 00 00       	mov    $0x1,%edi
  40150d:	e8 5e fb ff ff       	call   401070 <exit@plt>
  401512:	66 2e 0f 1f 84 00 00 	cs nopw 0x0(%rax,%rax,1)
  401519:	00 00 00 
  40151c:	0f 1f 40 00          	nopl   0x0(%rax)

0000000000401520 <_start>:
  401520:	31 ed                	xor    %ebp,%ebp
  401522:	49 89 d1             	mov    %rdx,%r9
  401525:	5e                   	pop    %rsi
  401526:	48 89 e2             	mov    %rsp,%rdx
  401529:	48 83 e4 f0          	and    $0xfffffffffffffff0,%rsp
  40152d:	50                   	push   %rax
  40152e:	54                   	push   %rsp
  40152f:	45 31 c0             	xor    %r8d,%r8d
  401532:	31 c9                	xor    %ecx,%ecx
  401534:	48 c7 c7 10 16 40 00 	mov    $0x401610,%rdi
  40153b:	ff 15 9f ba 00 00    	call   *0xba9f(%rip)        # 40cfe0 <__libc_start_main@GLIBC_2.34>
  401541:	f4                   	hlt
  401542:	66 2e 0f 1f 84 00 00 	cs nopw 0x0(%rax,%rax,1)
  401549:	00 00 00 
  40154c:	0f 1f 40 00          	nopl   0x0(%rax)

0000000000401550 <deregister_tm_clones>:
  401550:	48 8d 3d 21 bd 00 00 	lea    0xbd21(%rip),%rdi        # 40d278 <__TMC_END__>
  401557:	48 8d 05 1a bd 00 00 	lea    0xbd1a(%rip),%rax        # 40d278 <__TMC_END__>
  40155e:	48 39 f8             	cmp    %rdi,%rax
  401561:	74 15                	je     401578 <deregister_tm_clones+0x28>
  401563:	48 8b 05 56 ba 00 00 	mov    0xba56(%rip),%rax        # 40cfc0 <_ITM_deregisterTMCloneTable@Base>
  40156a:	48 85 c0             	test   %rax,%rax
  40156d:	74 09                	je     401578 <deregister_tm_clones+0x28>
  40156f:	ff e0                	jmp    *%rax
  401571:	0f 1f 80 00 00 00 00 	nopl   0x0(%rax)
  401578:	c3                   	ret
  401579:	0f 1f 80 00 00 00 00 	nopl   0x0(%rax)

0000000000401580 <register_tm_clones>:
  401580:	48 8d 3d f1 bc 00 00 	lea    0xbcf1(%rip),%rdi        # 40d278 <__TMC_END__>
  401587:	48 8d 35 ea bc 00 00 	lea    0xbcea(%rip),%rsi        # 40d278 <__TMC_END__>
  40158e:	48 29 fe             	sub    %rdi,%rsi
  401591:	48 89 f0             	mov    %rsi,%rax
  401594:	48 c1 ee 3f          	shr    $0x3f,%rsi
  401598:	48 c1 f8 03          	sar    $0x3,%rax
  40159c:	48 01 c6             	add    %rax,%rsi
  40159f:	48 d1 fe             	sar    %rsi
  4015a2:	74 14                	je     4015b8 <register_tm_clones+0x38>
  4015a4:	48 8b 05 1d ba 00 00 	mov    0xba1d(%rip),%rax        # 40cfc8 <_ITM_registerTMCloneTable@Base>
  4015ab:	48 85 c0             	test   %rax,%rax
  4015ae:	74 08                	je     4015b8 <register_tm_clones+0x38>
  4015b0:	ff e0                	jmp    *%rax
  4015b2:	66 0f 1f 44 00 00    	nopw   0x0(%rax,%rax,1)
  4015b8:	c3                   	ret
  4015b9:	0f 1f 80 00 00 00 00 	nopl   0x0(%rax)

00000000004015c0 <__do_global_dtors_aux>:
  4015c0:	f3 0f 1e fa          	endbr64
  4015c4:	80 3d bd bc 00 00 00 	cmpb   $0x0,0xbcbd(%rip)        # 40d288 <completed.0>
  4015cb:	75 2b                	jne    4015f8 <__do_global_dtors_aux+0x38>
  4015cd:	55                   	push   %rbp
  4015ce:	48 83 3d fa b9 00 00 	cmpq   $0x0,0xb9fa(%rip)        # 40cfd0 <__cxa_finalize@GLIBC_2.2.5>
  4015d5:	00 
  4015d6:	48 89 e5             	mov    %rsp,%rbp
  4015d9:	74 0c                	je     4015e7 <__do_global_dtors_aux+0x27>
  4015db:	48 8b 3d 16 bb 00 00 	mov    0xbb16(%rip),%rdi        # 40d0f8 <__dso_handle>
  4015e2:	e8 21 fc ff ff       	call   401208 <__cxa_finalize@plt>
  4015e7:	e8 64 ff ff ff       	call   401550 <deregister_tm_clones>
  4015ec:	c6 05 95 bc 00 00 01 	movb   $0x1,0xbc95(%rip)        # 40d288 <completed.0>
  4015f3:	5d                   	pop    %rbp
  4015f4:	c3                   	ret
  4015f5:	0f 1f 00             	nopl   (%rax)
  4015f8:	c3                   	ret
  4015f9:	0f 1f 80 00 00 00 00 	nopl   0x0(%rax)

0000000000401600 <frame_dummy>:
  401600:	f3 0f 1e fa          	endbr64
  401604:	e9 77 ff ff ff       	jmp    401580 <register_tm_clones>
  401609:	0f 1f 80 00 00 00 00 	nopl   0x0(%rax)

0000000000401610 <main>:
  401610:	41 57                	push   %r15
  401612:	41 56                	push   %r14
  401614:	53                   	push   %rbx
  401615:	48 83 ec 70          	sub    $0x70,%rsp
  401619:	48 be ee 9f 9d 10 00 	movabs $0x100000109d9fee,%rsi
  401620:	00 10 00 
  401623:	bf 03 00 00 00       	mov    $0x3,%edi
  401628:	e8 73 1d 00 00       	call   4033a0 <__intel_new_feature_proc_init>
  40162d:	48 c7 44 24 60 00 00 	movq   $0x0,0x60(%rsp)
  401634:	00 00 
  401636:	48 c7 44 24 58 00 00 	movq   $0x0,0x58(%rsp)
  40163d:	00 00 
  40163f:	48 c7 44 24 38 00 00 	movq   $0x0,0x38(%rsp)
  401646:	00 00 
  401648:	48 8d 7c 24 60       	lea    0x60(%rsp),%rdi
  40164d:	be 40 00 00 00       	mov    $0x40,%esi
  401652:	ba 00 00 00 20       	mov    $0x20000000,%edx
  401657:	e8 e4 f9 ff ff       	call   401040 <posix_memalign@plt>
  40165c:	85 c0                	test   %eax,%eax
  40165e:	75 33                	jne    401693 <main+0x83>
  401660:	48 8d 7c 24 58       	lea    0x58(%rsp),%rdi
  401665:	be 40 00 00 00       	mov    $0x40,%esi
  40166a:	ba 00 00 00 20       	mov    $0x20000000,%edx
  40166f:	e8 cc f9 ff ff       	call   401040 <posix_memalign@plt>
  401674:	85 c0                	test   %eax,%eax
  401676:	75 1b                	jne    401693 <main+0x83>
  401678:	48 8d 5c 24 38       	lea    0x38(%rsp),%rbx
  40167d:	be 40 00 00 00       	mov    $0x40,%esi
  401682:	ba 00 00 00 20       	mov    $0x20000000,%edx
  401687:	48 89 df             	mov    %rbx,%rdi
  40168a:	e8 b1 f9 ff ff       	call   401040 <posix_memalign@plt>
  40168f:	85 c0                	test   %eax,%eax
  401691:	74 2d                	je     4016c0 <main+0xb0>
  401693:	48 8b 7c 24 60       	mov    0x60(%rsp),%rdi
  401698:	e8 63 fa ff ff       	call   401100 <free@plt>
  40169d:	48 8b 7c 24 58       	mov    0x58(%rsp),%rdi
  4016a2:	e8 59 fa ff ff       	call   401100 <free@plt>
  4016a7:	48 8b 7c 24 38       	mov    0x38(%rsp),%rdi
  4016ac:	e8 4f fa ff ff       	call   401100 <free@plt>
  4016b1:	b8 01 00 00 00       	mov    $0x1,%eax
  4016b6:	48 83 c4 70          	add    $0x70,%rsp
  4016ba:	5b                   	pop    %rbx
  4016bb:	41 5e                	pop    %r14
  4016bd:	41 5f                	pop    %r15
  4016bf:	c3                   	ret
  4016c0:	48 8b 7c 24 60       	mov    0x60(%rsp),%rdi
  4016c5:	48 85 ff             	test   %rdi,%rdi
  4016c8:	74 ce                	je     401698 <main+0x88>
  4016ca:	48 83 7c 24 58 00    	cmpq   $0x0,0x58(%rsp)
  4016d0:	74 c6                	je     401698 <main+0x88>
  4016d2:	48 83 7c 24 38 00    	cmpq   $0x0,0x38(%rsp)
  4016d8:	74 be                	je     401698 <main+0x88>
  4016da:	c5 fc 10 05 3e 89 00 	vmovups 0x893e(%rip),%ymm0        # 40a020 <_IO_stdin_used+0x20>
  4016e1:	00 
  4016e2:	c5 fc 11 44 24 08    	vmovups %ymm0,0x8(%rsp)
  4016e8:	48 89 1c 24          	mov    %rbx,(%rsp)
  4016ec:	48 c7 44 24 28 ff 1f 	movq   $0x1fff,0x28(%rsp)
  4016f3:	00 00 
  4016f5:	4c 8d 74 24 60       	lea    0x60(%rsp),%r14
  4016fa:	4c 8d 7c 24 58       	lea    0x58(%rsp),%r15
  4016ff:	bf 20 d2 40 00       	mov    $0x40d220,%edi
  401704:	ba 10 2e 40 00       	mov    $0x402e10,%edx
  401709:	b9 00 20 00 00       	mov    $0x2000,%ecx
  40170e:	be 09 00 00 00       	mov    $0x9,%esi
  401713:	4d 89 f0             	mov    %r14,%r8
  401716:	4d 89 f9             	mov    %r15,%r9
  401719:	31 c0                	xor    %eax,%eax
  40171b:	c5 f8 77             	vzeroupper
  40171e:	e8 fd f9 ff ff       	call   401120 <__kmpc_fork_call@plt>
  401723:	e8 a8 fa ff ff       	call   4011d0 <omp_get_wtime@plt>
  401728:	c5 fb 11 44 24 40    	vmovsd %xmm0,0x40(%rsp)
  40172e:	c5 fc 10 05 ea 88 00 	vmovups 0x88ea(%rip),%ymm0        # 40a020 <_IO_stdin_used+0x20>
  401735:	00 
  401736:	c5 fc 11 44 24 08    	vmovups %ymm0,0x8(%rsp)
  40173c:	48 89 1c 24          	mov    %rbx,(%rsp)
  401740:	48 c7 44 24 28 ff 1f 	movq   $0x1fff,0x28(%rsp)
  401747:	00 00 
  401749:	bf c0 d1 40 00       	mov    $0x40d1c0,%edi
  40174e:	ba c0 2b 40 00       	mov    $0x402bc0,%edx
  401753:	b9 00 20 00 00       	mov    $0x2000,%ecx
  401758:	be 09 00 00 00       	mov    $0x9,%esi
  40175d:	4d 89 f0             	mov    %r14,%r8
  401760:	4d 89 f9             	mov    %r15,%r9
  401763:	31 c0                	xor    %eax,%eax
  401765:	c5 f8 77             	vzeroupper
  401768:	e8 b3 f9 ff ff       	call   401120 <__kmpc_fork_call@plt>
  40176d:	e8 5e fa ff ff       	call   4011d0 <omp_get_wtime@plt>
  401772:	c5 fb 11 44 24 48    	vmovsd %xmm0,0x48(%rsp)
  401778:	c7 44 24 6c 01 00 00 	movl   $0x1,0x6c(%rsp)
  40177f:	00 
  401780:	48 8d 4c 24 6c       	lea    0x6c(%rsp),%rcx
  401785:	bf 60 d1 40 00       	mov    $0x40d160,%edi
  40178a:	ba 70 2b 40 00       	mov    $0x402b70,%edx
  40178f:	be 01 00 00 00       	mov    $0x1,%esi
  401794:	31 c0                	xor    %eax,%eax
  401796:	e8 85 f9 ff ff       	call   401120 <__kmpc_fork_call@plt>
  40179b:	48 8b 3d de ba 00 00 	mov    0xbade(%rip),%rdi        # 40d280 <stderr@GLIBC_2.2.5>
  4017a2:	8b 4c 24 6c          	mov    0x6c(%rsp),%ecx
  4017a6:	c5 fb 10 44 24 48    	vmovsd 0x48(%rsp),%xmm0
  4017ac:	c5 fb 5c 44 24 40    	vsubsd 0x40(%rsp),%xmm0,%xmm0
  4017b2:	be 50 a0 40 00       	mov    $0x40a050,%esi
  4017b7:	ba 00 20 00 00       	mov    $0x2000,%edx
  4017bc:	b0 01                	mov    $0x1,%al
  4017be:	e8 1d fa ff ff       	call   4011e0 <fprintf@plt>
  4017c3:	bf 72 a0 40 00       	mov    $0x40a072,%edi
  4017c8:	be 44 a2 40 00       	mov    $0x40a244,%esi
  4017cd:	e8 de f8 ff ff       	call   4010b0 <fopen@plt>
  4017d2:	48 85 c0             	test   %rax,%rax
  4017d5:	0f 84 64 13 00 00    	je     402b3f <main+0x152f>
  4017db:	be 7e a0 40 00       	mov    $0x40a07e,%esi
  4017e0:	48 89 c3             	mov    %rax,%rbx
  4017e3:	48 89 c7             	mov    %rax,%rdi
  4017e6:	ba 00 20 00 00       	mov    $0x2000,%edx
  4017eb:	31 c0                	xor    %eax,%eax
  4017ed:	e8 ee f9 ff ff       	call   4011e0 <fprintf@plt>
  4017f2:	48 8b 44 24 38       	mov    0x38(%rsp),%rax
  4017f7:	c5 fb 10 00          	vmovsd (%rax),%xmm0
  4017fb:	be 84 a0 40 00       	mov    $0x40a084,%esi
  401800:	48 89 df             	mov    %rbx,%rdi
  401803:	b0 01                	mov    $0x1,%al
  401805:	e8 d6 f9 ff ff       	call   4011e0 <fprintf@plt>
  40180a:	48 8b 44 24 38       	mov    0x38(%rsp),%rax
  40180f:	c5 fb 10 00          	vmovsd (%rax),%xmm0
  401813:	c5 fb 11 44 24 40    	vmovsd %xmm0,0x40(%rsp)
  401819:	c5 fb 10 40 08       	vmovsd 0x8(%rax),%xmm0
  40181e:	be 84 a0 40 00       	mov    $0x40a084,%esi
  401823:	48 89 df             	mov    %rbx,%rdi
  401826:	b0 01                	mov    $0x1,%al
  401828:	e8 b3 f9 ff ff       	call   4011e0 <fprintf@plt>
  40182d:	48 8b 44 24 38       	mov    0x38(%rsp),%rax
  401832:	c5 fb 10 40 08       	vmovsd 0x8(%rax),%xmm0
  401837:	c5 fb 58 44 24 40    	vaddsd 0x40(%rsp),%xmm0,%xmm0
  40183d:	c5 fb 11 44 24 40    	vmovsd %xmm0,0x40(%rsp)
  401843:	c5 fb 10 40 10       	vmovsd 0x10(%rax),%xmm0
  401848:	be 84 a0 40 00       	mov    $0x40a084,%esi
  40184d:	48 89 df             	mov    %rbx,%rdi
  401850:	b0 01                	mov    $0x1,%al
  401852:	e8 89 f9 ff ff       	call   4011e0 <fprintf@plt>
  401857:	48 8b 44 24 38       	mov    0x38(%rsp),%rax
  40185c:	c5 fb 10 40 10       	vmovsd 0x10(%rax),%xmm0
  401861:	c5 fb 11 44 24 48    	vmovsd %xmm0,0x48(%rsp)
  401867:	c5 fb 10 40 18       	vmovsd 0x18(%rax),%xmm0
  40186c:	be 84 a0 40 00       	mov    $0x40a084,%esi
  401871:	48 89 df             	mov    %rbx,%rdi
  401874:	b0 01                	mov    $0x1,%al
  401876:	e8 65 f9 ff ff       	call   4011e0 <fprintf@plt>
  40187b:	48 8b 44 24 38       	mov    0x38(%rsp),%rax
  401880:	c5 fb 10 40 18       	vmovsd 0x18(%rax),%xmm0
  401885:	c5 fb 58 44 24 48    	vaddsd 0x48(%rsp),%xmm0,%xmm0
  40188b:	c5 fb 58 44 24 40    	vaddsd 0x40(%rsp),%xmm0,%xmm0
  401891:	c5 fb 11 44 24 40    	vmovsd %xmm0,0x40(%rsp)
  401897:	c5 fb 10 40 20       	vmovsd 0x20(%rax),%xmm0
  40189c:	be 84 a0 40 00       	mov    $0x40a084,%esi
  4018a1:	48 89 df             	mov    %rbx,%rdi
  4018a4:	b0 01                	mov    $0x1,%al
  4018a6:	e8 35 f9 ff ff       	call   4011e0 <fprintf@plt>
  4018ab:	48 8b 44 24 38       	mov    0x38(%rsp),%rax
  4018b0:	c5 fb 10 40 20       	vmovsd 0x20(%rax),%xmm0
  4018b5:	c5 fb 11 44 24 48    	vmovsd %xmm0,0x48(%rsp)
  4018bb:	c5 fb 10 40 28       	vmovsd 0x28(%rax),%xmm0
  4018c0:	be 84 a0 40 00       	mov    $0x40a084,%esi
  4018c5:	48 89 df             	mov    %rbx,%rdi
  4018c8:	b0 01                	mov    $0x1,%al
  4018ca:	e8 11 f9 ff ff       	call   4011e0 <fprintf@plt>
  4018cf:	48 8b 44 24 38       	mov    0x38(%rsp),%rax
  4018d4:	c5 fb 10 40 28       	vmovsd 0x28(%rax),%xmm0
  4018d9:	c5 fb 58 44 24 48    	vaddsd 0x48(%rsp),%xmm0,%xmm0
  4018df:	c5 fb 11 44 24 48    	vmovsd %xmm0,0x48(%rsp)
  4018e5:	c5 fb 10 40 30       	vmovsd 0x30(%rax),%xmm0
  4018ea:	be 84 a0 40 00       	mov    $0x40a084,%esi
  4018ef:	48 89 df             	mov    %rbx,%rdi
  4018f2:	b0 01                	mov    $0x1,%al
  4018f4:	e8 e7 f8 ff ff       	call   4011e0 <fprintf@plt>
  4018f9:	48 8b 44 24 38       	mov    0x38(%rsp),%rax
  4018fe:	c5 fb 10 40 30       	vmovsd 0x30(%rax),%xmm0
  401903:	c5 fb 11 44 24 50    	vmovsd %xmm0,0x50(%rsp)
  401909:	c5 fb 10 40 38       	vmovsd 0x38(%rax),%xmm0
  40190e:	be 84 a0 40 00       	mov    $0x40a084,%esi
  401913:	48 89 df             	mov    %rbx,%rdi
  401916:	b0 01                	mov    $0x1,%al
  401918:	e8 c3 f8 ff ff       	call   4011e0 <fprintf@plt>
  40191d:	48 8b 44 24 38       	mov    0x38(%rsp),%rax
  401922:	c5 fb 10 44 24 50    	vmovsd 0x50(%rsp),%xmm0
  401928:	c5 fb 58 40 38       	vaddsd 0x38(%rax),%xmm0,%xmm0
  40192d:	c5 fb 58 44 24 48    	vaddsd 0x48(%rsp),%xmm0,%xmm0
  401933:	c5 fb 58 44 24 40    	vaddsd 0x40(%rsp),%xmm0,%xmm0
  401939:	c5 fb 11 44 24 40    	vmovsd %xmm0,0x40(%rsp)
  40193f:	c5 fb 10 40 40       	vmovsd 0x40(%rax),%xmm0
  401944:	be 84 a0 40 00       	mov    $0x40a084,%esi
  401949:	48 89 df             	mov    %rbx,%rdi
  40194c:	b0 01                	mov    $0x1,%al
  40194e:	e8 8d f8 ff ff       	call   4011e0 <fprintf@plt>
  401953:	48 8b 44 24 38       	mov    0x38(%rsp),%rax
  401958:	c5 fb 10 40 40       	vmovsd 0x40(%rax),%xmm0
  40195d:	c5 fb 58 44 24 40    	vaddsd 0x40(%rsp),%xmm0,%xmm0
  401963:	c5 fb 11 44 24 40    	vmovsd %xmm0,0x40(%rsp)
  401969:	c5 fb 10 40 48       	vmovsd 0x48(%rax),%xmm0
  40196e:	be 84 a0 40 00       	mov    $0x40a084,%esi
  401973:	48 89 df             	mov    %rbx,%rdi
  401976:	b0 01                	mov    $0x1,%al
  401978:	e8 63 f8 ff ff       	call   4011e0 <fprintf@plt>
  40197d:	48 8b 44 24 38       	mov    0x38(%rsp),%rax
  401982:	c5 fb 10 40 48       	vmovsd 0x48(%rax),%xmm0
  401987:	c5 fb 11 44 24 48    	vmovsd %xmm0,0x48(%rsp)
  40198d:	bf 0a 00 00 00       	mov    $0xa,%edi
  401992:	48 89 de             	mov    %rbx,%rsi
  401995:	e8 56 f7 ff ff       	call   4010f0 <fputc@plt>
  40199a:	48 8b 44 24 38       	mov    0x38(%rsp),%rax
  40199f:	c5 fb 10 80 00 00 01 	vmovsd 0x10000(%rax),%xmm0
  4019a6:	00 
  4019a7:	be 84 a0 40 00       	mov    $0x40a084,%esi
  4019ac:	48 89 df             	mov    %rbx,%rdi
  4019af:	b0 01                	mov    $0x1,%al
  4019b1:	e8 2a f8 ff ff       	call   4011e0 <fprintf@plt>
  4019b6:	48 8b 44 24 38       	mov    0x38(%rsp),%rax
  4019bb:	c5 fb 10 80 00 00 01 	vmovsd 0x10000(%rax),%xmm0
  4019c2:	00 
  4019c3:	c5 fb 58 44 24 48    	vaddsd 0x48(%rsp),%xmm0,%xmm0
  4019c9:	c5 fb 58 44 24 40    	vaddsd 0x40(%rsp),%xmm0,%xmm0
  4019cf:	c5 fb 11 44 24 40    	vmovsd %xmm0,0x40(%rsp)
  4019d5:	c5 fb 10 80 08 00 01 	vmovsd 0x10008(%rax),%xmm0
  4019dc:	00 
  4019dd:	be 84 a0 40 00       	mov    $0x40a084,%esi
  4019e2:	48 89 df             	mov    %rbx,%rdi
  4019e5:	b0 01                	mov    $0x1,%al
  4019e7:	e8 f4 f7 ff ff       	call   4011e0 <fprintf@plt>
  4019ec:	48 8b 44 24 38       	mov    0x38(%rsp),%rax
  4019f1:	c5 fb 10 80 08 00 01 	vmovsd 0x10008(%rax),%xmm0
  4019f8:	00 
  4019f9:	c5 fb 11 44 24 48    	vmovsd %xmm0,0x48(%rsp)
  4019ff:	c5 fb 10 80 10 00 01 	vmovsd 0x10010(%rax),%xmm0
  401a06:	00 
  401a07:	be 84 a0 40 00       	mov    $0x40a084,%esi
  401a0c:	48 89 df             	mov    %rbx,%rdi
  401a0f:	b0 01                	mov    $0x1,%al
  401a11:	e8 ca f7 ff ff       	call   4011e0 <fprintf@plt>
  401a16:	48 8b 44 24 38       	mov    0x38(%rsp),%rax
  401a1b:	c5 fb 10 80 10 00 01 	vmovsd 0x10010(%rax),%xmm0
  401a22:	00 
  401a23:	c5 fb 58 44 24 48    	vaddsd 0x48(%rsp),%xmm0,%xmm0
  401a29:	c5 fb 11 44 24 48    	vmovsd %xmm0,0x48(%rsp)
  401a2f:	c5 fb 10 80 18 00 01 	vmovsd 0x10018(%rax),%xmm0
  401a36:	00 
  401a37:	be 84 a0 40 00       	mov    $0x40a084,%esi
  401a3c:	48 89 df             	mov    %rbx,%rdi
  401a3f:	b0 01                	mov    $0x1,%al
  401a41:	e8 9a f7 ff ff       	call   4011e0 <fprintf@plt>
  401a46:	48 8b 44 24 38       	mov    0x38(%rsp),%rax
  401a4b:	c5 fb 10 80 18 00 01 	vmovsd 0x10018(%rax),%xmm0
  401a52:	00 
  401a53:	c5 fb 11 44 24 50    	vmovsd %xmm0,0x50(%rsp)
  401a59:	c5 fb 10 80 20 00 01 	vmovsd 0x10020(%rax),%xmm0
  401a60:	00 
  401a61:	be 84 a0 40 00       	mov    $0x40a084,%esi
  401a66:	48 89 df             	mov    %rbx,%rdi
  401a69:	b0 01                	mov    $0x1,%al
  401a6b:	e8 70 f7 ff ff       	call   4011e0 <fprintf@plt>
  401a70:	48 8b 44 24 38       	mov    0x38(%rsp),%rax
  401a75:	c5 fb 10 44 24 50    	vmovsd 0x50(%rsp),%xmm0
  401a7b:	c5 fb 58 80 20 00 01 	vaddsd 0x10020(%rax),%xmm0,%xmm0
  401a82:	00 
  401a83:	c5 fb 58 44 24 48    	vaddsd 0x48(%rsp),%xmm0,%xmm0
  401a89:	c5 fb 58 44 24 40    	vaddsd 0x40(%rsp),%xmm0,%xmm0
  401a8f:	c5 fb 11 44 24 40    	vmovsd %xmm0,0x40(%rsp)
  401a95:	c5 fb 10 80 28 00 01 	vmovsd 0x10028(%rax),%xmm0
  401a9c:	00 
  401a9d:	be 84 a0 40 00       	mov    $0x40a084,%esi
  401aa2:	48 89 df             	mov    %rbx,%rdi
  401aa5:	b0 01                	mov    $0x1,%al
  401aa7:	e8 34 f7 ff ff       	call   4011e0 <fprintf@plt>
  401aac:	48 8b 44 24 38       	mov    0x38(%rsp),%rax
  401ab1:	c5 fb 10 80 28 00 01 	vmovsd 0x10028(%rax),%xmm0
  401ab8:	00 
  401ab9:	c5 fb 58 44 24 40    	vaddsd 0x40(%rsp),%xmm0,%xmm0
  401abf:	c5 fb 11 44 24 40    	vmovsd %xmm0,0x40(%rsp)
  401ac5:	c5 fb 10 80 30 00 01 	vmovsd 0x10030(%rax),%xmm0
  401acc:	00 
  401acd:	be 84 a0 40 00       	mov    $0x40a084,%esi
  401ad2:	48 89 df             	mov    %rbx,%rdi
  401ad5:	b0 01                	mov    $0x1,%al
  401ad7:	e8 04 f7 ff ff       	call   4011e0 <fprintf@plt>
  401adc:	48 8b 44 24 38       	mov    0x38(%rsp),%rax
  401ae1:	c5 fb 10 80 30 00 01 	vmovsd 0x10030(%rax),%xmm0
  401ae8:	00 
  401ae9:	c5 fb 11 44 24 48    	vmovsd %xmm0,0x48(%rsp)
  401aef:	c5 fb 10 80 38 00 01 	vmovsd 0x10038(%rax),%xmm0
  401af6:	00 
  401af7:	be 84 a0 40 00       	mov    $0x40a084,%esi
  401afc:	48 89 df             	mov    %rbx,%rdi
  401aff:	b0 01                	mov    $0x1,%al
  401b01:	e8 da f6 ff ff       	call   4011e0 <fprintf@plt>
  401b06:	48 8b 44 24 38       	mov    0x38(%rsp),%rax
  401b0b:	c5 fb 10 80 38 00 01 	vmovsd 0x10038(%rax),%xmm0
  401b12:	00 
  401b13:	c5 fb 58 44 24 48    	vaddsd 0x48(%rsp),%xmm0,%xmm0
  401b19:	c5 fb 58 44 24 40    	vaddsd 0x40(%rsp),%xmm0,%xmm0
  401b1f:	c5 fb 11 44 24 40    	vmovsd %xmm0,0x40(%rsp)
  401b25:	c5 fb 10 80 40 00 01 	vmovsd 0x10040(%rax),%xmm0
  401b2c:	00 
  401b2d:	be 84 a0 40 00       	mov    $0x40a084,%esi
  401b32:	48 89 df             	mov    %rbx,%rdi
  401b35:	b0 01                	mov    $0x1,%al
  401b37:	e8 a4 f6 ff ff       	call   4011e0 <fprintf@plt>
  401b3c:	48 8b 44 24 38       	mov    0x38(%rsp),%rax
  401b41:	c5 fb 10 80 40 00 01 	vmovsd 0x10040(%rax),%xmm0
  401b48:	00 
  401b49:	c5 fb 11 44 24 48    	vmovsd %xmm0,0x48(%rsp)
  401b4f:	c5 fb 10 80 48 00 01 	vmovsd 0x10048(%rax),%xmm0
  401b56:	00 
  401b57:	be 84 a0 40 00       	mov    $0x40a084,%esi
  401b5c:	48 89 df             	mov    %rbx,%rdi
  401b5f:	b0 01                	mov    $0x1,%al
  401b61:	e8 7a f6 ff ff       	call   4011e0 <fprintf@plt>
  401b66:	48 8b 44 24 38       	mov    0x38(%rsp),%rax
  401b6b:	c5 fb 10 80 48 00 01 	vmovsd 0x10048(%rax),%xmm0
  401b72:	00 
  401b73:	c5 fb 58 44 24 48    	vaddsd 0x48(%rsp),%xmm0,%xmm0
  401b79:	c5 fb 11 44 24 48    	vmovsd %xmm0,0x48(%rsp)
  401b7f:	bf 0a 00 00 00       	mov    $0xa,%edi
  401b84:	48 89 de             	mov    %rbx,%rsi
  401b87:	e8 64 f5 ff ff       	call   4010f0 <fputc@plt>
  401b8c:	48 8b 44 24 38       	mov    0x38(%rsp),%rax
  401b91:	c5 fb 10 80 00 00 02 	vmovsd 0x20000(%rax),%xmm0
  401b98:	00 
  401b99:	be 84 a0 40 00       	mov    $0x40a084,%esi
  401b9e:	48 89 df             	mov    %rbx,%rdi
  401ba1:	b0 01                	mov    $0x1,%al
  401ba3:	e8 38 f6 ff ff       	call   4011e0 <fprintf@plt>
  401ba8:	48 8b 44 24 38       	mov    0x38(%rsp),%rax
  401bad:	c5 fb 10 80 00 00 02 	vmovsd 0x20000(%rax),%xmm0
  401bb4:	00 
  401bb5:	c5 fb 11 44 24 50    	vmovsd %xmm0,0x50(%rsp)
  401bbb:	c5 fb 10 80 08 00 02 	vmovsd 0x20008(%rax),%xmm0
  401bc2:	00 
  401bc3:	be 84 a0 40 00       	mov    $0x40a084,%esi
  401bc8:	48 89 df             	mov    %rbx,%rdi
  401bcb:	b0 01                	mov    $0x1,%al
  401bcd:	e8 0e f6 ff ff       	call   4011e0 <fprintf@plt>
  401bd2:	48 8b 44 24 38       	mov    0x38(%rsp),%rax
  401bd7:	c5 fb 10 44 24 50    	vmovsd 0x50(%rsp),%xmm0
  401bdd:	c5 fb 58 80 08 00 02 	vaddsd 0x20008(%rax),%xmm0,%xmm0
  401be4:	00 
  401be5:	c5 fb 58 44 24 48    	vaddsd 0x48(%rsp),%xmm0,%xmm0
  401beb:	c5 fb 58 44 24 40    	vaddsd 0x40(%rsp),%xmm0,%xmm0
  401bf1:	c5 fb 11 44 24 40    	vmovsd %xmm0,0x40(%rsp)
  401bf7:	c5 fb 10 80 10 00 02 	vmovsd 0x20010(%rax),%xmm0
  401bfe:	00 
  401bff:	be 84 a0 40 00       	mov    $0x40a084,%esi
  401c04:	48 89 df             	mov    %rbx,%rdi
  401c07:	b0 01                	mov    $0x1,%al
  401c09:	e8 d2 f5 ff ff       	call   4011e0 <fprintf@plt>
  401c0e:	48 8b 44 24 38       	mov    0x38(%rsp),%rax
  401c13:	c5 fb 10 80 10 00 02 	vmovsd 0x20010(%rax),%xmm0
  401c1a:	00 
  401c1b:	c5 fb 58 44 24 40    	vaddsd 0x40(%rsp),%xmm0,%xmm0
  401c21:	c5 fb 11 44 24 40    	vmovsd %xmm0,0x40(%rsp)
  401c27:	c5 fb 10 80 18 00 02 	vmovsd 0x20018(%rax),%xmm0
  401c2e:	00 
  401c2f:	be 84 a0 40 00       	mov    $0x40a084,%esi
  401c34:	48 89 df             	mov    %rbx,%rdi
  401c37:	b0 01                	mov    $0x1,%al
  401c39:	e8 a2 f5 ff ff       	call   4011e0 <fprintf@plt>
  401c3e:	48 8b 44 24 38       	mov    0x38(%rsp),%rax
  401c43:	c5 fb 10 80 18 00 02 	vmovsd 0x20018(%rax),%xmm0
  401c4a:	00 
  401c4b:	c5 fb 11 44 24 48    	vmovsd %xmm0,0x48(%rsp)
  401c51:	c5 fb 10 80 20 00 02 	vmovsd 0x20020(%rax),%xmm0
  401c58:	00 
  401c59:	be 84 a0 40 00       	mov    $0x40a084,%esi
  401c5e:	48 89 df             	mov    %rbx,%rdi
  401c61:	b0 01                	mov    $0x1,%al
  401c63:	e8 78 f5 ff ff       	call   4011e0 <fprintf@plt>
  401c68:	48 8b 44 24 38       	mov    0x38(%rsp),%rax
  401c6d:	c5 fb 10 80 20 00 02 	vmovsd 0x20020(%rax),%xmm0
  401c74:	00 
  401c75:	c5 fb 58 44 24 48    	vaddsd 0x48(%rsp),%xmm0,%xmm0
  401c7b:	c5 fb 58 44 24 40    	vaddsd 0x40(%rsp),%xmm0,%xmm0
  401c81:	c5 fb 11 44 24 40    	vmovsd %xmm0,0x40(%rsp)
  401c87:	c5 fb 10 80 28 00 02 	vmovsd 0x20028(%rax),%xmm0
  401c8e:	00 
  401c8f:	be 84 a0 40 00       	mov    $0x40a084,%esi
  401c94:	48 89 df             	mov    %rbx,%rdi
  401c97:	b0 01                	mov    $0x1,%al
  401c99:	e8 42 f5 ff ff       	call   4011e0 <fprintf@plt>
  401c9e:	48 8b 44 24 38       	mov    0x38(%rsp),%rax
  401ca3:	c5 fb 10 80 28 00 02 	vmovsd 0x20028(%rax),%xmm0
  401caa:	00 
  401cab:	c5 fb 11 44 24 48    	vmovsd %xmm0,0x48(%rsp)
  401cb1:	c5 fb 10 80 30 00 02 	vmovsd 0x20030(%rax),%xmm0
  401cb8:	00 
  401cb9:	be 84 a0 40 00       	mov    $0x40a084,%esi
  401cbe:	48 89 df             	mov    %rbx,%rdi
  401cc1:	b0 01                	mov    $0x1,%al
  401cc3:	e8 18 f5 ff ff       	call   4011e0 <fprintf@plt>
  401cc8:	48 8b 44 24 38       	mov    0x38(%rsp),%rax
  401ccd:	c5 fb 10 80 30 00 02 	vmovsd 0x20030(%rax),%xmm0
  401cd4:	00 
  401cd5:	c5 fb 58 44 24 48    	vaddsd 0x48(%rsp),%xmm0,%xmm0
  401cdb:	c5 fb 11 44 24 48    	vmovsd %xmm0,0x48(%rsp)
  401ce1:	c5 fb 10 80 38 00 02 	vmovsd 0x20038(%rax),%xmm0
  401ce8:	00 
  401ce9:	be 84 a0 40 00       	mov    $0x40a084,%esi
  401cee:	48 89 df             	mov    %rbx,%rdi
  401cf1:	b0 01                	mov    $0x1,%al
  401cf3:	e8 e8 f4 ff ff       	call   4011e0 <fprintf@plt>
  401cf8:	48 8b 44 24 38       	mov    0x38(%rsp),%rax
  401cfd:	c5 fb 10 80 38 00 02 	vmovsd 0x20038(%rax),%xmm0
  401d04:	00 
  401d05:	c5 fb 11 44 24 50    	vmovsd %xmm0,0x50(%rsp)
  401d0b:	c5 fb 10 80 40 00 02 	vmovsd 0x20040(%rax),%xmm0
  401d12:	00 
  401d13:	be 84 a0 40 00       	mov    $0x40a084,%esi
  401d18:	48 89 df             	mov    %rbx,%rdi
  401d1b:	b0 01                	mov    $0x1,%al
  401d1d:	e8 be f4 ff ff       	call   4011e0 <fprintf@plt>
  401d22:	48 8b 44 24 38       	mov    0x38(%rsp),%rax
  401d27:	c5 fb 10 44 24 50    	vmovsd 0x50(%rsp),%xmm0
  401d2d:	c5 fb 58 80 40 00 02 	vaddsd 0x20040(%rax),%xmm0,%xmm0
  401d34:	00 
  401d35:	c5 fb 58 44 24 48    	vaddsd 0x48(%rsp),%xmm0,%xmm0
  401d3b:	c5 fb 58 44 24 40    	vaddsd 0x40(%rsp),%xmm0,%xmm0
  401d41:	c5 fb 11 44 24 40    	vmovsd %xmm0,0x40(%rsp)
  401d47:	c5 fb 10 80 48 00 02 	vmovsd 0x20048(%rax),%xmm0
  401d4e:	00 
  401d4f:	be 84 a0 40 00       	mov    $0x40a084,%esi
  401d54:	48 89 df             	mov    %rbx,%rdi
  401d57:	b0 01                	mov    $0x1,%al
  401d59:	e8 82 f4 ff ff       	call   4011e0 <fprintf@plt>
  401d5e:	48 8b 44 24 38       	mov    0x38(%rsp),%rax
  401d63:	c5 fb 10 80 48 00 02 	vmovsd 0x20048(%rax),%xmm0
  401d6a:	00 
  401d6b:	c5 fb 58 44 24 40    	vaddsd 0x40(%rsp),%xmm0,%xmm0
  401d71:	c5 fb 11 44 24 40    	vmovsd %xmm0,0x40(%rsp)
  401d77:	bf 0a 00 00 00       	mov    $0xa,%edi
  401d7c:	48 89 de             	mov    %rbx,%rsi
  401d7f:	e8 6c f3 ff ff       	call   4010f0 <fputc@plt>
  401d84:	48 8b 44 24 38       	mov    0x38(%rsp),%rax
  401d89:	c5 fb 10 80 00 00 03 	vmovsd 0x30000(%rax),%xmm0
  401d90:	00 
  401d91:	be 84 a0 40 00       	mov    $0x40a084,%esi
  401d96:	48 89 df             	mov    %rbx,%rdi
  401d99:	b0 01                	mov    $0x1,%al
  401d9b:	e8 40 f4 ff ff       	call   4011e0 <fprintf@plt>
  401da0:	48 8b 44 24 38       	mov    0x38(%rsp),%rax
  401da5:	c5 fb 10 80 00 00 03 	vmovsd 0x30000(%rax),%xmm0
  401dac:	00 
  401dad:	c5 fb 11 44 24 48    	vmovsd %xmm0,0x48(%rsp)
  401db3:	c5 fb 10 80 08 00 03 	vmovsd 0x30008(%rax),%xmm0
  401dba:	00 
  401dbb:	be 84 a0 40 00       	mov    $0x40a084,%esi
  401dc0:	48 89 df             	mov    %rbx,%rdi
  401dc3:	b0 01                	mov    $0x1,%al
  401dc5:	e8 16 f4 ff ff       	call   4011e0 <fprintf@plt>
  401dca:	48 8b 44 24 38       	mov    0x38(%rsp),%rax
  401dcf:	c5 fb 10 80 08 00 03 	vmovsd 0x30008(%rax),%xmm0
  401dd6:	00 
  401dd7:	c5 fb 58 44 24 48    	vaddsd 0x48(%rsp),%xmm0,%xmm0
  401ddd:	c5 fb 58 44 24 40    	vaddsd 0x40(%rsp),%xmm0,%xmm0
  401de3:	c5 fb 11 44 24 40    	vmovsd %xmm0,0x40(%rsp)
  401de9:	c5 fb 10 80 10 00 03 	vmovsd 0x30010(%rax),%xmm0
  401df0:	00 
  401df1:	be 84 a0 40 00       	mov    $0x40a084,%esi
  401df6:	48 89 df             	mov    %rbx,%rdi
  401df9:	b0 01                	mov    $0x1,%al
  401dfb:	e8 e0 f3 ff ff       	call   4011e0 <fprintf@plt>
  401e00:	48 8b 44 24 38       	mov    0x38(%rsp),%rax
  401e05:	c5 fb 10 80 10 00 03 	vmovsd 0x30010(%rax),%xmm0
  401e0c:	00 
  401e0d:	c5 fb 11 44 24 48    	vmovsd %xmm0,0x48(%rsp)
  401e13:	c5 fb 10 80 18 00 03 	vmovsd 0x30018(%rax),%xmm0
  401e1a:	00 
  401e1b:	be 84 a0 40 00       	mov    $0x40a084,%esi
  401e20:	48 89 df             	mov    %rbx,%rdi
  401e23:	b0 01                	mov    $0x1,%al
  401e25:	e8 b6 f3 ff ff       	call   4011e0 <fprintf@plt>
  401e2a:	48 8b 44 24 38       	mov    0x38(%rsp),%rax
  401e2f:	c5 fb 10 80 18 00 03 	vmovsd 0x30018(%rax),%xmm0
  401e36:	00 
  401e37:	c5 fb 58 44 24 48    	vaddsd 0x48(%rsp),%xmm0,%xmm0
  401e3d:	c5 fb 11 44 24 48    	vmovsd %xmm0,0x48(%rsp)
  401e43:	c5 fb 10 80 20 00 03 	vmovsd 0x30020(%rax),%xmm0
  401e4a:	00 
  401e4b:	be 84 a0 40 00       	mov    $0x40a084,%esi
  401e50:	48 89 df             	mov    %rbx,%rdi
  401e53:	b0 01                	mov    $0x1,%al
  401e55:	e8 86 f3 ff ff       	call   4011e0 <fprintf@plt>
  401e5a:	48 8b 44 24 38       	mov    0x38(%rsp),%rax
  401e5f:	c5 fb 10 80 20 00 03 	vmovsd 0x30020(%rax),%xmm0
  401e66:	00 
  401e67:	c5 fb 11 44 24 50    	vmovsd %xmm0,0x50(%rsp)
  401e6d:	c5 fb 10 80 28 00 03 	vmovsd 0x30028(%rax),%xmm0
  401e74:	00 
  401e75:	be 84 a0 40 00       	mov    $0x40a084,%esi
  401e7a:	48 89 df             	mov    %rbx,%rdi
  401e7d:	b0 01                	mov    $0x1,%al
  401e7f:	e8 5c f3 ff ff       	call   4011e0 <fprintf@plt>
  401e84:	48 8b 44 24 38       	mov    0x38(%rsp),%rax
  401e89:	c5 fb 10 44 24 50    	vmovsd 0x50(%rsp),%xmm0
  401e8f:	c5 fb 58 80 28 00 03 	vaddsd 0x30028(%rax),%xmm0,%xmm0
  401e96:	00 
  401e97:	c5 fb 58 44 24 48    	vaddsd 0x48(%rsp),%xmm0,%xmm0
  401e9d:	c5 fb 58 44 24 40    	vaddsd 0x40(%rsp),%xmm0,%xmm0
  401ea3:	c5 fb 11 44 24 40    	vmovsd %xmm0,0x40(%rsp)
  401ea9:	c5 fb 10 80 30 00 03 	vmovsd 0x30030(%rax),%xmm0
  401eb0:	00 
  401eb1:	be 84 a0 40 00       	mov    $0x40a084,%esi
  401eb6:	48 89 df             	mov    %rbx,%rdi
  401eb9:	b0 01                	mov    $0x1,%al
  401ebb:	e8 20 f3 ff ff       	call   4011e0 <fprintf@plt>
  401ec0:	48 8b 44 24 38       	mov    0x38(%rsp),%rax
  401ec5:	c5 fb 10 80 30 00 03 	vmovsd 0x30030(%rax),%xmm0
  401ecc:	00 
  401ecd:	c5 fb 58 44 24 40    	vaddsd 0x40(%rsp),%xmm0,%xmm0
  401ed3:	c5 fb 11 44 24 40    	vmovsd %xmm0,0x40(%rsp)
  401ed9:	c5 fb 10 80 38 00 03 	vmovsd 0x30038(%rax),%xmm0
  401ee0:	00 
  401ee1:	be 84 a0 40 00       	mov    $0x40a084,%esi
  401ee6:	48 89 df             	mov    %rbx,%rdi
  401ee9:	b0 01                	mov    $0x1,%al
  401eeb:	e8 f0 f2 ff ff       	call   4011e0 <fprintf@plt>
  401ef0:	48 8b 44 24 38       	mov    0x38(%rsp),%rax
  401ef5:	c5 fb 10 80 38 00 03 	vmovsd 0x30038(%rax),%xmm0
  401efc:	00 
  401efd:	c5 fb 11 44 24 48    	vmovsd %xmm0,0x48(%rsp)
  401f03:	c5 fb 10 80 40 00 03 	vmovsd 0x30040(%rax),%xmm0
  401f0a:	00 
  401f0b:	be 84 a0 40 00       	mov    $0x40a084,%esi
  401f10:	48 89 df             	mov    %rbx,%rdi
  401f13:	b0 01                	mov    $0x1,%al
  401f15:	e8 c6 f2 ff ff       	call   4011e0 <fprintf@plt>
  401f1a:	48 8b 44 24 38       	mov    0x38(%rsp),%rax
  401f1f:	c5 fb 10 80 40 00 03 	vmovsd 0x30040(%rax),%xmm0
  401f26:	00 
  401f27:	c5 fb 58 44 24 48    	vaddsd 0x48(%rsp),%xmm0,%xmm0
  401f2d:	c5 fb 58 44 24 40    	vaddsd 0x40(%rsp),%xmm0,%xmm0
  401f33:	c5 fb 11 44 24 40    	vmovsd %xmm0,0x40(%rsp)
  401f39:	c5 fb 10 80 48 00 03 	vmovsd 0x30048(%rax),%xmm0
  401f40:	00 
  401f41:	be 84 a0 40 00       	mov    $0x40a084,%esi
  401f46:	48 89 df             	mov    %rbx,%rdi
  401f49:	b0 01                	mov    $0x1,%al
  401f4b:	e8 90 f2 ff ff       	call   4011e0 <fprintf@plt>
  401f50:	48 8b 44 24 38       	mov    0x38(%rsp),%rax
  401f55:	c5 fb 10 80 48 00 03 	vmovsd 0x30048(%rax),%xmm0
  401f5c:	00 
  401f5d:	c5 fb 11 44 24 48    	vmovsd %xmm0,0x48(%rsp)
  401f63:	bf 0a 00 00 00       	mov    $0xa,%edi
  401f68:	48 89 de             	mov    %rbx,%rsi
  401f6b:	e8 80 f1 ff ff       	call   4010f0 <fputc@plt>
  401f70:	48 8b 44 24 38       	mov    0x38(%rsp),%rax
  401f75:	c5 fb 10 80 00 00 04 	vmovsd 0x40000(%rax),%xmm0
  401f7c:	00 
  401f7d:	be 84 a0 40 00       	mov    $0x40a084,%esi
  401f82:	48 89 df             	mov    %rbx,%rdi
  401f85:	b0 01                	mov    $0x1,%al
  401f87:	e8 54 f2 ff ff       	call   4011e0 <fprintf@plt>
  401f8c:	48 8b 44 24 38       	mov    0x38(%rsp),%rax
  401f91:	c5 fb 10 80 00 00 04 	vmovsd 0x40000(%rax),%xmm0
  401f98:	00 
  401f99:	c5 fb 58 44 24 48    	vaddsd 0x48(%rsp),%xmm0,%xmm0
  401f9f:	c5 fb 11 44 24 48    	vmovsd %xmm0,0x48(%rsp)
  401fa5:	c5 fb 10 80 08 00 04 	vmovsd 0x40008(%rax),%xmm0
  401fac:	00 
  401fad:	be 84 a0 40 00       	mov    $0x40a084,%esi
  401fb2:	48 89 df             	mov    %rbx,%rdi
  401fb5:	b0 01                	mov    $0x1,%al
  401fb7:	e8 24 f2 ff ff       	call   4011e0 <fprintf@plt>
  401fbc:	48 8b 44 24 38       	mov    0x38(%rsp),%rax
  401fc1:	c5 fb 10 80 08 00 04 	vmovsd 0x40008(%rax),%xmm0
  401fc8:	00 
  401fc9:	c5 fb 11 44 24 50    	vmovsd %xmm0,0x50(%rsp)
  401fcf:	c5 fb 10 80 10 00 04 	vmovsd 0x40010(%rax),%xmm0
  401fd6:	00 
  401fd7:	be 84 a0 40 00       	mov    $0x40a084,%esi
  401fdc:	48 89 df             	mov    %rbx,%rdi
  401fdf:	b0 01                	mov    $0x1,%al
  401fe1:	e8 fa f1 ff ff       	call   4011e0 <fprintf@plt>
  401fe6:	48 8b 44 24 38       	mov    0x38(%rsp),%rax
  401feb:	c5 fb 10 44 24 50    	vmovsd 0x50(%rsp),%xmm0
  401ff1:	c5 fb 58 80 10 00 04 	vaddsd 0x40010(%rax),%xmm0,%xmm0
  401ff8:	00 
  401ff9:	c5 fb 58 44 24 48    	vaddsd 0x48(%rsp),%xmm0,%xmm0
  401fff:	c5 fb 58 44 24 40    	vaddsd 0x40(%rsp),%xmm0,%xmm0
  402005:	c5 fb 11 44 24 40    	vmovsd %xmm0,0x40(%rsp)
  40200b:	c5 fb 10 80 18 00 04 	vmovsd 0x40018(%rax),%xmm0
  402012:	00 
  402013:	be 84 a0 40 00       	mov    $0x40a084,%esi
  402018:	48 89 df             	mov    %rbx,%rdi
  40201b:	b0 01                	mov    $0x1,%al
  40201d:	e8 be f1 ff ff       	call   4011e0 <fprintf@plt>
  402022:	48 8b 44 24 38       	mov    0x38(%rsp),%rax
  402027:	c5 fb 10 80 18 00 04 	vmovsd 0x40018(%rax),%xmm0
  40202e:	00 
  40202f:	c5 fb 58 44 24 40    	vaddsd 0x40(%rsp),%xmm0,%xmm0
  402035:	c5 fb 11 44 24 40    	vmovsd %xmm0,0x40(%rsp)
  40203b:	c5 fb 10 80 20 00 04 	vmovsd 0x40020(%rax),%xmm0
  402042:	00 
  402043:	be 84 a0 40 00       	mov    $0x40a084,%esi
  402048:	48 89 df             	mov    %rbx,%rdi
  40204b:	b0 01                	mov    $0x1,%al
  40204d:	e8 8e f1 ff ff       	call   4011e0 <fprintf@plt>
  402052:	48 8b 44 24 38       	mov    0x38(%rsp),%rax
  402057:	c5 fb 10 80 20 00 04 	vmovsd 0x40020(%rax),%xmm0
  40205e:	00 
  40205f:	c5 fb 11 44 24 48    	vmovsd %xmm0,0x48(%rsp)
  402065:	c5 fb 10 80 28 00 04 	vmovsd 0x40028(%rax),%xmm0
  40206c:	00 
  40206d:	be 84 a0 40 00       	mov    $0x40a084,%esi
  402072:	48 89 df             	mov    %rbx,%rdi
  402075:	b0 01                	mov    $0x1,%al
  402077:	e8 64 f1 ff ff       	call   4011e0 <fprintf@plt>
  40207c:	48 8b 44 24 38       	mov    0x38(%rsp),%rax
  402081:	c5 fb 10 80 28 00 04 	vmovsd 0x40028(%rax),%xmm0
  402088:	00 
  402089:	c5 fb 58 44 24 48    	vaddsd 0x48(%rsp),%xmm0,%xmm0
  40208f:	c5 fb 58 44 24 40    	vaddsd 0x40(%rsp),%xmm0,%xmm0
  402095:	c5 fb 11 44 24 40    	vmovsd %xmm0,0x40(%rsp)
  40209b:	c5 fb 10 80 30 00 04 	vmovsd 0x40030(%rax),%xmm0
  4020a2:	00 
  4020a3:	be 84 a0 40 00       	mov    $0x40a084,%esi
  4020a8:	48 89 df             	mov    %rbx,%rdi
  4020ab:	b0 01                	mov    $0x1,%al
  4020ad:	e8 2e f1 ff ff       	call   4011e0 <fprintf@plt>
  4020b2:	48 8b 44 24 38       	mov    0x38(%rsp),%rax
  4020b7:	c5 fb 10 80 30 00 04 	vmovsd 0x40030(%rax),%xmm0
  4020be:	00 
  4020bf:	c5 fb 11 44 24 48    	vmovsd %xmm0,0x48(%rsp)
  4020c5:	c5 fb 10 80 38 00 04 	vmovsd 0x40038(%rax),%xmm0
  4020cc:	00 
  4020cd:	be 84 a0 40 00       	mov    $0x40a084,%esi
  4020d2:	48 89 df             	mov    %rbx,%rdi
  4020d5:	b0 01                	mov    $0x1,%al
  4020d7:	e8 04 f1 ff ff       	call   4011e0 <fprintf@plt>
  4020dc:	48 8b 44 24 38       	mov    0x38(%rsp),%rax
  4020e1:	c5 fb 10 80 38 00 04 	vmovsd 0x40038(%rax),%xmm0
  4020e8:	00 
  4020e9:	c5 fb 58 44 24 48    	vaddsd 0x48(%rsp),%xmm0,%xmm0
  4020ef:	c5 fb 11 44 24 48    	vmovsd %xmm0,0x48(%rsp)
  4020f5:	c5 fb 10 80 40 00 04 	vmovsd 0x40040(%rax),%xmm0
  4020fc:	00 
  4020fd:	be 84 a0 40 00       	mov    $0x40a084,%esi
  402102:	48 89 df             	mov    %rbx,%rdi
  402105:	b0 01                	mov    $0x1,%al
  402107:	e8 d4 f0 ff ff       	call   4011e0 <fprintf@plt>
  40210c:	48 8b 44 24 38       	mov    0x38(%rsp),%rax
  402111:	c5 fb 10 80 40 00 04 	vmovsd 0x40040(%rax),%xmm0
  402118:	00 
  402119:	c5 fb 11 44 24 50    	vmovsd %xmm0,0x50(%rsp)
  40211f:	c5 fb 10 80 48 00 04 	vmovsd 0x40048(%rax),%xmm0
  402126:	00 
  402127:	be 84 a0 40 00       	mov    $0x40a084,%esi
  40212c:	48 89 df             	mov    %rbx,%rdi
  40212f:	b0 01                	mov    $0x1,%al
  402131:	e8 aa f0 ff ff       	call   4011e0 <fprintf@plt>
  402136:	48 8b 44 24 38       	mov    0x38(%rsp),%rax
  40213b:	c5 fb 10 44 24 50    	vmovsd 0x50(%rsp),%xmm0
  402141:	c5 fb 58 80 48 00 04 	vaddsd 0x40048(%rax),%xmm0,%xmm0
  402148:	00 
  402149:	c5 fb 58 44 24 48    	vaddsd 0x48(%rsp),%xmm0,%xmm0
  40214f:	c5 fb 58 44 24 40    	vaddsd 0x40(%rsp),%xmm0,%xmm0
  402155:	c5 fb 11 44 24 40    	vmovsd %xmm0,0x40(%rsp)
  40215b:	bf 0a 00 00 00       	mov    $0xa,%edi
  402160:	48 89 de             	mov    %rbx,%rsi
  402163:	e8 88 ef ff ff       	call   4010f0 <fputc@plt>
  402168:	48 8b 44 24 38       	mov    0x38(%rsp),%rax
  40216d:	c5 fb 10 80 00 00 05 	vmovsd 0x50000(%rax),%xmm0
  402174:	00 
  402175:	be 84 a0 40 00       	mov    $0x40a084,%esi
  40217a:	48 89 df             	mov    %rbx,%rdi
  40217d:	b0 01                	mov    $0x1,%al
  40217f:	e8 5c f0 ff ff       	call   4011e0 <fprintf@plt>
  402184:	48 8b 44 24 38       	mov    0x38(%rsp),%rax
  402189:	c5 fb 10 80 00 00 05 	vmovsd 0x50000(%rax),%xmm0
  402190:	00 
  402191:	c5 fb 58 44 24 40    	vaddsd 0x40(%rsp),%xmm0,%xmm0
  402197:	c5 fb 11 44 24 40    	vmovsd %xmm0,0x40(%rsp)
  40219d:	c5 fb 10 80 08 00 05 	vmovsd 0x50008(%rax),%xmm0
  4021a4:	00 
  4021a5:	be 84 a0 40 00       	mov    $0x40a084,%esi
  4021aa:	48 89 df             	mov    %rbx,%rdi
  4021ad:	b0 01                	mov    $0x1,%al
  4021af:	e8 2c f0 ff ff       	call   4011e0 <fprintf@plt>
  4021b4:	48 8b 44 24 38       	mov    0x38(%rsp),%rax
  4021b9:	c5 fb 10 80 08 00 05 	vmovsd 0x50008(%rax),%xmm0
  4021c0:	00 
  4021c1:	c5 fb 11 44 24 48    	vmovsd %xmm0,0x48(%rsp)
  4021c7:	c5 fb 10 80 10 00 05 	vmovsd 0x50010(%rax),%xmm0
  4021ce:	00 
  4021cf:	be 84 a0 40 00       	mov    $0x40a084,%esi
  4021d4:	48 89 df             	mov    %rbx,%rdi
  4021d7:	b0 01                	mov    $0x1,%al
  4021d9:	e8 02 f0 ff ff       	call   4011e0 <fprintf@plt>
  4021de:	48 8b 44 24 38       	mov    0x38(%rsp),%rax
  4021e3:	c5 fb 10 80 10 00 05 	vmovsd 0x50010(%rax),%xmm0
  4021ea:	00 
  4021eb:	c5 fb 58 44 24 48    	vaddsd 0x48(%rsp),%xmm0,%xmm0
  4021f1:	c5 fb 58 44 24 40    	vaddsd 0x40(%rsp),%xmm0,%xmm0
  4021f7:	c5 fb 11 44 24 40    	vmovsd %xmm0,0x40(%rsp)
  4021fd:	c5 fb 10 80 18 00 05 	vmovsd 0x50018(%rax),%xmm0
  402204:	00 
  402205:	be 84 a0 40 00       	mov    $0x40a084,%esi
  40220a:	48 89 df             	mov    %rbx,%rdi
  40220d:	b0 01                	mov    $0x1,%al
  40220f:	e8 cc ef ff ff       	call   4011e0 <fprintf@plt>
  402214:	48 8b 44 24 38       	mov    0x38(%rsp),%rax
  402219:	c5 fb 10 80 18 00 05 	vmovsd 0x50018(%rax),%xmm0
  402220:	00 
  402221:	c5 fb 11 44 24 48    	vmovsd %xmm0,0x48(%rsp)
  402227:	c5 fb 10 80 20 00 05 	vmovsd 0x50020(%rax),%xmm0
  40222e:	00 
  40222f:	be 84 a0 40 00       	mov    $0x40a084,%esi
  402234:	48 89 df             	mov    %rbx,%rdi
  402237:	b0 01                	mov    $0x1,%al
  402239:	e8 a2 ef ff ff       	call   4011e0 <fprintf@plt>
  40223e:	48 8b 44 24 38       	mov    0x38(%rsp),%rax
  402243:	c5 fb 10 80 20 00 05 	vmovsd 0x50020(%rax),%xmm0
  40224a:	00 
  40224b:	c5 fb 58 44 24 48    	vaddsd 0x48(%rsp),%xmm0,%xmm0
  402251:	c5 fb 11 44 24 48    	vmovsd %xmm0,0x48(%rsp)
  402257:	c5 fb 10 80 28 00 05 	vmovsd 0x50028(%rax),%xmm0
  40225e:	00 
  40225f:	be 84 a0 40 00       	mov    $0x40a084,%esi
  402264:	48 89 df             	mov    %rbx,%rdi
  402267:	b0 01                	mov    $0x1,%al
  402269:	e8 72 ef ff ff       	call   4011e0 <fprintf@plt>
  40226e:	48 8b 44 24 38       	mov    0x38(%rsp),%rax
  402273:	c5 fb 10 80 28 00 05 	vmovsd 0x50028(%rax),%xmm0
  40227a:	00 
  40227b:	c5 fb 11 44 24 50    	vmovsd %xmm0,0x50(%rsp)
  402281:	c5 fb 10 80 30 00 05 	vmovsd 0x50030(%rax),%xmm0
  402288:	00 
  402289:	be 84 a0 40 00       	mov    $0x40a084,%esi
  40228e:	48 89 df             	mov    %rbx,%rdi
  402291:	b0 01                	mov    $0x1,%al
  402293:	e8 48 ef ff ff       	call   4011e0 <fprintf@plt>
  402298:	48 8b 44 24 38       	mov    0x38(%rsp),%rax
  40229d:	c5 fb 10 44 24 50    	vmovsd 0x50(%rsp),%xmm0
  4022a3:	c5 fb 58 80 30 00 05 	vaddsd 0x50030(%rax),%xmm0,%xmm0
  4022aa:	00 
  4022ab:	c5 fb 58 44 24 48    	vaddsd 0x48(%rsp),%xmm0,%xmm0
  4022b1:	c5 fb 58 44 24 40    	vaddsd 0x40(%rsp),%xmm0,%xmm0
  4022b7:	c5 fb 11 44 24 40    	vmovsd %xmm0,0x40(%rsp)
  4022bd:	c5 fb 10 80 38 00 05 	vmovsd 0x50038(%rax),%xmm0
  4022c4:	00 
  4022c5:	be 84 a0 40 00       	mov    $0x40a084,%esi
  4022ca:	48 89 df             	mov    %rbx,%rdi
  4022cd:	b0 01                	mov    $0x1,%al
  4022cf:	e8 0c ef ff ff       	call   4011e0 <fprintf@plt>
  4022d4:	48 8b 44 24 38       	mov    0x38(%rsp),%rax
  4022d9:	c5 fb 10 80 38 00 05 	vmovsd 0x50038(%rax),%xmm0
  4022e0:	00 
  4022e1:	c5 fb 58 44 24 40    	vaddsd 0x40(%rsp),%xmm0,%xmm0
  4022e7:	c5 fb 11 44 24 40    	vmovsd %xmm0,0x40(%rsp)
  4022ed:	c5 fb 10 80 40 00 05 	vmovsd 0x50040(%rax),%xmm0
  4022f4:	00 
  4022f5:	be 84 a0 40 00       	mov    $0x40a084,%esi
  4022fa:	48 89 df             	mov    %rbx,%rdi
  4022fd:	b0 01                	mov    $0x1,%al
  4022ff:	e8 dc ee ff ff       	call   4011e0 <fprintf@plt>
  402304:	48 8b 44 24 38       	mov    0x38(%rsp),%rax
  402309:	c5 fb 10 80 40 00 05 	vmovsd 0x50040(%rax),%xmm0
  402310:	00 
  402311:	c5 fb 11 44 24 48    	vmovsd %xmm0,0x48(%rsp)
  402317:	c5 fb 10 80 48 00 05 	vmovsd 0x50048(%rax),%xmm0
  40231e:	00 
  40231f:	be 84 a0 40 00       	mov    $0x40a084,%esi
  402324:	48 89 df             	mov    %rbx,%rdi
  402327:	b0 01                	mov    $0x1,%al
  402329:	e8 b2 ee ff ff       	call   4011e0 <fprintf@plt>
  40232e:	48 8b 44 24 38       	mov    0x38(%rsp),%rax
  402333:	c5 fb 10 80 48 00 05 	vmovsd 0x50048(%rax),%xmm0
  40233a:	00 
  40233b:	c5 fb 58 44 24 48    	vaddsd 0x48(%rsp),%xmm0,%xmm0
  402341:	c5 fb 58 44 24 40    	vaddsd 0x40(%rsp),%xmm0,%xmm0
  402347:	c5 fb 11 44 24 40    	vmovsd %xmm0,0x40(%rsp)
  40234d:	bf 0a 00 00 00       	mov    $0xa,%edi
  402352:	48 89 de             	mov    %rbx,%rsi
  402355:	e8 96 ed ff ff       	call   4010f0 <fputc@plt>
  40235a:	48 8b 44 24 38       	mov    0x38(%rsp),%rax
  40235f:	c5 fb 10 80 00 00 06 	vmovsd 0x60000(%rax),%xmm0
  402366:	00 
  402367:	be 84 a0 40 00       	mov    $0x40a084,%esi
  40236c:	48 89 df             	mov    %rbx,%rdi
  40236f:	b0 01                	mov    $0x1,%al
  402371:	e8 6a ee ff ff       	call   4011e0 <fprintf@plt>
  402376:	48 8b 44 24 38       	mov    0x38(%rsp),%rax
  40237b:	c5 fb 10 80 00 00 06 	vmovsd 0x60000(%rax),%xmm0
  402382:	00 
  402383:	c5 fb 11 44 24 48    	vmovsd %xmm0,0x48(%rsp)
  402389:	c5 fb 10 80 08 00 06 	vmovsd 0x60008(%rax),%xmm0
  402390:	00 
  402391:	be 84 a0 40 00       	mov    $0x40a084,%esi
  402396:	48 89 df             	mov    %rbx,%rdi
  402399:	b0 01                	mov    $0x1,%al
  40239b:	e8 40 ee ff ff       	call   4011e0 <fprintf@plt>
  4023a0:	48 8b 44 24 38       	mov    0x38(%rsp),%rax
  4023a5:	c5 fb 10 80 08 00 06 	vmovsd 0x60008(%rax),%xmm0
  4023ac:	00 
  4023ad:	c5 fb 58 44 24 48    	vaddsd 0x48(%rsp),%xmm0,%xmm0
  4023b3:	c5 fb 11 44 24 48    	vmovsd %xmm0,0x48(%rsp)
  4023b9:	c5 fb 10 80 10 00 06 	vmovsd 0x60010(%rax),%xmm0
  4023c0:	00 
  4023c1:	be 84 a0 40 00       	mov    $0x40a084,%esi
  4023c6:	48 89 df             	mov    %rbx,%rdi
  4023c9:	b0 01                	mov    $0x1,%al
  4023cb:	e8 10 ee ff ff       	call   4011e0 <fprintf@plt>
  4023d0:	48 8b 44 24 38       	mov    0x38(%rsp),%rax
  4023d5:	c5 fb 10 80 10 00 06 	vmovsd 0x60010(%rax),%xmm0
  4023dc:	00 
  4023dd:	c5 fb 11 44 24 50    	vmovsd %xmm0,0x50(%rsp)
  4023e3:	c5 fb 10 80 18 00 06 	vmovsd 0x60018(%rax),%xmm0
  4023ea:	00 
  4023eb:	be 84 a0 40 00       	mov    $0x40a084,%esi
  4023f0:	48 89 df             	mov    %rbx,%rdi
  4023f3:	b0 01                	mov    $0x1,%al
  4023f5:	e8 e6 ed ff ff       	call   4011e0 <fprintf@plt>
  4023fa:	48 8b 44 24 38       	mov    0x38(%rsp),%rax
  4023ff:	c5 fb 10 44 24 50    	vmovsd 0x50(%rsp),%xmm0
  402405:	c5 fb 58 80 18 00 06 	vaddsd 0x60018(%rax),%xmm0,%xmm0
  40240c:	00 
  40240d:	c5 fb 58 44 24 48    	vaddsd 0x48(%rsp),%xmm0,%xmm0
  402413:	c5 fb 58 44 24 40    	vaddsd 0x40(%rsp),%xmm0,%xmm0
  402419:	c5 fb 11 44 24 40    	vmovsd %xmm0,0x40(%rsp)
  40241f:	c5 fb 10 80 20 00 06 	vmovsd 0x60020(%rax),%xmm0
  402426:	00 
  402427:	be 84 a0 40 00       	mov    $0x40a084,%esi
  40242c:	48 89 df             	mov    %rbx,%rdi
  40242f:	b0 01                	mov    $0x1,%al
  402431:	e8 aa ed ff ff       	call   4011e0 <fprintf@plt>
  402436:	48 8b 44 24 38       	mov    0x38(%rsp),%rax
  40243b:	c5 fb 10 80 20 00 06 	vmovsd 0x60020(%rax),%xmm0
  402442:	00 
  402443:	c5 fb 58 44 24 40    	vaddsd 0x40(%rsp),%xmm0,%xmm0
  402449:	c5 fb 11 44 24 40    	vmovsd %xmm0,0x40(%rsp)
  40244f:	c5 fb 10 80 28 00 06 	vmovsd 0x60028(%rax),%xmm0
  402456:	00 
  402457:	be 84 a0 40 00       	mov    $0x40a084,%esi
  40245c:	48 89 df             	mov    %rbx,%rdi
  40245f:	b0 01                	mov    $0x1,%al
  402461:	e8 7a ed ff ff       	call   4011e0 <fprintf@plt>
  402466:	48 8b 44 24 38       	mov    0x38(%rsp),%rax
  40246b:	c5 fb 10 80 28 00 06 	vmovsd 0x60028(%rax),%xmm0
  402472:	00 
  402473:	c5 fb 11 44 24 48    	vmovsd %xmm0,0x48(%rsp)
  402479:	c5 fb 10 80 30 00 06 	vmovsd 0x60030(%rax),%xmm0
  402480:	00 
  402481:	be 84 a0 40 00       	mov    $0x40a084,%esi
  402486:	48 89 df             	mov    %rbx,%rdi
  402489:	b0 01                	mov    $0x1,%al
  40248b:	e8 50 ed ff ff       	call   4011e0 <fprintf@plt>
  402490:	48 8b 44 24 38       	mov    0x38(%rsp),%rax
  402495:	c5 fb 10 80 30 00 06 	vmovsd 0x60030(%rax),%xmm0
  40249c:	00 
  40249d:	c5 fb 58 44 24 48    	vaddsd 0x48(%rsp),%xmm0,%xmm0
  4024a3:	c5 fb 58 44 24 40    	vaddsd 0x40(%rsp),%xmm0,%xmm0
  4024a9:	c5 fb 11 44 24 40    	vmovsd %xmm0,0x40(%rsp)
  4024af:	c5 fb 10 80 38 00 06 	vmovsd 0x60038(%rax),%xmm0
  4024b6:	00 
  4024b7:	be 84 a0 40 00       	mov    $0x40a084,%esi
  4024bc:	48 89 df             	mov    %rbx,%rdi
  4024bf:	b0 01                	mov    $0x1,%al
  4024c1:	e8 1a ed ff ff       	call   4011e0 <fprintf@plt>
  4024c6:	48 8b 44 24 38       	mov    0x38(%rsp),%rax
  4024cb:	c5 fb 10 80 38 00 06 	vmovsd 0x60038(%rax),%xmm0
  4024d2:	00 
  4024d3:	c5 fb 11 44 24 48    	vmovsd %xmm0,0x48(%rsp)
  4024d9:	c5 fb 10 80 40 00 06 	vmovsd 0x60040(%rax),%xmm0
  4024e0:	00 
  4024e1:	be 84 a0 40 00       	mov    $0x40a084,%esi
  4024e6:	48 89 df             	mov    %rbx,%rdi
  4024e9:	b0 01                	mov    $0x1,%al
  4024eb:	e8 f0 ec ff ff       	call   4011e0 <fprintf@plt>
  4024f0:	48 8b 44 24 38       	mov    0x38(%rsp),%rax
  4024f5:	c5 fb 10 80 40 00 06 	vmovsd 0x60040(%rax),%xmm0
  4024fc:	00 
  4024fd:	c5 fb 58 44 24 48    	vaddsd 0x48(%rsp),%xmm0,%xmm0
  402503:	c5 fb 11 44 24 48    	vmovsd %xmm0,0x48(%rsp)
  402509:	c5 fb 10 80 48 00 06 	vmovsd 0x60048(%rax),%xmm0
  402510:	00 
  402511:	be 84 a0 40 00       	mov    $0x40a084,%esi
  402516:	48 89 df             	mov    %rbx,%rdi
  402519:	b0 01                	mov    $0x1,%al
  40251b:	e8 c0 ec ff ff       	call   4011e0 <fprintf@plt>
  402520:	48 8b 44 24 38       	mov    0x38(%rsp),%rax
  402525:	c5 fb 10 80 48 00 06 	vmovsd 0x60048(%rax),%xmm0
  40252c:	00 
  40252d:	c5 fb 11 44 24 50    	vmovsd %xmm0,0x50(%rsp)
  402533:	bf 0a 00 00 00       	mov    $0xa,%edi
  402538:	48 89 de             	mov    %rbx,%rsi
  40253b:	e8 b0 eb ff ff       	call   4010f0 <fputc@plt>
  402540:	48 8b 44 24 38       	mov    0x38(%rsp),%rax
  402545:	c5 fb 10 80 00 00 07 	vmovsd 0x70000(%rax),%xmm0
  40254c:	00 
  40254d:	be 84 a0 40 00       	mov    $0x40a084,%esi
  402552:	48 89 df             	mov    %rbx,%rdi
  402555:	b0 01                	mov    $0x1,%al
  402557:	e8 84 ec ff ff       	call   4011e0 <fprintf@plt>
  40255c:	48 8b 44 24 38       	mov    0x38(%rsp),%rax
  402561:	c5 fb 10 44 24 50    	vmovsd 0x50(%rsp),%xmm0
  402567:	c5 fb 58 80 00 00 07 	vaddsd 0x70000(%rax),%xmm0,%xmm0
  40256e:	00 
  40256f:	c5 fb 58 44 24 48    	vaddsd 0x48(%rsp),%xmm0,%xmm0
  402575:	c5 fb 58 44 24 40    	vaddsd 0x40(%rsp),%xmm0,%xmm0
  40257b:	c5 fb 11 44 24 40    	vmovsd %xmm0,0x40(%rsp)
  402581:	c5 fb 10 80 08 00 07 	vmovsd 0x70008(%rax),%xmm0
  402588:	00 
  402589:	be 84 a0 40 00       	mov    $0x40a084,%esi
  40258e:	48 89 df             	mov    %rbx,%rdi
  402591:	b0 01                	mov    $0x1,%al
  402593:	e8 48 ec ff ff       	call   4011e0 <fprintf@plt>
  402598:	48 8b 44 24 38       	mov    0x38(%rsp),%rax
  40259d:	c5 fb 10 80 08 00 07 	vmovsd 0x70008(%rax),%xmm0
  4025a4:	00 
  4025a5:	c5 fb 58 44 24 40    	vaddsd 0x40(%rsp),%xmm0,%xmm0
  4025ab:	c5 fb 11 44 24 40    	vmovsd %xmm0,0x40(%rsp)
  4025b1:	c5 fb 10 80 10 00 07 	vmovsd 0x70010(%rax),%xmm0
  4025b8:	00 
  4025b9:	be 84 a0 40 00       	mov    $0x40a084,%esi
  4025be:	48 89 df             	mov    %rbx,%rdi
  4025c1:	b0 01                	mov    $0x1,%al
  4025c3:	e8 18 ec ff ff       	call   4011e0 <fprintf@plt>
  4025c8:	48 8b 44 24 38       	mov    0x38(%rsp),%rax
  4025cd:	c5 fb 10 80 10 00 07 	vmovsd 0x70010(%rax),%xmm0
  4025d4:	00 
  4025d5:	c5 fb 11 44 24 48    	vmovsd %xmm0,0x48(%rsp)
  4025db:	c5 fb 10 80 18 00 07 	vmovsd 0x70018(%rax),%xmm0
  4025e2:	00 
  4025e3:	be 84 a0 40 00       	mov    $0x40a084,%esi
  4025e8:	48 89 df             	mov    %rbx,%rdi
  4025eb:	b0 01                	mov    $0x1,%al
  4025ed:	e8 ee eb ff ff       	call   4011e0 <fprintf@plt>
  4025f2:	48 8b 44 24 38       	mov    0x38(%rsp),%rax
  4025f7:	c5 fb 10 80 18 00 07 	vmovsd 0x70018(%rax),%xmm0
  4025fe:	00 
  4025ff:	c5 fb 58 44 24 48    	vaddsd 0x48(%rsp),%xmm0,%xmm0
  402605:	c5 fb 58 44 24 40    	vaddsd 0x40(%rsp),%xmm0,%xmm0
  40260b:	c5 fb 11 44 24 40    	vmovsd %xmm0,0x40(%rsp)
  402611:	c5 fb 10 80 20 00 07 	vmovsd 0x70020(%rax),%xmm0
  402618:	00 
  402619:	be 84 a0 40 00       	mov    $0x40a084,%esi
  40261e:	48 89 df             	mov    %rbx,%rdi
  402621:	b0 01                	mov    $0x1,%al
  402623:	e8 b8 eb ff ff       	call   4011e0 <fprintf@plt>
  402628:	48 8b 44 24 38       	mov    0x38(%rsp),%rax
  40262d:	c5 fb 10 80 20 00 07 	vmovsd 0x70020(%rax),%xmm0
  402634:	00 
  402635:	c5 fb 11 44 24 48    	vmovsd %xmm0,0x48(%rsp)
  40263b:	c5 fb 10 80 28 00 07 	vmovsd 0x70028(%rax),%xmm0
  402642:	00 
  402643:	be 84 a0 40 00       	mov    $0x40a084,%esi
  402648:	48 89 df             	mov    %rbx,%rdi
  40264b:	b0 01                	mov    $0x1,%al
  40264d:	e8 8e eb ff ff       	call   4011e0 <fprintf@plt>
  402652:	48 8b 44 24 38       	mov    0x38(%rsp),%rax
  402657:	c5 fb 10 80 28 00 07 	vmovsd 0x70028(%rax),%xmm0
  40265e:	00 
  40265f:	c5 fb 58 44 24 48    	vaddsd 0x48(%rsp),%xmm0,%xmm0
  402665:	c5 fb 11 44 24 48    	vmovsd %xmm0,0x48(%rsp)
  40266b:	c5 fb 10 80 30 00 07 	vmovsd 0x70030(%rax),%xmm0
  402672:	00 
  402673:	be 84 a0 40 00       	mov    $0x40a084,%esi
  402678:	48 89 df             	mov    %rbx,%rdi
  40267b:	b0 01                	mov    $0x1,%al
  40267d:	e8 5e eb ff ff       	call   4011e0 <fprintf@plt>
  402682:	48 8b 44 24 38       	mov    0x38(%rsp),%rax
  402687:	c5 fb 10 80 30 00 07 	vmovsd 0x70030(%rax),%xmm0
  40268e:	00 
  40268f:	c5 fb 11 44 24 50    	vmovsd %xmm0,0x50(%rsp)
  402695:	c5 fb 10 80 38 00 07 	vmovsd 0x70038(%rax),%xmm0
  40269c:	00 
  40269d:	be 84 a0 40 00       	mov    $0x40a084,%esi
  4026a2:	48 89 df             	mov    %rbx,%rdi
  4026a5:	b0 01                	mov    $0x1,%al
  4026a7:	e8 34 eb ff ff       	call   4011e0 <fprintf@plt>
  4026ac:	48 8b 44 24 38       	mov    0x38(%rsp),%rax
  4026b1:	c5 fb 10 44 24 50    	vmovsd 0x50(%rsp),%xmm0
  4026b7:	c5 fb 58 80 38 00 07 	vaddsd 0x70038(%rax),%xmm0,%xmm0
  4026be:	00 
  4026bf:	c5 fb 58 44 24 48    	vaddsd 0x48(%rsp),%xmm0,%xmm0
  4026c5:	c5 fb 58 44 24 40    	vaddsd 0x40(%rsp),%xmm0,%xmm0
  4026cb:	c5 fb 11 44 24 40    	vmovsd %xmm0,0x40(%rsp)
  4026d1:	c5 fb 10 80 40 00 07 	vmovsd 0x70040(%rax),%xmm0
  4026d8:	00 
  4026d9:	be 84 a0 40 00       	mov    $0x40a084,%esi
  4026de:	48 89 df             	mov    %rbx,%rdi
  4026e1:	b0 01                	mov    $0x1,%al
  4026e3:	e8 f8 ea ff ff       	call   4011e0 <fprintf@plt>
  4026e8:	48 8b 44 24 38       	mov    0x38(%rsp),%rax
  4026ed:	c5 fb 10 80 40 00 07 	vmovsd 0x70040(%rax),%xmm0
  4026f4:	00 
  4026f5:	c5 fb 58 44 24 40    	vaddsd 0x40(%rsp),%xmm0,%xmm0
  4026fb:	c5 fb 11 44 24 40    	vmovsd %xmm0,0x40(%rsp)
  402701:	c5 fb 10 80 48 00 07 	vmovsd 0x70048(%rax),%xmm0
  402708:	00 
  402709:	be 84 a0 40 00       	mov    $0x40a084,%esi
  40270e:	48 89 df             	mov    %rbx,%rdi
  402711:	b0 01                	mov    $0x1,%al
  402713:	e8 c8 ea ff ff       	call   4011e0 <fprintf@plt>
  402718:	48 8b 44 24 38       	mov    0x38(%rsp),%rax
  40271d:	c5 fb 10 80 48 00 07 	vmovsd 0x70048(%rax),%xmm0
  402724:	00 
  402725:	c5 fb 11 44 24 48    	vmovsd %xmm0,0x48(%rsp)
  40272b:	bf 0a 00 00 00       	mov    $0xa,%edi
  402730:	48 89 de             	mov    %rbx,%rsi
  402733:	e8 b8 e9 ff ff       	call   4010f0 <fputc@plt>
  402738:	48 8b 44 24 38       	mov    0x38(%rsp),%rax
  40273d:	c5 fb 10 80 00 00 08 	vmovsd 0x80000(%rax),%xmm0
  402744:	00 
  402745:	be 84 a0 40 00       	mov    $0x40a084,%esi
  40274a:	48 89 df             	mov    %rbx,%rdi
  40274d:	b0 01                	mov    $0x1,%al
  40274f:	e8 8c ea ff ff       	call   4011e0 <fprintf@plt>
  402754:	48 8b 44 24 38       	mov    0x38(%rsp),%rax
  402759:	c5 fb 10 80 00 00 08 	vmovsd 0x80000(%rax),%xmm0
  402760:	00 
  402761:	c5 fb 58 44 24 48    	vaddsd 0x48(%rsp),%xmm0,%xmm0
  402767:	c5 fb 58 44 24 40    	vaddsd 0x40(%rsp),%xmm0,%xmm0
  40276d:	c5 fb 11 44 24 40    	vmovsd %xmm0,0x40(%rsp)
  402773:	c5 fb 10 80 08 00 08 	vmovsd 0x80008(%rax),%xmm0
  40277a:	00 
  40277b:	be 84 a0 40 00       	mov    $0x40a084,%esi
  402780:	48 89 df             	mov    %rbx,%rdi
  402783:	b0 01                	mov    $0x1,%al
  402785:	e8 56 ea ff ff       	call   4011e0 <fprintf@plt>
  40278a:	48 8b 44 24 38       	mov    0x38(%rsp),%rax
  40278f:	c5 fb 10 80 08 00 08 	vmovsd 0x80008(%rax),%xmm0
  402796:	00 
  402797:	c5 fb 11 44 24 48    	vmovsd %xmm0,0x48(%rsp)
  40279d:	c5 fb 10 80 10 00 08 	vmovsd 0x80010(%rax),%xmm0
  4027a4:	00 
  4027a5:	be 84 a0 40 00       	mov    $0x40a084,%esi
  4027aa:	48 89 df             	mov    %rbx,%rdi
  4027ad:	b0 01                	mov    $0x1,%al
  4027af:	e8 2c ea ff ff       	call   4011e0 <fprintf@plt>
  4027b4:	48 8b 44 24 38       	mov    0x38(%rsp),%rax
  4027b9:	c5 fb 10 80 10 00 08 	vmovsd 0x80010(%rax),%xmm0
  4027c0:	00 
  4027c1:	c5 fb 58 44 24 48    	vaddsd 0x48(%rsp),%xmm0,%xmm0
  4027c7:	c5 fb 11 44 24 48    	vmovsd %xmm0,0x48(%rsp)
  4027cd:	c5 fb 10 80 18 00 08 	vmovsd 0x80018(%rax),%xmm0
  4027d4:	00 
  4027d5:	be 84 a0 40 00       	mov    $0x40a084,%esi
  4027da:	48 89 df             	mov    %rbx,%rdi
  4027dd:	b0 01                	mov    $0x1,%al
  4027df:	e8 fc e9 ff ff       	call   4011e0 <fprintf@plt>
  4027e4:	48 8b 44 24 38       	mov    0x38(%rsp),%rax
  4027e9:	c5 fb 10 80 18 00 08 	vmovsd 0x80018(%rax),%xmm0
  4027f0:	00 
  4027f1:	c5 fb 11 44 24 50    	vmovsd %xmm0,0x50(%rsp)
  4027f7:	c5 fb 10 80 20 00 08 	vmovsd 0x80020(%rax),%xmm0
  4027fe:	00 
  4027ff:	be 84 a0 40 00       	mov    $0x40a084,%esi
  402804:	48 89 df             	mov    %rbx,%rdi
  402807:	b0 01                	mov    $0x1,%al
  402809:	e8 d2 e9 ff ff       	call   4011e0 <fprintf@plt>
  40280e:	48 8b 44 24 38       	mov    0x38(%rsp),%rax
  402813:	c5 fb 10 44 24 50    	vmovsd 0x50(%rsp),%xmm0
  402819:	c5 fb 58 80 20 00 08 	vaddsd 0x80020(%rax),%xmm0,%xmm0
  402820:	00 
  402821:	c5 fb 58 44 24 48    	vaddsd 0x48(%rsp),%xmm0,%xmm0
  402827:	c5 fb 58 44 24 40    	vaddsd 0x40(%rsp),%xmm0,%xmm0
  40282d:	c5 fb 11 44 24 40    	vmovsd %xmm0,0x40(%rsp)
  402833:	c5 fb 10 80 28 00 08 	vmovsd 0x80028(%rax),%xmm0
  40283a:	00 
  40283b:	be 84 a0 40 00       	mov    $0x40a084,%esi
  402840:	48 89 df             	mov    %rbx,%rdi
  402843:	b0 01                	mov    $0x1,%al
  402845:	e8 96 e9 ff ff       	call   4011e0 <fprintf@plt>
  40284a:	48 8b 44 24 38       	mov    0x38(%rsp),%rax
  40284f:	c5 fb 10 80 28 00 08 	vmovsd 0x80028(%rax),%xmm0
  402856:	00 
  402857:	c5 fb 58 44 24 40    	vaddsd 0x40(%rsp),%xmm0,%xmm0
  40285d:	c5 fb 11 44 24 40    	vmovsd %xmm0,0x40(%rsp)
  402863:	c5 fb 10 80 30 00 08 	vmovsd 0x80030(%rax),%xmm0
  40286a:	00 
  40286b:	be 84 a0 40 00       	mov    $0x40a084,%esi
  402870:	48 89 df             	mov    %rbx,%rdi
  402873:	b0 01                	mov    $0x1,%al
  402875:	e8 66 e9 ff ff       	call   4011e0 <fprintf@plt>
  40287a:	48 8b 44 24 38       	mov    0x38(%rsp),%rax
  40287f:	c5 fb 10 80 30 00 08 	vmovsd 0x80030(%rax),%xmm0
  402886:	00 
  402887:	c5 fb 11 44 24 48    	vmovsd %xmm0,0x48(%rsp)
  40288d:	c5 fb 10 80 38 00 08 	vmovsd 0x80038(%rax),%xmm0
  402894:	00 
  402895:	be 84 a0 40 00       	mov    $0x40a084,%esi
  40289a:	48 89 df             	mov    %rbx,%rdi
  40289d:	b0 01                	mov    $0x1,%al
  40289f:	e8 3c e9 ff ff       	call   4011e0 <fprintf@plt>
  4028a4:	48 8b 44 24 38       	mov    0x38(%rsp),%rax
  4028a9:	c5 fb 10 80 38 00 08 	vmovsd 0x80038(%rax),%xmm0
  4028b0:	00 
  4028b1:	c5 fb 58 44 24 48    	vaddsd 0x48(%rsp),%xmm0,%xmm0
  4028b7:	c5 fb 58 44 24 40    	vaddsd 0x40(%rsp),%xmm0,%xmm0
  4028bd:	c5 fb 11 44 24 40    	vmovsd %xmm0,0x40(%rsp)
  4028c3:	c5 fb 10 80 40 00 08 	vmovsd 0x80040(%rax),%xmm0
  4028ca:	00 
  4028cb:	be 84 a0 40 00       	mov    $0x40a084,%esi
  4028d0:	48 89 df             	mov    %rbx,%rdi
  4028d3:	b0 01                	mov    $0x1,%al
  4028d5:	e8 06 e9 ff ff       	call   4011e0 <fprintf@plt>
  4028da:	48 8b 44 24 38       	mov    0x38(%rsp),%rax
  4028df:	c5 fb 10 80 40 00 08 	vmovsd 0x80040(%rax),%xmm0
  4028e6:	00 
  4028e7:	c5 fb 11 44 24 48    	vmovsd %xmm0,0x48(%rsp)
  4028ed:	c5 fb 10 80 48 00 08 	vmovsd 0x80048(%rax),%xmm0
  4028f4:	00 
  4028f5:	be 84 a0 40 00       	mov    $0x40a084,%esi
  4028fa:	48 89 df             	mov    %rbx,%rdi
  4028fd:	b0 01                	mov    $0x1,%al
  4028ff:	e8 dc e8 ff ff       	call   4011e0 <fprintf@plt>
  402904:	48 8b 44 24 38       	mov    0x38(%rsp),%rax
  402909:	c5 fb 10 80 48 00 08 	vmovsd 0x80048(%rax),%xmm0
  402910:	00 
  402911:	c5 fb 58 44 24 48    	vaddsd 0x48(%rsp),%xmm0,%xmm0
  402917:	c5 fb 11 44 24 48    	vmovsd %xmm0,0x48(%rsp)
  40291d:	bf 0a 00 00 00       	mov    $0xa,%edi
  402922:	48 89 de             	mov    %rbx,%rsi
  402925:	e8 c6 e7 ff ff       	call   4010f0 <fputc@plt>
  40292a:	48 8b 44 24 38       	mov    0x38(%rsp),%rax
  40292f:	c5 fb 10 80 00 00 09 	vmovsd 0x90000(%rax),%xmm0
  402936:	00 
  402937:	be 84 a0 40 00       	mov    $0x40a084,%esi
  40293c:	48 89 df             	mov    %rbx,%rdi
  40293f:	b0 01                	mov    $0x1,%al
  402941:	e8 9a e8 ff ff       	call   4011e0 <fprintf@plt>
  402946:	48 8b 44 24 38       	mov    0x38(%rsp),%rax
  40294b:	c5 fb 10 80 00 00 09 	vmovsd 0x90000(%rax),%xmm0
  402952:	00 
  402953:	c5 fb 11 44 24 50    	vmovsd %xmm0,0x50(%rsp)
  402959:	c5 fb 10 80 08 00 09 	vmovsd 0x90008(%rax),%xmm0
  402960:	00 
  402961:	be 84 a0 40 00       	mov    $0x40a084,%esi
  402966:	48 89 df             	mov    %rbx,%rdi
  402969:	b0 01                	mov    $0x1,%al
  40296b:	e8 70 e8 ff ff       	call   4011e0 <fprintf@plt>
  402970:	48 8b 44 24 38       	mov    0x38(%rsp),%rax
  402975:	c5 fb 10 44 24 50    	vmovsd 0x50(%rsp),%xmm0
  40297b:	c5 fb 58 80 08 00 09 	vaddsd 0x90008(%rax),%xmm0,%xmm0
  402982:	00 
  402983:	c5 fb 58 44 24 48    	vaddsd 0x48(%rsp),%xmm0,%xmm0
  402989:	c5 fb 58 44 24 40    	vaddsd 0x40(%rsp),%xmm0,%xmm0
  40298f:	c5 fb 11 44 24 40    	vmovsd %xmm0,0x40(%rsp)
  402995:	c5 fb 10 80 10 00 09 	vmovsd 0x90010(%rax),%xmm0
  40299c:	00 
  40299d:	be 84 a0 40 00       	mov    $0x40a084,%esi
  4029a2:	48 89 df             	mov    %rbx,%rdi
  4029a5:	b0 01                	mov    $0x1,%al
  4029a7:	e8 34 e8 ff ff       	call   4011e0 <fprintf@plt>
  4029ac:	48 8b 44 24 38       	mov    0x38(%rsp),%rax
  4029b1:	c5 fb 10 80 10 00 09 	vmovsd 0x90010(%rax),%xmm0
  4029b8:	00 
  4029b9:	c5 fb 58 44 24 40    	vaddsd 0x40(%rsp),%xmm0,%xmm0
  4029bf:	c5 fb 11 44 24 40    	vmovsd %xmm0,0x40(%rsp)
  4029c5:	c5 fb 10 80 18 00 09 	vmovsd 0x90018(%rax),%xmm0
  4029cc:	00 
  4029cd:	be 84 a0 40 00       	mov    $0x40a084,%esi
  4029d2:	48 89 df             	mov    %rbx,%rdi
  4029d5:	b0 01                	mov    $0x1,%al
  4029d7:	e8 04 e8 ff ff       	call   4011e0 <fprintf@plt>
  4029dc:	48 8b 44 24 38       	mov    0x38(%rsp),%rax
  4029e1:	c5 fb 10 80 18 00 09 	vmovsd 0x90018(%rax),%xmm0
  4029e8:	00 
  4029e9:	c5 fb 11 44 24 48    	vmovsd %xmm0,0x48(%rsp)
  4029ef:	c5 fb 10 80 20 00 09 	vmovsd 0x90020(%rax),%xmm0
  4029f6:	00 
  4029f7:	be 84 a0 40 00       	mov    $0x40a084,%esi
  4029fc:	48 89 df             	mov    %rbx,%rdi
  4029ff:	b0 01                	mov    $0x1,%al
  402a01:	e8 da e7 ff ff       	call   4011e0 <fprintf@plt>
  402a06:	48 8b 44 24 38       	mov    0x38(%rsp),%rax
  402a0b:	c5 fb 10 80 20 00 09 	vmovsd 0x90020(%rax),%xmm0
  402a12:	00 
  402a13:	c5 fb 58 44 24 48    	vaddsd 0x48(%rsp),%xmm0,%xmm0
  402a19:	c5 fb 58 44 24 40    	vaddsd 0x40(%rsp),%xmm0,%xmm0
  402a1f:	c5 fb 11 44 24 40    	vmovsd %xmm0,0x40(%rsp)
  402a25:	c5 fb 10 80 28 00 09 	vmovsd 0x90028(%rax),%xmm0
  402a2c:	00 
  402a2d:	be 84 a0 40 00       	mov    $0x40a084,%esi
  402a32:	48 89 df             	mov    %rbx,%rdi
  402a35:	b0 01                	mov    $0x1,%al
  402a37:	e8 a4 e7 ff ff       	call   4011e0 <fprintf@plt>
  402a3c:	48 8b 44 24 38       	mov    0x38(%rsp),%rax
  402a41:	c5 fb 10 80 28 00 09 	vmovsd 0x90028(%rax),%xmm0
  402a48:	00 
  402a49:	c5 fb 11 44 24 48    	vmovsd %xmm0,0x48(%rsp)
  402a4f:	c5 fb 10 80 30 00 09 	vmovsd 0x90030(%rax),%xmm0
  402a56:	00 
  402a57:	be 84 a0 40 00       	mov    $0x40a084,%esi
  402a5c:	48 89 df             	mov    %rbx,%rdi
  402a5f:	b0 01                	mov    $0x1,%al
  402a61:	e8 7a e7 ff ff       	call   4011e0 <fprintf@plt>
  402a66:	48 8b 44 24 38       	mov    0x38(%rsp),%rax
  402a6b:	c5 fb 10 80 30 00 09 	vmovsd 0x90030(%rax),%xmm0
  402a72:	00 
  402a73:	c5 fb 58 44 24 48    	vaddsd 0x48(%rsp),%xmm0,%xmm0
  402a79:	c5 fb 11 44 24 48    	vmovsd %xmm0,0x48(%rsp)
  402a7f:	c5 fb 10 80 38 00 09 	vmovsd 0x90038(%rax),%xmm0
  402a86:	00 
  402a87:	be 84 a0 40 00       	mov    $0x40a084,%esi
  402a8c:	48 89 df             	mov    %rbx,%rdi
  402a8f:	b0 01                	mov    $0x1,%al
  402a91:	e8 4a e7 ff ff       	call   4011e0 <fprintf@plt>
  402a96:	48 8b 44 24 38       	mov    0x38(%rsp),%rax
  402a9b:	c5 fb 10 80 38 00 09 	vmovsd 0x90038(%rax),%xmm0
  402aa2:	00 
  402aa3:	c5 fb 11 44 24 50    	vmovsd %xmm0,0x50(%rsp)
  402aa9:	c5 fb 10 80 40 00 09 	vmovsd 0x90040(%rax),%xmm0
  402ab0:	00 
  402ab1:	be 84 a0 40 00       	mov    $0x40a084,%esi
  402ab6:	48 89 df             	mov    %rbx,%rdi
  402ab9:	b0 01                	mov    $0x1,%al
  402abb:	e8 20 e7 ff ff       	call   4011e0 <fprintf@plt>
  402ac0:	48 8b 44 24 38       	mov    0x38(%rsp),%rax
  402ac5:	c5 fb 10 44 24 50    	vmovsd 0x50(%rsp),%xmm0
  402acb:	c5 fb 58 80 40 00 09 	vaddsd 0x90040(%rax),%xmm0,%xmm0
  402ad2:	00 
  402ad3:	c5 fb 58 44 24 48    	vaddsd 0x48(%rsp),%xmm0,%xmm0
  402ad9:	c5 fb 58 44 24 40    	vaddsd 0x40(%rsp),%xmm0,%xmm0
  402adf:	c5 fb 11 44 24 40    	vmovsd %xmm0,0x40(%rsp)
  402ae5:	c5 fb 10 80 48 00 09 	vmovsd 0x90048(%rax),%xmm0
  402aec:	00 
  402aed:	be 84 a0 40 00       	mov    $0x40a084,%esi
  402af2:	48 89 df             	mov    %rbx,%rdi
  402af5:	b0 01                	mov    $0x1,%al
  402af7:	e8 e4 e6 ff ff       	call   4011e0 <fprintf@plt>
  402afc:	48 8b 44 24 38       	mov    0x38(%rsp),%rax
  402b01:	c5 fb 10 44 24 40    	vmovsd 0x40(%rsp),%xmm0
  402b07:	c5 fb 58 80 48 00 09 	vaddsd 0x90048(%rax),%xmm0,%xmm0
  402b0e:	00 
  402b0f:	c5 fb 11 44 24 40    	vmovsd %xmm0,0x40(%rsp)
  402b15:	bf 0a 00 00 00       	mov    $0xa,%edi
  402b1a:	48 89 de             	mov    %rbx,%rsi
  402b1d:	e8 ce e5 ff ff       	call   4010f0 <fputc@plt>
  402b22:	be 8a a0 40 00       	mov    $0x40a08a,%esi
  402b27:	48 89 df             	mov    %rbx,%rdi
  402b2a:	c5 fb 10 44 24 40    	vmovsd 0x40(%rsp),%xmm0
  402b30:	b0 01                	mov    $0x1,%al
  402b32:	e8 a9 e6 ff ff       	call   4011e0 <fprintf@plt>
  402b37:	48 89 df             	mov    %rbx,%rdi
  402b3a:	e8 71 e6 ff ff       	call   4011b0 <fclose@plt>
  402b3f:	48 8b 7c 24 60       	mov    0x60(%rsp),%rdi
  402b44:	e8 b7 e5 ff ff       	call   401100 <free@plt>
  402b49:	48 8b 7c 24 58       	mov    0x58(%rsp),%rdi
  402b4e:	e8 ad e5 ff ff       	call   401100 <free@plt>
  402b53:	48 8b 7c 24 38       	mov    0x38(%rsp),%rdi
  402b58:	e8 a3 e5 ff ff       	call   401100 <free@plt>
  402b5d:	31 c0                	xor    %eax,%eax
  402b5f:	e9 52 eb ff ff       	jmp    4016b6 <main+0xa6>
  402b64:	66 66 66 2e 0f 1f 84 	data16 data16 cs nopw 0x0(%rax,%rax,1)
  402b6b:	00 00 00 00 00 

0000000000402b70 <main.extracted>:
  402b70:	41 56                	push   %r14
  402b72:	53                   	push   %rbx
  402b73:	50                   	push   %rax
  402b74:	49 89 d6             	mov    %rdx,%r14
  402b77:	48 89 fb             	mov    %rdi,%rbx
  402b7a:	8b 37                	mov    (%rdi),%esi
  402b7c:	bf 00 d1 40 00       	mov    $0x40d100,%edi
  402b81:	e8 5a e5 ff ff       	call   4010e0 <__kmpc_single@plt>
  402b86:	83 f8 01             	cmp    $0x1,%eax
  402b89:	75 14                	jne    402b9f <main.extracted+0x2f>
  402b8b:	e8 00 e6 ff ff       	call   401190 <omp_get_num_threads@plt>
  402b90:	41 89 06             	mov    %eax,(%r14)
  402b93:	8b 33                	mov    (%rbx),%esi
  402b95:	bf 20 d1 40 00       	mov    $0x40d120,%edi
  402b9a:	e8 f1 e4 ff ff       	call   401090 <__kmpc_end_single@plt>
  402b9f:	8b 33                	mov    (%rbx),%esi
  402ba1:	bf 40 d1 40 00       	mov    $0x40d140,%edi
  402ba6:	48 83 c4 08          	add    $0x8,%rsp
  402baa:	5b                   	pop    %rbx
  402bab:	41 5e                	pop    %r14
  402bad:	e9 ee e5 ff ff       	jmp    4011a0 <__kmpc_barrier@plt>
  402bb2:	66 66 66 66 66 2e 0f 	data16 data16 data16 data16 cs nopw 0x0(%rax,%rax,1)
  402bb9:	1f 84 00 00 00 00 00 

0000000000402bc0 <main.extracted.17>:
  402bc0:	55                   	push   %rbp
  402bc1:	41 57                	push   %r15
  402bc3:	41 56                	push   %r14
  402bc5:	41 55                	push   %r13
  402bc7:	41 54                	push   %r12
  402bc9:	53                   	push   %rbx
  402bca:	48 83 ec 18          	sub    $0x18,%rsp
  402bce:	4c 89 cb             	mov    %r9,%rbx
  402bd1:	4d 89 c6             	mov    %r8,%r14
  402bd4:	49 89 cf             	mov    %rcx,%r15
  402bd7:	c7 44 24 14 00 00 00 	movl   $0x0,0x14(%rsp)
  402bde:	00 
  402bdf:	8b 2f                	mov    (%rdi),%ebp
  402be1:	c7 44 24 0c 00 00 00 	movl   $0x0,0xc(%rsp)
  402be8:	00 
  402be9:	c7 44 24 08 ff 1f 00 	movl   $0x1fff,0x8(%rsp)
  402bf0:	00 
  402bf1:	c7 44 24 10 01 00 00 	movl   $0x1,0x10(%rsp)
  402bf8:	00 
  402bf9:	c7 04 24 00 00 00 00 	movl   $0x0,(%rsp)
  402c00:	bf 80 d1 40 00       	mov    $0x40d180,%edi
  402c05:	89 ee                	mov    %ebp,%esi
  402c07:	ba 25 00 00 00       	mov    $0x25,%edx
  402c0c:	31 c9                	xor    %ecx,%ecx
  402c0e:	41 b8 ff 1f 00 00    	mov    $0x1fff,%r8d
  402c14:	41 b9 01 00 00 00    	mov    $0x1,%r9d
  402c1a:	e8 11 e4 ff ff       	call   401030 <__kmpc_dispatch_init_4@plt>
  402c1f:	48 8d 54 24 14       	lea    0x14(%rsp),%rdx
  402c24:	48 8d 4c 24 0c       	lea    0xc(%rsp),%rcx
  402c29:	4c 8d 44 24 08       	lea    0x8(%rsp),%r8
  402c2e:	4c 8d 4c 24 10       	lea    0x10(%rsp),%r9
  402c33:	bf a0 d1 40 00       	mov    $0x40d1a0,%edi
  402c38:	89 ee                	mov    %ebp,%esi
  402c3a:	e8 81 e5 ff ff       	call   4011c0 <__kmpc_dispatch_next_4@plt>
  402c3f:	85 c0                	test   %eax,%eax
  402c41:	0f 84 ac 01 00 00    	je     402df3 <main.extracted.17+0x233>
  402c47:	4c 8d 6c 24 10       	lea    0x10(%rsp),%r13
  402c4c:	0f 1f 40 00          	nopl   0x0(%rax)
  402c50:	8b 7c 24 0c          	mov    0xc(%rsp),%edi
  402c54:	8b 44 24 08          	mov    0x8(%rsp),%eax
  402c58:	39 c7                	cmp    %eax,%edi
  402c5a:	0f 87 93 01 00 00    	ja     402df3 <main.extracted.17+0x233>
  402c60:	48 29 f8             	sub    %rdi,%rax
  402c63:	48 8d 48 01          	lea    0x1(%rax),%rcx
  402c67:	48 89 ca             	mov    %rcx,%rdx
  402c6a:	48 83 e2 fc          	and    $0xfffffffffffffffc,%rdx
  402c6e:	74 30                	je     402ca0 <main.extracted.17+0xe0>
  402c70:	48 89 fe             	mov    %rdi,%rsi
  402c73:	48 c1 e6 0d          	shl    $0xd,%rsi
  402c77:	45 31 c0             	xor    %r8d,%r8d
  402c7a:	66 0f 1f 44 00 00    	nopw   0x0(%rax,%rax,1)
  402c80:	49 83 c0 04          	add    $0x4,%r8
  402c84:	48 81 c6 00 80 00 00 	add    $0x8000,%rsi
  402c8b:	49 39 d0             	cmp    %rdx,%r8
  402c8e:	7c f0                	jl     402c80 <main.extracted.17+0xc0>
  402c90:	eb 21                	jmp    402cb3 <main.extracted.17+0xf3>
  402c92:	66 66 66 66 66 2e 0f 	data16 data16 data16 data16 cs nopw 0x0(%rax,%rax,1)
  402c99:	1f 84 00 00 00 00 00 
  402ca0:	31 d2                	xor    %edx,%edx
  402ca2:	66 66 66 66 66 2e 0f 	data16 data16 data16 data16 cs nopw 0x0(%rax,%rax,1)
  402ca9:	1f 84 00 00 00 00 00 
  402cb0:	48 ff c2             	inc    %rdx
  402cb3:	48 39 d1             	cmp    %rdx,%rcx
  402cb6:	75 f8                	jne    402cb0 <main.extracted.17+0xf0>
  402cb8:	4c 8b 03             	mov    (%rbx),%r8
  402cbb:	49 8b 0f             	mov    (%r15),%rcx
  402cbe:	49 8b 16             	mov    (%r14),%rdx
  402cc1:	48 89 fe             	mov    %rdi,%rsi
  402cc4:	48 c1 e6 0d          	shl    $0xd,%rsi
  402cc8:	48 83 c2 60          	add    $0x60,%rdx
  402ccc:	48 c1 e7 10          	shl    $0x10,%rdi
  402cd0:	49 8d 7c 38 60       	lea    0x60(%r8,%rdi,1),%rdi
  402cd5:	45 31 c0             	xor    %r8d,%r8d
  402cd8:	0f 1f 84 00 00 00 00 	nopl   0x0(%rax,%rax,1)
  402cdf:	00 
  402ce0:	41 b9 00 00 08 00    	mov    $0x80000,%r9d
  402ce6:	49 c7 c2 fc ff ff ff 	mov    $0xfffffffffffffffc,%r10
  402ced:	0f 1f 00             	nopl   (%rax)
  402cf0:	49 81 c1 00 00 10 00 	add    $0x100000,%r9
  402cf7:	49 83 ea 80          	sub    $0xffffffffffffff80,%r10
  402cfb:	49 81 fa fc 1f 00 00 	cmp    $0x1ffc,%r10
  402d02:	72 ec                	jb     402cf0 <main.extracted.17+0x130>
  402d04:	4d 89 c1             	mov    %r8,%r9
  402d07:	49 c1 e1 0d          	shl    $0xd,%r9
  402d0b:	49 89 d2             	mov    %rdx,%r10
  402d0e:	45 31 db             	xor    %r11d,%r11d
  402d11:	66 66 66 66 66 66 2e 	data16 data16 data16 data16 data16 cs nopw 0x0(%rax,%rax,1)
  402d18:	0f 1f 84 00 00 00 00 
  402d1f:	00 
  402d20:	4f 8d 24 19          	lea    (%r9,%r11,1),%r12
  402d24:	49 01 f4             	add    %rsi,%r12
  402d27:	c4 a2 7d 19 04 e1    	vbroadcastsd (%rcx,%r12,8),%ymm0
  402d2d:	49 c7 c4 fc ff ff ff 	mov    $0xfffffffffffffffc,%r12
  402d34:	66 66 66 2e 0f 1f 84 	data16 data16 cs nopw 0x0(%rax,%rax,1)
  402d3b:	00 00 00 00 00 
  402d40:	c4 81 7d 10 4c e2 c0 	vmovupd -0x40(%r10,%r12,8),%ymm1
  402d47:	c4 a2 fd a8 4c e7 c0 	vfmadd213pd -0x40(%rdi,%r12,8),%ymm0,%ymm1
  402d4e:	c4 a1 7d 11 4c e7 c0 	vmovupd %ymm1,-0x40(%rdi,%r12,8)
  402d55:	c4 81 7d 10 4c e2 e0 	vmovupd -0x20(%r10,%r12,8),%ymm1
  402d5c:	c4 a2 fd a8 4c e7 e0 	vfmadd213pd -0x20(%rdi,%r12,8),%ymm0,%ymm1
  402d63:	c4 a1 7d 11 4c e7 e0 	vmovupd %ymm1,-0x20(%rdi,%r12,8)
  402d6a:	c4 81 7d 10 0c e2    	vmovupd (%r10,%r12,8),%ymm1
  402d70:	c4 a2 fd a8 0c e7    	vfmadd213pd (%rdi,%r12,8),%ymm0,%ymm1
  402d76:	c4 a1 7d 11 0c e7    	vmovupd %ymm1,(%rdi,%r12,8)
  402d7c:	c4 81 7d 10 4c e2 20 	vmovupd 0x20(%r10,%r12,8),%ymm1
  402d83:	c4 a2 fd a8 4c e7 20 	vfmadd213pd 0x20(%rdi,%r12,8),%ymm0,%ymm1
  402d8a:	c4 a1 7d 11 4c e7 20 	vmovupd %ymm1,0x20(%rdi,%r12,8)
  402d91:	49 83 c4 10          	add    $0x10,%r12
  402d95:	49 81 fc fc 1f 00 00 	cmp    $0x1ffc,%r12
  402d9c:	72 a2                	jb     402d40 <main.extracted.17+0x180>
  402d9e:	49 81 c2 00 00 01 00 	add    $0x10000,%r10
  402da5:	49 81 fb ff 1f 00 00 	cmp    $0x1fff,%r11
  402dac:	4d 8d 5b 01          	lea    0x1(%r11),%r11
  402db0:	0f 85 6a ff ff ff    	jne    402d20 <main.extracted.17+0x160>
  402db6:	48 81 c7 00 00 01 00 	add    $0x10000,%rdi
  402dbd:	49 39 c0             	cmp    %rax,%r8
  402dc0:	4d 8d 40 01          	lea    0x1(%r8),%r8
  402dc4:	0f 85 16 ff ff ff    	jne    402ce0 <main.extracted.17+0x120>
  402dca:	bf a0 d1 40 00       	mov    $0x40d1a0,%edi
  402dcf:	89 ee                	mov    %ebp,%esi
  402dd1:	48 8d 54 24 14       	lea    0x14(%rsp),%rdx
  402dd6:	48 8d 4c 24 0c       	lea    0xc(%rsp),%rcx
  402ddb:	4c 8d 44 24 08       	lea    0x8(%rsp),%r8
  402de0:	4d 89 e9             	mov    %r13,%r9
  402de3:	c5 f8 77             	vzeroupper
  402de6:	e8 d5 e3 ff ff       	call   4011c0 <__kmpc_dispatch_next_4@plt>
  402deb:	85 c0                	test   %eax,%eax
  402ded:	0f 85 5d fe ff ff    	jne    402c50 <main.extracted.17+0x90>
  402df3:	48 83 c4 18          	add    $0x18,%rsp
  402df7:	5b                   	pop    %rbx
  402df8:	41 5c                	pop    %r12
  402dfa:	41 5d                	pop    %r13
  402dfc:	41 5e                	pop    %r14
  402dfe:	41 5f                	pop    %r15
  402e00:	5d                   	pop    %rbp
  402e01:	c3                   	ret
  402e02:	66 66 66 66 66 2e 0f 	data16 data16 data16 data16 cs nopw 0x0(%rax,%rax,1)
  402e09:	1f 84 00 00 00 00 00 

0000000000402e10 <main.extracted.24>:
  402e10:	41 57                	push   %r15
  402e12:	41 56                	push   %r14
  402e14:	41 55                	push   %r13
  402e16:	41 54                	push   %r12
  402e18:	53                   	push   %rbx
  402e19:	48 83 ec 10          	sub    $0x10,%rsp
  402e1d:	4d 89 ce             	mov    %r9,%r14
  402e20:	4d 89 c7             	mov    %r8,%r15
  402e23:	49 89 cc             	mov    %rcx,%r12
  402e26:	c7 44 24 0c 00 00 00 	movl   $0x0,0xc(%rsp)
  402e2d:	00 
  402e2e:	8b 1f                	mov    (%rdi),%ebx
  402e30:	c7 44 24 04 00 00 00 	movl   $0x0,0x4(%rsp)
  402e37:	00 
  402e38:	c7 04 24 ff 1f 00 00 	movl   $0x1fff,(%rsp)
  402e3f:	c7 44 24 08 01 00 00 	movl   $0x1,0x8(%rsp)
  402e46:	00 
  402e47:	48 83 ec 08          	sub    $0x8,%rsp
  402e4b:	48 8d 44 24 10       	lea    0x10(%rsp),%rax
  402e50:	48 8d 4c 24 14       	lea    0x14(%rsp),%rcx
  402e55:	4c 8d 44 24 0c       	lea    0xc(%rsp),%r8
  402e5a:	4c 8d 4c 24 08       	lea    0x8(%rsp),%r9
  402e5f:	bf e0 d1 40 00       	mov    $0x40d1e0,%edi
  402e64:	89 de                	mov    %ebx,%esi
  402e66:	ba 22 00 00 00       	mov    $0x22,%edx
  402e6b:	6a 01                	push   $0x1
  402e6d:	6a 01                	push   $0x1
  402e6f:	50                   	push   %rax
  402e70:	e8 cb e2 ff ff       	call   401140 <__kmpc_for_static_init_4@plt>
  402e75:	48 83 c4 20          	add    $0x20,%rsp
  402e79:	8b 44 24 04          	mov    0x4(%rsp),%eax
  402e7d:	8b 0c 24             	mov    (%rsp),%ecx
  402e80:	39 c8                	cmp    %ecx,%eax
  402e82:	0f 87 ad 00 00 00    	ja     402f35 <main.extracted.24+0x125>
  402e88:	4d 8b 24 24          	mov    (%r12),%r12
  402e8c:	4d 8b 3f             	mov    (%r15),%r15
  402e8f:	49 8b 3e             	mov    (%r14),%rdi
  402e92:	48 8d 51 01          	lea    0x1(%rcx),%rdx
  402e96:	39 c2                	cmp    %eax,%edx
  402e98:	75 40                	jne    402eda <main.extracted.24+0xca>
  402e9a:	48 c1 e0 0d          	shl    $0xd,%rax
  402e9e:	48 c1 e1 0d          	shl    $0xd,%rcx
  402ea2:	48 81 c1 00 20 00 00 	add    $0x2000,%rcx
  402ea9:	48 ba 00 00 00 00 00 	movabs $0x3ff0000000000000,%rdx
  402eb0:	00 f0 3f 
  402eb3:	48 be 00 00 00 00 00 	movabs $0x4000000000000000,%rsi
  402eba:	00 00 40 
  402ebd:	0f 1f 00             	nopl   (%rax)
  402ec0:	49 89 14 c4          	mov    %rdx,(%r12,%rax,8)
  402ec4:	49 89 34 c7          	mov    %rsi,(%r15,%rax,8)
  402ec8:	48 c7 04 c7 00 00 00 	movq   $0x0,(%rdi,%rax,8)
  402ecf:	00 
  402ed0:	48 ff c0             	inc    %rax
  402ed3:	48 39 c1             	cmp    %rax,%rcx
  402ed6:	75 e8                	jne    402ec0 <main.extracted.24+0xb0>
  402ed8:	eb 5b                	jmp    402f35 <main.extracted.24+0x125>
  402eda:	48 29 c2             	sub    %rax,%rdx
  402edd:	49 89 d6             	mov    %rdx,%r14
  402ee0:	49 c1 e6 0d          	shl    $0xd,%r14
  402ee4:	48 c1 e0 10          	shl    $0x10,%rax
  402ee8:	48 01 c7             	add    %rax,%rdi
  402eeb:	48 c1 e2 10          	shl    $0x10,%rdx
  402eef:	31 f6                	xor    %esi,%esi
  402ef1:	49 89 c5             	mov    %rax,%r13
  402ef4:	e8 87 00 00 00       	call   402f80 <_intel_fast_memset>
  402ef9:	31 c0                	xor    %eax,%eax
  402efb:	4d 01 ef             	add    %r13,%r15
  402efe:	4d 01 ec             	add    %r13,%r12
  402f01:	c4 e2 7d 19 05 36 71 	vbroadcastsd 0x7136(%rip),%ymm0        # 40a040 <_IO_stdin_used+0x40>
  402f08:	00 00 
  402f0a:	c4 e2 7d 19 0d 35 71 	vbroadcastsd 0x7135(%rip),%ymm1        # 40a048 <_IO_stdin_used+0x48>
  402f11:	00 00 
  402f13:	66 66 66 66 2e 0f 1f 	data16 data16 data16 cs nopw 0x0(%rax,%rax,1)
  402f1a:	84 00 00 00 00 00 
  402f20:	c4 c1 7c 11 04 c4    	vmovups %ymm0,(%r12,%rax,8)
  402f26:	c4 c1 7c 11 0c c7    	vmovups %ymm1,(%r15,%rax,8)
  402f2c:	48 83 c0 04          	add    $0x4,%rax
  402f30:	4c 39 f0             	cmp    %r14,%rax
  402f33:	7c eb                	jl     402f20 <main.extracted.24+0x110>
  402f35:	bf 00 d2 40 00       	mov    $0x40d200,%edi
  402f3a:	89 de                	mov    %ebx,%esi
  402f3c:	48 83 c4 10          	add    $0x10,%rsp
  402f40:	5b                   	pop    %rbx
  402f41:	41 5c                	pop    %r12
  402f43:	41 5d                	pop    %r13
  402f45:	41 5e                	pop    %r14
  402f47:	41 5f                	pop    %r15
  402f49:	c5 f8 77             	vzeroupper
  402f4c:	e9 4f e1 ff ff       	jmp    4010a0 <__kmpc_for_static_fini@plt>
  402f51:	0f 1f 00             	nopl   (%rax)
  402f54:	66 2e 0f 1f 84 00 00 	cs nopw 0x0(%rax,%rax,1)
  402f5b:	00 00 00 
  402f5e:	66 90                	xchg   %ax,%ax

0000000000402f60 <__intel_get_fast_memset_impl.V>:
  402f60:	48 c7 c0 d0 4d 40 00 	mov    $0x404dd0,%rax
  402f67:	c3                   	ret
  402f68:	0f 1f 84 00 00 00 00 	nopl   0x0(%rax,%rax,1)
  402f6f:	00 

0000000000402f70 <__intel_get_fast_memset_impl.Z>:
  402f70:	48 c7 c0 00 35 40 00 	mov    $0x403500,%rax
  402f77:	c3                   	ret
  402f78:	0f 1f 84 00 00 00 00 	nopl   0x0(%rax,%rax,1)
  402f7f:	00 

0000000000402f80 <_intel_fast_memset>:
  402f80:	f3 0f 1e fa          	endbr64
  402f84:	48 8b 05 05 a3 00 00 	mov    0xa305(%rip),%rax        # 40d290 <__real_memset_impl>
  402f8b:	48 85 c0             	test   %rax,%rax
  402f8e:	0f 84 0c 00 00 00    	je     402fa0 <__real_memset_impl_setup>
  402f94:	ff e0                	jmp    *%rax
  402f96:	66 2e 0f 1f 84 00 00 	cs nopw 0x0(%rax,%rax,1)
  402f9d:	00 00 00 

0000000000402fa0 <__real_memset_impl_setup>:
  402fa0:	55                   	push   %rbp
  402fa1:	41 56                	push   %r14
  402fa3:	53                   	push   %rbx
  402fa4:	48 89 d3             	mov    %rdx,%rbx
  402fa7:	89 f5                	mov    %esi,%ebp
  402fa9:	49 89 fe             	mov    %rdi,%r14
  402fac:	48 c7 c1 b0 d2 40 00 	mov    $0x40d2b0,%rcx
  402fb3:	48 8b 01             	mov    (%rcx),%rax
  402fb6:	48 85 c0             	test   %rax,%rax
  402fb9:	75 12                	jne    402fcd <__real_memset_impl_setup+0x2d>
  402fbb:	0f 1f 44 00 00       	nopl   0x0(%rax,%rax,1)
  402fc0:	e8 9b 4b 00 00       	call   407b60 <__intel_cpu_features_init_x>
  402fc5:	48 8b 01             	mov    (%rcx),%rax
  402fc8:	48 85 c0             	test   %rax,%rax
  402fcb:	74 f3                	je     402fc0 <__real_memset_impl_setup+0x20>
  402fcd:	48 89 c1             	mov    %rax,%rcx
  402fd0:	48 f7 d1             	not    %rcx
  402fd3:	48 ba ec 9f 9d 18 07 	movabs $0x7189d9fec,%rdx
  402fda:	00 00 00 
  402fdd:	48 85 d1             	test   %rdx,%rcx
  402fe0:	75 07                	jne    402fe9 <__real_memset_impl_setup+0x49>
  402fe2:	e8 89 ff ff ff       	call   402f70 <__intel_get_fast_memset_impl.Z>
  402fe7:	eb 29                	jmp    403012 <__real_memset_impl_setup+0x72>
  402fe9:	89 c1                	mov    %eax,%ecx
  402feb:	f7 d1                	not    %ecx
  402fed:	f7 c1 ec 9f 9d 00    	test   $0x9d9fec,%ecx
  402ff3:	75 07                	jne    402ffc <__real_memset_impl_setup+0x5c>
  402ff5:	e8 66 ff ff ff       	call   402f60 <__intel_get_fast_memset_impl.V>
  402ffa:	eb 16                	jmp    403012 <__real_memset_impl_setup+0x72>
  402ffc:	f7 d0                	not    %eax
  402ffe:	a8 6c                	test   $0x6c,%al
  403000:	75 09                	jne    40300b <__real_memset_impl_setup+0x6b>
  403002:	48 c7 c0 a0 5e 40 00 	mov    $0x405ea0,%rax
  403009:	eb 07                	jmp    403012 <__real_memset_impl_setup+0x72>
  40300b:	48 8b 05 9e 9f 00 00 	mov    0x9f9e(%rip),%rax        # 40cfb0 <memset@GLIBC_2.2.5>
  403012:	48 89 05 77 a2 00 00 	mov    %rax,0xa277(%rip)        # 40d290 <__real_memset_impl>
  403019:	4c 89 f7             	mov    %r14,%rdi
  40301c:	89 ee                	mov    %ebp,%esi
  40301e:	48 89 da             	mov    %rbx,%rdx
  403021:	5b                   	pop    %rbx
  403022:	41 5e                	pop    %r14
  403024:	5d                   	pop    %rbp
  403025:	ff e0                	jmp    *%rax
  403027:	90                   	nop
  403028:	0f 1f 84 00 00 00 00 	nopl   0x0(%rax,%rax,1)
  40302f:	00 

0000000000403030 <__intel_new_feature_proc_init_n>:
  403030:	f3 0f 1e fa          	endbr64
  403034:	55                   	push   %rbp
  403035:	41 57                	push   %r15
  403037:	41 56                	push   %r14
  403039:	41 55                	push   %r13
  40303b:	41 54                	push   %r12
  40303d:	53                   	push   %rbx
  40303e:	48 81 ec 38 04 00 00 	sub    $0x438,%rsp
  403045:	64 48 8b 04 25 28 00 	mov    %fs:0x28,%rax
  40304c:	00 00 
  40304e:	48 89 84 24 30 04 00 	mov    %rax,0x430(%rsp)
  403055:	00 
  403056:	0f 57 c0             	xorps  %xmm0,%xmm0
  403059:	0f 29 44 24 10       	movaps %xmm0,0x10(%rsp)
  40305e:	48 c7 c1 a0 d2 40 00 	mov    $0x40d2a0,%rcx
  403065:	48 83 39 00          	cmpq   $0x0,(%rcx)
  403069:	75 17                	jne    403082 <__intel_new_feature_proc_init_n+0x52>
  40306b:	e8 10 40 00 00       	call   407080 <__intel_cpu_features_init>
  403070:	85 c0                	test   %eax,%eax
  403072:	0f 85 0b 02 00 00    	jne    403283 <__intel_new_feature_proc_init_n+0x253>
  403078:	48 83 39 00          	cmpq   $0x0,(%rcx)
  40307c:	0f 84 01 02 00 00    	je     403283 <__intel_new_feature_proc_init_n+0x253>
  403082:	83 ff 02             	cmp    $0x2,%edi
  403085:	7d 38                	jge    4030bf <__intel_new_feature_proc_init_n+0x8f>
  403087:	48 63 c7             	movslq %edi,%rax
  40308a:	48 8b 0c c1          	mov    (%rcx,%rax,8),%rcx
  40308e:	48 f7 d1             	not    %rcx
  403091:	48 85 ce             	test   %rcx,%rsi
  403094:	75 48                	jne    4030de <__intel_new_feature_proc_init_n+0xae>
  403096:	64 48 8b 04 25 28 00 	mov    %fs:0x28,%rax
  40309d:	00 00 
  40309f:	48 3b 84 24 30 04 00 	cmp    0x430(%rsp),%rax
  4030a6:	00 
  4030a7:	0f 85 e8 02 00 00    	jne    403395 <__intel_new_feature_proc_init_n+0x365>
  4030ad:	48 81 c4 38 04 00 00 	add    $0x438,%rsp
  4030b4:	5b                   	pop    %rbx
  4030b5:	41 5c                	pop    %r12
  4030b7:	41 5d                	pop    %r13
  4030b9:	41 5e                	pop    %r14
  4030bb:	41 5f                	pop    %r15
  4030bd:	5d                   	pop    %rbp
  4030be:	c3                   	ret
  4030bf:	bf 01 00 00 00       	mov    $0x1,%edi
  4030c4:	31 f6                	xor    %esi,%esi
  4030c6:	31 d2                	xor    %edx,%edx
  4030c8:	31 c0                	xor    %eax,%eax
  4030ca:	e8 61 61 00 00       	call   409230 <__libirc_print>
  4030cf:	bf 01 00 00 00       	mov    $0x1,%edi
  4030d4:	be 3a 00 00 00       	mov    $0x3a,%esi
  4030d9:	e9 bf 01 00 00       	jmp    40329d <__intel_new_feature_proc_init_n+0x26d>
  4030de:	48 21 f1             	and    %rsi,%rcx
  4030e1:	48 89 4c c4 10       	mov    %rcx,0x10(%rsp,%rax,8)
  4030e6:	45 31 ff             	xor    %r15d,%r15d
  4030e9:	bf 39 00 00 00       	mov    $0x39,%edi
  4030ee:	31 f6                	xor    %esi,%esi
  4030f0:	31 c0                	xor    %eax,%eax
  4030f2:	e8 f9 5e 00 00       	call   408ff0 <__libirc_get_msg>
  4030f7:	48 89 04 24          	mov    %rax,(%rsp)
  4030fb:	c6 44 24 30 00       	movb   $0x0,0x30(%rsp)
  403100:	bd 01 00 00 00       	mov    $0x1,%ebp
  403105:	4c 8d 64 24 10       	lea    0x10(%rsp),%r12
  40310a:	4c 8d 6c 24 30       	lea    0x30(%rsp),%r13
  40310f:	31 db                	xor    %ebx,%ebx
  403111:	eb 31                	jmp    403144 <__intel_new_feature_proc_init_n+0x114>
  403113:	b8 ff 03 00 00       	mov    $0x3ff,%eax
  403118:	44 29 f8             	sub    %r15d,%eax
  40311b:	48 63 d0             	movslq %eax,%rdx
  40311e:	b9 00 04 00 00       	mov    $0x400,%ecx
  403123:	4c 89 ef             	mov    %r13,%rdi
  403126:	4c 89 f6             	mov    %r14,%rsi
  403129:	e8 c2 e0 ff ff       	call   4011f0 <__strncat_chk@plt>
  40312e:	4c 89 ef             	mov    %r13,%rdi
  403131:	e8 da df ff ff       	call   401110 <strlen@plt>
  403136:	49 89 c7             	mov    %rax,%r15
  403139:	ff c5                	inc    %ebp
  40313b:	83 fd 47             	cmp    $0x47,%ebp
  40313e:	0f 84 26 01 00 00    	je     40326a <__intel_new_feature_proc_init_n+0x23a>
  403144:	89 e8                	mov    %ebp,%eax
  403146:	e8 25 55 00 00       	call   408670 <__libirc_get_feature_bitpos>
  40314b:	85 c0                	test   %eax,%eax
  40314d:	78 ea                	js     403139 <__intel_new_feature_proc_init_n+0x109>
  40314f:	4c 89 e7             	mov    %r12,%rdi
  403152:	89 ee                	mov    %ebp,%esi
  403154:	e8 57 55 00 00       	call   4086b0 <__libirc_get_cpu_feature>
  403159:	85 c0                	test   %eax,%eax
  40315b:	74 dc                	je     403139 <__intel_new_feature_proc_init_n+0x109>
  40315d:	4c 89 e7             	mov    %r12,%rdi
  403160:	89 ee                	mov    %ebp,%esi
  403162:	e8 49 55 00 00       	call   4086b0 <__libirc_get_cpu_feature>
  403167:	85 c0                	test   %eax,%eax
  403169:	0f 88 e6 00 00 00    	js     403255 <__intel_new_feature_proc_init_n+0x225>
  40316f:	89 ef                	mov    %ebp,%edi
  403171:	e8 0a 4a 00 00       	call   407b80 <__libirc_get_feature_name>
  403176:	48 85 c0             	test   %rax,%rax
  403179:	0f 84 d6 00 00 00    	je     403255 <__intel_new_feature_proc_init_n+0x225>
  40317f:	49 89 c6             	mov    %rax,%r14
  403182:	80 38 00             	cmpb   $0x0,(%rax)
  403185:	0f 84 ca 00 00 00    	je     403255 <__intel_new_feature_proc_init_n+0x225>
  40318b:	80 7c 24 30 00       	cmpb   $0x0,0x30(%rsp)
  403190:	74 81                	je     403113 <__intel_new_feature_proc_init_n+0xe3>
  403192:	48 85 db             	test   %rbx,%rbx
  403195:	0f 84 b2 00 00 00    	je     40324d <__intel_new_feature_proc_init_n+0x21d>
  40319b:	4d 89 ec             	mov    %r13,%r12
  40319e:	48 89 df             	mov    %rbx,%rdi
  4031a1:	e8 6a df ff ff       	call   401110 <strlen@plt>
  4031a6:	49 89 c5             	mov    %rax,%r13
  4031a9:	48 8d 3d 06 6f 00 00 	lea    0x6f06(%rip),%rdi        # 40a0b6 <_IO_stdin_used+0xb6>
  4031b0:	e8 5b df ff ff       	call   401110 <strlen@plt>
  4031b5:	48 89 44 24 28       	mov    %rax,0x28(%rsp)
  4031ba:	48 89 5c 24 08       	mov    %rbx,0x8(%rsp)
  4031bf:	49 63 df             	movslq %r15d,%rbx
  4031c2:	48 8b 3c 24          	mov    (%rsp),%rdi
  4031c6:	e8 45 df ff ff       	call   401110 <strlen@plt>
  4031cb:	49 89 c7             	mov    %rax,%r15
  4031ce:	4c 89 f7             	mov    %r14,%rdi
  4031d1:	e8 3a df ff ff       	call   401110 <strlen@plt>
  4031d6:	49 01 dd             	add    %rbx,%r13
  4031d9:	4c 03 6c 24 28       	add    0x28(%rsp),%r13
  4031de:	4c 01 f8             	add    %r15,%rax
  4031e1:	4c 01 e8             	add    %r13,%rax
  4031e4:	b9 ff 03 00 00       	mov    $0x3ff,%ecx
  4031e9:	29 d9                	sub    %ebx,%ecx
  4031eb:	48 63 d1             	movslq %ecx,%rdx
  4031ee:	48 3d ff 03 00 00    	cmp    $0x3ff,%rax
  4031f4:	0f 87 dd 00 00 00    	ja     4032d7 <__intel_new_feature_proc_init_n+0x2a7>
  4031fa:	b9 00 04 00 00       	mov    $0x400,%ecx
  4031ff:	4d 89 e5             	mov    %r12,%r13
  403202:	4c 89 e7             	mov    %r12,%rdi
  403205:	48 8d 35 aa 6e 00 00 	lea    0x6eaa(%rip),%rsi        # 40a0b6 <_IO_stdin_used+0xb6>
  40320c:	e8 df df ff ff       	call   4011f0 <__strncat_chk@plt>
  403211:	4c 89 e7             	mov    %r12,%rdi
  403214:	e8 f7 de ff ff       	call   401110 <strlen@plt>
  403219:	48 c1 e0 20          	shl    $0x20,%rax
  40321d:	48 ba 00 00 00 00 ff 	movabs $0x3ff00000000,%rdx
  403224:	03 00 00 
  403227:	48 29 c2             	sub    %rax,%rdx
  40322a:	48 c1 fa 20          	sar    $0x20,%rdx
  40322e:	b9 00 04 00 00       	mov    $0x400,%ecx
  403233:	4c 89 e7             	mov    %r12,%rdi
  403236:	48 8b 74 24 08       	mov    0x8(%rsp),%rsi
  40323b:	e8 b0 df ff ff       	call   4011f0 <__strncat_chk@plt>
  403240:	4c 89 f3             	mov    %r14,%rbx
  403243:	4c 8d 64 24 10       	lea    0x10(%rsp),%r12
  403248:	e9 e1 fe ff ff       	jmp    40312e <__intel_new_feature_proc_init_n+0xfe>
  40324d:	4c 89 f3             	mov    %r14,%rbx
  403250:	e9 e4 fe ff ff       	jmp    403139 <__intel_new_feature_proc_init_n+0x109>
  403255:	bf 01 00 00 00       	mov    $0x1,%edi
  40325a:	31 f6                	xor    %esi,%esi
  40325c:	31 d2                	xor    %edx,%edx
  40325e:	31 c0                	xor    %eax,%eax
  403260:	e8 cb 5f 00 00       	call   409230 <__libirc_print>
  403265:	e9 ce 00 00 00       	jmp    403338 <__intel_new_feature_proc_init_n+0x308>
  40326a:	48 85 db             	test   %rbx,%rbx
  40326d:	0f 84 ac 00 00 00    	je     40331f <__intel_new_feature_proc_init_n+0x2ef>
  403273:	49 89 dc             	mov    %rbx,%r12
  403276:	b8 ff 03 00 00       	mov    $0x3ff,%eax
  40327b:	44 29 f8             	sub    %r15d,%eax
  40327e:	48 63 d0             	movslq %eax,%rdx
  403281:	eb 59                	jmp    4032dc <__intel_new_feature_proc_init_n+0x2ac>
  403283:	bf 01 00 00 00       	mov    $0x1,%edi
  403288:	31 f6                	xor    %esi,%esi
  40328a:	31 d2                	xor    %edx,%edx
  40328c:	31 c0                	xor    %eax,%eax
  40328e:	e8 9d 5f 00 00       	call   409230 <__libirc_print>
  403293:	bf 01 00 00 00       	mov    $0x1,%edi
  403298:	be 3b 00 00 00       	mov    $0x3b,%esi
  40329d:	31 d2                	xor    %edx,%edx
  40329f:	31 c0                	xor    %eax,%eax
  4032a1:	e8 8a 5f 00 00       	call   409230 <__libirc_print>
  4032a6:	64 48 8b 04 25 28 00 	mov    %fs:0x28,%rax
  4032ad:	00 00 
  4032af:	48 3b 84 24 30 04 00 	cmp    0x430(%rsp),%rax
  4032b6:	00 
  4032b7:	0f 85 d8 00 00 00    	jne    403395 <__intel_new_feature_proc_init_n+0x365>
  4032bd:	bf 01 00 00 00       	mov    $0x1,%edi
  4032c2:	31 f6                	xor    %esi,%esi
  4032c4:	31 d2                	xor    %edx,%edx
  4032c6:	31 c0                	xor    %eax,%eax
  4032c8:	e8 63 5f 00 00       	call   409230 <__libirc_print>
  4032cd:	bf 01 00 00 00       	mov    $0x1,%edi
  4032d2:	e8 99 dd ff ff       	call   401070 <exit@plt>
  4032d7:	4c 8b 64 24 08       	mov    0x8(%rsp),%r12
  4032dc:	4c 8d 74 24 30       	lea    0x30(%rsp),%r14
  4032e1:	b9 00 04 00 00       	mov    $0x400,%ecx
  4032e6:	4c 89 f7             	mov    %r14,%rdi
  4032e9:	48 8b 34 24          	mov    (%rsp),%rsi
  4032ed:	e8 fe de ff ff       	call   4011f0 <__strncat_chk@plt>
  4032f2:	4c 89 f7             	mov    %r14,%rdi
  4032f5:	e8 16 de ff ff       	call   401110 <strlen@plt>
  4032fa:	48 c1 e0 20          	shl    $0x20,%rax
  4032fe:	48 ba 00 00 00 00 ff 	movabs $0x3ff00000000,%rdx
  403305:	03 00 00 
  403308:	48 29 c2             	sub    %rax,%rdx
  40330b:	48 c1 fa 20          	sar    $0x20,%rdx
  40330f:	b9 00 04 00 00       	mov    $0x400,%ecx
  403314:	4c 89 f7             	mov    %r14,%rdi
  403317:	4c 89 e6             	mov    %r12,%rsi
  40331a:	e8 d1 de ff ff       	call   4011f0 <__strncat_chk@plt>
  40331f:	0f b6 5c 24 30       	movzbl 0x30(%rsp),%ebx
  403324:	bf 01 00 00 00       	mov    $0x1,%edi
  403329:	31 f6                	xor    %esi,%esi
  40332b:	31 d2                	xor    %edx,%edx
  40332d:	31 c0                	xor    %eax,%eax
  40332f:	e8 fc 5e 00 00       	call   409230 <__libirc_print>
  403334:	84 db                	test   %bl,%bl
  403336:	75 15                	jne    40334d <__intel_new_feature_proc_init_n+0x31d>
  403338:	bf 01 00 00 00       	mov    $0x1,%edi
  40333d:	be 3a 00 00 00       	mov    $0x3a,%esi
  403342:	31 d2                	xor    %edx,%edx
  403344:	31 c0                	xor    %eax,%eax
  403346:	e8 e5 5e 00 00       	call   409230 <__libirc_print>
  40334b:	eb 1b                	jmp    403368 <__intel_new_feature_proc_init_n+0x338>
  40334d:	48 8d 4c 24 30       	lea    0x30(%rsp),%rcx
  403352:	bf 01 00 00 00       	mov    $0x1,%edi
  403357:	be 38 00 00 00       	mov    $0x38,%esi
  40335c:	ba 01 00 00 00       	mov    $0x1,%edx
  403361:	31 c0                	xor    %eax,%eax
  403363:	e8 c8 5e 00 00       	call   409230 <__libirc_print>
  403368:	bf 01 00 00 00       	mov    $0x1,%edi
  40336d:	31 f6                	xor    %esi,%esi
  40336f:	31 d2                	xor    %edx,%edx
  403371:	31 c0                	xor    %eax,%eax
  403373:	e8 b8 5e 00 00       	call   409230 <__libirc_print>
  403378:	64 48 8b 04 25 28 00 	mov    %fs:0x28,%rax
  40337f:	00 00 
  403381:	48 3b 84 24 30 04 00 	cmp    0x430(%rsp),%rax
  403388:	00 
  403389:	75 0a                	jne    403395 <__intel_new_feature_proc_init_n+0x365>
  40338b:	bf 01 00 00 00       	mov    $0x1,%edi
  403390:	e8 db dc ff ff       	call   401070 <exit@plt>
  403395:	e8 e6 dd ff ff       	call   401180 <__stack_chk_fail@plt>
  40339a:	66 0f 1f 44 00 00    	nopw   0x0(%rax,%rax,1)

00000000004033a0 <__intel_new_feature_proc_init>:
  4033a0:	f3 0f 1e fa          	endbr64
  4033a4:	53                   	push   %rbx
  4033a5:	89 fb                	mov    %edi,%ebx
  4033a7:	31 ff                	xor    %edi,%edi
  4033a9:	e8 82 fc ff ff       	call   403030 <__intel_new_feature_proc_init_n>
  4033ae:	48 c7 c7 a0 d2 40 00 	mov    $0x40d2a0,%rdi
  4033b5:	be 06 00 00 00       	mov    $0x6,%esi
  4033ba:	e8 f1 52 00 00       	call   4086b0 <__libirc_get_cpu_feature>
  4033bf:	83 f8 01             	cmp    $0x1,%eax
  4033c2:	75 0a                	jne    4033ce <__intel_new_feature_proc_init+0x2e>
  4033c4:	31 ff                	xor    %edi,%edi
  4033c6:	89 de                	mov    %ebx,%esi
  4033c8:	5b                   	pop    %rbx
  4033c9:	e9 52 00 00 00       	jmp    403420 <__intel_proc_init_ftzdazule>
  4033ce:	85 c0                	test   %eax,%eax
  4033d0:	78 02                	js     4033d4 <__intel_new_feature_proc_init+0x34>
  4033d2:	5b                   	pop    %rbx
  4033d3:	c3                   	ret
  4033d4:	bf 01 00 00 00       	mov    $0x1,%edi
  4033d9:	31 f6                	xor    %esi,%esi
  4033db:	31 d2                	xor    %edx,%edx
  4033dd:	31 c0                	xor    %eax,%eax
  4033df:	e8 4c 5e 00 00       	call   409230 <__libirc_print>
  4033e4:	bf 01 00 00 00       	mov    $0x1,%edi
  4033e9:	be 3a 00 00 00       	mov    $0x3a,%esi
  4033ee:	31 d2                	xor    %edx,%edx
  4033f0:	31 c0                	xor    %eax,%eax
  4033f2:	e8 39 5e 00 00       	call   409230 <__libirc_print>
  4033f7:	bf 01 00 00 00       	mov    $0x1,%edi
  4033fc:	31 f6                	xor    %esi,%esi
  4033fe:	31 d2                	xor    %edx,%edx
  403400:	31 c0                	xor    %eax,%eax
  403402:	e8 29 5e 00 00       	call   409230 <__libirc_print>
  403407:	bf 01 00 00 00       	mov    $0x1,%edi
  40340c:	e8 5f dc ff ff       	call   401070 <exit@plt>
  403411:	0f 1f 00             	nopl   (%rax)
  403414:	66 2e 0f 1f 84 00 00 	cs nopw 0x0(%rax,%rax,1)
  40341b:	00 00 00 
  40341e:	66 90                	xchg   %ax,%ax

0000000000403420 <__intel_proc_init_ftzdazule>:
  403420:	f3 0f 1e fa          	endbr64
  403424:	55                   	push   %rbp
  403425:	41 56                	push   %r14
  403427:	53                   	push   %rbx
  403428:	48 81 ec 20 02 00 00 	sub    $0x220,%rsp
  40342f:	89 f3                	mov    %esi,%ebx
  403431:	41 89 f6             	mov    %esi,%r14d
  403434:	41 83 e6 04          	and    $0x4,%r14d
  403438:	89 f5                	mov    %esi,%ebp
  40343a:	83 e5 02             	and    $0x2,%ebp
  40343d:	74 07                	je     403446 <__intel_proc_init_ftzdazule+0x26>
  40343f:	89 f8                	mov    %edi,%eax
  403441:	83 e0 02             	and    $0x2,%eax
  403444:	74 12                	je     403458 <__intel_proc_init_ftzdazule+0x38>
  403446:	31 c0                	xor    %eax,%eax
  403448:	45 85 f6             	test   %r14d,%r14d
  40344b:	74 38                	je     403485 <__intel_proc_init_ftzdazule+0x65>
  40344d:	b8 01 00 00 00       	mov    $0x1,%eax
  403452:	40 f6 c7 04          	test   $0x4,%dil
  403456:	75 2d                	jne    403485 <__intel_proc_init_ftzdazule+0x65>
  403458:	48 8d 7c 24 20       	lea    0x20(%rsp),%rdi
  40345d:	ba 00 02 00 00       	mov    $0x200,%edx
  403462:	31 f6                	xor    %esi,%esi
  403464:	e8 97 dd ff ff       	call   401200 <memset@plt>
  403469:	0f ae 44 24 20       	fxsave 0x20(%rsp)
  40346e:	8b 44 24 3c          	mov    0x3c(%rsp),%eax
  403472:	89 c1                	mov    %eax,%ecx
  403474:	c1 e1 19             	shl    $0x19,%ecx
  403477:	c1 f9 1f             	sar    $0x1f,%ecx
  40347a:	21 cd                	and    %ecx,%ebp
  40347c:	c1 e0 0e             	shl    $0xe,%eax
  40347f:	c1 f8 1f             	sar    $0x1f,%eax
  403482:	44 21 f0             	and    %r14d,%eax
  403485:	f6 c3 01             	test   $0x1,%bl
  403488:	74 17                	je     4034a1 <__intel_proc_init_ftzdazule+0x81>
  40348a:	0f ae 5c 24 1c       	stmxcsr 0x1c(%rsp)
  40348f:	b9 00 80 00 00       	mov    $0x8000,%ecx
  403494:	0b 4c 24 1c          	or     0x1c(%rsp),%ecx
  403498:	89 4c 24 18          	mov    %ecx,0x18(%rsp)
  40349c:	0f ae 54 24 18       	ldmxcsr 0x18(%rsp)
  4034a1:	85 ed                	test   %ebp,%ebp
  4034a3:	74 15                	je     4034ba <__intel_proc_init_ftzdazule+0x9a>
  4034a5:	0f ae 5c 24 14       	stmxcsr 0x14(%rsp)
  4034aa:	8b 4c 24 14          	mov    0x14(%rsp),%ecx
  4034ae:	83 c9 40             	or     $0x40,%ecx
  4034b1:	89 4c 24 10          	mov    %ecx,0x10(%rsp)
  4034b5:	0f ae 54 24 10       	ldmxcsr 0x10(%rsp)
  4034ba:	85 c0                	test   %eax,%eax
  4034bc:	74 17                	je     4034d5 <__intel_proc_init_ftzdazule+0xb5>
  4034be:	0f ae 5c 24 0c       	stmxcsr 0xc(%rsp)
  4034c3:	b8 00 00 02 00       	mov    $0x20000,%eax
  4034c8:	0b 44 24 0c          	or     0xc(%rsp),%eax
  4034cc:	89 44 24 08          	mov    %eax,0x8(%rsp)
  4034d0:	0f ae 54 24 08       	ldmxcsr 0x8(%rsp)
  4034d5:	48 81 c4 20 02 00 00 	add    $0x220,%rsp
  4034dc:	5b                   	pop    %rbx
  4034dd:	41 5e                	pop    %r14
  4034df:	5d                   	pop    %rbp
  4034e0:	c3                   	ret
  4034e1:	0f 1f 00             	nopl   (%rax)
  4034e4:	66 2e 0f 1f 84 00 00 	cs nopw 0x0(%rax,%rax,1)
  4034eb:	00 00 00 
  4034ee:	66 2e 0f 1f 84 00 00 	cs nopw 0x0(%rax,%rax,1)
  4034f5:	00 00 00 
  4034f8:	0f 1f 84 00 00 00 00 	nopl   0x0(%rax,%rax,1)
  4034ff:	00 

0000000000403500 <__intel_mic_avx512f_memset>:
  403500:	f3 0f 1e fa          	endbr64
  403504:	48 89 f8             	mov    %rdi,%rax
  403507:	48 c7 c1 58 d2 40 00 	mov    $0x40d258,%rcx
  40350e:	49 b8 01 01 01 01 01 	movabs $0x101010101010101,%r8
  403515:	01 01 01 
  403518:	4c 0f b6 ce          	movzbq %sil,%r9
  40351c:	4d 0f af c8          	imul   %r8,%r9
  403520:	48 8d 35 99 14 00 00 	lea    0x1499(%rip),%rsi        # 4049c0 <__intel_mic_avx512f_memset+0x14c0>
  403527:	62 d2 7d 48 7c c1    	vpbroadcastd %r9d,%zmm0
  40352d:	48 81 fa 80 00 00 00 	cmp    $0x80,%rdx
  403534:	7d 0c                	jge    403542 <__intel_mic_avx512f_memset+0x42>
  403536:	49 89 f8             	mov    %rdi,%r8
  403539:	49 01 d0             	add    %rdx,%r8
  40353c:	48 2b 34 d6          	sub    (%rsi,%rdx,8),%rsi
  403540:	ff e6                	jmp    *%rsi
  403542:	48 8d 35 77 02 00 00 	lea    0x277(%rip),%rsi        # 4037c0 <__intel_mic_avx512f_memset+0x2c0>
  403549:	49 89 fa             	mov    %rdi,%r10
  40354c:	49 f7 da             	neg    %r10
  40354f:	49 83 c2 40          	add    $0x40,%r10
  403553:	49 83 e2 3f          	and    $0x3f,%r10
  403557:	74 12                	je     40356b <__intel_mic_avx512f_memset+0x6b>
  403559:	4c 29 d2             	sub    %r10,%rdx
  40355c:	49 89 f8             	mov    %rdi,%r8
  40355f:	4d 01 d0             	add    %r10,%r8
  403562:	4a 2b 34 d6          	sub    (%rsi,%r10,8),%rsi
  403566:	ff e6                	jmp    *%rsi
  403568:	4c 01 d7             	add    %r10,%rdi
  40356b:	48 81 fa 00 02 00 00 	cmp    $0x200,%rdx
  403572:	0f 8c 21 01 00 00    	jl     403699 <__intel_mic_avx512f_memset+0x199>
  403578:	48 3b 11             	cmp    (%rcx),%rdx
  40357b:	73 53                	jae    4035d0 <__intel_mic_avx512f_memset+0xd0>
  40357d:	62 f1 7c 48 29 07    	vmovaps %zmm0,(%rdi)
  403583:	62 f1 7c 48 29 47 01 	vmovaps %zmm0,0x40(%rdi)
  40358a:	62 f1 7c 48 29 47 02 	vmovaps %zmm0,0x80(%rdi)
  403591:	62 f1 7c 48 29 47 03 	vmovaps %zmm0,0xc0(%rdi)
  403598:	48 8d bf 00 02 00 00 	lea    0x200(%rdi),%rdi
  40359f:	48 81 ea 00 02 00 00 	sub    $0x200,%rdx
  4035a6:	62 f1 7c 48 29 47 fc 	vmovaps %zmm0,-0x100(%rdi)
  4035ad:	62 f1 7c 48 29 47 fd 	vmovaps %zmm0,-0xc0(%rdi)
  4035b4:	62 f1 7c 48 29 47 fe 	vmovaps %zmm0,-0x80(%rdi)
  4035bb:	62 f1 7c 48 29 47 ff 	vmovaps %zmm0,-0x40(%rdi)
  4035c2:	48 81 fa 00 02 00 00 	cmp    $0x200,%rdx
  4035c9:	7d b2                	jge    40357d <__intel_mic_avx512f_memset+0x7d>
  4035cb:	e9 c9 00 00 00       	jmp    403699 <__intel_mic_avx512f_memset+0x199>
  4035d0:	62 f1 7d 48 e7 07    	vmovntdq %zmm0,(%rdi)
  4035d6:	62 f1 7d 48 e7 47 01 	vmovntdq %zmm0,0x40(%rdi)
  4035dd:	62 f1 7d 48 e7 47 02 	vmovntdq %zmm0,0x80(%rdi)
  4035e4:	62 f1 7d 48 e7 47 03 	vmovntdq %zmm0,0xc0(%rdi)
  4035eb:	48 8d bf 00 02 00 00 	lea    0x200(%rdi),%rdi
  4035f2:	48 81 ea 00 02 00 00 	sub    $0x200,%rdx
  4035f9:	62 f1 7d 48 e7 47 fc 	vmovntdq %zmm0,-0x100(%rdi)
  403600:	62 f1 7d 48 e7 47 fd 	vmovntdq %zmm0,-0xc0(%rdi)
  403607:	62 f1 7d 48 e7 47 fe 	vmovntdq %zmm0,-0x80(%rdi)
  40360e:	62 f1 7d 48 e7 47 ff 	vmovntdq %zmm0,-0x40(%rdi)
  403615:	48 81 fa 00 02 00 00 	cmp    $0x200,%rdx
  40361c:	7d b2                	jge    4035d0 <__intel_mic_avx512f_memset+0xd0>
  40361e:	0f ae f8             	sfence
  403621:	eb 76                	jmp    403699 <__intel_mic_avx512f_memset+0x199>
  403623:	44 88 0f             	mov    %r9b,(%rdi)
  403626:	e9 3d ff ff ff       	jmp    403568 <__intel_mic_avx512f_memset+0x68>
  40362b:	66 44 89 0f          	mov    %r9w,(%rdi)
  40362f:	e9 34 ff ff ff       	jmp    403568 <__intel_mic_avx512f_memset+0x68>
  403634:	66 44 89 0f          	mov    %r9w,(%rdi)
  403638:	44 88 4f 02          	mov    %r9b,0x2(%rdi)
  40363c:	e9 27 ff ff ff       	jmp    403568 <__intel_mic_avx512f_memset+0x68>
  403641:	44 89 0f             	mov    %r9d,(%rdi)
  403644:	e9 1f ff ff ff       	jmp    403568 <__intel_mic_avx512f_memset+0x68>
  403649:	44 89 0f             	mov    %r9d,(%rdi)
  40364c:	45 89 48 fc          	mov    %r9d,-0x4(%r8)
  403650:	e9 13 ff ff ff       	jmp    403568 <__intel_mic_avx512f_memset+0x68>
  403655:	4c 89 0f             	mov    %r9,(%rdi)
  403658:	e9 0b ff ff ff       	jmp    403568 <__intel_mic_avx512f_memset+0x68>
  40365d:	4c 89 0f             	mov    %r9,(%rdi)
  403660:	4d 89 48 f8          	mov    %r9,-0x8(%r8)
  403664:	e9 ff fe ff ff       	jmp    403568 <__intel_mic_avx512f_memset+0x68>
  403669:	c5 f8 11 07          	vmovups %xmm0,(%rdi)
  40366d:	e9 f6 fe ff ff       	jmp    403568 <__intel_mic_avx512f_memset+0x68>
  403672:	c5 f8 11 07          	vmovups %xmm0,(%rdi)
  403676:	c4 c1 78 11 40 f0    	vmovups %xmm0,-0x10(%r8)
  40367c:	e9 e7 fe ff ff       	jmp    403568 <__intel_mic_avx512f_memset+0x68>
  403681:	c5 fc 11 07          	vmovups %ymm0,(%rdi)
  403685:	e9 de fe ff ff       	jmp    403568 <__intel_mic_avx512f_memset+0x68>
  40368a:	c5 fc 11 07          	vmovups %ymm0,(%rdi)
  40368e:	c4 c1 7c 11 40 e0    	vmovups %ymm0,-0x20(%r8)
  403694:	e9 cf fe ff ff       	jmp    403568 <__intel_mic_avx512f_memset+0x68>
  403699:	49 89 f8             	mov    %rdi,%r8
  40369c:	49 01 d0             	add    %rdx,%r8
  40369f:	48 01 d7             	add    %rdx,%rdi
  4036a2:	48 83 e7 c0          	and    $0xffffffffffffffc0,%rdi
  4036a6:	48 8d 35 13 03 00 00 	lea    0x313(%rip),%rsi        # 4039c0 <__intel_mic_avx512f_memset+0x4c0>
  4036ad:	48 2b 34 d6          	sub    (%rsi,%rdx,8),%rsi
  4036b1:	ff e6                	jmp    *%rsi
  4036b3:	62 f1 7c 48 29 47 f9 	vmovaps %zmm0,-0x1c0(%rdi)
  4036ba:	62 f1 7c 48 29 47 fa 	vmovaps %zmm0,-0x180(%rdi)
  4036c1:	62 f1 7c 48 29 47 fb 	vmovaps %zmm0,-0x140(%rdi)
  4036c8:	62 f1 7c 48 29 47 fc 	vmovaps %zmm0,-0x100(%rdi)
  4036cf:	62 f1 7c 48 29 47 fd 	vmovaps %zmm0,-0xc0(%rdi)
  4036d6:	62 f1 7c 48 29 47 fe 	vmovaps %zmm0,-0x80(%rdi)
  4036dd:	62 f1 7c 48 29 47 ff 	vmovaps %zmm0,-0x40(%rdi)
  4036e4:	4c 89 c2             	mov    %r8,%rdx
  4036e7:	48 83 e2 3f          	and    $0x3f,%rdx
  4036eb:	48 8d 35 ce 02 00 00 	lea    0x2ce(%rip),%rsi        # 4039c0 <__intel_mic_avx512f_memset+0x4c0>
  4036f2:	48 2b 34 d6          	sub    (%rsi,%rdx,8),%rsi
  4036f6:	ff e6                	jmp    *%rsi
  4036f8:	44 88 0f             	mov    %r9b,(%rdi)
  4036fb:	e9 c0 16 00 00       	jmp    404dc0 <__intel_mic_avx512f_memset+0x18c0>
  403700:	e9 bb 16 00 00       	jmp    404dc0 <__intel_mic_avx512f_memset+0x18c0>
  403705:	66 44 89 0f          	mov    %r9w,(%rdi)
  403709:	e9 b2 16 00 00       	jmp    404dc0 <__intel_mic_avx512f_memset+0x18c0>
  40370e:	66 44 89 0f          	mov    %r9w,(%rdi)
  403712:	44 88 4f 02          	mov    %r9b,0x2(%rdi)
  403716:	e9 a5 16 00 00       	jmp    404dc0 <__intel_mic_avx512f_memset+0x18c0>
  40371b:	44 89 0f             	mov    %r9d,(%rdi)
  40371e:	e9 9d 16 00 00       	jmp    404dc0 <__intel_mic_avx512f_memset+0x18c0>
  403723:	44 89 0f             	mov    %r9d,(%rdi)
  403726:	45 89 48 fc          	mov    %r9d,-0x4(%r8)
  40372a:	e9 91 16 00 00       	jmp    404dc0 <__intel_mic_avx512f_memset+0x18c0>
  40372f:	4c 89 0f             	mov    %r9,(%rdi)
  403732:	e9 89 16 00 00       	jmp    404dc0 <__intel_mic_avx512f_memset+0x18c0>
  403737:	4c 89 0f             	mov    %r9,(%rdi)
  40373a:	4d 89 48 f8          	mov    %r9,-0x8(%r8)
  40373e:	e9 7d 16 00 00       	jmp    404dc0 <__intel_mic_avx512f_memset+0x18c0>
  403743:	c5 f8 11 07          	vmovups %xmm0,(%rdi)
  403747:	e9 74 16 00 00       	jmp    404dc0 <__intel_mic_avx512f_memset+0x18c0>
  40374c:	c5 f8 11 07          	vmovups %xmm0,(%rdi)
  403750:	c4 c1 78 11 40 f0    	vmovups %xmm0,-0x10(%r8)
  403756:	e9 65 16 00 00       	jmp    404dc0 <__intel_mic_avx512f_memset+0x18c0>
  40375b:	c5 fc 11 07          	vmovups %ymm0,(%rdi)
  40375f:	e9 5c 16 00 00       	jmp    404dc0 <__intel_mic_avx512f_memset+0x18c0>
  403764:	c5 fc 11 07          	vmovups %ymm0,(%rdi)
  403768:	c4 c1 7c 11 40 e0    	vmovups %ymm0,-0x20(%r8)
  40376e:	e9 4d 16 00 00       	jmp    404dc0 <__intel_mic_avx512f_memset+0x18c0>
  403773:	62 f1 7c 48 11 07    	vmovups %zmm0,(%rdi)
  403779:	e9 42 16 00 00       	jmp    404dc0 <__intel_mic_avx512f_memset+0x18c0>
  40377e:	62 f1 7c 48 11 07    	vmovups %zmm0,(%rdi)
  403784:	62 d1 7c 48 11 40 ff 	vmovups %zmm0,-0x40(%r8)
  40378b:	e9 30 16 00 00       	jmp    404dc0 <__intel_mic_avx512f_memset+0x18c0>
  403790:	66 66 66 66 66 66 2e 	data16 data16 data16 data16 data16 cs nopw 0x0(%rax,%rax,1)
  403797:	0f 1f 84 00 00 00 00 
  40379e:	00 
  40379f:	66 66 66 66 66 66 2e 	data16 data16 data16 data16 data16 cs nopw 0x0(%rax,%rax,1)
  4037a6:	0f 1f 84 00 00 00 00 
  4037ad:	00 
  4037ae:	66 66 66 66 66 66 2e 	data16 data16 data16 data16 data16 cs nopw 0x0(%rax,%rax,1)
  4037b5:	0f 1f 84 00 00 00 00 
  4037bc:	00 
  4037bd:	0f 1f 00             	nopl   (%rax)
  4037c0:	9a                   	(bad)
  4037c1:	01 00                	add    %eax,(%rax)
  4037c3:	00 00                	add    %al,(%rax)
  4037c5:	00 00                	add    %al,(%rax)
  4037c7:	00 9d 01 00 00 00    	add    %bl,0x1(%rbp)
  4037cd:	00 00                	add    %al,(%rax)
  4037cf:	00 95 01 00 00 00    	add    %dl,0x1(%rbp)
  4037d5:	00 00                	add    %al,(%rax)
  4037d7:	00 8c 01 00 00 00 00 	add    %cl,0x0(%rcx,%rax,1)
  4037de:	00 00                	add    %al,(%rax)
  4037e0:	7f 01                	jg     4037e3 <__intel_mic_avx512f_memset+0x2e3>
  4037e2:	00 00                	add    %al,(%rax)
  4037e4:	00 00                	add    %al,(%rax)
  4037e6:	00 00                	add    %al,(%rax)
  4037e8:	77 01                	ja     4037eb <__intel_mic_avx512f_memset+0x2eb>
  4037ea:	00 00                	add    %al,(%rax)
  4037ec:	00 00                	add    %al,(%rax)
  4037ee:	00 00                	add    %al,(%rax)
  4037f0:	77 01                	ja     4037f3 <__intel_mic_avx512f_memset+0x2f3>
  4037f2:	00 00                	add    %al,(%rax)
  4037f4:	00 00                	add    %al,(%rax)
  4037f6:	00 00                	add    %al,(%rax)
  4037f8:	77 01                	ja     4037fb <__intel_mic_avx512f_memset+0x2fb>
  4037fa:	00 00                	add    %al,(%rax)
  4037fc:	00 00                	add    %al,(%rax)
  4037fe:	00 00                	add    %al,(%rax)
  403800:	6b 01 00             	imul   $0x0,(%rcx),%eax
  403803:	00 00                	add    %al,(%rax)
  403805:	00 00                	add    %al,(%rax)
  403807:	00 63 01             	add    %ah,0x1(%rbx)
  40380a:	00 00                	add    %al,(%rax)
  40380c:	00 00                	add    %al,(%rax)
  40380e:	00 00                	add    %al,(%rax)
  403810:	63 01                	movsxd (%rcx),%eax
  403812:	00 00                	add    %al,(%rax)
  403814:	00 00                	add    %al,(%rax)
  403816:	00 00                	add    %al,(%rax)
  403818:	63 01                	movsxd (%rcx),%eax
  40381a:	00 00                	add    %al,(%rax)
  40381c:	00 00                	add    %al,(%rax)
  40381e:	00 00                	add    %al,(%rax)
  403820:	63 01                	movsxd (%rcx),%eax
  403822:	00 00                	add    %al,(%rax)
  403824:	00 00                	add    %al,(%rax)
  403826:	00 00                	add    %al,(%rax)
  403828:	63 01                	movsxd (%rcx),%eax
  40382a:	00 00                	add    %al,(%rax)
  40382c:	00 00                	add    %al,(%rax)
  40382e:	00 00                	add    %al,(%rax)
  403830:	63 01                	movsxd (%rcx),%eax
  403832:	00 00                	add    %al,(%rax)
  403834:	00 00                	add    %al,(%rax)
  403836:	00 00                	add    %al,(%rax)
  403838:	63 01                	movsxd (%rcx),%eax
  40383a:	00 00                	add    %al,(%rax)
  40383c:	00 00                	add    %al,(%rax)
  40383e:	00 00                	add    %al,(%rax)
  403840:	57                   	push   %rdi
  403841:	01 00                	add    %eax,(%rax)
  403843:	00 00                	add    %al,(%rax)
  403845:	00 00                	add    %al,(%rax)
  403847:	00 4e 01             	add    %cl,0x1(%rsi)
  40384a:	00 00                	add    %al,(%rax)
  40384c:	00 00                	add    %al,(%rax)
  40384e:	00 00                	add    %al,(%rax)
  403850:	4e 01 00             	rex.WRX add %r8,(%rax)
  403853:	00 00                	add    %al,(%rax)
  403855:	00 00                	add    %al,(%rax)
  403857:	00 4e 01             	add    %cl,0x1(%rsi)
  40385a:	00 00                	add    %al,(%rax)
  40385c:	00 00                	add    %al,(%rax)
  40385e:	00 00                	add    %al,(%rax)
  403860:	4e 01 00             	rex.WRX add %r8,(%rax)
  403863:	00 00                	add    %al,(%rax)
  403865:	00 00                	add    %al,(%rax)
  403867:	00 4e 01             	add    %cl,0x1(%rsi)
  40386a:	00 00                	add    %al,(%rax)
  40386c:	00 00                	add    %al,(%rax)
  40386e:	00 00                	add    %al,(%rax)
  403870:	4e 01 00             	rex.WRX add %r8,(%rax)
  403873:	00 00                	add    %al,(%rax)
  403875:	00 00                	add    %al,(%rax)
  403877:	00 4e 01             	add    %cl,0x1(%rsi)
  40387a:	00 00                	add    %al,(%rax)
  40387c:	00 00                	add    %al,(%rax)
  40387e:	00 00                	add    %al,(%rax)
  403880:	4e 01 00             	rex.WRX add %r8,(%rax)
  403883:	00 00                	add    %al,(%rax)
  403885:	00 00                	add    %al,(%rax)
  403887:	00 4e 01             	add    %cl,0x1(%rsi)
  40388a:	00 00                	add    %al,(%rax)
  40388c:	00 00                	add    %al,(%rax)
  40388e:	00 00                	add    %al,(%rax)
  403890:	4e 01 00             	rex.WRX add %r8,(%rax)
  403893:	00 00                	add    %al,(%rax)
  403895:	00 00                	add    %al,(%rax)
  403897:	00 4e 01             	add    %cl,0x1(%rsi)
  40389a:	00 00                	add    %al,(%rax)
  40389c:	00 00                	add    %al,(%rax)
  40389e:	00 00                	add    %al,(%rax)
  4038a0:	4e 01 00             	rex.WRX add %r8,(%rax)
  4038a3:	00 00                	add    %al,(%rax)
  4038a5:	00 00                	add    %al,(%rax)
  4038a7:	00 4e 01             	add    %cl,0x1(%rsi)
  4038aa:	00 00                	add    %al,(%rax)
  4038ac:	00 00                	add    %al,(%rax)
  4038ae:	00 00                	add    %al,(%rax)
  4038b0:	4e 01 00             	rex.WRX add %r8,(%rax)
  4038b3:	00 00                	add    %al,(%rax)
  4038b5:	00 00                	add    %al,(%rax)
  4038b7:	00 4e 01             	add    %cl,0x1(%rsi)
  4038ba:	00 00                	add    %al,(%rax)
  4038bc:	00 00                	add    %al,(%rax)
  4038be:	00 00                	add    %al,(%rax)
  4038c0:	3f                   	(bad)
  4038c1:	01 00                	add    %eax,(%rax)
  4038c3:	00 00                	add    %al,(%rax)
  4038c5:	00 00                	add    %al,(%rax)
  4038c7:	00 36                	add    %dh,(%rsi)
  4038c9:	01 00                	add    %eax,(%rax)
  4038cb:	00 00                	add    %al,(%rax)
  4038cd:	00 00                	add    %al,(%rax)
  4038cf:	00 36                	add    %dh,(%rsi)
  4038d1:	01 00                	add    %eax,(%rax)
  4038d3:	00 00                	add    %al,(%rax)
  4038d5:	00 00                	add    %al,(%rax)
  4038d7:	00 36                	add    %dh,(%rsi)
  4038d9:	01 00                	add    %eax,(%rax)
  4038db:	00 00                	add    %al,(%rax)
  4038dd:	00 00                	add    %al,(%rax)
  4038df:	00 36                	add    %dh,(%rsi)
  4038e1:	01 00                	add    %eax,(%rax)
  4038e3:	00 00                	add    %al,(%rax)
  4038e5:	00 00                	add    %al,(%rax)
  4038e7:	00 36                	add    %dh,(%rsi)
  4038e9:	01 00                	add    %eax,(%rax)
  4038eb:	00 00                	add    %al,(%rax)
  4038ed:	00 00                	add    %al,(%rax)
  4038ef:	00 36                	add    %dh,(%rsi)
  4038f1:	01 00                	add    %eax,(%rax)
  4038f3:	00 00                	add    %al,(%rax)
  4038f5:	00 00                	add    %al,(%rax)
  4038f7:	00 36                	add    %dh,(%rsi)
  4038f9:	01 00                	add    %eax,(%rax)
  4038fb:	00 00                	add    %al,(%rax)
  4038fd:	00 00                	add    %al,(%rax)
  4038ff:	00 36                	add    %dh,(%rsi)
  403901:	01 00                	add    %eax,(%rax)
  403903:	00 00                	add    %al,(%rax)
  403905:	00 00                	add    %al,(%rax)
  403907:	00 36                	add    %dh,(%rsi)
  403909:	01 00                	add    %eax,(%rax)
  40390b:	00 00                	add    %al,(%rax)
  40390d:	00 00                	add    %al,(%rax)
  40390f:	00 36                	add    %dh,(%rsi)
  403911:	01 00                	add    %eax,(%rax)
  403913:	00 00                	add    %al,(%rax)
  403915:	00 00                	add    %al,(%rax)
  403917:	00 36                	add    %dh,(%rsi)
  403919:	01 00                	add    %eax,(%rax)
  40391b:	00 00                	add    %al,(%rax)
  40391d:	00 00                	add    %al,(%rax)
  40391f:	00 36                	add    %dh,(%rsi)
  403921:	01 00                	add    %eax,(%rax)
  403923:	00 00                	add    %al,(%rax)
  403925:	00 00                	add    %al,(%rax)
  403927:	00 36                	add    %dh,(%rsi)
  403929:	01 00                	add    %eax,(%rax)
  40392b:	00 00                	add    %al,(%rax)
  40392d:	00 00                	add    %al,(%rax)
  40392f:	00 36                	add    %dh,(%rsi)
  403931:	01 00                	add    %eax,(%rax)
  403933:	00 00                	add    %al,(%rax)
  403935:	00 00                	add    %al,(%rax)
  403937:	00 36                	add    %dh,(%rsi)
  403939:	01 00                	add    %eax,(%rax)
  40393b:	00 00                	add    %al,(%rax)
  40393d:	00 00                	add    %al,(%rax)
  40393f:	00 36                	add    %dh,(%rsi)
  403941:	01 00                	add    %eax,(%rax)
  403943:	00 00                	add    %al,(%rax)
  403945:	00 00                	add    %al,(%rax)
  403947:	00 36                	add    %dh,(%rsi)
  403949:	01 00                	add    %eax,(%rax)
  40394b:	00 00                	add    %al,(%rax)
  40394d:	00 00                	add    %al,(%rax)
  40394f:	00 36                	add    %dh,(%rsi)
  403951:	01 00                	add    %eax,(%rax)
  403953:	00 00                	add    %al,(%rax)
  403955:	00 00                	add    %al,(%rax)
  403957:	00 36                	add    %dh,(%rsi)
  403959:	01 00                	add    %eax,(%rax)
  40395b:	00 00                	add    %al,(%rax)
  40395d:	00 00                	add    %al,(%rax)
  40395f:	00 36                	add    %dh,(%rsi)
  403961:	01 00                	add    %eax,(%rax)
  403963:	00 00                	add    %al,(%rax)
  403965:	00 00                	add    %al,(%rax)
  403967:	00 36                	add    %dh,(%rsi)
  403969:	01 00                	add    %eax,(%rax)
  40396b:	00 00                	add    %al,(%rax)
  40396d:	00 00                	add    %al,(%rax)
  40396f:	00 36                	add    %dh,(%rsi)
  403971:	01 00                	add    %eax,(%rax)
  403973:	00 00                	add    %al,(%rax)
  403975:	00 00                	add    %al,(%rax)
  403977:	00 36                	add    %dh,(%rsi)
  403979:	01 00                	add    %eax,(%rax)
  40397b:	00 00                	add    %al,(%rax)
  40397d:	00 00                	add    %al,(%rax)
  40397f:	00 36                	add    %dh,(%rsi)
  403981:	01 00                	add    %eax,(%rax)
  403983:	00 00                	add    %al,(%rax)
  403985:	00 00                	add    %al,(%rax)
  403987:	00 36                	add    %dh,(%rsi)
  403989:	01 00                	add    %eax,(%rax)
  40398b:	00 00                	add    %al,(%rax)
  40398d:	00 00                	add    %al,(%rax)
  40398f:	00 36                	add    %dh,(%rsi)
  403991:	01 00                	add    %eax,(%rax)
  403993:	00 00                	add    %al,(%rax)
  403995:	00 00                	add    %al,(%rax)
  403997:	00 36                	add    %dh,(%rsi)
  403999:	01 00                	add    %eax,(%rax)
  40399b:	00 00                	add    %al,(%rax)
  40399d:	00 00                	add    %al,(%rax)
  40399f:	00 36                	add    %dh,(%rsi)
  4039a1:	01 00                	add    %eax,(%rax)
  4039a3:	00 00                	add    %al,(%rax)
  4039a5:	00 00                	add    %al,(%rax)
  4039a7:	00 36                	add    %dh,(%rsi)
  4039a9:	01 00                	add    %eax,(%rax)
  4039ab:	00 00                	add    %al,(%rax)
  4039ad:	00 00                	add    %al,(%rax)
  4039af:	00 36                	add    %dh,(%rsi)
  4039b1:	01 00                	add    %eax,(%rax)
  4039b3:	00 00                	add    %al,(%rax)
  4039b5:	00 00                	add    %al,(%rax)
  4039b7:	00 36                	add    %dh,(%rsi)
  4039b9:	01 00                	add    %eax,(%rax)
  4039bb:	00 00                	add    %al,(%rax)
  4039bd:	00 00                	add    %al,(%rax)
  4039bf:	00 c0                	add    %al,%al
  4039c1:	02 00                	add    (%rax),%al
  4039c3:	00 00                	add    %al,(%rax)
  4039c5:	00 00                	add    %al,(%rax)
  4039c7:	00 c8                	add    %cl,%al
  4039c9:	02 00                	add    (%rax),%al
  4039cb:	00 00                	add    %al,(%rax)
  4039cd:	00 00                	add    %al,(%rax)
  4039cf:	00 bb 02 00 00 00    	add    %bh,0x2(%rbx)
  4039d5:	00 00                	add    %al,(%rax)
  4039d7:	00 b2 02 00 00 00    	add    %dh,0x2(%rdx)
  4039dd:	00 00                	add    %al,(%rax)
  4039df:	00 a5 02 00 00 00    	add    %ah,0x2(%rbp)
  4039e5:	00 00                	add    %al,(%rax)
  4039e7:	00 9d 02 00 00 00    	add    %bl,0x2(%rbp)
  4039ed:	00 00                	add    %al,(%rax)
  4039ef:	00 9d 02 00 00 00    	add    %bl,0x2(%rbp)
  4039f5:	00 00                	add    %al,(%rax)
  4039f7:	00 9d 02 00 00 00    	add    %bl,0x2(%rbp)
  4039fd:	00 00                	add    %al,(%rax)
  4039ff:	00 91 02 00 00 00    	add    %dl,0x2(%rcx)
  403a05:	00 00                	add    %al,(%rax)
  403a07:	00 89 02 00 00 00    	add    %cl,0x2(%rcx)
  403a0d:	00 00                	add    %al,(%rax)
  403a0f:	00 89 02 00 00 00    	add    %cl,0x2(%rcx)
  403a15:	00 00                	add    %al,(%rax)
  403a17:	00 89 02 00 00 00    	add    %cl,0x2(%rcx)
  403a1d:	00 00                	add    %al,(%rax)
  403a1f:	00 89 02 00 00 00    	add    %cl,0x2(%rcx)
  403a25:	00 00                	add    %al,(%rax)
  403a27:	00 89 02 00 00 00    	add    %cl,0x2(%rcx)
  403a2d:	00 00                	add    %al,(%rax)
  403a2f:	00 89 02 00 00 00    	add    %cl,0x2(%rcx)
  403a35:	00 00                	add    %al,(%rax)
  403a37:	00 89 02 00 00 00    	add    %cl,0x2(%rcx)
  403a3d:	00 00                	add    %al,(%rax)
  403a3f:	00 7d 02             	add    %bh,0x2(%rbp)
  403a42:	00 00                	add    %al,(%rax)
  403a44:	00 00                	add    %al,(%rax)
  403a46:	00 00                	add    %al,(%rax)
  403a48:	74 02                	je     403a4c <__intel_mic_avx512f_memset+0x54c>
  403a4a:	00 00                	add    %al,(%rax)
  403a4c:	00 00                	add    %al,(%rax)
  403a4e:	00 00                	add    %al,(%rax)
  403a50:	74 02                	je     403a54 <__intel_mic_avx512f_memset+0x554>
  403a52:	00 00                	add    %al,(%rax)
  403a54:	00 00                	add    %al,(%rax)
  403a56:	00 00                	add    %al,(%rax)
  403a58:	74 02                	je     403a5c <__intel_mic_avx512f_memset+0x55c>
  403a5a:	00 00                	add    %al,(%rax)
  403a5c:	00 00                	add    %al,(%rax)
  403a5e:	00 00                	add    %al,(%rax)
  403a60:	74 02                	je     403a64 <__intel_mic_avx512f_memset+0x564>
  403a62:	00 00                	add    %al,(%rax)
  403a64:	00 00                	add    %al,(%rax)
  403a66:	00 00                	add    %al,(%rax)
  403a68:	74 02                	je     403a6c <__intel_mic_avx512f_memset+0x56c>
  403a6a:	00 00                	add    %al,(%rax)
  403a6c:	00 00                	add    %al,(%rax)
  403a6e:	00 00                	add    %al,(%rax)
  403a70:	74 02                	je     403a74 <__intel_mic_avx512f_memset+0x574>
  403a72:	00 00                	add    %al,(%rax)
  403a74:	00 00                	add    %al,(%rax)
  403a76:	00 00                	add    %al,(%rax)
  403a78:	74 02                	je     403a7c <__intel_mic_avx512f_memset+0x57c>
  403a7a:	00 00                	add    %al,(%rax)
  403a7c:	00 00                	add    %al,(%rax)
  403a7e:	00 00                	add    %al,(%rax)
  403a80:	74 02                	je     403a84 <__intel_mic_avx512f_memset+0x584>
  403a82:	00 00                	add    %al,(%rax)
  403a84:	00 00                	add    %al,(%rax)
  403a86:	00 00                	add    %al,(%rax)
  403a88:	74 02                	je     403a8c <__intel_mic_avx512f_memset+0x58c>
  403a8a:	00 00                	add    %al,(%rax)
  403a8c:	00 00                	add    %al,(%rax)
  403a8e:	00 00                	add    %al,(%rax)
  403a90:	74 02                	je     403a94 <__intel_mic_avx512f_memset+0x594>
  403a92:	00 00                	add    %al,(%rax)
  403a94:	00 00                	add    %al,(%rax)
  403a96:	00 00                	add    %al,(%rax)
  403a98:	74 02                	je     403a9c <__intel_mic_avx512f_memset+0x59c>
  403a9a:	00 00                	add    %al,(%rax)
  403a9c:	00 00                	add    %al,(%rax)
  403a9e:	00 00                	add    %al,(%rax)
  403aa0:	74 02                	je     403aa4 <__intel_mic_avx512f_memset+0x5a4>
  403aa2:	00 00                	add    %al,(%rax)
  403aa4:	00 00                	add    %al,(%rax)
  403aa6:	00 00                	add    %al,(%rax)
  403aa8:	74 02                	je     403aac <__intel_mic_avx512f_memset+0x5ac>
  403aaa:	00 00                	add    %al,(%rax)
  403aac:	00 00                	add    %al,(%rax)
  403aae:	00 00                	add    %al,(%rax)
  403ab0:	74 02                	je     403ab4 <__intel_mic_avx512f_memset+0x5b4>
  403ab2:	00 00                	add    %al,(%rax)
  403ab4:	00 00                	add    %al,(%rax)
  403ab6:	00 00                	add    %al,(%rax)
  403ab8:	74 02                	je     403abc <__intel_mic_avx512f_memset+0x5bc>
  403aba:	00 00                	add    %al,(%rax)
  403abc:	00 00                	add    %al,(%rax)
  403abe:	00 00                	add    %al,(%rax)
  403ac0:	65 02 00             	add    %gs:(%rax),%al
  403ac3:	00 00                	add    %al,(%rax)
  403ac5:	00 00                	add    %al,(%rax)
  403ac7:	00 5c 02 00          	add    %bl,0x0(%rdx,%rax,1)
  403acb:	00 00                	add    %al,(%rax)
  403acd:	00 00                	add    %al,(%rax)
  403acf:	00 5c 02 00          	add    %bl,0x0(%rdx,%rax,1)
  403ad3:	00 00                	add    %al,(%rax)
  403ad5:	00 00                	add    %al,(%rax)
  403ad7:	00 5c 02 00          	add    %bl,0x0(%rdx,%rax,1)
  403adb:	00 00                	add    %al,(%rax)
  403add:	00 00                	add    %al,(%rax)
  403adf:	00 5c 02 00          	add    %bl,0x0(%rdx,%rax,1)
  403ae3:	00 00                	add    %al,(%rax)
  403ae5:	00 00                	add    %al,(%rax)
  403ae7:	00 5c 02 00          	add    %bl,0x0(%rdx,%rax,1)
  403aeb:	00 00                	add    %al,(%rax)
  403aed:	00 00                	add    %al,(%rax)
  403aef:	00 5c 02 00          	add    %bl,0x0(%rdx,%rax,1)
  403af3:	00 00                	add    %al,(%rax)
  403af5:	00 00                	add    %al,(%rax)
  403af7:	00 5c 02 00          	add    %bl,0x0(%rdx,%rax,1)
  403afb:	00 00                	add    %al,(%rax)
  403afd:	00 00                	add    %al,(%rax)
  403aff:	00 5c 02 00          	add    %bl,0x0(%rdx,%rax,1)
  403b03:	00 00                	add    %al,(%rax)
  403b05:	00 00                	add    %al,(%rax)
  403b07:	00 5c 02 00          	add    %bl,0x0(%rdx,%rax,1)
  403b0b:	00 00                	add    %al,(%rax)
  403b0d:	00 00                	add    %al,(%rax)
  403b0f:	00 5c 02 00          	add    %bl,0x0(%rdx,%rax,1)
  403b13:	00 00                	add    %al,(%rax)
  403b15:	00 00                	add    %al,(%rax)
  403b17:	00 5c 02 00          	add    %bl,0x0(%rdx,%rax,1)
  403b1b:	00 00                	add    %al,(%rax)
  403b1d:	00 00                	add    %al,(%rax)
  403b1f:	00 5c 02 00          	add    %bl,0x0(%rdx,%rax,1)
  403b23:	00 00                	add    %al,(%rax)
  403b25:	00 00                	add    %al,(%rax)
  403b27:	00 5c 02 00          	add    %bl,0x0(%rdx,%rax,1)
  403b2b:	00 00                	add    %al,(%rax)
  403b2d:	00 00                	add    %al,(%rax)
  403b2f:	00 5c 02 00          	add    %bl,0x0(%rdx,%rax,1)
  403b33:	00 00                	add    %al,(%rax)
  403b35:	00 00                	add    %al,(%rax)
  403b37:	00 5c 02 00          	add    %bl,0x0(%rdx,%rax,1)
  403b3b:	00 00                	add    %al,(%rax)
  403b3d:	00 00                	add    %al,(%rax)
  403b3f:	00 5c 02 00          	add    %bl,0x0(%rdx,%rax,1)
  403b43:	00 00                	add    %al,(%rax)
  403b45:	00 00                	add    %al,(%rax)
  403b47:	00 5c 02 00          	add    %bl,0x0(%rdx,%rax,1)
  403b4b:	00 00                	add    %al,(%rax)
  403b4d:	00 00                	add    %al,(%rax)
  403b4f:	00 5c 02 00          	add    %bl,0x0(%rdx,%rax,1)
  403b53:	00 00                	add    %al,(%rax)
  403b55:	00 00                	add    %al,(%rax)
  403b57:	00 5c 02 00          	add    %bl,0x0(%rdx,%rax,1)
  403b5b:	00 00                	add    %al,(%rax)
  403b5d:	00 00                	add    %al,(%rax)
  403b5f:	00 5c 02 00          	add    %bl,0x0(%rdx,%rax,1)
  403b63:	00 00                	add    %al,(%rax)
  403b65:	00 00                	add    %al,(%rax)
  403b67:	00 5c 02 00          	add    %bl,0x0(%rdx,%rax,1)
  403b6b:	00 00                	add    %al,(%rax)
  403b6d:	00 00                	add    %al,(%rax)
  403b6f:	00 5c 02 00          	add    %bl,0x0(%rdx,%rax,1)
  403b73:	00 00                	add    %al,(%rax)
  403b75:	00 00                	add    %al,(%rax)
  403b77:	00 5c 02 00          	add    %bl,0x0(%rdx,%rax,1)
  403b7b:	00 00                	add    %al,(%rax)
  403b7d:	00 00                	add    %al,(%rax)
  403b7f:	00 5c 02 00          	add    %bl,0x0(%rdx,%rax,1)
  403b83:	00 00                	add    %al,(%rax)
  403b85:	00 00                	add    %al,(%rax)
  403b87:	00 5c 02 00          	add    %bl,0x0(%rdx,%rax,1)
  403b8b:	00 00                	add    %al,(%rax)
  403b8d:	00 00                	add    %al,(%rax)
  403b8f:	00 5c 02 00          	add    %bl,0x0(%rdx,%rax,1)
  403b93:	00 00                	add    %al,(%rax)
  403b95:	00 00                	add    %al,(%rax)
  403b97:	00 5c 02 00          	add    %bl,0x0(%rdx,%rax,1)
  403b9b:	00 00                	add    %al,(%rax)
  403b9d:	00 00                	add    %al,(%rax)
  403b9f:	00 5c 02 00          	add    %bl,0x0(%rdx,%rax,1)
  403ba3:	00 00                	add    %al,(%rax)
  403ba5:	00 00                	add    %al,(%rax)
  403ba7:	00 5c 02 00          	add    %bl,0x0(%rdx,%rax,1)
  403bab:	00 00                	add    %al,(%rax)
  403bad:	00 00                	add    %al,(%rax)
  403baf:	00 5c 02 00          	add    %bl,0x0(%rdx,%rax,1)
  403bb3:	00 00                	add    %al,(%rax)
  403bb5:	00 00                	add    %al,(%rax)
  403bb7:	00 5c 02 00          	add    %bl,0x0(%rdx,%rax,1)
  403bbb:	00 00                	add    %al,(%rax)
  403bbd:	00 00                	add    %al,(%rax)
  403bbf:	00 e3                	add    %ah,%bl
  403bc1:	02 00                	add    (%rax),%al
  403bc3:	00 00                	add    %al,(%rax)
  403bc5:	00 00                	add    %al,(%rax)
  403bc7:	00 e3                	add    %ah,%bl
  403bc9:	02 00                	add    (%rax),%al
  403bcb:	00 00                	add    %al,(%rax)
  403bcd:	00 00                	add    %al,(%rax)
  403bcf:	00 e3                	add    %ah,%bl
  403bd1:	02 00                	add    (%rax),%al
  403bd3:	00 00                	add    %al,(%rax)
  403bd5:	00 00                	add    %al,(%rax)
  403bd7:	00 e3                	add    %ah,%bl
  403bd9:	02 00                	add    (%rax),%al
  403bdb:	00 00                	add    %al,(%rax)
  403bdd:	00 00                	add    %al,(%rax)
  403bdf:	00 e3                	add    %ah,%bl
  403be1:	02 00                	add    (%rax),%al
  403be3:	00 00                	add    %al,(%rax)
  403be5:	00 00                	add    %al,(%rax)
  403be7:	00 e3                	add    %ah,%bl
  403be9:	02 00                	add    (%rax),%al
  403beb:	00 00                	add    %al,(%rax)
  403bed:	00 00                	add    %al,(%rax)
  403bef:	00 e3                	add    %ah,%bl
  403bf1:	02 00                	add    (%rax),%al
  403bf3:	00 00                	add    %al,(%rax)
  403bf5:	00 00                	add    %al,(%rax)
  403bf7:	00 e3                	add    %ah,%bl
  403bf9:	02 00                	add    (%rax),%al
  403bfb:	00 00                	add    %al,(%rax)
  403bfd:	00 00                	add    %al,(%rax)
  403bff:	00 e3                	add    %ah,%bl
  403c01:	02 00                	add    (%rax),%al
  403c03:	00 00                	add    %al,(%rax)
  403c05:	00 00                	add    %al,(%rax)
  403c07:	00 e3                	add    %ah,%bl
  403c09:	02 00                	add    (%rax),%al
  403c0b:	00 00                	add    %al,(%rax)
  403c0d:	00 00                	add    %al,(%rax)
  403c0f:	00 e3                	add    %ah,%bl
  403c11:	02 00                	add    (%rax),%al
  403c13:	00 00                	add    %al,(%rax)
  403c15:	00 00                	add    %al,(%rax)
  403c17:	00 e3                	add    %ah,%bl
  403c19:	02 00                	add    (%rax),%al
  403c1b:	00 00                	add    %al,(%rax)
  403c1d:	00 00                	add    %al,(%rax)
  403c1f:	00 e3                	add    %ah,%bl
  403c21:	02 00                	add    (%rax),%al
  403c23:	00 00                	add    %al,(%rax)
  403c25:	00 00                	add    %al,(%rax)
  403c27:	00 e3                	add    %ah,%bl
  403c29:	02 00                	add    (%rax),%al
  403c2b:	00 00                	add    %al,(%rax)
  403c2d:	00 00                	add    %al,(%rax)
  403c2f:	00 e3                	add    %ah,%bl
  403c31:	02 00                	add    (%rax),%al
  403c33:	00 00                	add    %al,(%rax)
  403c35:	00 00                	add    %al,(%rax)
  403c37:	00 e3                	add    %ah,%bl
  403c39:	02 00                	add    (%rax),%al
  403c3b:	00 00                	add    %al,(%rax)
  403c3d:	00 00                	add    %al,(%rax)
  403c3f:	00 e3                	add    %ah,%bl
  403c41:	02 00                	add    (%rax),%al
  403c43:	00 00                	add    %al,(%rax)
  403c45:	00 00                	add    %al,(%rax)
  403c47:	00 e3                	add    %ah,%bl
  403c49:	02 00                	add    (%rax),%al
  403c4b:	00 00                	add    %al,(%rax)
  403c4d:	00 00                	add    %al,(%rax)
  403c4f:	00 e3                	add    %ah,%bl
  403c51:	02 00                	add    (%rax),%al
  403c53:	00 00                	add    %al,(%rax)
  403c55:	00 00                	add    %al,(%rax)
  403c57:	00 e3                	add    %ah,%bl
  403c59:	02 00                	add    (%rax),%al
  403c5b:	00 00                	add    %al,(%rax)
  403c5d:	00 00                	add    %al,(%rax)
  403c5f:	00 e3                	add    %ah,%bl
  403c61:	02 00                	add    (%rax),%al
  403c63:	00 00                	add    %al,(%rax)
  403c65:	00 00                	add    %al,(%rax)
  403c67:	00 e3                	add    %ah,%bl
  403c69:	02 00                	add    (%rax),%al
  403c6b:	00 00                	add    %al,(%rax)
  403c6d:	00 00                	add    %al,(%rax)
  403c6f:	00 e3                	add    %ah,%bl
  403c71:	02 00                	add    (%rax),%al
  403c73:	00 00                	add    %al,(%rax)
  403c75:	00 00                	add    %al,(%rax)
  403c77:	00 e3                	add    %ah,%bl
  403c79:	02 00                	add    (%rax),%al
  403c7b:	00 00                	add    %al,(%rax)
  403c7d:	00 00                	add    %al,(%rax)
  403c7f:	00 e3                	add    %ah,%bl
  403c81:	02 00                	add    (%rax),%al
  403c83:	00 00                	add    %al,(%rax)
  403c85:	00 00                	add    %al,(%rax)
  403c87:	00 e3                	add    %ah,%bl
  403c89:	02 00                	add    (%rax),%al
  403c8b:	00 00                	add    %al,(%rax)
  403c8d:	00 00                	add    %al,(%rax)
  403c8f:	00 e3                	add    %ah,%bl
  403c91:	02 00                	add    (%rax),%al
  403c93:	00 00                	add    %al,(%rax)
  403c95:	00 00                	add    %al,(%rax)
  403c97:	00 e3                	add    %ah,%bl
  403c99:	02 00                	add    (%rax),%al
  403c9b:	00 00                	add    %al,(%rax)
  403c9d:	00 00                	add    %al,(%rax)
  403c9f:	00 e3                	add    %ah,%bl
  403ca1:	02 00                	add    (%rax),%al
  403ca3:	00 00                	add    %al,(%rax)
  403ca5:	00 00                	add    %al,(%rax)
  403ca7:	00 e3                	add    %ah,%bl
  403ca9:	02 00                	add    (%rax),%al
  403cab:	00 00                	add    %al,(%rax)
  403cad:	00 00                	add    %al,(%rax)
  403caf:	00 e3                	add    %ah,%bl
  403cb1:	02 00                	add    (%rax),%al
  403cb3:	00 00                	add    %al,(%rax)
  403cb5:	00 00                	add    %al,(%rax)
  403cb7:	00 e3                	add    %ah,%bl
  403cb9:	02 00                	add    (%rax),%al
  403cbb:	00 00                	add    %al,(%rax)
  403cbd:	00 00                	add    %al,(%rax)
  403cbf:	00 e3                	add    %ah,%bl
  403cc1:	02 00                	add    (%rax),%al
  403cc3:	00 00                	add    %al,(%rax)
  403cc5:	00 00                	add    %al,(%rax)
  403cc7:	00 e3                	add    %ah,%bl
  403cc9:	02 00                	add    (%rax),%al
  403ccb:	00 00                	add    %al,(%rax)
  403ccd:	00 00                	add    %al,(%rax)
  403ccf:	00 e3                	add    %ah,%bl
  403cd1:	02 00                	add    (%rax),%al
  403cd3:	00 00                	add    %al,(%rax)
  403cd5:	00 00                	add    %al,(%rax)
  403cd7:	00 e3                	add    %ah,%bl
  403cd9:	02 00                	add    (%rax),%al
  403cdb:	00 00                	add    %al,(%rax)
  403cdd:	00 00                	add    %al,(%rax)
  403cdf:	00 e3                	add    %ah,%bl
  403ce1:	02 00                	add    (%rax),%al
  403ce3:	00 00                	add    %al,(%rax)
  403ce5:	00 00                	add    %al,(%rax)
  403ce7:	00 e3                	add    %ah,%bl
  403ce9:	02 00                	add    (%rax),%al
  403ceb:	00 00                	add    %al,(%rax)
  403ced:	00 00                	add    %al,(%rax)
  403cef:	00 e3                	add    %ah,%bl
  403cf1:	02 00                	add    (%rax),%al
  403cf3:	00 00                	add    %al,(%rax)
  403cf5:	00 00                	add    %al,(%rax)
  403cf7:	00 e3                	add    %ah,%bl
  403cf9:	02 00                	add    (%rax),%al
  403cfb:	00 00                	add    %al,(%rax)
  403cfd:	00 00                	add    %al,(%rax)
  403cff:	00 e3                	add    %ah,%bl
  403d01:	02 00                	add    (%rax),%al
  403d03:	00 00                	add    %al,(%rax)
  403d05:	00 00                	add    %al,(%rax)
  403d07:	00 e3                	add    %ah,%bl
  403d09:	02 00                	add    (%rax),%al
  403d0b:	00 00                	add    %al,(%rax)
  403d0d:	00 00                	add    %al,(%rax)
  403d0f:	00 e3                	add    %ah,%bl
  403d11:	02 00                	add    (%rax),%al
  403d13:	00 00                	add    %al,(%rax)
  403d15:	00 00                	add    %al,(%rax)
  403d17:	00 e3                	add    %ah,%bl
  403d19:	02 00                	add    (%rax),%al
  403d1b:	00 00                	add    %al,(%rax)
  403d1d:	00 00                	add    %al,(%rax)
  403d1f:	00 e3                	add    %ah,%bl
  403d21:	02 00                	add    (%rax),%al
  403d23:	00 00                	add    %al,(%rax)
  403d25:	00 00                	add    %al,(%rax)
  403d27:	00 e3                	add    %ah,%bl
  403d29:	02 00                	add    (%rax),%al
  403d2b:	00 00                	add    %al,(%rax)
  403d2d:	00 00                	add    %al,(%rax)
  403d2f:	00 e3                	add    %ah,%bl
  403d31:	02 00                	add    (%rax),%al
  403d33:	00 00                	add    %al,(%rax)
  403d35:	00 00                	add    %al,(%rax)
  403d37:	00 e3                	add    %ah,%bl
  403d39:	02 00                	add    (%rax),%al
  403d3b:	00 00                	add    %al,(%rax)
  403d3d:	00 00                	add    %al,(%rax)
  403d3f:	00 e3                	add    %ah,%bl
  403d41:	02 00                	add    (%rax),%al
  403d43:	00 00                	add    %al,(%rax)
  403d45:	00 00                	add    %al,(%rax)
  403d47:	00 e3                	add    %ah,%bl
  403d49:	02 00                	add    (%rax),%al
  403d4b:	00 00                	add    %al,(%rax)
  403d4d:	00 00                	add    %al,(%rax)
  403d4f:	00 e3                	add    %ah,%bl
  403d51:	02 00                	add    (%rax),%al
  403d53:	00 00                	add    %al,(%rax)
  403d55:	00 00                	add    %al,(%rax)
  403d57:	00 e3                	add    %ah,%bl
  403d59:	02 00                	add    (%rax),%al
  403d5b:	00 00                	add    %al,(%rax)
  403d5d:	00 00                	add    %al,(%rax)
  403d5f:	00 e3                	add    %ah,%bl
  403d61:	02 00                	add    (%rax),%al
  403d63:	00 00                	add    %al,(%rax)
  403d65:	00 00                	add    %al,(%rax)
  403d67:	00 e3                	add    %ah,%bl
  403d69:	02 00                	add    (%rax),%al
  403d6b:	00 00                	add    %al,(%rax)
  403d6d:	00 00                	add    %al,(%rax)
  403d6f:	00 e3                	add    %ah,%bl
  403d71:	02 00                	add    (%rax),%al
  403d73:	00 00                	add    %al,(%rax)
  403d75:	00 00                	add    %al,(%rax)
  403d77:	00 e3                	add    %ah,%bl
  403d79:	02 00                	add    (%rax),%al
  403d7b:	00 00                	add    %al,(%rax)
  403d7d:	00 00                	add    %al,(%rax)
  403d7f:	00 e3                	add    %ah,%bl
  403d81:	02 00                	add    (%rax),%al
  403d83:	00 00                	add    %al,(%rax)
  403d85:	00 00                	add    %al,(%rax)
  403d87:	00 e3                	add    %ah,%bl
  403d89:	02 00                	add    (%rax),%al
  403d8b:	00 00                	add    %al,(%rax)
  403d8d:	00 00                	add    %al,(%rax)
  403d8f:	00 e3                	add    %ah,%bl
  403d91:	02 00                	add    (%rax),%al
  403d93:	00 00                	add    %al,(%rax)
  403d95:	00 00                	add    %al,(%rax)
  403d97:	00 e3                	add    %ah,%bl
  403d99:	02 00                	add    (%rax),%al
  403d9b:	00 00                	add    %al,(%rax)
  403d9d:	00 00                	add    %al,(%rax)
  403d9f:	00 e3                	add    %ah,%bl
  403da1:	02 00                	add    (%rax),%al
  403da3:	00 00                	add    %al,(%rax)
  403da5:	00 00                	add    %al,(%rax)
  403da7:	00 e3                	add    %ah,%bl
  403da9:	02 00                	add    (%rax),%al
  403dab:	00 00                	add    %al,(%rax)
  403dad:	00 00                	add    %al,(%rax)
  403daf:	00 e3                	add    %ah,%bl
  403db1:	02 00                	add    (%rax),%al
  403db3:	00 00                	add    %al,(%rax)
  403db5:	00 00                	add    %al,(%rax)
  403db7:	00 e3                	add    %ah,%bl
  403db9:	02 00                	add    (%rax),%al
  403dbb:	00 00                	add    %al,(%rax)
  403dbd:	00 00                	add    %al,(%rax)
  403dbf:	00 ea                	add    %ch,%dl
  403dc1:	02 00                	add    (%rax),%al
  403dc3:	00 00                	add    %al,(%rax)
  403dc5:	00 00                	add    %al,(%rax)
  403dc7:	00 ea                	add    %ch,%dl
  403dc9:	02 00                	add    (%rax),%al
  403dcb:	00 00                	add    %al,(%rax)
  403dcd:	00 00                	add    %al,(%rax)
  403dcf:	00 ea                	add    %ch,%dl
  403dd1:	02 00                	add    (%rax),%al
  403dd3:	00 00                	add    %al,(%rax)
  403dd5:	00 00                	add    %al,(%rax)
  403dd7:	00 ea                	add    %ch,%dl
  403dd9:	02 00                	add    (%rax),%al
  403ddb:	00 00                	add    %al,(%rax)
  403ddd:	00 00                	add    %al,(%rax)
  403ddf:	00 ea                	add    %ch,%dl
  403de1:	02 00                	add    (%rax),%al
  403de3:	00 00                	add    %al,(%rax)
  403de5:	00 00                	add    %al,(%rax)
  403de7:	00 ea                	add    %ch,%dl
  403de9:	02 00                	add    (%rax),%al
  403deb:	00 00                	add    %al,(%rax)
  403ded:	00 00                	add    %al,(%rax)
  403def:	00 ea                	add    %ch,%dl
  403df1:	02 00                	add    (%rax),%al
  403df3:	00 00                	add    %al,(%rax)
  403df5:	00 00                	add    %al,(%rax)
  403df7:	00 ea                	add    %ch,%dl
  403df9:	02 00                	add    (%rax),%al
  403dfb:	00 00                	add    %al,(%rax)
  403dfd:	00 00                	add    %al,(%rax)
  403dff:	00 ea                	add    %ch,%dl
  403e01:	02 00                	add    (%rax),%al
  403e03:	00 00                	add    %al,(%rax)
  403e05:	00 00                	add    %al,(%rax)
  403e07:	00 ea                	add    %ch,%dl
  403e09:	02 00                	add    (%rax),%al
  403e0b:	00 00                	add    %al,(%rax)
  403e0d:	00 00                	add    %al,(%rax)
  403e0f:	00 ea                	add    %ch,%dl
  403e11:	02 00                	add    (%rax),%al
  403e13:	00 00                	add    %al,(%rax)
  403e15:	00 00                	add    %al,(%rax)
  403e17:	00 ea                	add    %ch,%dl
  403e19:	02 00                	add    (%rax),%al
  403e1b:	00 00                	add    %al,(%rax)
  403e1d:	00 00                	add    %al,(%rax)
  403e1f:	00 ea                	add    %ch,%dl
  403e21:	02 00                	add    (%rax),%al
  403e23:	00 00                	add    %al,(%rax)
  403e25:	00 00                	add    %al,(%rax)
  403e27:	00 ea                	add    %ch,%dl
  403e29:	02 00                	add    (%rax),%al
  403e2b:	00 00                	add    %al,(%rax)
  403e2d:	00 00                	add    %al,(%rax)
  403e2f:	00 ea                	add    %ch,%dl
  403e31:	02 00                	add    (%rax),%al
  403e33:	00 00                	add    %al,(%rax)
  403e35:	00 00                	add    %al,(%rax)
  403e37:	00 ea                	add    %ch,%dl
  403e39:	02 00                	add    (%rax),%al
  403e3b:	00 00                	add    %al,(%rax)
  403e3d:	00 00                	add    %al,(%rax)
  403e3f:	00 ea                	add    %ch,%dl
  403e41:	02 00                	add    (%rax),%al
  403e43:	00 00                	add    %al,(%rax)
  403e45:	00 00                	add    %al,(%rax)
  403e47:	00 ea                	add    %ch,%dl
  403e49:	02 00                	add    (%rax),%al
  403e4b:	00 00                	add    %al,(%rax)
  403e4d:	00 00                	add    %al,(%rax)
  403e4f:	00 ea                	add    %ch,%dl
  403e51:	02 00                	add    (%rax),%al
  403e53:	00 00                	add    %al,(%rax)
  403e55:	00 00                	add    %al,(%rax)
  403e57:	00 ea                	add    %ch,%dl
  403e59:	02 00                	add    (%rax),%al
  403e5b:	00 00                	add    %al,(%rax)
  403e5d:	00 00                	add    %al,(%rax)
  403e5f:	00 ea                	add    %ch,%dl
  403e61:	02 00                	add    (%rax),%al
  403e63:	00 00                	add    %al,(%rax)
  403e65:	00 00                	add    %al,(%rax)
  403e67:	00 ea                	add    %ch,%dl
  403e69:	02 00                	add    (%rax),%al
  403e6b:	00 00                	add    %al,(%rax)
  403e6d:	00 00                	add    %al,(%rax)
  403e6f:	00 ea                	add    %ch,%dl
  403e71:	02 00                	add    (%rax),%al
  403e73:	00 00                	add    %al,(%rax)
  403e75:	00 00                	add    %al,(%rax)
  403e77:	00 ea                	add    %ch,%dl
  403e79:	02 00                	add    (%rax),%al
  403e7b:	00 00                	add    %al,(%rax)
  403e7d:	00 00                	add    %al,(%rax)
  403e7f:	00 ea                	add    %ch,%dl
  403e81:	02 00                	add    (%rax),%al
  403e83:	00 00                	add    %al,(%rax)
  403e85:	00 00                	add    %al,(%rax)
  403e87:	00 ea                	add    %ch,%dl
  403e89:	02 00                	add    (%rax),%al
  403e8b:	00 00                	add    %al,(%rax)
  403e8d:	00 00                	add    %al,(%rax)
  403e8f:	00 ea                	add    %ch,%dl
  403e91:	02 00                	add    (%rax),%al
  403e93:	00 00                	add    %al,(%rax)
  403e95:	00 00                	add    %al,(%rax)
  403e97:	00 ea                	add    %ch,%dl
  403e99:	02 00                	add    (%rax),%al
  403e9b:	00 00                	add    %al,(%rax)
  403e9d:	00 00                	add    %al,(%rax)
  403e9f:	00 ea                	add    %ch,%dl
  403ea1:	02 00                	add    (%rax),%al
  403ea3:	00 00                	add    %al,(%rax)
  403ea5:	00 00                	add    %al,(%rax)
  403ea7:	00 ea                	add    %ch,%dl
  403ea9:	02 00                	add    (%rax),%al
  403eab:	00 00                	add    %al,(%rax)
  403ead:	00 00                	add    %al,(%rax)
  403eaf:	00 ea                	add    %ch,%dl
  403eb1:	02 00                	add    (%rax),%al
  403eb3:	00 00                	add    %al,(%rax)
  403eb5:	00 00                	add    %al,(%rax)
  403eb7:	00 ea                	add    %ch,%dl
  403eb9:	02 00                	add    (%rax),%al
  403ebb:	00 00                	add    %al,(%rax)
  403ebd:	00 00                	add    %al,(%rax)
  403ebf:	00 ea                	add    %ch,%dl
  403ec1:	02 00                	add    (%rax),%al
  403ec3:	00 00                	add    %al,(%rax)
  403ec5:	00 00                	add    %al,(%rax)
  403ec7:	00 ea                	add    %ch,%dl
  403ec9:	02 00                	add    (%rax),%al
  403ecb:	00 00                	add    %al,(%rax)
  403ecd:	00 00                	add    %al,(%rax)
  403ecf:	00 ea                	add    %ch,%dl
  403ed1:	02 00                	add    (%rax),%al
  403ed3:	00 00                	add    %al,(%rax)
  403ed5:	00 00                	add    %al,(%rax)
  403ed7:	00 ea                	add    %ch,%dl
  403ed9:	02 00                	add    (%rax),%al
  403edb:	00 00                	add    %al,(%rax)
  403edd:	00 00                	add    %al,(%rax)
  403edf:	00 ea                	add    %ch,%dl
  403ee1:	02 00                	add    (%rax),%al
  403ee3:	00 00                	add    %al,(%rax)
  403ee5:	00 00                	add    %al,(%rax)
  403ee7:	00 ea                	add    %ch,%dl
  403ee9:	02 00                	add    (%rax),%al
  403eeb:	00 00                	add    %al,(%rax)
  403eed:	00 00                	add    %al,(%rax)
  403eef:	00 ea                	add    %ch,%dl
  403ef1:	02 00                	add    (%rax),%al
  403ef3:	00 00                	add    %al,(%rax)
  403ef5:	00 00                	add    %al,(%rax)
  403ef7:	00 ea                	add    %ch,%dl
  403ef9:	02 00                	add    (%rax),%al
  403efb:	00 00                	add    %al,(%rax)
  403efd:	00 00                	add    %al,(%rax)
  403eff:	00 ea                	add    %ch,%dl
  403f01:	02 00                	add    (%rax),%al
  403f03:	00 00                	add    %al,(%rax)
  403f05:	00 00                	add    %al,(%rax)
  403f07:	00 ea                	add    %ch,%dl
  403f09:	02 00                	add    (%rax),%al
  403f0b:	00 00                	add    %al,(%rax)
  403f0d:	00 00                	add    %al,(%rax)
  403f0f:	00 ea                	add    %ch,%dl
  403f11:	02 00                	add    (%rax),%al
  403f13:	00 00                	add    %al,(%rax)
  403f15:	00 00                	add    %al,(%rax)
  403f17:	00 ea                	add    %ch,%dl
  403f19:	02 00                	add    (%rax),%al
  403f1b:	00 00                	add    %al,(%rax)
  403f1d:	00 00                	add    %al,(%rax)
  403f1f:	00 ea                	add    %ch,%dl
  403f21:	02 00                	add    (%rax),%al
  403f23:	00 00                	add    %al,(%rax)
  403f25:	00 00                	add    %al,(%rax)
  403f27:	00 ea                	add    %ch,%dl
  403f29:	02 00                	add    (%rax),%al
  403f2b:	00 00                	add    %al,(%rax)
  403f2d:	00 00                	add    %al,(%rax)
  403f2f:	00 ea                	add    %ch,%dl
  403f31:	02 00                	add    (%rax),%al
  403f33:	00 00                	add    %al,(%rax)
  403f35:	00 00                	add    %al,(%rax)
  403f37:	00 ea                	add    %ch,%dl
  403f39:	02 00                	add    (%rax),%al
  403f3b:	00 00                	add    %al,(%rax)
  403f3d:	00 00                	add    %al,(%rax)
  403f3f:	00 ea                	add    %ch,%dl
  403f41:	02 00                	add    (%rax),%al
  403f43:	00 00                	add    %al,(%rax)
  403f45:	00 00                	add    %al,(%rax)
  403f47:	00 ea                	add    %ch,%dl
  403f49:	02 00                	add    (%rax),%al
  403f4b:	00 00                	add    %al,(%rax)
  403f4d:	00 00                	add    %al,(%rax)
  403f4f:	00 ea                	add    %ch,%dl
  403f51:	02 00                	add    (%rax),%al
  403f53:	00 00                	add    %al,(%rax)
  403f55:	00 00                	add    %al,(%rax)
  403f57:	00 ea                	add    %ch,%dl
  403f59:	02 00                	add    (%rax),%al
  403f5b:	00 00                	add    %al,(%rax)
  403f5d:	00 00                	add    %al,(%rax)
  403f5f:	00 ea                	add    %ch,%dl
  403f61:	02 00                	add    (%rax),%al
  403f63:	00 00                	add    %al,(%rax)
  403f65:	00 00                	add    %al,(%rax)
  403f67:	00 ea                	add    %ch,%dl
  403f69:	02 00                	add    (%rax),%al
  403f6b:	00 00                	add    %al,(%rax)
  403f6d:	00 00                	add    %al,(%rax)
  403f6f:	00 ea                	add    %ch,%dl
  403f71:	02 00                	add    (%rax),%al
  403f73:	00 00                	add    %al,(%rax)
  403f75:	00 00                	add    %al,(%rax)
  403f77:	00 ea                	add    %ch,%dl
  403f79:	02 00                	add    (%rax),%al
  403f7b:	00 00                	add    %al,(%rax)
  403f7d:	00 00                	add    %al,(%rax)
  403f7f:	00 ea                	add    %ch,%dl
  403f81:	02 00                	add    (%rax),%al
  403f83:	00 00                	add    %al,(%rax)
  403f85:	00 00                	add    %al,(%rax)
  403f87:	00 ea                	add    %ch,%dl
  403f89:	02 00                	add    (%rax),%al
  403f8b:	00 00                	add    %al,(%rax)
  403f8d:	00 00                	add    %al,(%rax)
  403f8f:	00 ea                	add    %ch,%dl
  403f91:	02 00                	add    (%rax),%al
  403f93:	00 00                	add    %al,(%rax)
  403f95:	00 00                	add    %al,(%rax)
  403f97:	00 ea                	add    %ch,%dl
  403f99:	02 00                	add    (%rax),%al
  403f9b:	00 00                	add    %al,(%rax)
  403f9d:	00 00                	add    %al,(%rax)
  403f9f:	00 ea                	add    %ch,%dl
  403fa1:	02 00                	add    (%rax),%al
  403fa3:	00 00                	add    %al,(%rax)
  403fa5:	00 00                	add    %al,(%rax)
  403fa7:	00 ea                	add    %ch,%dl
  403fa9:	02 00                	add    (%rax),%al
  403fab:	00 00                	add    %al,(%rax)
  403fad:	00 00                	add    %al,(%rax)
  403faf:	00 ea                	add    %ch,%dl
  403fb1:	02 00                	add    (%rax),%al
  403fb3:	00 00                	add    %al,(%rax)
  403fb5:	00 00                	add    %al,(%rax)
  403fb7:	00 ea                	add    %ch,%dl
  403fb9:	02 00                	add    (%rax),%al
  403fbb:	00 00                	add    %al,(%rax)
  403fbd:	00 00                	add    %al,(%rax)
  403fbf:	00 f1                	add    %dh,%cl
  403fc1:	02 00                	add    (%rax),%al
  403fc3:	00 00                	add    %al,(%rax)
  403fc5:	00 00                	add    %al,(%rax)
  403fc7:	00 f1                	add    %dh,%cl
  403fc9:	02 00                	add    (%rax),%al
  403fcb:	00 00                	add    %al,(%rax)
  403fcd:	00 00                	add    %al,(%rax)
  403fcf:	00 f1                	add    %dh,%cl
  403fd1:	02 00                	add    (%rax),%al
  403fd3:	00 00                	add    %al,(%rax)
  403fd5:	00 00                	add    %al,(%rax)
  403fd7:	00 f1                	add    %dh,%cl
  403fd9:	02 00                	add    (%rax),%al
  403fdb:	00 00                	add    %al,(%rax)
  403fdd:	00 00                	add    %al,(%rax)
  403fdf:	00 f1                	add    %dh,%cl
  403fe1:	02 00                	add    (%rax),%al
  403fe3:	00 00                	add    %al,(%rax)
  403fe5:	00 00                	add    %al,(%rax)
  403fe7:	00 f1                	add    %dh,%cl
  403fe9:	02 00                	add    (%rax),%al
  403feb:	00 00                	add    %al,(%rax)
  403fed:	00 00                	add    %al,(%rax)
  403fef:	00 f1                	add    %dh,%cl
  403ff1:	02 00                	add    (%rax),%al
  403ff3:	00 00                	add    %al,(%rax)
  403ff5:	00 00                	add    %al,(%rax)
  403ff7:	00 f1                	add    %dh,%cl
  403ff9:	02 00                	add    (%rax),%al
  403ffb:	00 00                	add    %al,(%rax)
  403ffd:	00 00                	add    %al,(%rax)
  403fff:	00 f1                	add    %dh,%cl
  404001:	02 00                	add    (%rax),%al
  404003:	00 00                	add    %al,(%rax)
  404005:	00 00                	add    %al,(%rax)
  404007:	00 f1                	add    %dh,%cl
  404009:	02 00                	add    (%rax),%al
  40400b:	00 00                	add    %al,(%rax)
  40400d:	00 00                	add    %al,(%rax)
  40400f:	00 f1                	add    %dh,%cl
  404011:	02 00                	add    (%rax),%al
  404013:	00 00                	add    %al,(%rax)
  404015:	00 00                	add    %al,(%rax)
  404017:	00 f1                	add    %dh,%cl
  404019:	02 00                	add    (%rax),%al
  40401b:	00 00                	add    %al,(%rax)
  40401d:	00 00                	add    %al,(%rax)
  40401f:	00 f1                	add    %dh,%cl
  404021:	02 00                	add    (%rax),%al
  404023:	00 00                	add    %al,(%rax)
  404025:	00 00                	add    %al,(%rax)
  404027:	00 f1                	add    %dh,%cl
  404029:	02 00                	add    (%rax),%al
  40402b:	00 00                	add    %al,(%rax)
  40402d:	00 00                	add    %al,(%rax)
  40402f:	00 f1                	add    %dh,%cl
  404031:	02 00                	add    (%rax),%al
  404033:	00 00                	add    %al,(%rax)
  404035:	00 00                	add    %al,(%rax)
  404037:	00 f1                	add    %dh,%cl
  404039:	02 00                	add    (%rax),%al
  40403b:	00 00                	add    %al,(%rax)
  40403d:	00 00                	add    %al,(%rax)
  40403f:	00 f1                	add    %dh,%cl
  404041:	02 00                	add    (%rax),%al
  404043:	00 00                	add    %al,(%rax)
  404045:	00 00                	add    %al,(%rax)
  404047:	00 f1                	add    %dh,%cl
  404049:	02 00                	add    (%rax),%al
  40404b:	00 00                	add    %al,(%rax)
  40404d:	00 00                	add    %al,(%rax)
  40404f:	00 f1                	add    %dh,%cl
  404051:	02 00                	add    (%rax),%al
  404053:	00 00                	add    %al,(%rax)
  404055:	00 00                	add    %al,(%rax)
  404057:	00 f1                	add    %dh,%cl
  404059:	02 00                	add    (%rax),%al
  40405b:	00 00                	add    %al,(%rax)
  40405d:	00 00                	add    %al,(%rax)
  40405f:	00 f1                	add    %dh,%cl
  404061:	02 00                	add    (%rax),%al
  404063:	00 00                	add    %al,(%rax)
  404065:	00 00                	add    %al,(%rax)
  404067:	00 f1                	add    %dh,%cl
  404069:	02 00                	add    (%rax),%al
  40406b:	00 00                	add    %al,(%rax)
  40406d:	00 00                	add    %al,(%rax)
  40406f:	00 f1                	add    %dh,%cl
  404071:	02 00                	add    (%rax),%al
  404073:	00 00                	add    %al,(%rax)
  404075:	00 00                	add    %al,(%rax)
  404077:	00 f1                	add    %dh,%cl
  404079:	02 00                	add    (%rax),%al
  40407b:	00 00                	add    %al,(%rax)
  40407d:	00 00                	add    %al,(%rax)
  40407f:	00 f1                	add    %dh,%cl
  404081:	02 00                	add    (%rax),%al
  404083:	00 00                	add    %al,(%rax)
  404085:	00 00                	add    %al,(%rax)
  404087:	00 f1                	add    %dh,%cl
  404089:	02 00                	add    (%rax),%al
  40408b:	00 00                	add    %al,(%rax)
  40408d:	00 00                	add    %al,(%rax)
  40408f:	00 f1                	add    %dh,%cl
  404091:	02 00                	add    (%rax),%al
  404093:	00 00                	add    %al,(%rax)
  404095:	00 00                	add    %al,(%rax)
  404097:	00 f1                	add    %dh,%cl
  404099:	02 00                	add    (%rax),%al
  40409b:	00 00                	add    %al,(%rax)
  40409d:	00 00                	add    %al,(%rax)
  40409f:	00 f1                	add    %dh,%cl
  4040a1:	02 00                	add    (%rax),%al
  4040a3:	00 00                	add    %al,(%rax)
  4040a5:	00 00                	add    %al,(%rax)
  4040a7:	00 f1                	add    %dh,%cl
  4040a9:	02 00                	add    (%rax),%al
  4040ab:	00 00                	add    %al,(%rax)
  4040ad:	00 00                	add    %al,(%rax)
  4040af:	00 f1                	add    %dh,%cl
  4040b1:	02 00                	add    (%rax),%al
  4040b3:	00 00                	add    %al,(%rax)
  4040b5:	00 00                	add    %al,(%rax)
  4040b7:	00 f1                	add    %dh,%cl
  4040b9:	02 00                	add    (%rax),%al
  4040bb:	00 00                	add    %al,(%rax)
  4040bd:	00 00                	add    %al,(%rax)
  4040bf:	00 f1                	add    %dh,%cl
  4040c1:	02 00                	add    (%rax),%al
  4040c3:	00 00                	add    %al,(%rax)
  4040c5:	00 00                	add    %al,(%rax)
  4040c7:	00 f1                	add    %dh,%cl
  4040c9:	02 00                	add    (%rax),%al
  4040cb:	00 00                	add    %al,(%rax)
  4040cd:	00 00                	add    %al,(%rax)
  4040cf:	00 f1                	add    %dh,%cl
  4040d1:	02 00                	add    (%rax),%al
  4040d3:	00 00                	add    %al,(%rax)
  4040d5:	00 00                	add    %al,(%rax)
  4040d7:	00 f1                	add    %dh,%cl
  4040d9:	02 00                	add    (%rax),%al
  4040db:	00 00                	add    %al,(%rax)
  4040dd:	00 00                	add    %al,(%rax)
  4040df:	00 f1                	add    %dh,%cl
  4040e1:	02 00                	add    (%rax),%al
  4040e3:	00 00                	add    %al,(%rax)
  4040e5:	00 00                	add    %al,(%rax)
  4040e7:	00 f1                	add    %dh,%cl
  4040e9:	02 00                	add    (%rax),%al
  4040eb:	00 00                	add    %al,(%rax)
  4040ed:	00 00                	add    %al,(%rax)
  4040ef:	00 f1                	add    %dh,%cl
  4040f1:	02 00                	add    (%rax),%al
  4040f3:	00 00                	add    %al,(%rax)
  4040f5:	00 00                	add    %al,(%rax)
  4040f7:	00 f1                	add    %dh,%cl
  4040f9:	02 00                	add    (%rax),%al
  4040fb:	00 00                	add    %al,(%rax)
  4040fd:	00 00                	add    %al,(%rax)
  4040ff:	00 f1                	add    %dh,%cl
  404101:	02 00                	add    (%rax),%al
  404103:	00 00                	add    %al,(%rax)
  404105:	00 00                	add    %al,(%rax)
  404107:	00 f1                	add    %dh,%cl
  404109:	02 00                	add    (%rax),%al
  40410b:	00 00                	add    %al,(%rax)
  40410d:	00 00                	add    %al,(%rax)
  40410f:	00 f1                	add    %dh,%cl
  404111:	02 00                	add    (%rax),%al
  404113:	00 00                	add    %al,(%rax)
  404115:	00 00                	add    %al,(%rax)
  404117:	00 f1                	add    %dh,%cl
  404119:	02 00                	add    (%rax),%al
  40411b:	00 00                	add    %al,(%rax)
  40411d:	00 00                	add    %al,(%rax)
  40411f:	00 f1                	add    %dh,%cl
  404121:	02 00                	add    (%rax),%al
  404123:	00 00                	add    %al,(%rax)
  404125:	00 00                	add    %al,(%rax)
  404127:	00 f1                	add    %dh,%cl
  404129:	02 00                	add    (%rax),%al
  40412b:	00 00                	add    %al,(%rax)
  40412d:	00 00                	add    %al,(%rax)
  40412f:	00 f1                	add    %dh,%cl
  404131:	02 00                	add    (%rax),%al
  404133:	00 00                	add    %al,(%rax)
  404135:	00 00                	add    %al,(%rax)
  404137:	00 f1                	add    %dh,%cl
  404139:	02 00                	add    (%rax),%al
  40413b:	00 00                	add    %al,(%rax)
  40413d:	00 00                	add    %al,(%rax)
  40413f:	00 f1                	add    %dh,%cl
  404141:	02 00                	add    (%rax),%al
  404143:	00 00                	add    %al,(%rax)
  404145:	00 00                	add    %al,(%rax)
  404147:	00 f1                	add    %dh,%cl
  404149:	02 00                	add    (%rax),%al
  40414b:	00 00                	add    %al,(%rax)
  40414d:	00 00                	add    %al,(%rax)
  40414f:	00 f1                	add    %dh,%cl
  404151:	02 00                	add    (%rax),%al
  404153:	00 00                	add    %al,(%rax)
  404155:	00 00                	add    %al,(%rax)
  404157:	00 f1                	add    %dh,%cl
  404159:	02 00                	add    (%rax),%al
  40415b:	00 00                	add    %al,(%rax)
  40415d:	00 00                	add    %al,(%rax)
  40415f:	00 f1                	add    %dh,%cl
  404161:	02 00                	add    (%rax),%al
  404163:	00 00                	add    %al,(%rax)
  404165:	00 00                	add    %al,(%rax)
  404167:	00 f1                	add    %dh,%cl
  404169:	02 00                	add    (%rax),%al
  40416b:	00 00                	add    %al,(%rax)
  40416d:	00 00                	add    %al,(%rax)
  40416f:	00 f1                	add    %dh,%cl
  404171:	02 00                	add    (%rax),%al
  404173:	00 00                	add    %al,(%rax)
  404175:	00 00                	add    %al,(%rax)
  404177:	00 f1                	add    %dh,%cl
  404179:	02 00                	add    (%rax),%al
  40417b:	00 00                	add    %al,(%rax)
  40417d:	00 00                	add    %al,(%rax)
  40417f:	00 f1                	add    %dh,%cl
  404181:	02 00                	add    (%rax),%al
  404183:	00 00                	add    %al,(%rax)
  404185:	00 00                	add    %al,(%rax)
  404187:	00 f1                	add    %dh,%cl
  404189:	02 00                	add    (%rax),%al
  40418b:	00 00                	add    %al,(%rax)
  40418d:	00 00                	add    %al,(%rax)
  40418f:	00 f1                	add    %dh,%cl
  404191:	02 00                	add    (%rax),%al
  404193:	00 00                	add    %al,(%rax)
  404195:	00 00                	add    %al,(%rax)
  404197:	00 f1                	add    %dh,%cl
  404199:	02 00                	add    (%rax),%al
  40419b:	00 00                	add    %al,(%rax)
  40419d:	00 00                	add    %al,(%rax)
  40419f:	00 f1                	add    %dh,%cl
  4041a1:	02 00                	add    (%rax),%al
  4041a3:	00 00                	add    %al,(%rax)
  4041a5:	00 00                	add    %al,(%rax)
  4041a7:	00 f1                	add    %dh,%cl
  4041a9:	02 00                	add    (%rax),%al
  4041ab:	00 00                	add    %al,(%rax)
  4041ad:	00 00                	add    %al,(%rax)
  4041af:	00 f1                	add    %dh,%cl
  4041b1:	02 00                	add    (%rax),%al
  4041b3:	00 00                	add    %al,(%rax)
  4041b5:	00 00                	add    %al,(%rax)
  4041b7:	00 f1                	add    %dh,%cl
  4041b9:	02 00                	add    (%rax),%al
  4041bb:	00 00                	add    %al,(%rax)
  4041bd:	00 00                	add    %al,(%rax)
  4041bf:	00 f8                	add    %bh,%al
  4041c1:	02 00                	add    (%rax),%al
  4041c3:	00 00                	add    %al,(%rax)
  4041c5:	00 00                	add    %al,(%rax)
  4041c7:	00 f8                	add    %bh,%al
  4041c9:	02 00                	add    (%rax),%al
  4041cb:	00 00                	add    %al,(%rax)
  4041cd:	00 00                	add    %al,(%rax)
  4041cf:	00 f8                	add    %bh,%al
  4041d1:	02 00                	add    (%rax),%al
  4041d3:	00 00                	add    %al,(%rax)
  4041d5:	00 00                	add    %al,(%rax)
  4041d7:	00 f8                	add    %bh,%al
  4041d9:	02 00                	add    (%rax),%al
  4041db:	00 00                	add    %al,(%rax)
  4041dd:	00 00                	add    %al,(%rax)
  4041df:	00 f8                	add    %bh,%al
  4041e1:	02 00                	add    (%rax),%al
  4041e3:	00 00                	add    %al,(%rax)
  4041e5:	00 00                	add    %al,(%rax)
  4041e7:	00 f8                	add    %bh,%al
  4041e9:	02 00                	add    (%rax),%al
  4041eb:	00 00                	add    %al,(%rax)
  4041ed:	00 00                	add    %al,(%rax)
  4041ef:	00 f8                	add    %bh,%al
  4041f1:	02 00                	add    (%rax),%al
  4041f3:	00 00                	add    %al,(%rax)
  4041f5:	00 00                	add    %al,(%rax)
  4041f7:	00 f8                	add    %bh,%al
  4041f9:	02 00                	add    (%rax),%al
  4041fb:	00 00                	add    %al,(%rax)
  4041fd:	00 00                	add    %al,(%rax)
  4041ff:	00 f8                	add    %bh,%al
  404201:	02 00                	add    (%rax),%al
  404203:	00 00                	add    %al,(%rax)
  404205:	00 00                	add    %al,(%rax)
  404207:	00 f8                	add    %bh,%al
  404209:	02 00                	add    (%rax),%al
  40420b:	00 00                	add    %al,(%rax)
  40420d:	00 00                	add    %al,(%rax)
  40420f:	00 f8                	add    %bh,%al
  404211:	02 00                	add    (%rax),%al
  404213:	00 00                	add    %al,(%rax)
  404215:	00 00                	add    %al,(%rax)
  404217:	00 f8                	add    %bh,%al
  404219:	02 00                	add    (%rax),%al
  40421b:	00 00                	add    %al,(%rax)
  40421d:	00 00                	add    %al,(%rax)
  40421f:	00 f8                	add    %bh,%al
  404221:	02 00                	add    (%rax),%al
  404223:	00 00                	add    %al,(%rax)
  404225:	00 00                	add    %al,(%rax)
  404227:	00 f8                	add    %bh,%al
  404229:	02 00                	add    (%rax),%al
  40422b:	00 00                	add    %al,(%rax)
  40422d:	00 00                	add    %al,(%rax)
  40422f:	00 f8                	add    %bh,%al
  404231:	02 00                	add    (%rax),%al
  404233:	00 00                	add    %al,(%rax)
  404235:	00 00                	add    %al,(%rax)
  404237:	00 f8                	add    %bh,%al
  404239:	02 00                	add    (%rax),%al
  40423b:	00 00                	add    %al,(%rax)
  40423d:	00 00                	add    %al,(%rax)
  40423f:	00 f8                	add    %bh,%al
  404241:	02 00                	add    (%rax),%al
  404243:	00 00                	add    %al,(%rax)
  404245:	00 00                	add    %al,(%rax)
  404247:	00 f8                	add    %bh,%al
  404249:	02 00                	add    (%rax),%al
  40424b:	00 00                	add    %al,(%rax)
  40424d:	00 00                	add    %al,(%rax)
  40424f:	00 f8                	add    %bh,%al
  404251:	02 00                	add    (%rax),%al
  404253:	00 00                	add    %al,(%rax)
  404255:	00 00                	add    %al,(%rax)
  404257:	00 f8                	add    %bh,%al
  404259:	02 00                	add    (%rax),%al
  40425b:	00 00                	add    %al,(%rax)
  40425d:	00 00                	add    %al,(%rax)
  40425f:	00 f8                	add    %bh,%al
  404261:	02 00                	add    (%rax),%al
  404263:	00 00                	add    %al,(%rax)
  404265:	00 00                	add    %al,(%rax)
  404267:	00 f8                	add    %bh,%al
  404269:	02 00                	add    (%rax),%al
  40426b:	00 00                	add    %al,(%rax)
  40426d:	00 00                	add    %al,(%rax)
  40426f:	00 f8                	add    %bh,%al
  404271:	02 00                	add    (%rax),%al
  404273:	00 00                	add    %al,(%rax)
  404275:	00 00                	add    %al,(%rax)
  404277:	00 f8                	add    %bh,%al
  404279:	02 00                	add    (%rax),%al
  40427b:	00 00                	add    %al,(%rax)
  40427d:	00 00                	add    %al,(%rax)
  40427f:	00 f8                	add    %bh,%al
  404281:	02 00                	add    (%rax),%al
  404283:	00 00                	add    %al,(%rax)
  404285:	00 00                	add    %al,(%rax)
  404287:	00 f8                	add    %bh,%al
  404289:	02 00                	add    (%rax),%al
  40428b:	00 00                	add    %al,(%rax)
  40428d:	00 00                	add    %al,(%rax)
  40428f:	00 f8                	add    %bh,%al
  404291:	02 00                	add    (%rax),%al
  404293:	00 00                	add    %al,(%rax)
  404295:	00 00                	add    %al,(%rax)
  404297:	00 f8                	add    %bh,%al
  404299:	02 00                	add    (%rax),%al
  40429b:	00 00                	add    %al,(%rax)
  40429d:	00 00                	add    %al,(%rax)
  40429f:	00 f8                	add    %bh,%al
  4042a1:	02 00                	add    (%rax),%al
  4042a3:	00 00                	add    %al,(%rax)
  4042a5:	00 00                	add    %al,(%rax)
  4042a7:	00 f8                	add    %bh,%al
  4042a9:	02 00                	add    (%rax),%al
  4042ab:	00 00                	add    %al,(%rax)
  4042ad:	00 00                	add    %al,(%rax)
  4042af:	00 f8                	add    %bh,%al
  4042b1:	02 00                	add    (%rax),%al
  4042b3:	00 00                	add    %al,(%rax)
  4042b5:	00 00                	add    %al,(%rax)
  4042b7:	00 f8                	add    %bh,%al
  4042b9:	02 00                	add    (%rax),%al
  4042bb:	00 00                	add    %al,(%rax)
  4042bd:	00 00                	add    %al,(%rax)
  4042bf:	00 f8                	add    %bh,%al
  4042c1:	02 00                	add    (%rax),%al
  4042c3:	00 00                	add    %al,(%rax)
  4042c5:	00 00                	add    %al,(%rax)
  4042c7:	00 f8                	add    %bh,%al
  4042c9:	02 00                	add    (%rax),%al
  4042cb:	00 00                	add    %al,(%rax)
  4042cd:	00 00                	add    %al,(%rax)
  4042cf:	00 f8                	add    %bh,%al
  4042d1:	02 00                	add    (%rax),%al
  4042d3:	00 00                	add    %al,(%rax)
  4042d5:	00 00                	add    %al,(%rax)
  4042d7:	00 f8                	add    %bh,%al
  4042d9:	02 00                	add    (%rax),%al
  4042db:	00 00                	add    %al,(%rax)
  4042dd:	00 00                	add    %al,(%rax)
  4042df:	00 f8                	add    %bh,%al
  4042e1:	02 00                	add    (%rax),%al
  4042e3:	00 00                	add    %al,(%rax)
  4042e5:	00 00                	add    %al,(%rax)
  4042e7:	00 f8                	add    %bh,%al
  4042e9:	02 00                	add    (%rax),%al
  4042eb:	00 00                	add    %al,(%rax)
  4042ed:	00 00                	add    %al,(%rax)
  4042ef:	00 f8                	add    %bh,%al
  4042f1:	02 00                	add    (%rax),%al
  4042f3:	00 00                	add    %al,(%rax)
  4042f5:	00 00                	add    %al,(%rax)
  4042f7:	00 f8                	add    %bh,%al
  4042f9:	02 00                	add    (%rax),%al
  4042fb:	00 00                	add    %al,(%rax)
  4042fd:	00 00                	add    %al,(%rax)
  4042ff:	00 f8                	add    %bh,%al
  404301:	02 00                	add    (%rax),%al
  404303:	00 00                	add    %al,(%rax)
  404305:	00 00                	add    %al,(%rax)
  404307:	00 f8                	add    %bh,%al
  404309:	02 00                	add    (%rax),%al
  40430b:	00 00                	add    %al,(%rax)
  40430d:	00 00                	add    %al,(%rax)
  40430f:	00 f8                	add    %bh,%al
  404311:	02 00                	add    (%rax),%al
  404313:	00 00                	add    %al,(%rax)
  404315:	00 00                	add    %al,(%rax)
  404317:	00 f8                	add    %bh,%al
  404319:	02 00                	add    (%rax),%al
  40431b:	00 00                	add    %al,(%rax)
  40431d:	00 00                	add    %al,(%rax)
  40431f:	00 f8                	add    %bh,%al
  404321:	02 00                	add    (%rax),%al
  404323:	00 00                	add    %al,(%rax)
  404325:	00 00                	add    %al,(%rax)
  404327:	00 f8                	add    %bh,%al
  404329:	02 00                	add    (%rax),%al
  40432b:	00 00                	add    %al,(%rax)
  40432d:	00 00                	add    %al,(%rax)
  40432f:	00 f8                	add    %bh,%al
  404331:	02 00                	add    (%rax),%al
  404333:	00 00                	add    %al,(%rax)
  404335:	00 00                	add    %al,(%rax)
  404337:	00 f8                	add    %bh,%al
  404339:	02 00                	add    (%rax),%al
  40433b:	00 00                	add    %al,(%rax)
  40433d:	00 00                	add    %al,(%rax)
  40433f:	00 f8                	add    %bh,%al
  404341:	02 00                	add    (%rax),%al
  404343:	00 00                	add    %al,(%rax)
  404345:	00 00                	add    %al,(%rax)
  404347:	00 f8                	add    %bh,%al
  404349:	02 00                	add    (%rax),%al
  40434b:	00 00                	add    %al,(%rax)
  40434d:	00 00                	add    %al,(%rax)
  40434f:	00 f8                	add    %bh,%al
  404351:	02 00                	add    (%rax),%al
  404353:	00 00                	add    %al,(%rax)
  404355:	00 00                	add    %al,(%rax)
  404357:	00 f8                	add    %bh,%al
  404359:	02 00                	add    (%rax),%al
  40435b:	00 00                	add    %al,(%rax)
  40435d:	00 00                	add    %al,(%rax)
  40435f:	00 f8                	add    %bh,%al
  404361:	02 00                	add    (%rax),%al
  404363:	00 00                	add    %al,(%rax)
  404365:	00 00                	add    %al,(%rax)
  404367:	00 f8                	add    %bh,%al
  404369:	02 00                	add    (%rax),%al
  40436b:	00 00                	add    %al,(%rax)
  40436d:	00 00                	add    %al,(%rax)
  40436f:	00 f8                	add    %bh,%al
  404371:	02 00                	add    (%rax),%al
  404373:	00 00                	add    %al,(%rax)
  404375:	00 00                	add    %al,(%rax)
  404377:	00 f8                	add    %bh,%al
  404379:	02 00                	add    (%rax),%al
  40437b:	00 00                	add    %al,(%rax)
  40437d:	00 00                	add    %al,(%rax)
  40437f:	00 f8                	add    %bh,%al
  404381:	02 00                	add    (%rax),%al
  404383:	00 00                	add    %al,(%rax)
  404385:	00 00                	add    %al,(%rax)
  404387:	00 f8                	add    %bh,%al
  404389:	02 00                	add    (%rax),%al
  40438b:	00 00                	add    %al,(%rax)
  40438d:	00 00                	add    %al,(%rax)
  40438f:	00 f8                	add    %bh,%al
  404391:	02 00                	add    (%rax),%al
  404393:	00 00                	add    %al,(%rax)
  404395:	00 00                	add    %al,(%rax)
  404397:	00 f8                	add    %bh,%al
  404399:	02 00                	add    (%rax),%al
  40439b:	00 00                	add    %al,(%rax)
  40439d:	00 00                	add    %al,(%rax)
  40439f:	00 f8                	add    %bh,%al
  4043a1:	02 00                	add    (%rax),%al
  4043a3:	00 00                	add    %al,(%rax)
  4043a5:	00 00                	add    %al,(%rax)
  4043a7:	00 f8                	add    %bh,%al
  4043a9:	02 00                	add    (%rax),%al
  4043ab:	00 00                	add    %al,(%rax)
  4043ad:	00 00                	add    %al,(%rax)
  4043af:	00 f8                	add    %bh,%al
  4043b1:	02 00                	add    (%rax),%al
  4043b3:	00 00                	add    %al,(%rax)
  4043b5:	00 00                	add    %al,(%rax)
  4043b7:	00 f8                	add    %bh,%al
  4043b9:	02 00                	add    (%rax),%al
  4043bb:	00 00                	add    %al,(%rax)
  4043bd:	00 00                	add    %al,(%rax)
  4043bf:	00 ff                	add    %bh,%bh
  4043c1:	02 00                	add    (%rax),%al
  4043c3:	00 00                	add    %al,(%rax)
  4043c5:	00 00                	add    %al,(%rax)
  4043c7:	00 ff                	add    %bh,%bh
  4043c9:	02 00                	add    (%rax),%al
  4043cb:	00 00                	add    %al,(%rax)
  4043cd:	00 00                	add    %al,(%rax)
  4043cf:	00 ff                	add    %bh,%bh
  4043d1:	02 00                	add    (%rax),%al
  4043d3:	00 00                	add    %al,(%rax)
  4043d5:	00 00                	add    %al,(%rax)
  4043d7:	00 ff                	add    %bh,%bh
  4043d9:	02 00                	add    (%rax),%al
  4043db:	00 00                	add    %al,(%rax)
  4043dd:	00 00                	add    %al,(%rax)
  4043df:	00 ff                	add    %bh,%bh
  4043e1:	02 00                	add    (%rax),%al
  4043e3:	00 00                	add    %al,(%rax)
  4043e5:	00 00                	add    %al,(%rax)
  4043e7:	00 ff                	add    %bh,%bh
  4043e9:	02 00                	add    (%rax),%al
  4043eb:	00 00                	add    %al,(%rax)
  4043ed:	00 00                	add    %al,(%rax)
  4043ef:	00 ff                	add    %bh,%bh
  4043f1:	02 00                	add    (%rax),%al
  4043f3:	00 00                	add    %al,(%rax)
  4043f5:	00 00                	add    %al,(%rax)
  4043f7:	00 ff                	add    %bh,%bh
  4043f9:	02 00                	add    (%rax),%al
  4043fb:	00 00                	add    %al,(%rax)
  4043fd:	00 00                	add    %al,(%rax)
  4043ff:	00 ff                	add    %bh,%bh
  404401:	02 00                	add    (%rax),%al
  404403:	00 00                	add    %al,(%rax)
  404405:	00 00                	add    %al,(%rax)
  404407:	00 ff                	add    %bh,%bh
  404409:	02 00                	add    (%rax),%al
  40440b:	00 00                	add    %al,(%rax)
  40440d:	00 00                	add    %al,(%rax)
  40440f:	00 ff                	add    %bh,%bh
  404411:	02 00                	add    (%rax),%al
  404413:	00 00                	add    %al,(%rax)
  404415:	00 00                	add    %al,(%rax)
  404417:	00 ff                	add    %bh,%bh
  404419:	02 00                	add    (%rax),%al
  40441b:	00 00                	add    %al,(%rax)
  40441d:	00 00                	add    %al,(%rax)
  40441f:	00 ff                	add    %bh,%bh
  404421:	02 00                	add    (%rax),%al
  404423:	00 00                	add    %al,(%rax)
  404425:	00 00                	add    %al,(%rax)
  404427:	00 ff                	add    %bh,%bh
  404429:	02 00                	add    (%rax),%al
  40442b:	00 00                	add    %al,(%rax)
  40442d:	00 00                	add    %al,(%rax)
  40442f:	00 ff                	add    %bh,%bh
  404431:	02 00                	add    (%rax),%al
  404433:	00 00                	add    %al,(%rax)
  404435:	00 00                	add    %al,(%rax)
  404437:	00 ff                	add    %bh,%bh
  404439:	02 00                	add    (%rax),%al
  40443b:	00 00                	add    %al,(%rax)
  40443d:	00 00                	add    %al,(%rax)
  40443f:	00 ff                	add    %bh,%bh
  404441:	02 00                	add    (%rax),%al
  404443:	00 00                	add    %al,(%rax)
  404445:	00 00                	add    %al,(%rax)
  404447:	00 ff                	add    %bh,%bh
  404449:	02 00                	add    (%rax),%al
  40444b:	00 00                	add    %al,(%rax)
  40444d:	00 00                	add    %al,(%rax)
  40444f:	00 ff                	add    %bh,%bh
  404451:	02 00                	add    (%rax),%al
  404453:	00 00                	add    %al,(%rax)
  404455:	00 00                	add    %al,(%rax)
  404457:	00 ff                	add    %bh,%bh
  404459:	02 00                	add    (%rax),%al
  40445b:	00 00                	add    %al,(%rax)
  40445d:	00 00                	add    %al,(%rax)
  40445f:	00 ff                	add    %bh,%bh
  404461:	02 00                	add    (%rax),%al
  404463:	00 00                	add    %al,(%rax)
  404465:	00 00                	add    %al,(%rax)
  404467:	00 ff                	add    %bh,%bh
  404469:	02 00                	add    (%rax),%al
  40446b:	00 00                	add    %al,(%rax)
  40446d:	00 00                	add    %al,(%rax)
  40446f:	00 ff                	add    %bh,%bh
  404471:	02 00                	add    (%rax),%al
  404473:	00 00                	add    %al,(%rax)
  404475:	00 00                	add    %al,(%rax)
  404477:	00 ff                	add    %bh,%bh
  404479:	02 00                	add    (%rax),%al
  40447b:	00 00                	add    %al,(%rax)
  40447d:	00 00                	add    %al,(%rax)
  40447f:	00 ff                	add    %bh,%bh
  404481:	02 00                	add    (%rax),%al
  404483:	00 00                	add    %al,(%rax)
  404485:	00 00                	add    %al,(%rax)
  404487:	00 ff                	add    %bh,%bh
  404489:	02 00                	add    (%rax),%al
  40448b:	00 00                	add    %al,(%rax)
  40448d:	00 00                	add    %al,(%rax)
  40448f:	00 ff                	add    %bh,%bh
  404491:	02 00                	add    (%rax),%al
  404493:	00 00                	add    %al,(%rax)
  404495:	00 00                	add    %al,(%rax)
  404497:	00 ff                	add    %bh,%bh
  404499:	02 00                	add    (%rax),%al
  40449b:	00 00                	add    %al,(%rax)
  40449d:	00 00                	add    %al,(%rax)
  40449f:	00 ff                	add    %bh,%bh
  4044a1:	02 00                	add    (%rax),%al
  4044a3:	00 00                	add    %al,(%rax)
  4044a5:	00 00                	add    %al,(%rax)
  4044a7:	00 ff                	add    %bh,%bh
  4044a9:	02 00                	add    (%rax),%al
  4044ab:	00 00                	add    %al,(%rax)
  4044ad:	00 00                	add    %al,(%rax)
  4044af:	00 ff                	add    %bh,%bh
  4044b1:	02 00                	add    (%rax),%al
  4044b3:	00 00                	add    %al,(%rax)
  4044b5:	00 00                	add    %al,(%rax)
  4044b7:	00 ff                	add    %bh,%bh
  4044b9:	02 00                	add    (%rax),%al
  4044bb:	00 00                	add    %al,(%rax)
  4044bd:	00 00                	add    %al,(%rax)
  4044bf:	00 ff                	add    %bh,%bh
  4044c1:	02 00                	add    (%rax),%al
  4044c3:	00 00                	add    %al,(%rax)
  4044c5:	00 00                	add    %al,(%rax)
  4044c7:	00 ff                	add    %bh,%bh
  4044c9:	02 00                	add    (%rax),%al
  4044cb:	00 00                	add    %al,(%rax)
  4044cd:	00 00                	add    %al,(%rax)
  4044cf:	00 ff                	add    %bh,%bh
  4044d1:	02 00                	add    (%rax),%al
  4044d3:	00 00                	add    %al,(%rax)
  4044d5:	00 00                	add    %al,(%rax)
  4044d7:	00 ff                	add    %bh,%bh
  4044d9:	02 00                	add    (%rax),%al
  4044db:	00 00                	add    %al,(%rax)
  4044dd:	00 00                	add    %al,(%rax)
  4044df:	00 ff                	add    %bh,%bh
  4044e1:	02 00                	add    (%rax),%al
  4044e3:	00 00                	add    %al,(%rax)
  4044e5:	00 00                	add    %al,(%rax)
  4044e7:	00 ff                	add    %bh,%bh
  4044e9:	02 00                	add    (%rax),%al
  4044eb:	00 00                	add    %al,(%rax)
  4044ed:	00 00                	add    %al,(%rax)
  4044ef:	00 ff                	add    %bh,%bh
  4044f1:	02 00                	add    (%rax),%al
  4044f3:	00 00                	add    %al,(%rax)
  4044f5:	00 00                	add    %al,(%rax)
  4044f7:	00 ff                	add    %bh,%bh
  4044f9:	02 00                	add    (%rax),%al
  4044fb:	00 00                	add    %al,(%rax)
  4044fd:	00 00                	add    %al,(%rax)
  4044ff:	00 ff                	add    %bh,%bh
  404501:	02 00                	add    (%rax),%al
  404503:	00 00                	add    %al,(%rax)
  404505:	00 00                	add    %al,(%rax)
  404507:	00 ff                	add    %bh,%bh
  404509:	02 00                	add    (%rax),%al
  40450b:	00 00                	add    %al,(%rax)
  40450d:	00 00                	add    %al,(%rax)
  40450f:	00 ff                	add    %bh,%bh
  404511:	02 00                	add    (%rax),%al
  404513:	00 00                	add    %al,(%rax)
  404515:	00 00                	add    %al,(%rax)
  404517:	00 ff                	add    %bh,%bh
  404519:	02 00                	add    (%rax),%al
  40451b:	00 00                	add    %al,(%rax)
  40451d:	00 00                	add    %al,(%rax)
  40451f:	00 ff                	add    %bh,%bh
  404521:	02 00                	add    (%rax),%al
  404523:	00 00                	add    %al,(%rax)
  404525:	00 00                	add    %al,(%rax)
  404527:	00 ff                	add    %bh,%bh
  404529:	02 00                	add    (%rax),%al
  40452b:	00 00                	add    %al,(%rax)
  40452d:	00 00                	add    %al,(%rax)
  40452f:	00 ff                	add    %bh,%bh
  404531:	02 00                	add    (%rax),%al
  404533:	00 00                	add    %al,(%rax)
  404535:	00 00                	add    %al,(%rax)
  404537:	00 ff                	add    %bh,%bh
  404539:	02 00                	add    (%rax),%al
  40453b:	00 00                	add    %al,(%rax)
  40453d:	00 00                	add    %al,(%rax)
  40453f:	00 ff                	add    %bh,%bh
  404541:	02 00                	add    (%rax),%al
  404543:	00 00                	add    %al,(%rax)
  404545:	00 00                	add    %al,(%rax)
  404547:	00 ff                	add    %bh,%bh
  404549:	02 00                	add    (%rax),%al
  40454b:	00 00                	add    %al,(%rax)
  40454d:	00 00                	add    %al,(%rax)
  40454f:	00 ff                	add    %bh,%bh
  404551:	02 00                	add    (%rax),%al
  404553:	00 00                	add    %al,(%rax)
  404555:	00 00                	add    %al,(%rax)
  404557:	00 ff                	add    %bh,%bh
  404559:	02 00                	add    (%rax),%al
  40455b:	00 00                	add    %al,(%rax)
  40455d:	00 00                	add    %al,(%rax)
  40455f:	00 ff                	add    %bh,%bh
  404561:	02 00                	add    (%rax),%al
  404563:	00 00                	add    %al,(%rax)
  404565:	00 00                	add    %al,(%rax)
  404567:	00 ff                	add    %bh,%bh
  404569:	02 00                	add    (%rax),%al
  40456b:	00 00                	add    %al,(%rax)
  40456d:	00 00                	add    %al,(%rax)
  40456f:	00 ff                	add    %bh,%bh
  404571:	02 00                	add    (%rax),%al
  404573:	00 00                	add    %al,(%rax)
  404575:	00 00                	add    %al,(%rax)
  404577:	00 ff                	add    %bh,%bh
  404579:	02 00                	add    (%rax),%al
  40457b:	00 00                	add    %al,(%rax)
  40457d:	00 00                	add    %al,(%rax)
  40457f:	00 ff                	add    %bh,%bh
  404581:	02 00                	add    (%rax),%al
  404583:	00 00                	add    %al,(%rax)
  404585:	00 00                	add    %al,(%rax)
  404587:	00 ff                	add    %bh,%bh
  404589:	02 00                	add    (%rax),%al
  40458b:	00 00                	add    %al,(%rax)
  40458d:	00 00                	add    %al,(%rax)
  40458f:	00 ff                	add    %bh,%bh
  404591:	02 00                	add    (%rax),%al
  404593:	00 00                	add    %al,(%rax)
  404595:	00 00                	add    %al,(%rax)
  404597:	00 ff                	add    %bh,%bh
  404599:	02 00                	add    (%rax),%al
  40459b:	00 00                	add    %al,(%rax)
  40459d:	00 00                	add    %al,(%rax)
  40459f:	00 ff                	add    %bh,%bh
  4045a1:	02 00                	add    (%rax),%al
  4045a3:	00 00                	add    %al,(%rax)
  4045a5:	00 00                	add    %al,(%rax)
  4045a7:	00 ff                	add    %bh,%bh
  4045a9:	02 00                	add    (%rax),%al
  4045ab:	00 00                	add    %al,(%rax)
  4045ad:	00 00                	add    %al,(%rax)
  4045af:	00 ff                	add    %bh,%bh
  4045b1:	02 00                	add    (%rax),%al
  4045b3:	00 00                	add    %al,(%rax)
  4045b5:	00 00                	add    %al,(%rax)
  4045b7:	00 ff                	add    %bh,%bh
  4045b9:	02 00                	add    (%rax),%al
  4045bb:	00 00                	add    %al,(%rax)
  4045bd:	00 00                	add    %al,(%rax)
  4045bf:	00 06                	add    %al,(%rsi)
  4045c1:	03 00                	add    (%rax),%eax
  4045c3:	00 00                	add    %al,(%rax)
  4045c5:	00 00                	add    %al,(%rax)
  4045c7:	00 06                	add    %al,(%rsi)
  4045c9:	03 00                	add    (%rax),%eax
  4045cb:	00 00                	add    %al,(%rax)
  4045cd:	00 00                	add    %al,(%rax)
  4045cf:	00 06                	add    %al,(%rsi)
  4045d1:	03 00                	add    (%rax),%eax
  4045d3:	00 00                	add    %al,(%rax)
  4045d5:	00 00                	add    %al,(%rax)
  4045d7:	00 06                	add    %al,(%rsi)
  4045d9:	03 00                	add    (%rax),%eax
  4045db:	00 00                	add    %al,(%rax)
  4045dd:	00 00                	add    %al,(%rax)
  4045df:	00 06                	add    %al,(%rsi)
  4045e1:	03 00                	add    (%rax),%eax
  4045e3:	00 00                	add    %al,(%rax)
  4045e5:	00 00                	add    %al,(%rax)
  4045e7:	00 06                	add    %al,(%rsi)
  4045e9:	03 00                	add    (%rax),%eax
  4045eb:	00 00                	add    %al,(%rax)
  4045ed:	00 00                	add    %al,(%rax)
  4045ef:	00 06                	add    %al,(%rsi)
  4045f1:	03 00                	add    (%rax),%eax
  4045f3:	00 00                	add    %al,(%rax)
  4045f5:	00 00                	add    %al,(%rax)
  4045f7:	00 06                	add    %al,(%rsi)
  4045f9:	03 00                	add    (%rax),%eax
  4045fb:	00 00                	add    %al,(%rax)
  4045fd:	00 00                	add    %al,(%rax)
  4045ff:	00 06                	add    %al,(%rsi)
  404601:	03 00                	add    (%rax),%eax
  404603:	00 00                	add    %al,(%rax)
  404605:	00 00                	add    %al,(%rax)
  404607:	00 06                	add    %al,(%rsi)
  404609:	03 00                	add    (%rax),%eax
  40460b:	00 00                	add    %al,(%rax)
  40460d:	00 00                	add    %al,(%rax)
  40460f:	00 06                	add    %al,(%rsi)
  404611:	03 00                	add    (%rax),%eax
  404613:	00 00                	add    %al,(%rax)
  404615:	00 00                	add    %al,(%rax)
  404617:	00 06                	add    %al,(%rsi)
  404619:	03 00                	add    (%rax),%eax
  40461b:	00 00                	add    %al,(%rax)
  40461d:	00 00                	add    %al,(%rax)
  40461f:	00 06                	add    %al,(%rsi)
  404621:	03 00                	add    (%rax),%eax
  404623:	00 00                	add    %al,(%rax)
  404625:	00 00                	add    %al,(%rax)
  404627:	00 06                	add    %al,(%rsi)
  404629:	03 00                	add    (%rax),%eax
  40462b:	00 00                	add    %al,(%rax)
  40462d:	00 00                	add    %al,(%rax)
  40462f:	00 06                	add    %al,(%rsi)
  404631:	03 00                	add    (%rax),%eax
  404633:	00 00                	add    %al,(%rax)
  404635:	00 00                	add    %al,(%rax)
  404637:	00 06                	add    %al,(%rsi)
  404639:	03 00                	add    (%rax),%eax
  40463b:	00 00                	add    %al,(%rax)
  40463d:	00 00                	add    %al,(%rax)
  40463f:	00 06                	add    %al,(%rsi)
  404641:	03 00                	add    (%rax),%eax
  404643:	00 00                	add    %al,(%rax)
  404645:	00 00                	add    %al,(%rax)
  404647:	00 06                	add    %al,(%rsi)
  404649:	03 00                	add    (%rax),%eax
  40464b:	00 00                	add    %al,(%rax)
  40464d:	00 00                	add    %al,(%rax)
  40464f:	00 06                	add    %al,(%rsi)
  404651:	03 00                	add    (%rax),%eax
  404653:	00 00                	add    %al,(%rax)
  404655:	00 00                	add    %al,(%rax)
  404657:	00 06                	add    %al,(%rsi)
  404659:	03 00                	add    (%rax),%eax
  40465b:	00 00                	add    %al,(%rax)
  40465d:	00 00                	add    %al,(%rax)
  40465f:	00 06                	add    %al,(%rsi)
  404661:	03 00                	add    (%rax),%eax
  404663:	00 00                	add    %al,(%rax)
  404665:	00 00                	add    %al,(%rax)
  404667:	00 06                	add    %al,(%rsi)
  404669:	03 00                	add    (%rax),%eax
  40466b:	00 00                	add    %al,(%rax)
  40466d:	00 00                	add    %al,(%rax)
  40466f:	00 06                	add    %al,(%rsi)
  404671:	03 00                	add    (%rax),%eax
  404673:	00 00                	add    %al,(%rax)
  404675:	00 00                	add    %al,(%rax)
  404677:	00 06                	add    %al,(%rsi)
  404679:	03 00                	add    (%rax),%eax
  40467b:	00 00                	add    %al,(%rax)
  40467d:	00 00                	add    %al,(%rax)
  40467f:	00 06                	add    %al,(%rsi)
  404681:	03 00                	add    (%rax),%eax
  404683:	00 00                	add    %al,(%rax)
  404685:	00 00                	add    %al,(%rax)
  404687:	00 06                	add    %al,(%rsi)
  404689:	03 00                	add    (%rax),%eax
  40468b:	00 00                	add    %al,(%rax)
  40468d:	00 00                	add    %al,(%rax)
  40468f:	00 06                	add    %al,(%rsi)
  404691:	03 00                	add    (%rax),%eax
  404693:	00 00                	add    %al,(%rax)
  404695:	00 00                	add    %al,(%rax)
  404697:	00 06                	add    %al,(%rsi)
  404699:	03 00                	add    (%rax),%eax
  40469b:	00 00                	add    %al,(%rax)
  40469d:	00 00                	add    %al,(%rax)
  40469f:	00 06                	add    %al,(%rsi)
  4046a1:	03 00                	add    (%rax),%eax
  4046a3:	00 00                	add    %al,(%rax)
  4046a5:	00 00                	add    %al,(%rax)
  4046a7:	00 06                	add    %al,(%rsi)
  4046a9:	03 00                	add    (%rax),%eax
  4046ab:	00 00                	add    %al,(%rax)
  4046ad:	00 00                	add    %al,(%rax)
  4046af:	00 06                	add    %al,(%rsi)
  4046b1:	03 00                	add    (%rax),%eax
  4046b3:	00 00                	add    %al,(%rax)
  4046b5:	00 00                	add    %al,(%rax)
  4046b7:	00 06                	add    %al,(%rsi)
  4046b9:	03 00                	add    (%rax),%eax
  4046bb:	00 00                	add    %al,(%rax)
  4046bd:	00 00                	add    %al,(%rax)
  4046bf:	00 06                	add    %al,(%rsi)
  4046c1:	03 00                	add    (%rax),%eax
  4046c3:	00 00                	add    %al,(%rax)
  4046c5:	00 00                	add    %al,(%rax)
  4046c7:	00 06                	add    %al,(%rsi)
  4046c9:	03 00                	add    (%rax),%eax
  4046cb:	00 00                	add    %al,(%rax)
  4046cd:	00 00                	add    %al,(%rax)
  4046cf:	00 06                	add    %al,(%rsi)
  4046d1:	03 00                	add    (%rax),%eax
  4046d3:	00 00                	add    %al,(%rax)
  4046d5:	00 00                	add    %al,(%rax)
  4046d7:	00 06                	add    %al,(%rsi)
  4046d9:	03 00                	add    (%rax),%eax
  4046db:	00 00                	add    %al,(%rax)
  4046dd:	00 00                	add    %al,(%rax)
  4046df:	00 06                	add    %al,(%rsi)
  4046e1:	03 00                	add    (%rax),%eax
  4046e3:	00 00                	add    %al,(%rax)
  4046e5:	00 00                	add    %al,(%rax)
  4046e7:	00 06                	add    %al,(%rsi)
  4046e9:	03 00                	add    (%rax),%eax
  4046eb:	00 00                	add    %al,(%rax)
  4046ed:	00 00                	add    %al,(%rax)
  4046ef:	00 06                	add    %al,(%rsi)
  4046f1:	03 00                	add    (%rax),%eax
  4046f3:	00 00                	add    %al,(%rax)
  4046f5:	00 00                	add    %al,(%rax)
  4046f7:	00 06                	add    %al,(%rsi)
  4046f9:	03 00                	add    (%rax),%eax
  4046fb:	00 00                	add    %al,(%rax)
  4046fd:	00 00                	add    %al,(%rax)
  4046ff:	00 06                	add    %al,(%rsi)
  404701:	03 00                	add    (%rax),%eax
  404703:	00 00                	add    %al,(%rax)
  404705:	00 00                	add    %al,(%rax)
  404707:	00 06                	add    %al,(%rsi)
  404709:	03 00                	add    (%rax),%eax
  40470b:	00 00                	add    %al,(%rax)
  40470d:	00 00                	add    %al,(%rax)
  40470f:	00 06                	add    %al,(%rsi)
  404711:	03 00                	add    (%rax),%eax
  404713:	00 00                	add    %al,(%rax)
  404715:	00 00                	add    %al,(%rax)
  404717:	00 06                	add    %al,(%rsi)
  404719:	03 00                	add    (%rax),%eax
  40471b:	00 00                	add    %al,(%rax)
  40471d:	00 00                	add    %al,(%rax)
  40471f:	00 06                	add    %al,(%rsi)
  404721:	03 00                	add    (%rax),%eax
  404723:	00 00                	add    %al,(%rax)
  404725:	00 00                	add    %al,(%rax)
  404727:	00 06                	add    %al,(%rsi)
  404729:	03 00                	add    (%rax),%eax
  40472b:	00 00                	add    %al,(%rax)
  40472d:	00 00                	add    %al,(%rax)
  40472f:	00 06                	add    %al,(%rsi)
  404731:	03 00                	add    (%rax),%eax
  404733:	00 00                	add    %al,(%rax)
  404735:	00 00                	add    %al,(%rax)
  404737:	00 06                	add    %al,(%rsi)
  404739:	03 00                	add    (%rax),%eax
  40473b:	00 00                	add    %al,(%rax)
  40473d:	00 00                	add    %al,(%rax)
  40473f:	00 06                	add    %al,(%rsi)
  404741:	03 00                	add    (%rax),%eax
  404743:	00 00                	add    %al,(%rax)
  404745:	00 00                	add    %al,(%rax)
  404747:	00 06                	add    %al,(%rsi)
  404749:	03 00                	add    (%rax),%eax
  40474b:	00 00                	add    %al,(%rax)
  40474d:	00 00                	add    %al,(%rax)
  40474f:	00 06                	add    %al,(%rsi)
  404751:	03 00                	add    (%rax),%eax
  404753:	00 00                	add    %al,(%rax)
  404755:	00 00                	add    %al,(%rax)
  404757:	00 06                	add    %al,(%rsi)
  404759:	03 00                	add    (%rax),%eax
  40475b:	00 00                	add    %al,(%rax)
  40475d:	00 00                	add    %al,(%rax)
  40475f:	00 06                	add    %al,(%rsi)
  404761:	03 00                	add    (%rax),%eax
  404763:	00 00                	add    %al,(%rax)
  404765:	00 00                	add    %al,(%rax)
  404767:	00 06                	add    %al,(%rsi)
  404769:	03 00                	add    (%rax),%eax
  40476b:	00 00                	add    %al,(%rax)
  40476d:	00 00                	add    %al,(%rax)
  40476f:	00 06                	add    %al,(%rsi)
  404771:	03 00                	add    (%rax),%eax
  404773:	00 00                	add    %al,(%rax)
  404775:	00 00                	add    %al,(%rax)
  404777:	00 06                	add    %al,(%rsi)
  404779:	03 00                	add    (%rax),%eax
  40477b:	00 00                	add    %al,(%rax)
  40477d:	00 00                	add    %al,(%rax)
  40477f:	00 06                	add    %al,(%rsi)
  404781:	03 00                	add    (%rax),%eax
  404783:	00 00                	add    %al,(%rax)
  404785:	00 00                	add    %al,(%rax)
  404787:	00 06                	add    %al,(%rsi)
  404789:	03 00                	add    (%rax),%eax
  40478b:	00 00                	add    %al,(%rax)
  40478d:	00 00                	add    %al,(%rax)
  40478f:	00 06                	add    %al,(%rsi)
  404791:	03 00                	add    (%rax),%eax
  404793:	00 00                	add    %al,(%rax)
  404795:	00 00                	add    %al,(%rax)
  404797:	00 06                	add    %al,(%rsi)
  404799:	03 00                	add    (%rax),%eax
  40479b:	00 00                	add    %al,(%rax)
  40479d:	00 00                	add    %al,(%rax)
  40479f:	00 06                	add    %al,(%rsi)
  4047a1:	03 00                	add    (%rax),%eax
  4047a3:	00 00                	add    %al,(%rax)
  4047a5:	00 00                	add    %al,(%rax)
  4047a7:	00 06                	add    %al,(%rsi)
  4047a9:	03 00                	add    (%rax),%eax
  4047ab:	00 00                	add    %al,(%rax)
  4047ad:	00 00                	add    %al,(%rax)
  4047af:	00 06                	add    %al,(%rsi)
  4047b1:	03 00                	add    (%rax),%eax
  4047b3:	00 00                	add    %al,(%rax)
  4047b5:	00 00                	add    %al,(%rax)
  4047b7:	00 06                	add    %al,(%rsi)
  4047b9:	03 00                	add    (%rax),%eax
  4047bb:	00 00                	add    %al,(%rax)
  4047bd:	00 00                	add    %al,(%rax)
  4047bf:	00 0d 03 00 00 00    	add    %cl,0x3(%rip)        # 4047c8 <__intel_mic_avx512f_memset+0x12c8>
  4047c5:	00 00                	add    %al,(%rax)
  4047c7:	00 0d 03 00 00 00    	add    %cl,0x3(%rip)        # 4047d0 <__intel_mic_avx512f_memset+0x12d0>
  4047cd:	00 00                	add    %al,(%rax)
  4047cf:	00 0d 03 00 00 00    	add    %cl,0x3(%rip)        # 4047d8 <__intel_mic_avx512f_memset+0x12d8>
  4047d5:	00 00                	add    %al,(%rax)
  4047d7:	00 0d 03 00 00 00    	add    %cl,0x3(%rip)        # 4047e0 <__intel_mic_avx512f_memset+0x12e0>
  4047dd:	00 00                	add    %al,(%rax)
  4047df:	00 0d 03 00 00 00    	add    %cl,0x3(%rip)        # 4047e8 <__intel_mic_avx512f_memset+0x12e8>
  4047e5:	00 00                	add    %al,(%rax)
  4047e7:	00 0d 03 00 00 00    	add    %cl,0x3(%rip)        # 4047f0 <__intel_mic_avx512f_memset+0x12f0>
  4047ed:	00 00                	add    %al,(%rax)
  4047ef:	00 0d 03 00 00 00    	add    %cl,0x3(%rip)        # 4047f8 <__intel_mic_avx512f_memset+0x12f8>
  4047f5:	00 00                	add    %al,(%rax)
  4047f7:	00 0d 03 00 00 00    	add    %cl,0x3(%rip)        # 404800 <__intel_mic_avx512f_memset+0x1300>
  4047fd:	00 00                	add    %al,(%rax)
  4047ff:	00 0d 03 00 00 00    	add    %cl,0x3(%rip)        # 404808 <__intel_mic_avx512f_memset+0x1308>
  404805:	00 00                	add    %al,(%rax)
  404807:	00 0d 03 00 00 00    	add    %cl,0x3(%rip)        # 404810 <__intel_mic_avx512f_memset+0x1310>
  40480d:	00 00                	add    %al,(%rax)
  40480f:	00 0d 03 00 00 00    	add    %cl,0x3(%rip)        # 404818 <__intel_mic_avx512f_memset+0x1318>
  404815:	00 00                	add    %al,(%rax)
  404817:	00 0d 03 00 00 00    	add    %cl,0x3(%rip)        # 404820 <__intel_mic_avx512f_memset+0x1320>
  40481d:	00 00                	add    %al,(%rax)
  40481f:	00 0d 03 00 00 00    	add    %cl,0x3(%rip)        # 404828 <__intel_mic_avx512f_memset+0x1328>
  404825:	00 00                	add    %al,(%rax)
  404827:	00 0d 03 00 00 00    	add    %cl,0x3(%rip)        # 404830 <__intel_mic_avx512f_memset+0x1330>
  40482d:	00 00                	add    %al,(%rax)
  40482f:	00 0d 03 00 00 00    	add    %cl,0x3(%rip)        # 404838 <__intel_mic_avx512f_memset+0x1338>
  404835:	00 00                	add    %al,(%rax)
  404837:	00 0d 03 00 00 00    	add    %cl,0x3(%rip)        # 404840 <__intel_mic_avx512f_memset+0x1340>
  40483d:	00 00                	add    %al,(%rax)
  40483f:	00 0d 03 00 00 00    	add    %cl,0x3(%rip)        # 404848 <__intel_mic_avx512f_memset+0x1348>
  404845:	00 00                	add    %al,(%rax)
  404847:	00 0d 03 00 00 00    	add    %cl,0x3(%rip)        # 404850 <__intel_mic_avx512f_memset+0x1350>
  40484d:	00 00                	add    %al,(%rax)
  40484f:	00 0d 03 00 00 00    	add    %cl,0x3(%rip)        # 404858 <__intel_mic_avx512f_memset+0x1358>
  404855:	00 00                	add    %al,(%rax)
  404857:	00 0d 03 00 00 00    	add    %cl,0x3(%rip)        # 404860 <__intel_mic_avx512f_memset+0x1360>
  40485d:	00 00                	add    %al,(%rax)
  40485f:	00 0d 03 00 00 00    	add    %cl,0x3(%rip)        # 404868 <__intel_mic_avx512f_memset+0x1368>
  404865:	00 00                	add    %al,(%rax)
  404867:	00 0d 03 00 00 00    	add    %cl,0x3(%rip)        # 404870 <__intel_mic_avx512f_memset+0x1370>
  40486d:	00 00                	add    %al,(%rax)
  40486f:	00 0d 03 00 00 00    	add    %cl,0x3(%rip)        # 404878 <__intel_mic_avx512f_memset+0x1378>
  404875:	00 00                	add    %al,(%rax)
  404877:	00 0d 03 00 00 00    	add    %cl,0x3(%rip)        # 404880 <__intel_mic_avx512f_memset+0x1380>
  40487d:	00 00                	add    %al,(%rax)
  40487f:	00 0d 03 00 00 00    	add    %cl,0x3(%rip)        # 404888 <__intel_mic_avx512f_memset+0x1388>
  404885:	00 00                	add    %al,(%rax)
  404887:	00 0d 03 00 00 00    	add    %cl,0x3(%rip)        # 404890 <__intel_mic_avx512f_memset+0x1390>
  40488d:	00 00                	add    %al,(%rax)
  40488f:	00 0d 03 00 00 00    	add    %cl,0x3(%rip)        # 404898 <__intel_mic_avx512f_memset+0x1398>
  404895:	00 00                	add    %al,(%rax)
  404897:	00 0d 03 00 00 00    	add    %cl,0x3(%rip)        # 4048a0 <__intel_mic_avx512f_memset+0x13a0>
  40489d:	00 00                	add    %al,(%rax)
  40489f:	00 0d 03 00 00 00    	add    %cl,0x3(%rip)        # 4048a8 <__intel_mic_avx512f_memset+0x13a8>
  4048a5:	00 00                	add    %al,(%rax)
  4048a7:	00 0d 03 00 00 00    	add    %cl,0x3(%rip)        # 4048b0 <__intel_mic_avx512f_memset+0x13b0>
  4048ad:	00 00                	add    %al,(%rax)
  4048af:	00 0d 03 00 00 00    	add    %cl,0x3(%rip)        # 4048b8 <__intel_mic_avx512f_memset+0x13b8>
  4048b5:	00 00                	add    %al,(%rax)
  4048b7:	00 0d 03 00 00 00    	add    %cl,0x3(%rip)        # 4048c0 <__intel_mic_avx512f_memset+0x13c0>
  4048bd:	00 00                	add    %al,(%rax)
  4048bf:	00 0d 03 00 00 00    	add    %cl,0x3(%rip)        # 4048c8 <__intel_mic_avx512f_memset+0x13c8>
  4048c5:	00 00                	add    %al,(%rax)
  4048c7:	00 0d 03 00 00 00    	add    %cl,0x3(%rip)        # 4048d0 <__intel_mic_avx512f_memset+0x13d0>
  4048cd:	00 00                	add    %al,(%rax)
  4048cf:	00 0d 03 00 00 00    	add    %cl,0x3(%rip)        # 4048d8 <__intel_mic_avx512f_memset+0x13d8>
  4048d5:	00 00                	add    %al,(%rax)
  4048d7:	00 0d 03 00 00 00    	add    %cl,0x3(%rip)        # 4048e0 <__intel_mic_avx512f_memset+0x13e0>
  4048dd:	00 00                	add    %al,(%rax)
  4048df:	00 0d 03 00 00 00    	add    %cl,0x3(%rip)        # 4048e8 <__intel_mic_avx512f_memset+0x13e8>
  4048e5:	00 00                	add    %al,(%rax)
  4048e7:	00 0d 03 00 00 00    	add    %cl,0x3(%rip)        # 4048f0 <__intel_mic_avx512f_memset+0x13f0>
  4048ed:	00 00                	add    %al,(%rax)
  4048ef:	00 0d 03 00 00 00    	add    %cl,0x3(%rip)        # 4048f8 <__intel_mic_avx512f_memset+0x13f8>
  4048f5:	00 00                	add    %al,(%rax)
  4048f7:	00 0d 03 00 00 00    	add    %cl,0x3(%rip)        # 404900 <__intel_mic_avx512f_memset+0x1400>
  4048fd:	00 00                	add    %al,(%rax)
  4048ff:	00 0d 03 00 00 00    	add    %cl,0x3(%rip)        # 404908 <__intel_mic_avx512f_memset+0x1408>
  404905:	00 00                	add    %al,(%rax)
  404907:	00 0d 03 00 00 00    	add    %cl,0x3(%rip)        # 404910 <__intel_mic_avx512f_memset+0x1410>
  40490d:	00 00                	add    %al,(%rax)
  40490f:	00 0d 03 00 00 00    	add    %cl,0x3(%rip)        # 404918 <__intel_mic_avx512f_memset+0x1418>
  404915:	00 00                	add    %al,(%rax)
  404917:	00 0d 03 00 00 00    	add    %cl,0x3(%rip)        # 404920 <__intel_mic_avx512f_memset+0x1420>
  40491d:	00 00                	add    %al,(%rax)
  40491f:	00 0d 03 00 00 00    	add    %cl,0x3(%rip)        # 404928 <__intel_mic_avx512f_memset+0x1428>
  404925:	00 00                	add    %al,(%rax)
  404927:	00 0d 03 00 00 00    	add    %cl,0x3(%rip)        # 404930 <__intel_mic_avx512f_memset+0x1430>
  40492d:	00 00                	add    %al,(%rax)
  40492f:	00 0d 03 00 00 00    	add    %cl,0x3(%rip)        # 404938 <__intel_mic_avx512f_memset+0x1438>
  404935:	00 00                	add    %al,(%rax)
  404937:	00 0d 03 00 00 00    	add    %cl,0x3(%rip)        # 404940 <__intel_mic_avx512f_memset+0x1440>
  40493d:	00 00                	add    %al,(%rax)
  40493f:	00 0d 03 00 00 00    	add    %cl,0x3(%rip)        # 404948 <__intel_mic_avx512f_memset+0x1448>
  404945:	00 00                	add    %al,(%rax)
  404947:	00 0d 03 00 00 00    	add    %cl,0x3(%rip)        # 404950 <__intel_mic_avx512f_memset+0x1450>
  40494d:	00 00                	add    %al,(%rax)
  40494f:	00 0d 03 00 00 00    	add    %cl,0x3(%rip)        # 404958 <__intel_mic_avx512f_memset+0x1458>
  404955:	00 00                	add    %al,(%rax)
  404957:	00 0d 03 00 00 00    	add    %cl,0x3(%rip)        # 404960 <__intel_mic_avx512f_memset+0x1460>
  40495d:	00 00                	add    %al,(%rax)
  40495f:	00 0d 03 00 00 00    	add    %cl,0x3(%rip)        # 404968 <__intel_mic_avx512f_memset+0x1468>
  404965:	00 00                	add    %al,(%rax)
  404967:	00 0d 03 00 00 00    	add    %cl,0x3(%rip)        # 404970 <__intel_mic_avx512f_memset+0x1470>
  40496d:	00 00                	add    %al,(%rax)
  40496f:	00 0d 03 00 00 00    	add    %cl,0x3(%rip)        # 404978 <__intel_mic_avx512f_memset+0x1478>
  404975:	00 00                	add    %al,(%rax)
  404977:	00 0d 03 00 00 00    	add    %cl,0x3(%rip)        # 404980 <__intel_mic_avx512f_memset+0x1480>
  40497d:	00 00                	add    %al,(%rax)
  40497f:	00 0d 03 00 00 00    	add    %cl,0x3(%rip)        # 404988 <__intel_mic_avx512f_memset+0x1488>
  404985:	00 00                	add    %al,(%rax)
  404987:	00 0d 03 00 00 00    	add    %cl,0x3(%rip)        # 404990 <__intel_mic_avx512f_memset+0x1490>
  40498d:	00 00                	add    %al,(%rax)
  40498f:	00 0d 03 00 00 00    	add    %cl,0x3(%rip)        # 404998 <__intel_mic_avx512f_memset+0x1498>
  404995:	00 00                	add    %al,(%rax)
  404997:	00 0d 03 00 00 00    	add    %cl,0x3(%rip)        # 4049a0 <__intel_mic_avx512f_memset+0x14a0>
  40499d:	00 00                	add    %al,(%rax)
  40499f:	00 0d 03 00 00 00    	add    %cl,0x3(%rip)        # 4049a8 <__intel_mic_avx512f_memset+0x14a8>
  4049a5:	00 00                	add    %al,(%rax)
  4049a7:	00 0d 03 00 00 00    	add    %cl,0x3(%rip)        # 4049b0 <__intel_mic_avx512f_memset+0x14b0>
  4049ad:	00 00                	add    %al,(%rax)
  4049af:	00 0d 03 00 00 00    	add    %cl,0x3(%rip)        # 4049b8 <__intel_mic_avx512f_memset+0x14b8>
  4049b5:	00 00                	add    %al,(%rax)
  4049b7:	00 0d 03 00 00 00    	add    %cl,0x3(%rip)        # 4049c0 <__intel_mic_avx512f_memset+0x14c0>
  4049bd:	00 00                	add    %al,(%rax)
  4049bf:	00 c0                	add    %al,%al
  4049c1:	12 00                	adc    (%rax),%al
  4049c3:	00 00                	add    %al,(%rax)
  4049c5:	00 00                	add    %al,(%rax)
  4049c7:	00 c8                	add    %cl,%al
  4049c9:	12 00                	adc    (%rax),%al
  4049cb:	00 00                	add    %al,(%rax)
  4049cd:	00 00                	add    %al,(%rax)
  4049cf:	00 bb 12 00 00 00    	add    %bh,0x12(%rbx)
  4049d5:	00 00                	add    %al,(%rax)
  4049d7:	00 b2 12 00 00 00    	add    %dh,0x12(%rdx)
  4049dd:	00 00                	add    %al,(%rax)
  4049df:	00 a5 12 00 00 00    	add    %ah,0x12(%rbp)
  4049e5:	00 00                	add    %al,(%rax)
  4049e7:	00 9d 12 00 00 00    	add    %bl,0x12(%rbp)
  4049ed:	00 00                	add    %al,(%rax)
  4049ef:	00 9d 12 00 00 00    	add    %bl,0x12(%rbp)
  4049f5:	00 00                	add    %al,(%rax)
  4049f7:	00 9d 12 00 00 00    	add    %bl,0x12(%rbp)
  4049fd:	00 00                	add    %al,(%rax)
  4049ff:	00 91 12 00 00 00    	add    %dl,0x12(%rcx)
  404a05:	00 00                	add    %al,(%rax)
  404a07:	00 89 12 00 00 00    	add    %cl,0x12(%rcx)
  404a0d:	00 00                	add    %al,(%rax)
  404a0f:	00 89 12 00 00 00    	add    %cl,0x12(%rcx)
  404a15:	00 00                	add    %al,(%rax)
  404a17:	00 89 12 00 00 00    	add    %cl,0x12(%rcx)
  404a1d:	00 00                	add    %al,(%rax)
  404a1f:	00 89 12 00 00 00    	add    %cl,0x12(%rcx)
  404a25:	00 00                	add    %al,(%rax)
  404a27:	00 89 12 00 00 00    	add    %cl,0x12(%rcx)
  404a2d:	00 00                	add    %al,(%rax)
  404a2f:	00 89 12 00 00 00    	add    %cl,0x12(%rcx)
  404a35:	00 00                	add    %al,(%rax)
  404a37:	00 89 12 00 00 00    	add    %cl,0x12(%rcx)
  404a3d:	00 00                	add    %al,(%rax)
  404a3f:	00 7d 12             	add    %bh,0x12(%rbp)
  404a42:	00 00                	add    %al,(%rax)
  404a44:	00 00                	add    %al,(%rax)
  404a46:	00 00                	add    %al,(%rax)
  404a48:	74 12                	je     404a5c <__intel_mic_avx512f_memset+0x155c>
  404a4a:	00 00                	add    %al,(%rax)
  404a4c:	00 00                	add    %al,(%rax)
  404a4e:	00 00                	add    %al,(%rax)
  404a50:	74 12                	je     404a64 <__intel_mic_avx512f_memset+0x1564>
  404a52:	00 00                	add    %al,(%rax)
  404a54:	00 00                	add    %al,(%rax)
  404a56:	00 00                	add    %al,(%rax)
  404a58:	74 12                	je     404a6c <__intel_mic_avx512f_memset+0x156c>
  404a5a:	00 00                	add    %al,(%rax)
  404a5c:	00 00                	add    %al,(%rax)
  404a5e:	00 00                	add    %al,(%rax)
  404a60:	74 12                	je     404a74 <__intel_mic_avx512f_memset+0x1574>
  404a62:	00 00                	add    %al,(%rax)
  404a64:	00 00                	add    %al,(%rax)
  404a66:	00 00                	add    %al,(%rax)
  404a68:	74 12                	je     404a7c <__intel_mic_avx512f_memset+0x157c>
  404a6a:	00 00                	add    %al,(%rax)
  404a6c:	00 00                	add    %al,(%rax)
  404a6e:	00 00                	add    %al,(%rax)
  404a70:	74 12                	je     404a84 <__intel_mic_avx512f_memset+0x1584>
  404a72:	00 00                	add    %al,(%rax)
  404a74:	00 00                	add    %al,(%rax)
  404a76:	00 00                	add    %al,(%rax)
  404a78:	74 12                	je     404a8c <__intel_mic_avx512f_memset+0x158c>
  404a7a:	00 00                	add    %al,(%rax)
  404a7c:	00 00                	add    %al,(%rax)
  404a7e:	00 00                	add    %al,(%rax)
  404a80:	74 12                	je     404a94 <__intel_mic_avx512f_memset+0x1594>
  404a82:	00 00                	add    %al,(%rax)
  404a84:	00 00                	add    %al,(%rax)
  404a86:	00 00                	add    %al,(%rax)
  404a88:	74 12                	je     404a9c <__intel_mic_avx512f_memset+0x159c>
  404a8a:	00 00                	add    %al,(%rax)
  404a8c:	00 00                	add    %al,(%rax)
  404a8e:	00 00                	add    %al,(%rax)
  404a90:	74 12                	je     404aa4 <__intel_mic_avx512f_memset+0x15a4>
  404a92:	00 00                	add    %al,(%rax)
  404a94:	00 00                	add    %al,(%rax)
  404a96:	00 00                	add    %al,(%rax)
  404a98:	74 12                	je     404aac <__intel_mic_avx512f_memset+0x15ac>
  404a9a:	00 00                	add    %al,(%rax)
  404a9c:	00 00                	add    %al,(%rax)
  404a9e:	00 00                	add    %al,(%rax)
  404aa0:	74 12                	je     404ab4 <__intel_mic_avx512f_memset+0x15b4>
  404aa2:	00 00                	add    %al,(%rax)
  404aa4:	00 00                	add    %al,(%rax)
  404aa6:	00 00                	add    %al,(%rax)
  404aa8:	74 12                	je     404abc <__intel_mic_avx512f_memset+0x15bc>
  404aaa:	00 00                	add    %al,(%rax)
  404aac:	00 00                	add    %al,(%rax)
  404aae:	00 00                	add    %al,(%rax)
  404ab0:	74 12                	je     404ac4 <__intel_mic_avx512f_memset+0x15c4>
  404ab2:	00 00                	add    %al,(%rax)
  404ab4:	00 00                	add    %al,(%rax)
  404ab6:	00 00                	add    %al,(%rax)
  404ab8:	74 12                	je     404acc <__intel_mic_avx512f_memset+0x15cc>
  404aba:	00 00                	add    %al,(%rax)
  404abc:	00 00                	add    %al,(%rax)
  404abe:	00 00                	add    %al,(%rax)
  404ac0:	65 12 00             	adc    %gs:(%rax),%al
  404ac3:	00 00                	add    %al,(%rax)
  404ac5:	00 00                	add    %al,(%rax)
  404ac7:	00 5c 12 00          	add    %bl,0x0(%rdx,%rdx,1)
  404acb:	00 00                	add    %al,(%rax)
  404acd:	00 00                	add    %al,(%rax)
  404acf:	00 5c 12 00          	add    %bl,0x0(%rdx,%rdx,1)
  404ad3:	00 00                	add    %al,(%rax)
  404ad5:	00 00                	add    %al,(%rax)
  404ad7:	00 5c 12 00          	add    %bl,0x0(%rdx,%rdx,1)
  404adb:	00 00                	add    %al,(%rax)
  404add:	00 00                	add    %al,(%rax)
  404adf:	00 5c 12 00          	add    %bl,0x0(%rdx,%rdx,1)
  404ae3:	00 00                	add    %al,(%rax)
  404ae5:	00 00                	add    %al,(%rax)
  404ae7:	00 5c 12 00          	add    %bl,0x0(%rdx,%rdx,1)
  404aeb:	00 00                	add    %al,(%rax)
  404aed:	00 00                	add    %al,(%rax)
  404aef:	00 5c 12 00          	add    %bl,0x0(%rdx,%rdx,1)
  404af3:	00 00                	add    %al,(%rax)
  404af5:	00 00                	add    %al,(%rax)
  404af7:	00 5c 12 00          	add    %bl,0x0(%rdx,%rdx,1)
  404afb:	00 00                	add    %al,(%rax)
  404afd:	00 00                	add    %al,(%rax)
  404aff:	00 5c 12 00          	add    %bl,0x0(%rdx,%rdx,1)
  404b03:	00 00                	add    %al,(%rax)
  404b05:	00 00                	add    %al,(%rax)
  404b07:	00 5c 12 00          	add    %bl,0x0(%rdx,%rdx,1)
  404b0b:	00 00                	add    %al,(%rax)
  404b0d:	00 00                	add    %al,(%rax)
  404b0f:	00 5c 12 00          	add    %bl,0x0(%rdx,%rdx,1)
  404b13:	00 00                	add    %al,(%rax)
  404b15:	00 00                	add    %al,(%rax)
  404b17:	00 5c 12 00          	add    %bl,0x0(%rdx,%rdx,1)
  404b1b:	00 00                	add    %al,(%rax)
  404b1d:	00 00                	add    %al,(%rax)
  404b1f:	00 5c 12 00          	add    %bl,0x0(%rdx,%rdx,1)
  404b23:	00 00                	add    %al,(%rax)
  404b25:	00 00                	add    %al,(%rax)
  404b27:	00 5c 12 00          	add    %bl,0x0(%rdx,%rdx,1)
  404b2b:	00 00                	add    %al,(%rax)
  404b2d:	00 00                	add    %al,(%rax)
  404b2f:	00 5c 12 00          	add    %bl,0x0(%rdx,%rdx,1)
  404b33:	00 00                	add    %al,(%rax)
  404b35:	00 00                	add    %al,(%rax)
  404b37:	00 5c 12 00          	add    %bl,0x0(%rdx,%rdx,1)
  404b3b:	00 00                	add    %al,(%rax)
  404b3d:	00 00                	add    %al,(%rax)
  404b3f:	00 5c 12 00          	add    %bl,0x0(%rdx,%rdx,1)
  404b43:	00 00                	add    %al,(%rax)
  404b45:	00 00                	add    %al,(%rax)
  404b47:	00 5c 12 00          	add    %bl,0x0(%rdx,%rdx,1)
  404b4b:	00 00                	add    %al,(%rax)
  404b4d:	00 00                	add    %al,(%rax)
  404b4f:	00 5c 12 00          	add    %bl,0x0(%rdx,%rdx,1)
  404b53:	00 00                	add    %al,(%rax)
  404b55:	00 00                	add    %al,(%rax)
  404b57:	00 5c 12 00          	add    %bl,0x0(%rdx,%rdx,1)
  404b5b:	00 00                	add    %al,(%rax)
  404b5d:	00 00                	add    %al,(%rax)
  404b5f:	00 5c 12 00          	add    %bl,0x0(%rdx,%rdx,1)
  404b63:	00 00                	add    %al,(%rax)
  404b65:	00 00                	add    %al,(%rax)
  404b67:	00 5c 12 00          	add    %bl,0x0(%rdx,%rdx,1)
  404b6b:	00 00                	add    %al,(%rax)
  404b6d:	00 00                	add    %al,(%rax)
  404b6f:	00 5c 12 00          	add    %bl,0x0(%rdx,%rdx,1)
  404b73:	00 00                	add    %al,(%rax)
  404b75:	00 00                	add    %al,(%rax)
  404b77:	00 5c 12 00          	add    %bl,0x0(%rdx,%rdx,1)
  404b7b:	00 00                	add    %al,(%rax)
  404b7d:	00 00                	add    %al,(%rax)
  404b7f:	00 5c 12 00          	add    %bl,0x0(%rdx,%rdx,1)
  404b83:	00 00                	add    %al,(%rax)
  404b85:	00 00                	add    %al,(%rax)
  404b87:	00 5c 12 00          	add    %bl,0x0(%rdx,%rdx,1)
  404b8b:	00 00                	add    %al,(%rax)
  404b8d:	00 00                	add    %al,(%rax)
  404b8f:	00 5c 12 00          	add    %bl,0x0(%rdx,%rdx,1)
  404b93:	00 00                	add    %al,(%rax)
  404b95:	00 00                	add    %al,(%rax)
  404b97:	00 5c 12 00          	add    %bl,0x0(%rdx,%rdx,1)
  404b9b:	00 00                	add    %al,(%rax)
  404b9d:	00 00                	add    %al,(%rax)
  404b9f:	00 5c 12 00          	add    %bl,0x0(%rdx,%rdx,1)
  404ba3:	00 00                	add    %al,(%rax)
  404ba5:	00 00                	add    %al,(%rax)
  404ba7:	00 5c 12 00          	add    %bl,0x0(%rdx,%rdx,1)
  404bab:	00 00                	add    %al,(%rax)
  404bad:	00 00                	add    %al,(%rax)
  404baf:	00 5c 12 00          	add    %bl,0x0(%rdx,%rdx,1)
  404bb3:	00 00                	add    %al,(%rax)
  404bb5:	00 00                	add    %al,(%rax)
  404bb7:	00 5c 12 00          	add    %bl,0x0(%rdx,%rdx,1)
  404bbb:	00 00                	add    %al,(%rax)
  404bbd:	00 00                	add    %al,(%rax)
  404bbf:	00 4d 12             	add    %cl,0x12(%rbp)
  404bc2:	00 00                	add    %al,(%rax)
  404bc4:	00 00                	add    %al,(%rax)
  404bc6:	00 00                	add    %al,(%rax)
  404bc8:	42 12 00             	rex.X adc (%rax),%al
  404bcb:	00 00                	add    %al,(%rax)
  404bcd:	00 00                	add    %al,(%rax)
  404bcf:	00 42 12             	add    %al,0x12(%rdx)
  404bd2:	00 00                	add    %al,(%rax)
  404bd4:	00 00                	add    %al,(%rax)
  404bd6:	00 00                	add    %al,(%rax)
  404bd8:	42 12 00             	rex.X adc (%rax),%al
  404bdb:	00 00                	add    %al,(%rax)
  404bdd:	00 00                	add    %al,(%rax)
  404bdf:	00 42 12             	add    %al,0x12(%rdx)
  404be2:	00 00                	add    %al,(%rax)
  404be4:	00 00                	add    %al,(%rax)
  404be6:	00 00                	add    %al,(%rax)
  404be8:	42 12 00             	rex.X adc (%rax),%al
  404beb:	00 00                	add    %al,(%rax)
  404bed:	00 00                	add    %al,(%rax)
  404bef:	00 42 12             	add    %al,0x12(%rdx)
  404bf2:	00 00                	add    %al,(%rax)
  404bf4:	00 00                	add    %al,(%rax)
