
results_scale/bin/icx_O2_N4096_T128:     file format elf64-x86-64


Disassembly of section .init:

0000000000401000 <_init>:
  401000:	48 83 ec 08          	sub    $0x8,%rsp
  401004:	48 8b 05 ad 9f 00 00 	mov    0x9fad(%rip),%rax        # 40afb8 <__gmon_start__@Base>
  40100b:	48 85 c0             	test   %rax,%rax
  40100e:	74 02                	je     401012 <_init+0x12>
  401010:	ff d0                	call   *%rax
  401012:	48 83 c4 08          	add    $0x8,%rsp
  401016:	c3                   	ret

Disassembly of section .plt:

0000000000401020 <posix_memalign@plt-0x10>:
  401020:	ff 35 ca 9f 00 00    	push   0x9fca(%rip)        # 40aff0 <_GLOBAL_OFFSET_TABLE_+0x8>
  401026:	ff 25 cc 9f 00 00    	jmp    *0x9fcc(%rip)        # 40aff8 <_GLOBAL_OFFSET_TABLE_+0x10>
  40102c:	0f 1f 40 00          	nopl   0x0(%rax)

0000000000401030 <posix_memalign@plt>:
  401030:	ff 25 ca 9f 00 00    	jmp    *0x9fca(%rip)        # 40b000 <posix_memalign@GLIBC_2.2.5>
  401036:	68 00 00 00 00       	push   $0x0
  40103b:	e9 e0 ff ff ff       	jmp    401020 <_init+0x20>

0000000000401040 <__strncpy_chk@plt>:
  401040:	ff 25 c2 9f 00 00    	jmp    *0x9fc2(%rip)        # 40b008 <__strncpy_chk@GLIBC_2.3.4>
  401046:	68 01 00 00 00       	push   $0x1
  40104b:	e9 d0 ff ff ff       	jmp    401020 <_init+0x20>

0000000000401050 <clock_gettime@plt>:
  401050:	ff 25 ba 9f 00 00    	jmp    *0x9fba(%rip)        # 40b010 <clock_gettime@GLIBC_2.17>
  401056:	68 02 00 00 00       	push   $0x2
  40105b:	e9 c0 ff ff ff       	jmp    401020 <_init+0x20>

0000000000401060 <__fprintf_chk@plt>:
  401060:	ff 25 b2 9f 00 00    	jmp    *0x9fb2(%rip)        # 40b018 <__fprintf_chk@GLIBC_2.3.4>
  401066:	68 03 00 00 00       	push   $0x3
  40106b:	e9 b0 ff ff ff       	jmp    401020 <_init+0x20>

0000000000401070 <exit@plt>:
  401070:	ff 25 aa 9f 00 00    	jmp    *0x9faa(%rip)        # 40b020 <exit@GLIBC_2.2.5>
  401076:	68 04 00 00 00       	push   $0x4
  40107b:	e9 a0 ff ff ff       	jmp    401020 <_init+0x20>

0000000000401080 <__printf_chk@plt>:
  401080:	ff 25 a2 9f 00 00    	jmp    *0x9fa2(%rip)        # 40b028 <__printf_chk@GLIBC_2.3.4>
  401086:	68 05 00 00 00       	push   $0x5
  40108b:	e9 90 ff ff ff       	jmp    401020 <_init+0x20>

0000000000401090 <fopen@plt>:
  401090:	ff 25 9a 9f 00 00    	jmp    *0x9f9a(%rip)        # 40b030 <fopen@GLIBC_2.2.5>
  401096:	68 06 00 00 00       	push   $0x6
  40109b:	e9 80 ff ff ff       	jmp    401020 <_init+0x20>

00000000004010a0 <catgets@plt>:
  4010a0:	ff 25 92 9f 00 00    	jmp    *0x9f92(%rip)        # 40b038 <catgets@GLIBC_2.2.5>
  4010a6:	68 07 00 00 00       	push   $0x7
  4010ab:	e9 70 ff ff ff       	jmp    401020 <_init+0x20>

00000000004010b0 <__vsnprintf_chk@plt>:
  4010b0:	ff 25 8a 9f 00 00    	jmp    *0x9f8a(%rip)        # 40b040 <__vsnprintf_chk@GLIBC_2.3.4>
  4010b6:	68 08 00 00 00       	push   $0x8
  4010bb:	e9 60 ff ff ff       	jmp    401020 <_init+0x20>

00000000004010c0 <fputc@plt>:
  4010c0:	ff 25 82 9f 00 00    	jmp    *0x9f82(%rip)        # 40b048 <fputc@GLIBC_2.2.5>
  4010c6:	68 09 00 00 00       	push   $0x9
  4010cb:	e9 50 ff ff ff       	jmp    401020 <_init+0x20>

00000000004010d0 <free@plt>:
  4010d0:	ff 25 7a 9f 00 00    	jmp    *0x9f7a(%rip)        # 40b050 <free@GLIBC_2.2.5>
  4010d6:	68 0a 00 00 00       	push   $0xa
  4010db:	e9 40 ff ff ff       	jmp    401020 <_init+0x20>

00000000004010e0 <strlen@plt>:
  4010e0:	ff 25 72 9f 00 00    	jmp    *0x9f72(%rip)        # 40b058 <strlen@GLIBC_2.2.5>
  4010e6:	68 0b 00 00 00       	push   $0xb
  4010eb:	e9 30 ff ff ff       	jmp    401020 <_init+0x20>

00000000004010f0 <strchr@plt>:
  4010f0:	ff 25 6a 9f 00 00    	jmp    *0x9f6a(%rip)        # 40b060 <strchr@GLIBC_2.2.5>
  4010f6:	68 0c 00 00 00       	push   $0xc
  4010fb:	e9 20 ff ff ff       	jmp    401020 <_init+0x20>

0000000000401100 <setenv@plt>:
  401100:	ff 25 62 9f 00 00    	jmp    *0x9f62(%rip)        # 40b068 <setenv@GLIBC_2.2.5>
  401106:	68 0d 00 00 00       	push   $0xd
  40110b:	e9 10 ff ff ff       	jmp    401020 <_init+0x20>

0000000000401110 <catopen@plt>:
  401110:	ff 25 5a 9f 00 00    	jmp    *0x9f5a(%rip)        # 40b070 <catopen@GLIBC_2.2.5>
  401116:	68 0e 00 00 00       	push   $0xe
  40111b:	e9 00 ff ff ff       	jmp    401020 <_init+0x20>

0000000000401120 <getenv@plt>:
  401120:	ff 25 52 9f 00 00    	jmp    *0x9f52(%rip)        # 40b078 <getenv@GLIBC_2.2.5>
  401126:	68 0f 00 00 00       	push   $0xf
  40112b:	e9 f0 fe ff ff       	jmp    401020 <_init+0x20>

0000000000401130 <__stack_chk_fail@plt>:
  401130:	ff 25 4a 9f 00 00    	jmp    *0x9f4a(%rip)        # 40b080 <__stack_chk_fail@GLIBC_2.4>
  401136:	68 10 00 00 00       	push   $0x10
  40113b:	e9 e0 fe ff ff       	jmp    401020 <_init+0x20>

0000000000401140 <fclose@plt>:
  401140:	ff 25 42 9f 00 00    	jmp    *0x9f42(%rip)        # 40b088 <fclose@GLIBC_2.2.5>
  401146:	68 11 00 00 00       	push   $0x11
  40114b:	e9 d0 fe ff ff       	jmp    401020 <_init+0x20>

0000000000401150 <fprintf@plt>:
  401150:	ff 25 3a 9f 00 00    	jmp    *0x9f3a(%rip)        # 40b090 <fprintf@GLIBC_2.2.5>
  401156:	68 12 00 00 00       	push   $0x12
  40115b:	e9 c0 fe ff ff       	jmp    401020 <_init+0x20>

0000000000401160 <__strncat_chk@plt>:
  401160:	ff 25 32 9f 00 00    	jmp    *0x9f32(%rip)        # 40b098 <__strncat_chk@GLIBC_2.3.4>
  401166:	68 13 00 00 00       	push   $0x13
  40116b:	e9 b0 fe ff ff       	jmp    401020 <_init+0x20>

Disassembly of section .plt.got:

0000000000401170 <memset@plt>:
  401170:	ff 25 3a 9e 00 00    	jmp    *0x9e3a(%rip)        # 40afb0 <memset@GLIBC_2.2.5>
  401176:	66 90                	xchg   %ax,%ax

0000000000401178 <__cxa_finalize@plt>:
  401178:	ff 25 52 9e 00 00    	jmp    *0x9e52(%rip)        # 40afd0 <__cxa_finalize@GLIBC_2.2.5>
  40117e:	66 90                	xchg   %ax,%ax

Disassembly of section .text:

0000000000401180 <_GLOBAL__sub_I_fast_mem_ops.c>:
  401180:	f3 0f 1e fa          	endbr64
  401184:	55                   	push   %rbp
  401185:	48 89 e5             	mov    %rsp,%rbp
  401188:	41 56                	push   %r14
  40118a:	53                   	push   %rbx
  40118b:	48 83 ec 20          	sub    $0x20,%rsp
  40118f:	83 3d 76 a6 00 00 00 	cmpl   $0x0,0xa676(%rip)        # 40b80c <_ZL18__libirc_cache_tbl+0xc>
  401196:	0f 84 05 01 00 00    	je     4012a1 <_GLOBAL__sub_I_fast_mem_ops.c+0x121>
  40119c:	83 3d 5d a6 00 00 00 	cmpl   $0x0,0xa65d(%rip)        # 40b800 <_ZL18__libirc_cache_tbl>
  4011a3:	0f 84 0a 01 00 00    	je     4012b3 <_GLOBAL__sub_I_fast_mem_ops.c+0x133>
  4011a9:	83 3d 54 a6 00 00 00 	cmpl   $0x0,0xa654(%rip)        # 40b804 <_ZL18__libirc_cache_tbl+0x4>
  4011b0:	0f 84 21 02 00 00    	je     4013d7 <_GLOBAL__sub_I_fast_mem_ops.c+0x257>
  4011b6:	53                   	push   %rbx
  4011b7:	b8 01 00 00 00       	mov    $0x1,%eax
  4011bc:	0f a2                	cpuid
  4011be:	89 5d d0             	mov    %ebx,-0x30(%rbp)
  4011c1:	89 55 e0             	mov    %edx,-0x20(%rbp)
  4011c4:	89 45 ec             	mov    %eax,-0x14(%rbp)
  4011c7:	5b                   	pop    %rbx
  4011c8:	8b 45 e0             	mov    -0x20(%rbp),%eax
  4011cb:	89 c1                	mov    %eax,%ecx
  4011cd:	c1 e9 17             	shr    $0x17,%ecx
  4011d0:	83 e1 01             	and    $0x1,%ecx
  4011d3:	a9 00 00 00 04       	test   $0x4000000,%eax
  4011d8:	41 be 02 00 00 00    	mov    $0x2,%r14d
  4011de:	44 0f 44 f1          	cmove  %ecx,%r14d
  4011e2:	8b 05 28 a6 00 00    	mov    0xa628(%rip),%eax        # 40b810 <_ZL18__libirc_cache_tbl+0x10>
  4011e8:	85 c0                	test   %eax,%eax
  4011ea:	0f 84 f8 01 00 00    	je     4013e8 <_GLOBAL__sub_I_fast_mem_ops.c+0x268>
  4011f0:	8b 0d 32 a6 00 00    	mov    0xa632(%rip),%ecx        # 40b828 <_ZL18__libirc_cache_tbl+0x28>
  4011f6:	0f af 0d 27 a6 00 00 	imul   0xa627(%rip),%ecx        # 40b824 <_ZL18__libirc_cache_tbl+0x24>
  4011fd:	8b 15 1d a6 00 00    	mov    0xa61d(%rip),%edx        # 40b820 <_ZL18__libirc_cache_tbl+0x20>
  401203:	8b 35 0f a6 00 00    	mov    0xa60f(%rip),%esi        # 40b818 <_ZL18__libirc_cache_tbl+0x18>
  401209:	0f af 35 04 a6 00 00 	imul   0xa604(%rip),%esi        # 40b814 <_ZL18__libirc_cache_tbl+0x14>
  401210:	39 d0                	cmp    %edx,%eax
  401212:	0f 47 d0             	cmova  %eax,%edx
  401215:	0f 42 f1             	cmovb  %ecx,%esi
  401218:	8b 0d 1a a6 00 00    	mov    0xa61a(%rip),%ecx        # 40b838 <_ZL18__libirc_cache_tbl+0x38>
  40121e:	0f af 0d 0f a6 00 00 	imul   0xa60f(%rip),%ecx        # 40b834 <_ZL18__libirc_cache_tbl+0x34>
  401225:	8b 3d 05 a6 00 00    	mov    0xa605(%rip),%edi        # 40b830 <_ZL18__libirc_cache_tbl+0x30>
  40122b:	39 fa                	cmp    %edi,%edx
  40122d:	0f 43 ce             	cmovae %esi,%ecx
  401230:	0f 46 d7             	cmovbe %edi,%edx
  401233:	48 89 d6             	mov    %rdx,%rsi
  401236:	48 c1 e6 0a          	shl    $0xa,%rsi
  40123a:	48 89 35 6f 9e 00 00 	mov    %rsi,0x9e6f(%rip)        # 40b0b0 <__libirc_largest_cache_size>
  401241:	48 c1 e2 09          	shl    $0x9,%rdx
  401245:	48 89 15 6c 9e 00 00 	mov    %rdx,0x9e6c(%rip)        # 40b0b8 <__libirc_largest_cache_size_half>
  40124c:	c1 e0 0a             	shl    $0xa,%eax
  40124f:	48 89 05 6a 9e 00 00 	mov    %rax,0x9e6a(%rip)        # 40b0c0 <__libirc_data_cache_size>
  401256:	48 89 c2             	mov    %rax,%rdx
  401259:	48 d1 ea             	shr    %rdx
  40125c:	48 89 15 65 9e 00 00 	mov    %rdx,0x9e65(%rip)        # 40b0c8 <__libirc_data_cache_size_half>
  401263:	48 89 c2             	mov    %rax,%rdx
  401266:	48 c1 ea 02          	shr    $0x2,%rdx
  40126a:	48 89 15 5f 9e 00 00 	mov    %rdx,0x9e5f(%rip)        # 40b0d0 <__libirc_largest_cache_size_quoter>
  401271:	48 89 0d d0 a5 00 00 	mov    %rcx,0xa5d0(%rip)        # 40b848 <__libirc_largest_cachelinesize>
  401278:	48 c7 05 55 9e 00 00 	movq   $0x2000,0x9e55(%rip)        # 40b0d8 <__libirc_copy_loop_threshold>
  40127f:	00 20 00 00 
  401283:	48 01 c0             	add    %rax,%rax
  401286:	48 8d 04 40          	lea    (%rax,%rax,2),%rax
  40128a:	48 89 05 4f 9e 00 00 	mov    %rax,0x9e4f(%rip)        # 40b0e0 <__libirc_rep_move_threshold>
  401291:	48 c7 05 4c 9e 00 00 	movq   $0x800,0x9e4c(%rip)        # 40b0e8 <__libirc_set_loop_threshold>
  401298:	00 08 00 00 
  40129c:	e9 5d 01 00 00       	jmp    4013fe <_GLOBAL__sub_I_fast_mem_ops.c+0x27e>
  4012a1:	e8 5a 62 00 00       	call   407500 <_ZL23__libirc_init_cache_tblv>
  4012a6:	83 3d 53 a5 00 00 00 	cmpl   $0x0,0xa553(%rip)        # 40b800 <_ZL18__libirc_cache_tbl>
  4012ad:	0f 85 f6 fe ff ff    	jne    4011a9 <_GLOBAL__sub_I_fast_mem_ops.c+0x29>
  4012b3:	c7 45 ec 00 00 00 00 	movl   $0x0,-0x14(%rbp)
  4012ba:	48 8d 75 d0          	lea    -0x30(%rbp),%rsi
  4012be:	48 89 75 e0          	mov    %rsi,-0x20(%rbp)
  4012c2:	50                   	push   %rax
  4012c3:	53                   	push   %rbx
  4012c4:	51                   	push   %rcx
  4012c5:	52                   	push   %rdx
  4012c6:	4c 8b 45 e0          	mov    -0x20(%rbp),%r8
  4012ca:	8b 45 ec             	mov    -0x14(%rbp),%eax
  4012cd:	0f a2                	cpuid
  4012cf:	41 89 00             	mov    %eax,(%r8)
  4012d2:	41 89 58 04          	mov    %ebx,0x4(%r8)
  4012d6:	41 89 48 08          	mov    %ecx,0x8(%r8)
  4012da:	41 89 50 0c          	mov    %edx,0xc(%r8)
  4012de:	5a                   	pop    %rdx
  4012df:	59                   	pop    %rcx
  4012e0:	5b                   	pop    %rbx
  4012e1:	58                   	pop    %rax
  4012e2:	45 31 f6             	xor    %r14d,%r14d
  4012e5:	81 7d d4 41 75 74 68 	cmpl   $0x68747541,-0x2c(%rbp)
  4012ec:	0f 85 0c 01 00 00    	jne    4013fe <_GLOBAL__sub_I_fast_mem_ops.c+0x27e>
  4012f2:	81 7d dc 65 6e 74 69 	cmpl   $0x69746e65,-0x24(%rbp)
  4012f9:	0f 85 ff 00 00 00    	jne    4013fe <_GLOBAL__sub_I_fast_mem_ops.c+0x27e>
  4012ff:	81 7d d8 63 41 4d 44 	cmpl   $0x444d4163,-0x28(%rbp)
  401306:	0f 85 f2 00 00 00    	jne    4013fe <_GLOBAL__sub_I_fast_mem_ops.c+0x27e>
  40130c:	c7 45 ec 01 00 00 00 	movl   $0x1,-0x14(%rbp)
  401313:	48 89 75 e0          	mov    %rsi,-0x20(%rbp)
  401317:	50                   	push   %rax
  401318:	53                   	push   %rbx
  401319:	51                   	push   %rcx
  40131a:	52                   	push   %rdx
  40131b:	4c 8b 45 e0          	mov    -0x20(%rbp),%r8
  40131f:	8b 45 ec             	mov    -0x14(%rbp),%eax
  401322:	0f a2                	cpuid
  401324:	41 89 00             	mov    %eax,(%r8)
  401327:	41 89 58 04          	mov    %ebx,0x4(%r8)
  40132b:	41 89 48 08          	mov    %ecx,0x8(%r8)
  40132f:	41 89 50 0c          	mov    %edx,0xc(%r8)
  401333:	5a                   	pop    %rdx
  401334:	59                   	pop    %rcx
  401335:	5b                   	pop    %rbx
  401336:	58                   	pop    %rax
  401337:	44 8b 75 dc          	mov    -0x24(%rbp),%r14d
  40133b:	41 c1 ee 17          	shr    $0x17,%r14d
  40133f:	41 83 e6 01          	and    $0x1,%r14d
  401343:	c7 45 ec 00 00 00 80 	movl   $0x80000000,-0x14(%rbp)
  40134a:	48 89 75 e0          	mov    %rsi,-0x20(%rbp)
  40134e:	50                   	push   %rax
  40134f:	53                   	push   %rbx
  401350:	51                   	push   %rcx
  401351:	52                   	push   %rdx
  401352:	4c 8b 45 e0          	mov    -0x20(%rbp),%r8
  401356:	8b 45 ec             	mov    -0x14(%rbp),%eax
  401359:	0f a2                	cpuid
  40135b:	41 89 00             	mov    %eax,(%r8)
  40135e:	41 89 58 04          	mov    %ebx,0x4(%r8)
  401362:	41 89 48 08          	mov    %ecx,0x8(%r8)
  401366:	41 89 50 0c          	mov    %edx,0xc(%r8)
  40136a:	5a                   	pop    %rdx
  40136b:	59                   	pop    %rcx
  40136c:	5b                   	pop    %rbx
  40136d:	58                   	pop    %rax
  40136e:	81 7d d0 06 00 00 80 	cmpl   $0x80000006,-0x30(%rbp)
  401375:	0f 82 83 00 00 00    	jb     4013fe <_GLOBAL__sub_I_fast_mem_ops.c+0x27e>
  40137b:	c7 45 ec 06 00 00 80 	movl   $0x80000006,-0x14(%rbp)
  401382:	48 89 75 e0          	mov    %rsi,-0x20(%rbp)
  401386:	50                   	push   %rax
  401387:	53                   	push   %rbx
  401388:	51                   	push   %rcx
  401389:	52                   	push   %rdx
  40138a:	4c 8b 45 e0          	mov    -0x20(%rbp),%r8
  40138e:	8b 45 ec             	mov    -0x14(%rbp),%eax
  401391:	0f a2                	cpuid
  401393:	41 89 00             	mov    %eax,(%r8)
  401396:	41 89 58 04          	mov    %ebx,0x4(%r8)
  40139a:	41 89 48 08          	mov    %ecx,0x8(%r8)
  40139e:	41 89 50 0c          	mov    %edx,0xc(%r8)
  4013a2:	5a                   	pop    %rdx
  4013a3:	59                   	pop    %rcx
  4013a4:	5b                   	pop    %rbx
  4013a5:	58                   	pop    %rax
  4013a6:	8b 45 d8             	mov    -0x28(%rbp),%eax
  4013a9:	48 c1 e8 06          	shr    $0x6,%rax
  4013ad:	25 00 fc ff 03       	and    $0x3fffc00,%eax
  4013b2:	48 89 05 f7 9c 00 00 	mov    %rax,0x9cf7(%rip)        # 40b0b0 <__libirc_largest_cache_size>
  4013b9:	48 d1 e8             	shr    %rax
  4013bc:	48 89 05 f5 9c 00 00 	mov    %rax,0x9cf5(%rip)        # 40b0b8 <__libirc_largest_cache_size_half>
  4013c3:	48 8b 05 f6 9c 00 00 	mov    0x9cf6(%rip),%rax        # 40b0c0 <__libirc_data_cache_size>
  4013ca:	48 c1 e8 02          	shr    $0x2,%rax
  4013ce:	48 89 05 fb 9c 00 00 	mov    %rax,0x9cfb(%rip)        # 40b0d0 <__libirc_largest_cache_size_quoter>
  4013d5:	eb 27                	jmp    4013fe <_GLOBAL__sub_I_fast_mem_ops.c+0x27e>
  4013d7:	45 31 f6             	xor    %r14d,%r14d
  4013da:	8b 05 30 a4 00 00    	mov    0xa430(%rip),%eax        # 40b810 <_ZL18__libirc_cache_tbl+0x10>
  4013e0:	85 c0                	test   %eax,%eax
  4013e2:	0f 85 08 fe ff ff    	jne    4011f0 <_GLOBAL__sub_I_fast_mem_ops.c+0x70>
  4013e8:	48 8d 3d 61 78 00 00 	lea    0x7861(%rip),%rdi        # 408c50 <_ZL16cpuid2_cache_tbl+0x800>
  4013ef:	e8 2c fd ff ff       	call   401120 <getenv@plt>
  4013f4:	48 85 c0             	test   %rax,%rax
  4013f7:	74 05                	je     4013fe <_GLOBAL__sub_I_fast_mem_ops.c+0x27e>
  4013f9:	80 38 00             	cmpb   $0x0,(%rax)
  4013fc:	75 17                	jne    401415 <_GLOBAL__sub_I_fast_mem_ops.c+0x295>
  4013fe:	44 89 35 3b a4 00 00 	mov    %r14d,0xa43b(%rip)        # 40b840 <__libirc_mem_ops_method>
  401405:	44 89 35 44 a4 00 00 	mov    %r14d,0xa444(%rip)        # 40b850 <_ZL12__libirc_tmp>
  40140c:	48 83 c4 20          	add    $0x20,%rsp
  401410:	5b                   	pop    %rbx
  401411:	41 5e                	pop    %r14
  401413:	5d                   	pop    %rbp
  401414:	c3                   	ret
  401415:	bf 01 00 00 00       	mov    $0x1,%edi
  40141a:	31 f6                	xor    %esi,%esi
  40141c:	31 d2                	xor    %edx,%edx
  40141e:	31 c0                	xor    %eax,%eax
  401420:	e8 0b 6a 00 00       	call   407e30 <__libirc_print>
  401425:	bf 01 00 00 00       	mov    $0x1,%edi
  40142a:	be 3d 00 00 00       	mov    $0x3d,%esi
  40142f:	31 d2                	xor    %edx,%edx
  401431:	31 c0                	xor    %eax,%eax
  401433:	e8 f8 69 00 00       	call   407e30 <__libirc_print>
  401438:	bf 01 00 00 00       	mov    $0x1,%edi
  40143d:	31 f6                	xor    %esi,%esi
  40143f:	31 d2                	xor    %edx,%edx
  401441:	31 c0                	xor    %eax,%eax
  401443:	e8 e8 69 00 00       	call   407e30 <__libirc_print>
  401448:	bf 01 00 00 00       	mov    $0x1,%edi
  40144d:	e8 1e fc ff ff       	call   401070 <exit@plt>
  401452:	66 2e 0f 1f 84 00 00 	cs nopw 0x0(%rax,%rax,1)
  401459:	00 00 00 
  40145c:	0f 1f 40 00          	nopl   0x0(%rax)

0000000000401460 <_start>:
  401460:	31 ed                	xor    %ebp,%ebp
  401462:	49 89 d1             	mov    %rdx,%r9
  401465:	5e                   	pop    %rsi
  401466:	48 89 e2             	mov    %rsp,%rdx
  401469:	48 83 e4 f0          	and    $0xfffffffffffffff0,%rsp
  40146d:	50                   	push   %rax
  40146e:	54                   	push   %rsp
  40146f:	45 31 c0             	xor    %r8d,%r8d
  401472:	31 c9                	xor    %ecx,%ecx
  401474:	48 c7 c7 50 15 40 00 	mov    $0x401550,%rdi
  40147b:	ff 15 5f 9b 00 00    	call   *0x9b5f(%rip)        # 40afe0 <__libc_start_main@GLIBC_2.34>
  401481:	f4                   	hlt
  401482:	66 2e 0f 1f 84 00 00 	cs nopw 0x0(%rax,%rax,1)
  401489:	00 00 00 
  40148c:	0f 1f 40 00          	nopl   0x0(%rax)

0000000000401490 <deregister_tm_clones>:
  401490:	48 8d 3d 59 9c 00 00 	lea    0x9c59(%rip),%rdi        # 40b0f0 <__TMC_END__>
  401497:	48 8d 05 52 9c 00 00 	lea    0x9c52(%rip),%rax        # 40b0f0 <__TMC_END__>
  40149e:	48 39 f8             	cmp    %rdi,%rax
  4014a1:	74 15                	je     4014b8 <deregister_tm_clones+0x28>
  4014a3:	48 8b 05 16 9b 00 00 	mov    0x9b16(%rip),%rax        # 40afc0 <_ITM_deregisterTMCloneTable@Base>
  4014aa:	48 85 c0             	test   %rax,%rax
  4014ad:	74 09                	je     4014b8 <deregister_tm_clones+0x28>
  4014af:	ff e0                	jmp    *%rax
  4014b1:	0f 1f 80 00 00 00 00 	nopl   0x0(%rax)
  4014b8:	c3                   	ret
  4014b9:	0f 1f 80 00 00 00 00 	nopl   0x0(%rax)

00000000004014c0 <register_tm_clones>:
  4014c0:	48 8d 3d 29 9c 00 00 	lea    0x9c29(%rip),%rdi        # 40b0f0 <__TMC_END__>
  4014c7:	48 8d 35 22 9c 00 00 	lea    0x9c22(%rip),%rsi        # 40b0f0 <__TMC_END__>
  4014ce:	48 29 fe             	sub    %rdi,%rsi
  4014d1:	48 89 f0             	mov    %rsi,%rax
  4014d4:	48 c1 ee 3f          	shr    $0x3f,%rsi
  4014d8:	48 c1 f8 03          	sar    $0x3,%rax
  4014dc:	48 01 c6             	add    %rax,%rsi
  4014df:	48 d1 fe             	sar    %rsi
  4014e2:	74 14                	je     4014f8 <register_tm_clones+0x38>
  4014e4:	48 8b 05 dd 9a 00 00 	mov    0x9add(%rip),%rax        # 40afc8 <_ITM_registerTMCloneTable@Base>
  4014eb:	48 85 c0             	test   %rax,%rax
  4014ee:	74 08                	je     4014f8 <register_tm_clones+0x38>
  4014f0:	ff e0                	jmp    *%rax
  4014f2:	66 0f 1f 44 00 00    	nopw   0x0(%rax,%rax,1)
  4014f8:	c3                   	ret
  4014f9:	0f 1f 80 00 00 00 00 	nopl   0x0(%rax)

0000000000401500 <__do_global_dtors_aux>:
  401500:	f3 0f 1e fa          	endbr64
  401504:	80 3d fd 9b 00 00 00 	cmpb   $0x0,0x9bfd(%rip)        # 40b108 <completed.0>
  40150b:	75 2b                	jne    401538 <__do_global_dtors_aux+0x38>
  40150d:	55                   	push   %rbp
  40150e:	48 83 3d ba 9a 00 00 	cmpq   $0x0,0x9aba(%rip)        # 40afd0 <__cxa_finalize@GLIBC_2.2.5>
  401515:	00 
  401516:	48 89 e5             	mov    %rsp,%rbp
  401519:	74 0c                	je     401527 <__do_global_dtors_aux+0x27>
  40151b:	48 8b 3d 86 9b 00 00 	mov    0x9b86(%rip),%rdi        # 40b0a8 <__dso_handle>
  401522:	e8 51 fc ff ff       	call   401178 <__cxa_finalize@plt>
  401527:	e8 64 ff ff ff       	call   401490 <deregister_tm_clones>
  40152c:	c6 05 d5 9b 00 00 01 	movb   $0x1,0x9bd5(%rip)        # 40b108 <completed.0>
  401533:	5d                   	pop    %rbp
  401534:	c3                   	ret
  401535:	0f 1f 00             	nopl   (%rax)
  401538:	c3                   	ret
  401539:	0f 1f 80 00 00 00 00 	nopl   0x0(%rax)

0000000000401540 <frame_dummy>:
  401540:	f3 0f 1e fa          	endbr64
  401544:	e9 77 ff ff ff       	jmp    4014c0 <register_tm_clones>
  401549:	0f 1f 80 00 00 00 00 	nopl   0x0(%rax)

0000000000401550 <main>:
  401550:	55                   	push   %rbp
  401551:	41 57                	push   %r15
  401553:	41 56                	push   %r14
  401555:	41 55                	push   %r13
  401557:	41 54                	push   %r12
  401559:	53                   	push   %rbx
  40155a:	48 83 ec 68          	sub    $0x68,%rsp
  40155e:	48 be ee 9f 9d 10 00 	movabs $0x100000109d9fee,%rsi
  401565:	00 10 00 
  401568:	bf 03 00 00 00       	mov    $0x3,%edi
  40156d:	e8 3e 0a 00 00       	call   401fb0 <__intel_new_feature_proc_init>
  401572:	48 8d 7c 24 28       	lea    0x28(%rsp),%rdi
  401577:	be 40 00 00 00       	mov    $0x40,%esi
  40157c:	ba 00 00 00 08       	mov    $0x8000000,%edx
  401581:	e8 aa fa ff ff       	call   401030 <posix_memalign@plt>
  401586:	bb 01 00 00 00       	mov    $0x1,%ebx
  40158b:	85 c0                	test   %eax,%eax
  40158d:	75 67                	jne    4015f6 <main+0xa6>
  40158f:	48 8d 7c 24 20       	lea    0x20(%rsp),%rdi
  401594:	be 40 00 00 00       	mov    $0x40,%esi
  401599:	ba 00 00 00 08       	mov    $0x8000000,%edx
  40159e:	e8 8d fa ff ff       	call   401030 <posix_memalign@plt>
  4015a3:	85 c0                	test   %eax,%eax
  4015a5:	75 4f                	jne    4015f6 <main+0xa6>
  4015a7:	48 8d 7c 24 10       	lea    0x10(%rsp),%rdi
  4015ac:	be 40 00 00 00       	mov    $0x40,%esi
  4015b1:	ba 00 00 00 08       	mov    $0x8000000,%edx
  4015b6:	e8 75 fa ff ff       	call   401030 <posix_memalign@plt>
  4015bb:	85 c0                	test   %eax,%eax
  4015bd:	75 37                	jne    4015f6 <main+0xa6>
  4015bf:	48 8b 7c 24 28       	mov    0x28(%rsp),%rdi
  4015c4:	48 85 ff             	test   %rdi,%rdi
  4015c7:	74 14                	je     4015dd <main+0x8d>
  4015c9:	4c 8b 74 24 20       	mov    0x20(%rsp),%r14
  4015ce:	4d 85 f6             	test   %r14,%r14
  4015d1:	74 0a                	je     4015dd <main+0x8d>
  4015d3:	48 8b 44 24 10       	mov    0x10(%rsp),%rax
  4015d8:	48 85 c0             	test   %rax,%rax
  4015db:	75 2a                	jne    401607 <main+0xb7>
  4015dd:	e8 ee fa ff ff       	call   4010d0 <free@plt>
  4015e2:	48 8b 7c 24 20       	mov    0x20(%rsp),%rdi
  4015e7:	e8 e4 fa ff ff       	call   4010d0 <free@plt>
  4015ec:	48 8b 7c 24 10       	mov    0x10(%rsp),%rdi
  4015f1:	e8 da fa ff ff       	call   4010d0 <free@plt>
  4015f6:	89 d8                	mov    %ebx,%eax
  4015f8:	48 83 c4 68          	add    $0x68,%rsp
  4015fc:	5b                   	pop    %rbx
  4015fd:	41 5c                	pop    %r12
  4015ff:	41 5d                	pop    %r13
  401601:	41 5e                	pop    %r14
  401603:	41 5f                	pop    %r15
  401605:	5d                   	pop    %rbp
  401606:	c3                   	ret
  401607:	ba 00 00 00 08       	mov    $0x8000000,%edx
  40160c:	48 89 fb             	mov    %rdi,%rbx
  40160f:	48 89 c7             	mov    %rax,%rdi
  401612:	31 f6                	xor    %esi,%esi
  401614:	e8 77 05 00 00       	call   401b90 <_intel_fast_memset>
  401619:	48 89 d8             	mov    %rbx,%rax
  40161c:	48 c7 c1 fc ff ff ff 	mov    $0xfffffffffffffffc,%rcx
  401623:	c4 e2 7d 19 05 dc 69 	vbroadcastsd 0x69dc(%rip),%ymm0        # 408008 <_IO_stdin_used+0x8>
  40162a:	00 00 
  40162c:	c4 e2 7d 19 0d db 69 	vbroadcastsd 0x69db(%rip),%ymm1        # 408010 <_IO_stdin_used+0x10>
  401633:	00 00 
  401635:	66 66 2e 0f 1f 84 00 	data16 cs nopw 0x0(%rax,%rax,1)
  40163c:	00 00 00 00 
  401640:	c5 fd 11 44 c8 20    	vmovupd %ymm0,0x20(%rax,%rcx,8)
  401646:	c4 c1 7d 11 4c ce 20 	vmovupd %ymm1,0x20(%r14,%rcx,8)
  40164d:	c5 fd 11 44 c8 40    	vmovupd %ymm0,0x40(%rax,%rcx,8)
  401653:	c4 c1 7d 11 4c ce 40 	vmovupd %ymm1,0x40(%r14,%rcx,8)
  40165a:	c5 fd 11 44 c8 60    	vmovupd %ymm0,0x60(%rax,%rcx,8)
  401660:	c4 c1 7d 11 4c ce 60 	vmovupd %ymm1,0x60(%r14,%rcx,8)
  401667:	c5 fd 11 84 c8 80 00 	vmovupd %ymm0,0x80(%rax,%rcx,8)
  40166e:	00 00 
  401670:	c4 c1 7d 11 8c ce 80 	vmovupd %ymm1,0x80(%r14,%rcx,8)
  401677:	00 00 00 
  40167a:	c5 fd 11 84 c8 a0 00 	vmovupd %ymm0,0xa0(%rax,%rcx,8)
  401681:	00 00 
  401683:	c4 c1 7d 11 8c ce a0 	vmovupd %ymm1,0xa0(%r14,%rcx,8)
  40168a:	00 00 00 
  40168d:	c5 fd 11 84 c8 c0 00 	vmovupd %ymm0,0xc0(%rax,%rcx,8)
  401694:	00 00 
  401696:	c4 c1 7d 11 8c ce c0 	vmovupd %ymm1,0xc0(%r14,%rcx,8)
  40169d:	00 00 00 
  4016a0:	c5 fd 11 84 c8 e0 00 	vmovupd %ymm0,0xe0(%rax,%rcx,8)
  4016a7:	00 00 
  4016a9:	c4 c1 7d 11 8c ce e0 	vmovupd %ymm1,0xe0(%r14,%rcx,8)
  4016b0:	00 00 00 
  4016b3:	c5 fd 11 84 c8 00 01 	vmovupd %ymm0,0x100(%rax,%rcx,8)
  4016ba:	00 00 
  4016bc:	c4 c1 7d 11 8c ce 00 	vmovupd %ymm1,0x100(%r14,%rcx,8)
  4016c3:	01 00 00 
  4016c6:	48 83 c1 20          	add    $0x20,%rcx
  4016ca:	48 81 f9 fc ff ff 00 	cmp    $0xfffffc,%rcx
  4016d1:	0f 82 69 ff ff ff    	jb     401640 <main+0xf0>
  4016d7:	48 8d 74 24 50       	lea    0x50(%rsp),%rsi
  4016dc:	bf 01 00 00 00       	mov    $0x1,%edi
  4016e1:	c5 f8 77             	vzeroupper
  4016e4:	e8 67 f9 ff ff       	call   401050 <clock_gettime@plt>
  4016e9:	48 8b 44 24 28       	mov    0x28(%rsp),%rax
  4016ee:	48 8b 4c 24 10       	mov    0x10(%rsp),%rcx
  4016f3:	ba 00 80 03 00       	mov    $0x38000,%edx
  4016f8:	48 03 54 24 20       	add    0x20(%rsp),%rdx
  4016fd:	48 89 54 24 18       	mov    %rdx,0x18(%rsp)
  401702:	31 d2                	xor    %edx,%edx
  401704:	66 66 66 2e 0f 1f 84 	data16 data16 cs nopw 0x0(%rax,%rax,1)
  40170b:	00 00 00 00 00 
  401710:	48 89 54 24 08       	mov    %rdx,0x8(%rsp)
  401715:	89 d7                	mov    %edx,%edi
  401717:	48 c1 e7 13          	shl    $0x13,%rdi
  40171b:	4c 8b 44 24 18       	mov    0x18(%rsp),%r8
  401720:	45 31 c9             	xor    %r9d,%r9d
  401723:	66 66 66 66 2e 0f 1f 	data16 data16 data16 cs nopw 0x0(%rax,%rax,1)
  40172a:	84 00 00 00 00 00 
  401730:	45 89 ca             	mov    %r9d,%r10d
  401733:	49 c1 e2 07          	shl    $0x7,%r10
  401737:	49 01 fa             	add    %rdi,%r10
  40173a:	4d 89 c3             	mov    %r8,%r11
  40173d:	48 89 cb             	mov    %rcx,%rbx
  401740:	45 31 f6             	xor    %r14d,%r14d
  401743:	66 66 66 66 2e 0f 1f 	data16 data16 data16 cs nopw 0x0(%rax,%rax,1)
  40174a:	84 00 00 00 00 00 
  401750:	49 89 df             	mov    %rbx,%r15
  401753:	45 31 e4             	xor    %r12d,%r12d
  401756:	66 2e 0f 1f 84 00 00 	cs nopw 0x0(%rax,%rax,1)
  40175d:	00 00 00 
  401760:	4d 89 e5             	mov    %r12,%r13
  401763:	49 c1 e5 0c          	shl    $0xc,%r13
  401767:	4d 01 d5             	add    %r10,%r13
  40176a:	4c 89 dd             	mov    %r11,%rbp
  40176d:	31 d2                	xor    %edx,%edx
  40176f:	90                   	nop
  401770:	49 8d 74 d5 00       	lea    0x0(%r13,%rdx,8),%rsi
  401775:	c4 e2 7d 19 04 f0    	vbroadcastsd (%rax,%rsi,8),%ymm0
  40177b:	c4 e2 7d 19 4c f0 08 	vbroadcastsd 0x8(%rax,%rsi,8),%ymm1
  401782:	c4 e2 7d 19 54 f0 10 	vbroadcastsd 0x10(%rax,%rsi,8),%ymm2
  401789:	c4 e2 7d 19 5c f0 18 	vbroadcastsd 0x18(%rax,%rsi,8),%ymm3
  401790:	c4 e2 7d 19 64 f0 20 	vbroadcastsd 0x20(%rax,%rsi,8),%ymm4
  401797:	c4 e2 7d 19 6c f0 28 	vbroadcastsd 0x28(%rax,%rsi,8),%ymm5
  40179e:	c4 e2 7d 19 74 f0 30 	vbroadcastsd 0x30(%rax,%rsi,8),%ymm6
  4017a5:	c4 e2 7d 19 7c f0 38 	vbroadcastsd 0x38(%rax,%rsi,8),%ymm7
  4017ac:	48 c7 c6 fc ff ff ff 	mov    $0xfffffffffffffffc,%rsi
  4017b3:	66 66 66 66 2e 0f 1f 	data16 data16 data16 cs nopw 0x0(%rax,%rax,1)
  4017ba:	84 00 00 00 00 00 
  4017c0:	c5 7d 10 84 f5 20 80 	vmovupd -0x37fe0(%rbp,%rsi,8),%ymm8
  4017c7:	fc ff 
  4017c9:	c4 42 fd a8 44 f7 20 	vfmadd213pd 0x20(%r15,%rsi,8),%ymm0,%ymm8
  4017d0:	c4 62 f5 b8 84 f5 20 	vfmadd231pd -0x2ffe0(%rbp,%rsi,8),%ymm1,%ymm8
  4017d7:	00 fd ff 
  4017da:	c4 62 ed b8 84 f5 20 	vfmadd231pd -0x27fe0(%rbp,%rsi,8),%ymm2,%ymm8
  4017e1:	80 fd ff 
  4017e4:	c4 62 e5 b8 84 f5 20 	vfmadd231pd -0x1ffe0(%rbp,%rsi,8),%ymm3,%ymm8
  4017eb:	00 fe ff 
  4017ee:	c4 62 dd b8 84 f5 20 	vfmadd231pd -0x17fe0(%rbp,%rsi,8),%ymm4,%ymm8
  4017f5:	80 fe ff 
  4017f8:	c4 62 d5 b8 84 f5 20 	vfmadd231pd -0xffe0(%rbp,%rsi,8),%ymm5,%ymm8
  4017ff:	00 ff ff 
  401802:	c4 62 cd b8 84 f5 20 	vfmadd231pd -0x7fe0(%rbp,%rsi,8),%ymm6,%ymm8
  401809:	80 ff ff 
  40180c:	c4 62 c5 b8 44 f5 20 	vfmadd231pd 0x20(%rbp,%rsi,8),%ymm7,%ymm8
  401813:	c4 41 7d 11 44 f7 20 	vmovupd %ymm8,0x20(%r15,%rsi,8)
  40181a:	48 83 c6 04          	add    $0x4,%rsi
  40181e:	48 83 fe 7c          	cmp    $0x7c,%rsi
  401822:	72 9c                	jb     4017c0 <main+0x270>
  401824:	48 8d 72 01          	lea    0x1(%rdx),%rsi
  401828:	48 81 c5 00 00 04 00 	add    $0x40000,%rbp
  40182f:	48 83 fa 0f          	cmp    $0xf,%rdx
  401833:	48 89 f2             	mov    %rsi,%rdx
  401836:	0f 85 34 ff ff ff    	jne    401770 <main+0x220>
  40183c:	49 8d 54 24 01       	lea    0x1(%r12),%rdx
  401841:	49 81 c7 00 80 00 00 	add    $0x8000,%r15
  401848:	49 83 fc 7f          	cmp    $0x7f,%r12
  40184c:	49 89 d4             	mov    %rdx,%r12
  40184f:	0f 85 0b ff ff ff    	jne    401760 <main+0x210>
  401855:	49 8d 56 01          	lea    0x1(%r14),%rdx
  401859:	48 81 c3 00 04 00 00 	add    $0x400,%rbx
  401860:	49 81 c3 00 04 00 00 	add    $0x400,%r11
  401867:	49 83 fe 1f          	cmp    $0x1f,%r14
  40186b:	49 89 d6             	mov    %rdx,%r14
  40186e:	0f 85 dc fe ff ff    	jne    401750 <main+0x200>
  401874:	41 8d 51 01          	lea    0x1(%r9),%edx
  401878:	49 81 c0 00 00 40 00 	add    $0x400000,%r8
  40187f:	41 83 f9 1f          	cmp    $0x1f,%r9d
  401883:	41 89 d1             	mov    %edx,%r9d
  401886:	0f 85 a4 fe ff ff    	jne    401730 <main+0x1e0>
  40188c:	48 8b 74 24 08       	mov    0x8(%rsp),%rsi
  401891:	8d 56 01             	lea    0x1(%rsi),%edx
  401894:	48 81 c1 00 00 40 00 	add    $0x400000,%rcx
  40189b:	83 fe 1f             	cmp    $0x1f,%esi
  40189e:	0f 85 6c fe ff ff    	jne    401710 <main+0x1c0>
  4018a4:	48 8d 74 24 40       	lea    0x40(%rsp),%rsi
  4018a9:	bf 01 00 00 00       	mov    $0x1,%edi
  4018ae:	c5 f8 77             	vzeroupper
  4018b1:	e8 9a f7 ff ff       	call   401050 <clock_gettime@plt>
  4018b6:	48 8b 3d 43 98 00 00 	mov    0x9843(%rip),%rdi        # 40b100 <stderr@GLIBC_2.2.5>
  4018bd:	c5 fa 6f 44 24 40    	vmovdqu 0x40(%rsp),%xmm0
  4018c3:	c5 f9 fb 44 24 50    	vpsubq 0x50(%rsp),%xmm0,%xmm0
  4018c9:	c4 e3 f9 16 c0 01    	vpextrq $0x1,%xmm0,%rax
  4018cf:	48 8d 88 00 ca 9a 3b 	lea    0x3b9aca00(%rax),%rcx
  4018d6:	48 89 c2             	mov    %rax,%rdx
  4018d9:	48 c1 fa 3f          	sar    $0x3f,%rdx
  4018dd:	c4 e1 f9 7e c6       	vmovq  %xmm0,%rsi
  4018e2:	48 01 d6             	add    %rdx,%rsi
  4018e5:	48 85 c0             	test   %rax,%rax
  4018e8:	48 0f 49 c8          	cmovns %rax,%rcx
  4018ec:	c4 e1 b3 2a ce       	vcvtsi2sd %rsi,%xmm9,%xmm1
  4018f1:	c4 e1 b3 2a c1       	vcvtsi2sd %rcx,%xmm9,%xmm0
  4018f6:	c4 e2 f1 99 05 19 67 	vfmadd132sd 0x6719(%rip),%xmm1,%xmm0        # 408018 <_IO_stdin_used+0x18>
  4018fd:	00 00 
  4018ff:	be 20 80 40 00       	mov    $0x408020,%esi
  401904:	b0 01                	mov    $0x1,%al
  401906:	e8 45 f8 ff ff       	call   401150 <fprintf@plt>
  40190b:	bf 2e 80 40 00       	mov    $0x40802e,%edi
  401910:	be e3 81 40 00       	mov    $0x4081e3,%esi
  401915:	e8 76 f7 ff ff       	call   401090 <fopen@plt>
  40191a:	48 85 c0             	test   %rax,%rax
  40191d:	0f 84 27 02 00 00    	je     401b4a <main+0x5fa>
  401923:	48 89 c3             	mov    %rax,%rbx
  401926:	45 31 f6             	xor    %r14d,%r14d
  401929:	be 3a 80 40 00       	mov    $0x40803a,%esi
  40192e:	48 89 c7             	mov    %rax,%rdi
  401931:	ba 00 10 00 00       	mov    $0x1000,%edx
  401936:	31 c0                	xor    %eax,%eax
  401938:	e8 13 f8 ff ff       	call   401150 <fprintf@plt>
  40193d:	48 c7 44 24 08 00 00 	movq   $0x0,0x8(%rsp)
  401944:	00 00 
  401946:	31 c0                	xor    %eax,%eax
  401948:	48 89 44 24 30       	mov    %rax,0x30(%rsp)
  40194d:	48 8b 44 24 10       	mov    0x10(%rsp),%rax
  401952:	45 31 ff             	xor    %r15d,%r15d
  401955:	c5 fb 10 44 24 08    	vmovsd 0x8(%rsp),%xmm0
  40195b:	0f 1f 44 00 00       	nopl   0x0(%rax,%rax,1)
  401960:	c5 fb 11 44 24 08    	vmovsd %xmm0,0x8(%rsp)
  401966:	4c 01 f0             	add    %r14,%rax
  401969:	c4 c1 7b 10 04 07    	vmovsd (%r15,%rax,1),%xmm0
  40196f:	be 3f 80 40 00       	mov    $0x40803f,%esi
  401974:	48 89 df             	mov    %rbx,%rdi
  401977:	b0 01                	mov    $0x1,%al
  401979:	e8 d2 f7 ff ff       	call   401150 <fprintf@plt>
  40197e:	48 8b 44 24 10       	mov    0x10(%rsp),%rax
  401983:	4c 01 f0             	add    %r14,%rax
  401986:	c4 c1 7b 10 04 07    	vmovsd (%r15,%rax,1),%xmm0
  40198c:	c5 fb 58 44 24 08    	vaddsd 0x8(%rsp),%xmm0,%xmm0
  401992:	c5 fb 11 44 24 08    	vmovsd %xmm0,0x8(%rsp)
  401998:	c4 c1 7b 10 44 07 08 	vmovsd 0x8(%r15,%rax,1),%xmm0
  40199f:	be 3f 80 40 00       	mov    $0x40803f,%esi
  4019a4:	48 89 df             	mov    %rbx,%rdi
  4019a7:	b0 01                	mov    $0x1,%al
  4019a9:	e8 a2 f7 ff ff       	call   401150 <fprintf@plt>
  4019ae:	48 8b 44 24 10       	mov    0x10(%rsp),%rax
  4019b3:	4c 01 f0             	add    %r14,%rax
  4019b6:	c4 c1 7b 10 44 07 08 	vmovsd 0x8(%r15,%rax,1),%xmm0
  4019bd:	c5 fb 11 44 24 18    	vmovsd %xmm0,0x18(%rsp)
  4019c3:	c4 c1 7b 10 44 07 10 	vmovsd 0x10(%r15,%rax,1),%xmm0
  4019ca:	be 3f 80 40 00       	mov    $0x40803f,%esi
  4019cf:	48 89 df             	mov    %rbx,%rdi
  4019d2:	b0 01                	mov    $0x1,%al
  4019d4:	e8 77 f7 ff ff       	call   401150 <fprintf@plt>
  4019d9:	48 8b 44 24 10       	mov    0x10(%rsp),%rax
  4019de:	4c 01 f0             	add    %r14,%rax
  4019e1:	c4 c1 7b 10 44 07 10 	vmovsd 0x10(%r15,%rax,1),%xmm0
  4019e8:	c5 fb 58 44 24 18    	vaddsd 0x18(%rsp),%xmm0,%xmm0
  4019ee:	c5 fb 58 44 24 08    	vaddsd 0x8(%rsp),%xmm0,%xmm0
  4019f4:	c5 fb 11 44 24 08    	vmovsd %xmm0,0x8(%rsp)
  4019fa:	c4 c1 7b 10 44 07 18 	vmovsd 0x18(%r15,%rax,1),%xmm0
  401a01:	be 3f 80 40 00       	mov    $0x40803f,%esi
  401a06:	48 89 df             	mov    %rbx,%rdi
  401a09:	b0 01                	mov    $0x1,%al
  401a0b:	e8 40 f7 ff ff       	call   401150 <fprintf@plt>
  401a10:	48 8b 44 24 10       	mov    0x10(%rsp),%rax
  401a15:	4c 01 f0             	add    %r14,%rax
  401a18:	c4 c1 7b 10 44 07 18 	vmovsd 0x18(%r15,%rax,1),%xmm0
  401a1f:	c5 fb 11 44 24 18    	vmovsd %xmm0,0x18(%rsp)
  401a25:	c4 c1 7b 10 44 07 20 	vmovsd 0x20(%r15,%rax,1),%xmm0
  401a2c:	be 3f 80 40 00       	mov    $0x40803f,%esi
  401a31:	48 89 df             	mov    %rbx,%rdi
  401a34:	b0 01                	mov    $0x1,%al
  401a36:	e8 15 f7 ff ff       	call   401150 <fprintf@plt>
  401a3b:	48 8b 44 24 10       	mov    0x10(%rsp),%rax
  401a40:	4c 01 f0             	add    %r14,%rax
  401a43:	c4 c1 7b 10 44 07 20 	vmovsd 0x20(%r15,%rax,1),%xmm0
  401a4a:	c5 fb 58 44 24 18    	vaddsd 0x18(%rsp),%xmm0,%xmm0
  401a50:	c5 fb 11 44 24 18    	vmovsd %xmm0,0x18(%rsp)
  401a56:	c4 c1 7b 10 44 07 28 	vmovsd 0x28(%r15,%rax,1),%xmm0
  401a5d:	be 3f 80 40 00       	mov    $0x40803f,%esi
  401a62:	48 89 df             	mov    %rbx,%rdi
  401a65:	b0 01                	mov    $0x1,%al
  401a67:	e8 e4 f6 ff ff       	call   401150 <fprintf@plt>
  401a6c:	48 8b 44 24 10       	mov    0x10(%rsp),%rax
  401a71:	4c 01 f0             	add    %r14,%rax
  401a74:	c4 c1 7b 10 44 07 28 	vmovsd 0x28(%r15,%rax,1),%xmm0
  401a7b:	c5 fb 11 44 24 38    	vmovsd %xmm0,0x38(%rsp)
  401a81:	c4 c1 7b 10 44 07 30 	vmovsd 0x30(%r15,%rax,1),%xmm0
  401a88:	be 3f 80 40 00       	mov    $0x40803f,%esi
  401a8d:	48 89 df             	mov    %rbx,%rdi
  401a90:	b0 01                	mov    $0x1,%al
  401a92:	e8 b9 f6 ff ff       	call   401150 <fprintf@plt>
  401a97:	48 8b 44 24 10       	mov    0x10(%rsp),%rax
  401a9c:	4c 01 f0             	add    %r14,%rax
  401a9f:	c5 fb 10 44 24 38    	vmovsd 0x38(%rsp),%xmm0
  401aa5:	c4 c1 7b 58 44 07 30 	vaddsd 0x30(%r15,%rax,1),%xmm0,%xmm0
  401aac:	c5 fb 58 44 24 18    	vaddsd 0x18(%rsp),%xmm0,%xmm0
  401ab2:	c5 fb 58 44 24 08    	vaddsd 0x8(%rsp),%xmm0,%xmm0
  401ab8:	c5 fb 11 44 24 08    	vmovsd %xmm0,0x8(%rsp)
  401abe:	c4 c1 7b 10 44 07 38 	vmovsd 0x38(%r15,%rax,1),%xmm0
  401ac5:	be 3f 80 40 00       	mov    $0x40803f,%esi
  401aca:	48 89 df             	mov    %rbx,%rdi
  401acd:	b0 01                	mov    $0x1,%al
  401acf:	e8 7c f6 ff ff       	call   401150 <fprintf@plt>
  401ad4:	48 8b 44 24 10       	mov    0x10(%rsp),%rax
  401ad9:	4a 8d 0c 30          	lea    (%rax,%r14,1),%rcx
  401add:	c5 fb 10 44 24 08    	vmovsd 0x8(%rsp),%xmm0
  401ae3:	c4 c1 7b 58 44 0f 38 	vaddsd 0x38(%r15,%rcx,1),%xmm0,%xmm0
  401aea:	49 83 c7 40          	add    $0x40,%r15
  401aee:	49 81 ff 40 1f 00 00 	cmp    $0x1f40,%r15
  401af5:	0f 85 65 fe ff ff    	jne    401960 <main+0x410>
  401afb:	c5 fb 11 44 24 08    	vmovsd %xmm0,0x8(%rsp)
  401b01:	bf 0a 00 00 00       	mov    $0xa,%edi
  401b06:	48 89 de             	mov    %rbx,%rsi
  401b09:	e8 b2 f5 ff ff       	call   4010c0 <fputc@plt>
  401b0e:	48 8b 44 24 30       	mov    0x30(%rsp),%rax
  401b13:	48 8d 48 01          	lea    0x1(%rax),%rcx
  401b17:	49 81 c6 00 80 00 00 	add    $0x8000,%r14
  401b1e:	48 3d e7 03 00 00    	cmp    $0x3e7,%rax
  401b24:	48 89 c8             	mov    %rcx,%rax
  401b27:	0f 85 1b fe ff ff    	jne    401948 <main+0x3f8>
  401b2d:	be 45 80 40 00       	mov    $0x408045,%esi
  401b32:	48 89 df             	mov    %rbx,%rdi
  401b35:	c5 fb 10 44 24 08    	vmovsd 0x8(%rsp),%xmm0
  401b3b:	b0 01                	mov    $0x1,%al
  401b3d:	e8 0e f6 ff ff       	call   401150 <fprintf@plt>
  401b42:	48 89 df             	mov    %rbx,%rdi
  401b45:	e8 f6 f5 ff ff       	call   401140 <fclose@plt>
  401b4a:	48 8b 7c 24 28       	mov    0x28(%rsp),%rdi
  401b4f:	e8 7c f5 ff ff       	call   4010d0 <free@plt>
  401b54:	48 8b 7c 24 20       	mov    0x20(%rsp),%rdi
  401b59:	e8 72 f5 ff ff       	call   4010d0 <free@plt>
  401b5e:	48 8b 7c 24 10       	mov    0x10(%rsp),%rdi
  401b63:	e8 68 f5 ff ff       	call   4010d0 <free@plt>
  401b68:	31 db                	xor    %ebx,%ebx
  401b6a:	e9 87 fa ff ff       	jmp    4015f6 <main+0xa6>
  401b6f:	90                   	nop

0000000000401b70 <__intel_get_fast_memset_impl.V>:
  401b70:	48 c7 c0 d0 39 40 00 	mov    $0x4039d0,%rax
  401b77:	c3                   	ret
  401b78:	0f 1f 84 00 00 00 00 	nopl   0x0(%rax,%rax,1)
  401b7f:	00 

0000000000401b80 <__intel_get_fast_memset_impl.Z>:
  401b80:	48 c7 c0 00 21 40 00 	mov    $0x402100,%rax
  401b87:	c3                   	ret
  401b88:	0f 1f 84 00 00 00 00 	nopl   0x0(%rax,%rax,1)
  401b8f:	00 

0000000000401b90 <_intel_fast_memset>:
  401b90:	f3 0f 1e fa          	endbr64
  401b94:	48 8b 05 75 95 00 00 	mov    0x9575(%rip),%rax        # 40b110 <__real_memset_impl>
  401b9b:	48 85 c0             	test   %rax,%rax
  401b9e:	0f 84 0c 00 00 00    	je     401bb0 <__real_memset_impl_setup>
  401ba4:	ff e0                	jmp    *%rax
  401ba6:	66 2e 0f 1f 84 00 00 	cs nopw 0x0(%rax,%rax,1)
  401bad:	00 00 00 

0000000000401bb0 <__real_memset_impl_setup>:
  401bb0:	55                   	push   %rbp
  401bb1:	41 56                	push   %r14
  401bb3:	53                   	push   %rbx
  401bb4:	48 89 d3             	mov    %rdx,%rbx
  401bb7:	89 f5                	mov    %esi,%ebp
  401bb9:	49 89 fe             	mov    %rdi,%r14
  401bbc:	48 c7 c1 30 b1 40 00 	mov    $0x40b130,%rcx
  401bc3:	48 8b 01             	mov    (%rcx),%rax
  401bc6:	48 85 c0             	test   %rax,%rax
  401bc9:	75 12                	jne    401bdd <__real_memset_impl_setup+0x2d>
  401bcb:	0f 1f 44 00 00       	nopl   0x0(%rax,%rax,1)
  401bd0:	e8 8b 4b 00 00       	call   406760 <__intel_cpu_features_init_x>
  401bd5:	48 8b 01             	mov    (%rcx),%rax
  401bd8:	48 85 c0             	test   %rax,%rax
  401bdb:	74 f3                	je     401bd0 <__real_memset_impl_setup+0x20>
  401bdd:	48 89 c1             	mov    %rax,%rcx
  401be0:	48 f7 d1             	not    %rcx
  401be3:	48 ba ec 9f 9d 18 07 	movabs $0x7189d9fec,%rdx
  401bea:	00 00 00 
  401bed:	48 85 d1             	test   %rdx,%rcx
  401bf0:	75 07                	jne    401bf9 <__real_memset_impl_setup+0x49>
  401bf2:	e8 89 ff ff ff       	call   401b80 <__intel_get_fast_memset_impl.Z>
  401bf7:	eb 29                	jmp    401c22 <__real_memset_impl_setup+0x72>
  401bf9:	89 c1                	mov    %eax,%ecx
  401bfb:	f7 d1                	not    %ecx
  401bfd:	f7 c1 ec 9f 9d 00    	test   $0x9d9fec,%ecx
  401c03:	75 07                	jne    401c0c <__real_memset_impl_setup+0x5c>
  401c05:	e8 66 ff ff ff       	call   401b70 <__intel_get_fast_memset_impl.V>
  401c0a:	eb 16                	jmp    401c22 <__real_memset_impl_setup+0x72>
  401c0c:	f7 d0                	not    %eax
  401c0e:	a8 6c                	test   $0x6c,%al
  401c10:	75 09                	jne    401c1b <__real_memset_impl_setup+0x6b>
  401c12:	48 c7 c0 a0 4a 40 00 	mov    $0x404aa0,%rax
  401c19:	eb 07                	jmp    401c22 <__real_memset_impl_setup+0x72>
  401c1b:	48 8b 05 8e 93 00 00 	mov    0x938e(%rip),%rax        # 40afb0 <memset@GLIBC_2.2.5>
  401c22:	48 89 05 e7 94 00 00 	mov    %rax,0x94e7(%rip)        # 40b110 <__real_memset_impl>
  401c29:	4c 89 f7             	mov    %r14,%rdi
  401c2c:	89 ee                	mov    %ebp,%esi
  401c2e:	48 89 da             	mov    %rbx,%rdx
  401c31:	5b                   	pop    %rbx
  401c32:	41 5e                	pop    %r14
  401c34:	5d                   	pop    %rbp
  401c35:	ff e0                	jmp    *%rax
  401c37:	90                   	nop
  401c38:	0f 1f 84 00 00 00 00 	nopl   0x0(%rax,%rax,1)
  401c3f:	00 

0000000000401c40 <__intel_new_feature_proc_init_n>:
  401c40:	f3 0f 1e fa          	endbr64
  401c44:	55                   	push   %rbp
  401c45:	41 57                	push   %r15
  401c47:	41 56                	push   %r14
  401c49:	41 55                	push   %r13
  401c4b:	41 54                	push   %r12
  401c4d:	53                   	push   %rbx
  401c4e:	48 81 ec 38 04 00 00 	sub    $0x438,%rsp
  401c55:	64 48 8b 04 25 28 00 	mov    %fs:0x28,%rax
  401c5c:	00 00 
  401c5e:	48 89 84 24 30 04 00 	mov    %rax,0x430(%rsp)
  401c65:	00 
  401c66:	0f 57 c0             	xorps  %xmm0,%xmm0
  401c69:	0f 29 44 24 10       	movaps %xmm0,0x10(%rsp)
  401c6e:	48 c7 c1 20 b1 40 00 	mov    $0x40b120,%rcx
  401c75:	48 83 39 00          	cmpq   $0x0,(%rcx)
  401c79:	75 17                	jne    401c92 <__intel_new_feature_proc_init_n+0x52>
  401c7b:	e8 00 40 00 00       	call   405c80 <__intel_cpu_features_init>
  401c80:	85 c0                	test   %eax,%eax
  401c82:	0f 85 0b 02 00 00    	jne    401e93 <__intel_new_feature_proc_init_n+0x253>
  401c88:	48 83 39 00          	cmpq   $0x0,(%rcx)
  401c8c:	0f 84 01 02 00 00    	je     401e93 <__intel_new_feature_proc_init_n+0x253>
  401c92:	83 ff 02             	cmp    $0x2,%edi
  401c95:	7d 38                	jge    401ccf <__intel_new_feature_proc_init_n+0x8f>
  401c97:	48 63 c7             	movslq %edi,%rax
  401c9a:	48 8b 0c c1          	mov    (%rcx,%rax,8),%rcx
  401c9e:	48 f7 d1             	not    %rcx
  401ca1:	48 85 ce             	test   %rcx,%rsi
  401ca4:	75 48                	jne    401cee <__intel_new_feature_proc_init_n+0xae>
  401ca6:	64 48 8b 04 25 28 00 	mov    %fs:0x28,%rax
  401cad:	00 00 
  401caf:	48 3b 84 24 30 04 00 	cmp    0x430(%rsp),%rax
  401cb6:	00 
  401cb7:	0f 85 e8 02 00 00    	jne    401fa5 <__intel_new_feature_proc_init_n+0x365>
  401cbd:	48 81 c4 38 04 00 00 	add    $0x438,%rsp
  401cc4:	5b                   	pop    %rbx
  401cc5:	41 5c                	pop    %r12
  401cc7:	41 5d                	pop    %r13
  401cc9:	41 5e                	pop    %r14
  401ccb:	41 5f                	pop    %r15
  401ccd:	5d                   	pop    %rbp
  401cce:	c3                   	ret
  401ccf:	bf 01 00 00 00       	mov    $0x1,%edi
  401cd4:	31 f6                	xor    %esi,%esi
  401cd6:	31 d2                	xor    %edx,%edx
  401cd8:	31 c0                	xor    %eax,%eax
  401cda:	e8 51 61 00 00       	call   407e30 <__libirc_print>
  401cdf:	bf 01 00 00 00       	mov    $0x1,%edi
  401ce4:	be 3a 00 00 00       	mov    $0x3a,%esi
  401ce9:	e9 bf 01 00 00       	jmp    401ead <__intel_new_feature_proc_init_n+0x26d>
  401cee:	48 21 f1             	and    %rsi,%rcx
  401cf1:	48 89 4c c4 10       	mov    %rcx,0x10(%rsp,%rax,8)
  401cf6:	45 31 ff             	xor    %r15d,%r15d
  401cf9:	bf 39 00 00 00       	mov    $0x39,%edi
  401cfe:	31 f6                	xor    %esi,%esi
  401d00:	31 c0                	xor    %eax,%eax
  401d02:	e8 e9 5e 00 00       	call   407bf0 <__libirc_get_msg>
  401d07:	48 89 04 24          	mov    %rax,(%rsp)
  401d0b:	c6 44 24 30 00       	movb   $0x0,0x30(%rsp)
  401d10:	bd 01 00 00 00       	mov    $0x1,%ebp
  401d15:	4c 8d 64 24 10       	lea    0x10(%rsp),%r12
  401d1a:	4c 8d 6c 24 30       	lea    0x30(%rsp),%r13
  401d1f:	31 db                	xor    %ebx,%ebx
  401d21:	eb 31                	jmp    401d54 <__intel_new_feature_proc_init_n+0x114>
  401d23:	b8 ff 03 00 00       	mov    $0x3ff,%eax
  401d28:	44 29 f8             	sub    %r15d,%eax
  401d2b:	48 63 d0             	movslq %eax,%rdx
  401d2e:	b9 00 04 00 00       	mov    $0x400,%ecx
  401d33:	4c 89 ef             	mov    %r13,%rdi
  401d36:	4c 89 f6             	mov    %r14,%rsi
  401d39:	e8 22 f4 ff ff       	call   401160 <__strncat_chk@plt>
  401d3e:	4c 89 ef             	mov    %r13,%rdi
  401d41:	e8 9a f3 ff ff       	call   4010e0 <strlen@plt>
  401d46:	49 89 c7             	mov    %rax,%r15
  401d49:	ff c5                	inc    %ebp
  401d4b:	83 fd 47             	cmp    $0x47,%ebp
  401d4e:	0f 84 26 01 00 00    	je     401e7a <__intel_new_feature_proc_init_n+0x23a>
  401d54:	89 e8                	mov    %ebp,%eax
  401d56:	e8 15 55 00 00       	call   407270 <__libirc_get_feature_bitpos>
  401d5b:	85 c0                	test   %eax,%eax
  401d5d:	78 ea                	js     401d49 <__intel_new_feature_proc_init_n+0x109>
  401d5f:	4c 89 e7             	mov    %r12,%rdi
  401d62:	89 ee                	mov    %ebp,%esi
  401d64:	e8 47 55 00 00       	call   4072b0 <__libirc_get_cpu_feature>
  401d69:	85 c0                	test   %eax,%eax
  401d6b:	74 dc                	je     401d49 <__intel_new_feature_proc_init_n+0x109>
  401d6d:	4c 89 e7             	mov    %r12,%rdi
  401d70:	89 ee                	mov    %ebp,%esi
  401d72:	e8 39 55 00 00       	call   4072b0 <__libirc_get_cpu_feature>
  401d77:	85 c0                	test   %eax,%eax
  401d79:	0f 88 e6 00 00 00    	js     401e65 <__intel_new_feature_proc_init_n+0x225>
  401d7f:	89 ef                	mov    %ebp,%edi
  401d81:	e8 fa 49 00 00       	call   406780 <__libirc_get_feature_name>
  401d86:	48 85 c0             	test   %rax,%rax
  401d89:	0f 84 d6 00 00 00    	je     401e65 <__intel_new_feature_proc_init_n+0x225>
  401d8f:	49 89 c6             	mov    %rax,%r14
  401d92:	80 38 00             	cmpb   $0x0,(%rax)
  401d95:	0f 84 ca 00 00 00    	je     401e65 <__intel_new_feature_proc_init_n+0x225>
  401d9b:	80 7c 24 30 00       	cmpb   $0x0,0x30(%rsp)
  401da0:	74 81                	je     401d23 <__intel_new_feature_proc_init_n+0xe3>
  401da2:	48 85 db             	test   %rbx,%rbx
  401da5:	0f 84 b2 00 00 00    	je     401e5d <__intel_new_feature_proc_init_n+0x21d>
  401dab:	4d 89 ec             	mov    %r13,%r12
  401dae:	48 89 df             	mov    %rbx,%rdi
  401db1:	e8 2a f3 ff ff       	call   4010e0 <strlen@plt>
  401db6:	49 89 c5             	mov    %rax,%r13
  401db9:	48 8d 3d 95 62 00 00 	lea    0x6295(%rip),%rdi        # 408055 <_IO_stdin_used+0x55>
  401dc0:	e8 1b f3 ff ff       	call   4010e0 <strlen@plt>
  401dc5:	48 89 44 24 28       	mov    %rax,0x28(%rsp)
  401dca:	48 89 5c 24 08       	mov    %rbx,0x8(%rsp)
  401dcf:	49 63 df             	movslq %r15d,%rbx
  401dd2:	48 8b 3c 24          	mov    (%rsp),%rdi
  401dd6:	e8 05 f3 ff ff       	call   4010e0 <strlen@plt>
  401ddb:	49 89 c7             	mov    %rax,%r15
  401dde:	4c 89 f7             	mov    %r14,%rdi
  401de1:	e8 fa f2 ff ff       	call   4010e0 <strlen@plt>
  401de6:	49 01 dd             	add    %rbx,%r13
  401de9:	4c 03 6c 24 28       	add    0x28(%rsp),%r13
  401dee:	4c 01 f8             	add    %r15,%rax
  401df1:	4c 01 e8             	add    %r13,%rax
  401df4:	b9 ff 03 00 00       	mov    $0x3ff,%ecx
  401df9:	29 d9                	sub    %ebx,%ecx
  401dfb:	48 63 d1             	movslq %ecx,%rdx
  401dfe:	48 3d ff 03 00 00    	cmp    $0x3ff,%rax
  401e04:	0f 87 dd 00 00 00    	ja     401ee7 <__intel_new_feature_proc_init_n+0x2a7>
  401e0a:	b9 00 04 00 00       	mov    $0x400,%ecx
  401e0f:	4d 89 e5             	mov    %r12,%r13
  401e12:	4c 89 e7             	mov    %r12,%rdi
  401e15:	48 8d 35 39 62 00 00 	lea    0x6239(%rip),%rsi        # 408055 <_IO_stdin_used+0x55>
  401e1c:	e8 3f f3 ff ff       	call   401160 <__strncat_chk@plt>
  401e21:	4c 89 e7             	mov    %r12,%rdi
  401e24:	e8 b7 f2 ff ff       	call   4010e0 <strlen@plt>
  401e29:	48 c1 e0 20          	shl    $0x20,%rax
  401e2d:	48 ba 00 00 00 00 ff 	movabs $0x3ff00000000,%rdx
  401e34:	03 00 00 
  401e37:	48 29 c2             	sub    %rax,%rdx
  401e3a:	48 c1 fa 20          	sar    $0x20,%rdx
  401e3e:	b9 00 04 00 00       	mov    $0x400,%ecx
  401e43:	4c 89 e7             	mov    %r12,%rdi
  401e46:	48 8b 74 24 08       	mov    0x8(%rsp),%rsi
  401e4b:	e8 10 f3 ff ff       	call   401160 <__strncat_chk@plt>
  401e50:	4c 89 f3             	mov    %r14,%rbx
  401e53:	4c 8d 64 24 10       	lea    0x10(%rsp),%r12
  401e58:	e9 e1 fe ff ff       	jmp    401d3e <__intel_new_feature_proc_init_n+0xfe>
  401e5d:	4c 89 f3             	mov    %r14,%rbx
  401e60:	e9 e4 fe ff ff       	jmp    401d49 <__intel_new_feature_proc_init_n+0x109>
  401e65:	bf 01 00 00 00       	mov    $0x1,%edi
  401e6a:	31 f6                	xor    %esi,%esi
  401e6c:	31 d2                	xor    %edx,%edx
  401e6e:	31 c0                	xor    %eax,%eax
  401e70:	e8 bb 5f 00 00       	call   407e30 <__libirc_print>
  401e75:	e9 ce 00 00 00       	jmp    401f48 <__intel_new_feature_proc_init_n+0x308>
  401e7a:	48 85 db             	test   %rbx,%rbx
  401e7d:	0f 84 ac 00 00 00    	je     401f2f <__intel_new_feature_proc_init_n+0x2ef>
  401e83:	49 89 dc             	mov    %rbx,%r12
  401e86:	b8 ff 03 00 00       	mov    $0x3ff,%eax
  401e8b:	44 29 f8             	sub    %r15d,%eax
  401e8e:	48 63 d0             	movslq %eax,%rdx
  401e91:	eb 59                	jmp    401eec <__intel_new_feature_proc_init_n+0x2ac>
  401e93:	bf 01 00 00 00       	mov    $0x1,%edi
  401e98:	31 f6                	xor    %esi,%esi
  401e9a:	31 d2                	xor    %edx,%edx
  401e9c:	31 c0                	xor    %eax,%eax
  401e9e:	e8 8d 5f 00 00       	call   407e30 <__libirc_print>
  401ea3:	bf 01 00 00 00       	mov    $0x1,%edi
  401ea8:	be 3b 00 00 00       	mov    $0x3b,%esi
  401ead:	31 d2                	xor    %edx,%edx
  401eaf:	31 c0                	xor    %eax,%eax
  401eb1:	e8 7a 5f 00 00       	call   407e30 <__libirc_print>
  401eb6:	64 48 8b 04 25 28 00 	mov    %fs:0x28,%rax
  401ebd:	00 00 
  401ebf:	48 3b 84 24 30 04 00 	cmp    0x430(%rsp),%rax
  401ec6:	00 
  401ec7:	0f 85 d8 00 00 00    	jne    401fa5 <__intel_new_feature_proc_init_n+0x365>
  401ecd:	bf 01 00 00 00       	mov    $0x1,%edi
  401ed2:	31 f6                	xor    %esi,%esi
  401ed4:	31 d2                	xor    %edx,%edx
  401ed6:	31 c0                	xor    %eax,%eax
  401ed8:	e8 53 5f 00 00       	call   407e30 <__libirc_print>
  401edd:	bf 01 00 00 00       	mov    $0x1,%edi
  401ee2:	e8 89 f1 ff ff       	call   401070 <exit@plt>
  401ee7:	4c 8b 64 24 08       	mov    0x8(%rsp),%r12
  401eec:	4c 8d 74 24 30       	lea    0x30(%rsp),%r14
  401ef1:	b9 00 04 00 00       	mov    $0x400,%ecx
  401ef6:	4c 89 f7             	mov    %r14,%rdi
  401ef9:	48 8b 34 24          	mov    (%rsp),%rsi
  401efd:	e8 5e f2 ff ff       	call   401160 <__strncat_chk@plt>
  401f02:	4c 89 f7             	mov    %r14,%rdi
  401f05:	e8 d6 f1 ff ff       	call   4010e0 <strlen@plt>
  401f0a:	48 c1 e0 20          	shl    $0x20,%rax
  401f0e:	48 ba 00 00 00 00 ff 	movabs $0x3ff00000000,%rdx
  401f15:	03 00 00 
  401f18:	48 29 c2             	sub    %rax,%rdx
  401f1b:	48 c1 fa 20          	sar    $0x20,%rdx
  401f1f:	b9 00 04 00 00       	mov    $0x400,%ecx
  401f24:	4c 89 f7             	mov    %r14,%rdi
  401f27:	4c 89 e6             	mov    %r12,%rsi
  401f2a:	e8 31 f2 ff ff       	call   401160 <__strncat_chk@plt>
  401f2f:	0f b6 5c 24 30       	movzbl 0x30(%rsp),%ebx
  401f34:	bf 01 00 00 00       	mov    $0x1,%edi
  401f39:	31 f6                	xor    %esi,%esi
  401f3b:	31 d2                	xor    %edx,%edx
  401f3d:	31 c0                	xor    %eax,%eax
  401f3f:	e8 ec 5e 00 00       	call   407e30 <__libirc_print>
  401f44:	84 db                	test   %bl,%bl
  401f46:	75 15                	jne    401f5d <__intel_new_feature_proc_init_n+0x31d>
  401f48:	bf 01 00 00 00       	mov    $0x1,%edi
  401f4d:	be 3a 00 00 00       	mov    $0x3a,%esi
  401f52:	31 d2                	xor    %edx,%edx
  401f54:	31 c0                	xor    %eax,%eax
  401f56:	e8 d5 5e 00 00       	call   407e30 <__libirc_print>
  401f5b:	eb 1b                	jmp    401f78 <__intel_new_feature_proc_init_n+0x338>
  401f5d:	48 8d 4c 24 30       	lea    0x30(%rsp),%rcx
  401f62:	bf 01 00 00 00       	mov    $0x1,%edi
  401f67:	be 38 00 00 00       	mov    $0x38,%esi
  401f6c:	ba 01 00 00 00       	mov    $0x1,%edx
  401f71:	31 c0                	xor    %eax,%eax
  401f73:	e8 b8 5e 00 00       	call   407e30 <__libirc_print>
  401f78:	bf 01 00 00 00       	mov    $0x1,%edi
  401f7d:	31 f6                	xor    %esi,%esi
  401f7f:	31 d2                	xor    %edx,%edx
  401f81:	31 c0                	xor    %eax,%eax
  401f83:	e8 a8 5e 00 00       	call   407e30 <__libirc_print>
  401f88:	64 48 8b 04 25 28 00 	mov    %fs:0x28,%rax
  401f8f:	00 00 
  401f91:	48 3b 84 24 30 04 00 	cmp    0x430(%rsp),%rax
  401f98:	00 
  401f99:	75 0a                	jne    401fa5 <__intel_new_feature_proc_init_n+0x365>
  401f9b:	bf 01 00 00 00       	mov    $0x1,%edi
  401fa0:	e8 cb f0 ff ff       	call   401070 <exit@plt>
  401fa5:	e8 86 f1 ff ff       	call   401130 <__stack_chk_fail@plt>
  401faa:	66 0f 1f 44 00 00    	nopw   0x0(%rax,%rax,1)

0000000000401fb0 <__intel_new_feature_proc_init>:
  401fb0:	f3 0f 1e fa          	endbr64
  401fb4:	53                   	push   %rbx
  401fb5:	89 fb                	mov    %edi,%ebx
  401fb7:	31 ff                	xor    %edi,%edi
  401fb9:	e8 82 fc ff ff       	call   401c40 <__intel_new_feature_proc_init_n>
  401fbe:	48 c7 c7 20 b1 40 00 	mov    $0x40b120,%rdi
  401fc5:	be 06 00 00 00       	mov    $0x6,%esi
  401fca:	e8 e1 52 00 00       	call   4072b0 <__libirc_get_cpu_feature>
  401fcf:	83 f8 01             	cmp    $0x1,%eax
  401fd2:	75 0a                	jne    401fde <__intel_new_feature_proc_init+0x2e>
  401fd4:	31 ff                	xor    %edi,%edi
  401fd6:	89 de                	mov    %ebx,%esi
  401fd8:	5b                   	pop    %rbx
  401fd9:	e9 52 00 00 00       	jmp    402030 <__intel_proc_init_ftzdazule>
  401fde:	85 c0                	test   %eax,%eax
  401fe0:	78 02                	js     401fe4 <__intel_new_feature_proc_init+0x34>
  401fe2:	5b                   	pop    %rbx
  401fe3:	c3                   	ret
  401fe4:	bf 01 00 00 00       	mov    $0x1,%edi
  401fe9:	31 f6                	xor    %esi,%esi
  401feb:	31 d2                	xor    %edx,%edx
  401fed:	31 c0                	xor    %eax,%eax
  401fef:	e8 3c 5e 00 00       	call   407e30 <__libirc_print>
  401ff4:	bf 01 00 00 00       	mov    $0x1,%edi
  401ff9:	be 3a 00 00 00       	mov    $0x3a,%esi
  401ffe:	31 d2                	xor    %edx,%edx
  402000:	31 c0                	xor    %eax,%eax
  402002:	e8 29 5e 00 00       	call   407e30 <__libirc_print>
  402007:	bf 01 00 00 00       	mov    $0x1,%edi
  40200c:	31 f6                	xor    %esi,%esi
  40200e:	31 d2                	xor    %edx,%edx
  402010:	31 c0                	xor    %eax,%eax
  402012:	e8 19 5e 00 00       	call   407e30 <__libirc_print>
  402017:	bf 01 00 00 00       	mov    $0x1,%edi
  40201c:	e8 4f f0 ff ff       	call   401070 <exit@plt>
  402021:	0f 1f 00             	nopl   (%rax)
  402024:	66 2e 0f 1f 84 00 00 	cs nopw 0x0(%rax,%rax,1)
  40202b:	00 00 00 
  40202e:	66 90                	xchg   %ax,%ax

0000000000402030 <__intel_proc_init_ftzdazule>:
  402030:	f3 0f 1e fa          	endbr64
  402034:	55                   	push   %rbp
  402035:	41 56                	push   %r14
  402037:	53                   	push   %rbx
  402038:	48 81 ec 20 02 00 00 	sub    $0x220,%rsp
  40203f:	89 f3                	mov    %esi,%ebx
  402041:	41 89 f6             	mov    %esi,%r14d
  402044:	41 83 e6 04          	and    $0x4,%r14d
  402048:	89 f5                	mov    %esi,%ebp
  40204a:	83 e5 02             	and    $0x2,%ebp
  40204d:	74 07                	je     402056 <__intel_proc_init_ftzdazule+0x26>
  40204f:	89 f8                	mov    %edi,%eax
  402051:	83 e0 02             	and    $0x2,%eax
  402054:	74 12                	je     402068 <__intel_proc_init_ftzdazule+0x38>
  402056:	31 c0                	xor    %eax,%eax
  402058:	45 85 f6             	test   %r14d,%r14d
  40205b:	74 38                	je     402095 <__intel_proc_init_ftzdazule+0x65>
  40205d:	b8 01 00 00 00       	mov    $0x1,%eax
  402062:	40 f6 c7 04          	test   $0x4,%dil
  402066:	75 2d                	jne    402095 <__intel_proc_init_ftzdazule+0x65>
  402068:	48 8d 7c 24 20       	lea    0x20(%rsp),%rdi
  40206d:	ba 00 02 00 00       	mov    $0x200,%edx
  402072:	31 f6                	xor    %esi,%esi
  402074:	e8 f7 f0 ff ff       	call   401170 <memset@plt>
  402079:	0f ae 44 24 20       	fxsave 0x20(%rsp)
  40207e:	8b 44 24 3c          	mov    0x3c(%rsp),%eax
  402082:	89 c1                	mov    %eax,%ecx
  402084:	c1 e1 19             	shl    $0x19,%ecx
  402087:	c1 f9 1f             	sar    $0x1f,%ecx
  40208a:	21 cd                	and    %ecx,%ebp
  40208c:	c1 e0 0e             	shl    $0xe,%eax
  40208f:	c1 f8 1f             	sar    $0x1f,%eax
  402092:	44 21 f0             	and    %r14d,%eax
  402095:	f6 c3 01             	test   $0x1,%bl
  402098:	74 17                	je     4020b1 <__intel_proc_init_ftzdazule+0x81>
  40209a:	0f ae 5c 24 1c       	stmxcsr 0x1c(%rsp)
  40209f:	b9 00 80 00 00       	mov    $0x8000,%ecx
  4020a4:	0b 4c 24 1c          	or     0x1c(%rsp),%ecx
  4020a8:	89 4c 24 18          	mov    %ecx,0x18(%rsp)
  4020ac:	0f ae 54 24 18       	ldmxcsr 0x18(%rsp)
  4020b1:	85 ed                	test   %ebp,%ebp
  4020b3:	74 15                	je     4020ca <__intel_proc_init_ftzdazule+0x9a>
  4020b5:	0f ae 5c 24 14       	stmxcsr 0x14(%rsp)
  4020ba:	8b 4c 24 14          	mov    0x14(%rsp),%ecx
  4020be:	83 c9 40             	or     $0x40,%ecx
  4020c1:	89 4c 24 10          	mov    %ecx,0x10(%rsp)
  4020c5:	0f ae 54 24 10       	ldmxcsr 0x10(%rsp)
  4020ca:	85 c0                	test   %eax,%eax
  4020cc:	74 17                	je     4020e5 <__intel_proc_init_ftzdazule+0xb5>
  4020ce:	0f ae 5c 24 0c       	stmxcsr 0xc(%rsp)
  4020d3:	b8 00 00 02 00       	mov    $0x20000,%eax
  4020d8:	0b 44 24 0c          	or     0xc(%rsp),%eax
  4020dc:	89 44 24 08          	mov    %eax,0x8(%rsp)
  4020e0:	0f ae 54 24 08       	ldmxcsr 0x8(%rsp)
  4020e5:	48 81 c4 20 02 00 00 	add    $0x220,%rsp
  4020ec:	5b                   	pop    %rbx
  4020ed:	41 5e                	pop    %r14
  4020ef:	5d                   	pop    %rbp
  4020f0:	c3                   	ret
  4020f1:	0f 1f 00             	nopl   (%rax)
  4020f4:	66 2e 0f 1f 84 00 00 	cs nopw 0x0(%rax,%rax,1)
  4020fb:	00 00 00 
  4020fe:	66 90                	xchg   %ax,%ax

0000000000402100 <__intel_mic_avx512f_memset>:
  402100:	f3 0f 1e fa          	endbr64
  402104:	48 89 f8             	mov    %rdi,%rax
  402107:	48 c7 c1 d0 b0 40 00 	mov    $0x40b0d0,%rcx
  40210e:	49 b8 01 01 01 01 01 	movabs $0x101010101010101,%r8
  402115:	01 01 01 
  402118:	4c 0f b6 ce          	movzbq %sil,%r9
  40211c:	4d 0f af c8          	imul   %r8,%r9
  402120:	48 8d 35 99 14 00 00 	lea    0x1499(%rip),%rsi        # 4035c0 <__intel_mic_avx512f_memset+0x14c0>
  402127:	62 d2 7d 48 7c c1    	vpbroadcastd %r9d,%zmm0
  40212d:	48 81 fa 80 00 00 00 	cmp    $0x80,%rdx
  402134:	7d 0c                	jge    402142 <__intel_mic_avx512f_memset+0x42>
  402136:	49 89 f8             	mov    %rdi,%r8
  402139:	49 01 d0             	add    %rdx,%r8
  40213c:	48 2b 34 d6          	sub    (%rsi,%rdx,8),%rsi
  402140:	ff e6                	jmp    *%rsi
  402142:	48 8d 35 77 02 00 00 	lea    0x277(%rip),%rsi        # 4023c0 <__intel_mic_avx512f_memset+0x2c0>
  402149:	49 89 fa             	mov    %rdi,%r10
  40214c:	49 f7 da             	neg    %r10
  40214f:	49 83 c2 40          	add    $0x40,%r10
  402153:	49 83 e2 3f          	and    $0x3f,%r10
  402157:	74 12                	je     40216b <__intel_mic_avx512f_memset+0x6b>
  402159:	4c 29 d2             	sub    %r10,%rdx
  40215c:	49 89 f8             	mov    %rdi,%r8
  40215f:	4d 01 d0             	add    %r10,%r8
  402162:	4a 2b 34 d6          	sub    (%rsi,%r10,8),%rsi
  402166:	ff e6                	jmp    *%rsi
  402168:	4c 01 d7             	add    %r10,%rdi
  40216b:	48 81 fa 00 02 00 00 	cmp    $0x200,%rdx
  402172:	0f 8c 21 01 00 00    	jl     402299 <__intel_mic_avx512f_memset+0x199>
  402178:	48 3b 11             	cmp    (%rcx),%rdx
  40217b:	73 53                	jae    4021d0 <__intel_mic_avx512f_memset+0xd0>
  40217d:	62 f1 7c 48 29 07    	vmovaps %zmm0,(%rdi)
  402183:	62 f1 7c 48 29 47 01 	vmovaps %zmm0,0x40(%rdi)
  40218a:	62 f1 7c 48 29 47 02 	vmovaps %zmm0,0x80(%rdi)
  402191:	62 f1 7c 48 29 47 03 	vmovaps %zmm0,0xc0(%rdi)
  402198:	48 8d bf 00 02 00 00 	lea    0x200(%rdi),%rdi
  40219f:	48 81 ea 00 02 00 00 	sub    $0x200,%rdx
  4021a6:	62 f1 7c 48 29 47 fc 	vmovaps %zmm0,-0x100(%rdi)
  4021ad:	62 f1 7c 48 29 47 fd 	vmovaps %zmm0,-0xc0(%rdi)
  4021b4:	62 f1 7c 48 29 47 fe 	vmovaps %zmm0,-0x80(%rdi)
  4021bb:	62 f1 7c 48 29 47 ff 	vmovaps %zmm0,-0x40(%rdi)
  4021c2:	48 81 fa 00 02 00 00 	cmp    $0x200,%rdx
  4021c9:	7d b2                	jge    40217d <__intel_mic_avx512f_memset+0x7d>
  4021cb:	e9 c9 00 00 00       	jmp    402299 <__intel_mic_avx512f_memset+0x199>
  4021d0:	62 f1 7d 48 e7 07    	vmovntdq %zmm0,(%rdi)
  4021d6:	62 f1 7d 48 e7 47 01 	vmovntdq %zmm0,0x40(%rdi)
  4021dd:	62 f1 7d 48 e7 47 02 	vmovntdq %zmm0,0x80(%rdi)
  4021e4:	62 f1 7d 48 e7 47 03 	vmovntdq %zmm0,0xc0(%rdi)
  4021eb:	48 8d bf 00 02 00 00 	lea    0x200(%rdi),%rdi
  4021f2:	48 81 ea 00 02 00 00 	sub    $0x200,%rdx
  4021f9:	62 f1 7d 48 e7 47 fc 	vmovntdq %zmm0,-0x100(%rdi)
  402200:	62 f1 7d 48 e7 47 fd 	vmovntdq %zmm0,-0xc0(%rdi)
  402207:	62 f1 7d 48 e7 47 fe 	vmovntdq %zmm0,-0x80(%rdi)
  40220e:	62 f1 7d 48 e7 47 ff 	vmovntdq %zmm0,-0x40(%rdi)
  402215:	48 81 fa 00 02 00 00 	cmp    $0x200,%rdx
  40221c:	7d b2                	jge    4021d0 <__intel_mic_avx512f_memset+0xd0>
  40221e:	0f ae f8             	sfence
  402221:	eb 76                	jmp    402299 <__intel_mic_avx512f_memset+0x199>
  402223:	44 88 0f             	mov    %r9b,(%rdi)
  402226:	e9 3d ff ff ff       	jmp    402168 <__intel_mic_avx512f_memset+0x68>
  40222b:	66 44 89 0f          	mov    %r9w,(%rdi)
  40222f:	e9 34 ff ff ff       	jmp    402168 <__intel_mic_avx512f_memset+0x68>
  402234:	66 44 89 0f          	mov    %r9w,(%rdi)
  402238:	44 88 4f 02          	mov    %r9b,0x2(%rdi)
  40223c:	e9 27 ff ff ff       	jmp    402168 <__intel_mic_avx512f_memset+0x68>
  402241:	44 89 0f             	mov    %r9d,(%rdi)
  402244:	e9 1f ff ff ff       	jmp    402168 <__intel_mic_avx512f_memset+0x68>
  402249:	44 89 0f             	mov    %r9d,(%rdi)
  40224c:	45 89 48 fc          	mov    %r9d,-0x4(%r8)
  402250:	e9 13 ff ff ff       	jmp    402168 <__intel_mic_avx512f_memset+0x68>
  402255:	4c 89 0f             	mov    %r9,(%rdi)
  402258:	e9 0b ff ff ff       	jmp    402168 <__intel_mic_avx512f_memset+0x68>
  40225d:	4c 89 0f             	mov    %r9,(%rdi)
  402260:	4d 89 48 f8          	mov    %r9,-0x8(%r8)
  402264:	e9 ff fe ff ff       	jmp    402168 <__intel_mic_avx512f_memset+0x68>
  402269:	c5 f8 11 07          	vmovups %xmm0,(%rdi)
  40226d:	e9 f6 fe ff ff       	jmp    402168 <__intel_mic_avx512f_memset+0x68>
  402272:	c5 f8 11 07          	vmovups %xmm0,(%rdi)
  402276:	c4 c1 78 11 40 f0    	vmovups %xmm0,-0x10(%r8)
  40227c:	e9 e7 fe ff ff       	jmp    402168 <__intel_mic_avx512f_memset+0x68>
  402281:	c5 fc 11 07          	vmovups %ymm0,(%rdi)
  402285:	e9 de fe ff ff       	jmp    402168 <__intel_mic_avx512f_memset+0x68>
  40228a:	c5 fc 11 07          	vmovups %ymm0,(%rdi)
  40228e:	c4 c1 7c 11 40 e0    	vmovups %ymm0,-0x20(%r8)
  402294:	e9 cf fe ff ff       	jmp    402168 <__intel_mic_avx512f_memset+0x68>
  402299:	49 89 f8             	mov    %rdi,%r8
  40229c:	49 01 d0             	add    %rdx,%r8
  40229f:	48 01 d7             	add    %rdx,%rdi
  4022a2:	48 83 e7 c0          	and    $0xffffffffffffffc0,%rdi
  4022a6:	48 8d 35 13 03 00 00 	lea    0x313(%rip),%rsi        # 4025c0 <__intel_mic_avx512f_memset+0x4c0>
  4022ad:	48 2b 34 d6          	sub    (%rsi,%rdx,8),%rsi
  4022b1:	ff e6                	jmp    *%rsi
  4022b3:	62 f1 7c 48 29 47 f9 	vmovaps %zmm0,-0x1c0(%rdi)
  4022ba:	62 f1 7c 48 29 47 fa 	vmovaps %zmm0,-0x180(%rdi)
  4022c1:	62 f1 7c 48 29 47 fb 	vmovaps %zmm0,-0x140(%rdi)
  4022c8:	62 f1 7c 48 29 47 fc 	vmovaps %zmm0,-0x100(%rdi)
  4022cf:	62 f1 7c 48 29 47 fd 	vmovaps %zmm0,-0xc0(%rdi)
  4022d6:	62 f1 7c 48 29 47 fe 	vmovaps %zmm0,-0x80(%rdi)
  4022dd:	62 f1 7c 48 29 47 ff 	vmovaps %zmm0,-0x40(%rdi)
  4022e4:	4c 89 c2             	mov    %r8,%rdx
  4022e7:	48 83 e2 3f          	and    $0x3f,%rdx
  4022eb:	48 8d 35 ce 02 00 00 	lea    0x2ce(%rip),%rsi        # 4025c0 <__intel_mic_avx512f_memset+0x4c0>
  4022f2:	48 2b 34 d6          	sub    (%rsi,%rdx,8),%rsi
  4022f6:	ff e6                	jmp    *%rsi
  4022f8:	44 88 0f             	mov    %r9b,(%rdi)
  4022fb:	e9 c0 16 00 00       	jmp    4039c0 <__intel_mic_avx512f_memset+0x18c0>
  402300:	e9 bb 16 00 00       	jmp    4039c0 <__intel_mic_avx512f_memset+0x18c0>
  402305:	66 44 89 0f          	mov    %r9w,(%rdi)
  402309:	e9 b2 16 00 00       	jmp    4039c0 <__intel_mic_avx512f_memset+0x18c0>
  40230e:	66 44 89 0f          	mov    %r9w,(%rdi)
  402312:	44 88 4f 02          	mov    %r9b,0x2(%rdi)
  402316:	e9 a5 16 00 00       	jmp    4039c0 <__intel_mic_avx512f_memset+0x18c0>
  40231b:	44 89 0f             	mov    %r9d,(%rdi)
  40231e:	e9 9d 16 00 00       	jmp    4039c0 <__intel_mic_avx512f_memset+0x18c0>
  402323:	44 89 0f             	mov    %r9d,(%rdi)
  402326:	45 89 48 fc          	mov    %r9d,-0x4(%r8)
  40232a:	e9 91 16 00 00       	jmp    4039c0 <__intel_mic_avx512f_memset+0x18c0>
  40232f:	4c 89 0f             	mov    %r9,(%rdi)
  402332:	e9 89 16 00 00       	jmp    4039c0 <__intel_mic_avx512f_memset+0x18c0>
  402337:	4c 89 0f             	mov    %r9,(%rdi)
  40233a:	4d 89 48 f8          	mov    %r9,-0x8(%r8)
  40233e:	e9 7d 16 00 00       	jmp    4039c0 <__intel_mic_avx512f_memset+0x18c0>
  402343:	c5 f8 11 07          	vmovups %xmm0,(%rdi)
  402347:	e9 74 16 00 00       	jmp    4039c0 <__intel_mic_avx512f_memset+0x18c0>
  40234c:	c5 f8 11 07          	vmovups %xmm0,(%rdi)
  402350:	c4 c1 78 11 40 f0    	vmovups %xmm0,-0x10(%r8)
  402356:	e9 65 16 00 00       	jmp    4039c0 <__intel_mic_avx512f_memset+0x18c0>
  40235b:	c5 fc 11 07          	vmovups %ymm0,(%rdi)
  40235f:	e9 5c 16 00 00       	jmp    4039c0 <__intel_mic_avx512f_memset+0x18c0>
  402364:	c5 fc 11 07          	vmovups %ymm0,(%rdi)
  402368:	c4 c1 7c 11 40 e0    	vmovups %ymm0,-0x20(%r8)
  40236e:	e9 4d 16 00 00       	jmp    4039c0 <__intel_mic_avx512f_memset+0x18c0>
  402373:	62 f1 7c 48 11 07    	vmovups %zmm0,(%rdi)
  402379:	e9 42 16 00 00       	jmp    4039c0 <__intel_mic_avx512f_memset+0x18c0>
  40237e:	62 f1 7c 48 11 07    	vmovups %zmm0,(%rdi)
  402384:	62 d1 7c 48 11 40 ff 	vmovups %zmm0,-0x40(%r8)
  40238b:	e9 30 16 00 00       	jmp    4039c0 <__intel_mic_avx512f_memset+0x18c0>
  402390:	66 66 66 66 66 66 2e 	data16 data16 data16 data16 data16 cs nopw 0x0(%rax,%rax,1)
  402397:	0f 1f 84 00 00 00 00 
  40239e:	00 
  40239f:	66 66 66 66 66 66 2e 	data16 data16 data16 data16 data16 cs nopw 0x0(%rax,%rax,1)
  4023a6:	0f 1f 84 00 00 00 00 
  4023ad:	00 
  4023ae:	66 66 66 66 66 66 2e 	data16 data16 data16 data16 data16 cs nopw 0x0(%rax,%rax,1)
  4023b5:	0f 1f 84 00 00 00 00 
  4023bc:	00 
  4023bd:	0f 1f 00             	nopl   (%rax)
  4023c0:	9a                   	(bad)
  4023c1:	01 00                	add    %eax,(%rax)
  4023c3:	00 00                	add    %al,(%rax)
  4023c5:	00 00                	add    %al,(%rax)
  4023c7:	00 9d 01 00 00 00    	add    %bl,0x1(%rbp)
  4023cd:	00 00                	add    %al,(%rax)
  4023cf:	00 95 01 00 00 00    	add    %dl,0x1(%rbp)
  4023d5:	00 00                	add    %al,(%rax)
  4023d7:	00 8c 01 00 00 00 00 	add    %cl,0x0(%rcx,%rax,1)
  4023de:	00 00                	add    %al,(%rax)
  4023e0:	7f 01                	jg     4023e3 <__intel_mic_avx512f_memset+0x2e3>
  4023e2:	00 00                	add    %al,(%rax)
  4023e4:	00 00                	add    %al,(%rax)
  4023e6:	00 00                	add    %al,(%rax)
  4023e8:	77 01                	ja     4023eb <__intel_mic_avx512f_memset+0x2eb>
  4023ea:	00 00                	add    %al,(%rax)
  4023ec:	00 00                	add    %al,(%rax)
  4023ee:	00 00                	add    %al,(%rax)
  4023f0:	77 01                	ja     4023f3 <__intel_mic_avx512f_memset+0x2f3>
  4023f2:	00 00                	add    %al,(%rax)
  4023f4:	00 00                	add    %al,(%rax)
  4023f6:	00 00                	add    %al,(%rax)
  4023f8:	77 01                	ja     4023fb <__intel_mic_avx512f_memset+0x2fb>
  4023fa:	00 00                	add    %al,(%rax)
  4023fc:	00 00                	add    %al,(%rax)
  4023fe:	00 00                	add    %al,(%rax)
  402400:	6b 01 00             	imul   $0x0,(%rcx),%eax
  402403:	00 00                	add    %al,(%rax)
  402405:	00 00                	add    %al,(%rax)
  402407:	00 63 01             	add    %ah,0x1(%rbx)
  40240a:	00 00                	add    %al,(%rax)
  40240c:	00 00                	add    %al,(%rax)
  40240e:	00 00                	add    %al,(%rax)
  402410:	63 01                	movsxd (%rcx),%eax
  402412:	00 00                	add    %al,(%rax)
  402414:	00 00                	add    %al,(%rax)
  402416:	00 00                	add    %al,(%rax)
  402418:	63 01                	movsxd (%rcx),%eax
  40241a:	00 00                	add    %al,(%rax)
  40241c:	00 00                	add    %al,(%rax)
  40241e:	00 00                	add    %al,(%rax)
  402420:	63 01                	movsxd (%rcx),%eax
  402422:	00 00                	add    %al,(%rax)
  402424:	00 00                	add    %al,(%rax)
  402426:	00 00                	add    %al,(%rax)
  402428:	63 01                	movsxd (%rcx),%eax
  40242a:	00 00                	add    %al,(%rax)
  40242c:	00 00                	add    %al,(%rax)
  40242e:	00 00                	add    %al,(%rax)
  402430:	63 01                	movsxd (%rcx),%eax
  402432:	00 00                	add    %al,(%rax)
  402434:	00 00                	add    %al,(%rax)
  402436:	00 00                	add    %al,(%rax)
  402438:	63 01                	movsxd (%rcx),%eax
  40243a:	00 00                	add    %al,(%rax)
  40243c:	00 00                	add    %al,(%rax)
  40243e:	00 00                	add    %al,(%rax)
  402440:	57                   	push   %rdi
  402441:	01 00                	add    %eax,(%rax)
  402443:	00 00                	add    %al,(%rax)
  402445:	00 00                	add    %al,(%rax)
  402447:	00 4e 01             	add    %cl,0x1(%rsi)
  40244a:	00 00                	add    %al,(%rax)
  40244c:	00 00                	add    %al,(%rax)
  40244e:	00 00                	add    %al,(%rax)
  402450:	4e 01 00             	rex.WRX add %r8,(%rax)
  402453:	00 00                	add    %al,(%rax)
  402455:	00 00                	add    %al,(%rax)
  402457:	00 4e 01             	add    %cl,0x1(%rsi)
  40245a:	00 00                	add    %al,(%rax)
  40245c:	00 00                	add    %al,(%rax)
  40245e:	00 00                	add    %al,(%rax)
  402460:	4e 01 00             	rex.WRX add %r8,(%rax)
  402463:	00 00                	add    %al,(%rax)
  402465:	00 00                	add    %al,(%rax)
  402467:	00 4e 01             	add    %cl,0x1(%rsi)
  40246a:	00 00                	add    %al,(%rax)
  40246c:	00 00                	add    %al,(%rax)
  40246e:	00 00                	add    %al,(%rax)
  402470:	4e 01 00             	rex.WRX add %r8,(%rax)
  402473:	00 00                	add    %al,(%rax)
  402475:	00 00                	add    %al,(%rax)
  402477:	00 4e 01             	add    %cl,0x1(%rsi)
  40247a:	00 00                	add    %al,(%rax)
  40247c:	00 00                	add    %al,(%rax)
  40247e:	00 00                	add    %al,(%rax)
  402480:	4e 01 00             	rex.WRX add %r8,(%rax)
  402483:	00 00                	add    %al,(%rax)
  402485:	00 00                	add    %al,(%rax)
  402487:	00 4e 01             	add    %cl,0x1(%rsi)
  40248a:	00 00                	add    %al,(%rax)
  40248c:	00 00                	add    %al,(%rax)
  40248e:	00 00                	add    %al,(%rax)
  402490:	4e 01 00             	rex.WRX add %r8,(%rax)
  402493:	00 00                	add    %al,(%rax)
  402495:	00 00                	add    %al,(%rax)
  402497:	00 4e 01             	add    %cl,0x1(%rsi)
  40249a:	00 00                	add    %al,(%rax)
  40249c:	00 00                	add    %al,(%rax)
  40249e:	00 00                	add    %al,(%rax)
  4024a0:	4e 01 00             	rex.WRX add %r8,(%rax)
  4024a3:	00 00                	add    %al,(%rax)
  4024a5:	00 00                	add    %al,(%rax)
  4024a7:	00 4e 01             	add    %cl,0x1(%rsi)
  4024aa:	00 00                	add    %al,(%rax)
  4024ac:	00 00                	add    %al,(%rax)
  4024ae:	00 00                	add    %al,(%rax)
  4024b0:	4e 01 00             	rex.WRX add %r8,(%rax)
  4024b3:	00 00                	add    %al,(%rax)
  4024b5:	00 00                	add    %al,(%rax)
  4024b7:	00 4e 01             	add    %cl,0x1(%rsi)
  4024ba:	00 00                	add    %al,(%rax)
  4024bc:	00 00                	add    %al,(%rax)
  4024be:	00 00                	add    %al,(%rax)
  4024c0:	3f                   	(bad)
  4024c1:	01 00                	add    %eax,(%rax)
  4024c3:	00 00                	add    %al,(%rax)
  4024c5:	00 00                	add    %al,(%rax)
  4024c7:	00 36                	add    %dh,(%rsi)
  4024c9:	01 00                	add    %eax,(%rax)
  4024cb:	00 00                	add    %al,(%rax)
  4024cd:	00 00                	add    %al,(%rax)
  4024cf:	00 36                	add    %dh,(%rsi)
  4024d1:	01 00                	add    %eax,(%rax)
  4024d3:	00 00                	add    %al,(%rax)
  4024d5:	00 00                	add    %al,(%rax)
  4024d7:	00 36                	add    %dh,(%rsi)
  4024d9:	01 00                	add    %eax,(%rax)
  4024db:	00 00                	add    %al,(%rax)
  4024dd:	00 00                	add    %al,(%rax)
  4024df:	00 36                	add    %dh,(%rsi)
  4024e1:	01 00                	add    %eax,(%rax)
  4024e3:	00 00                	add    %al,(%rax)
  4024e5:	00 00                	add    %al,(%rax)
  4024e7:	00 36                	add    %dh,(%rsi)
  4024e9:	01 00                	add    %eax,(%rax)
  4024eb:	00 00                	add    %al,(%rax)
  4024ed:	00 00                	add    %al,(%rax)
  4024ef:	00 36                	add    %dh,(%rsi)
  4024f1:	01 00                	add    %eax,(%rax)
  4024f3:	00 00                	add    %al,(%rax)
  4024f5:	00 00                	add    %al,(%rax)
  4024f7:	00 36                	add    %dh,(%rsi)
  4024f9:	01 00                	add    %eax,(%rax)
  4024fb:	00 00                	add    %al,(%rax)
  4024fd:	00 00                	add    %al,(%rax)
  4024ff:	00 36                	add    %dh,(%rsi)
  402501:	01 00                	add    %eax,(%rax)
  402503:	00 00                	add    %al,(%rax)
  402505:	00 00                	add    %al,(%rax)
  402507:	00 36                	add    %dh,(%rsi)
  402509:	01 00                	add    %eax,(%rax)
  40250b:	00 00                	add    %al,(%rax)
  40250d:	00 00                	add    %al,(%rax)
  40250f:	00 36                	add    %dh,(%rsi)
  402511:	01 00                	add    %eax,(%rax)
  402513:	00 00                	add    %al,(%rax)
  402515:	00 00                	add    %al,(%rax)
  402517:	00 36                	add    %dh,(%rsi)
  402519:	01 00                	add    %eax,(%rax)
  40251b:	00 00                	add    %al,(%rax)
  40251d:	00 00                	add    %al,(%rax)
  40251f:	00 36                	add    %dh,(%rsi)
  402521:	01 00                	add    %eax,(%rax)
  402523:	00 00                	add    %al,(%rax)
  402525:	00 00                	add    %al,(%rax)
  402527:	00 36                	add    %dh,(%rsi)
  402529:	01 00                	add    %eax,(%rax)
  40252b:	00 00                	add    %al,(%rax)
  40252d:	00 00                	add    %al,(%rax)
  40252f:	00 36                	add    %dh,(%rsi)
  402531:	01 00                	add    %eax,(%rax)
  402533:	00 00                	add    %al,(%rax)
  402535:	00 00                	add    %al,(%rax)
  402537:	00 36                	add    %dh,(%rsi)
  402539:	01 00                	add    %eax,(%rax)
  40253b:	00 00                	add    %al,(%rax)
  40253d:	00 00                	add    %al,(%rax)
  40253f:	00 36                	add    %dh,(%rsi)
  402541:	01 00                	add    %eax,(%rax)
  402543:	00 00                	add    %al,(%rax)
  402545:	00 00                	add    %al,(%rax)
  402547:	00 36                	add    %dh,(%rsi)
  402549:	01 00                	add    %eax,(%rax)
  40254b:	00 00                	add    %al,(%rax)
  40254d:	00 00                	add    %al,(%rax)
  40254f:	00 36                	add    %dh,(%rsi)
  402551:	01 00                	add    %eax,(%rax)
  402553:	00 00                	add    %al,(%rax)
  402555:	00 00                	add    %al,(%rax)
  402557:	00 36                	add    %dh,(%rsi)
  402559:	01 00                	add    %eax,(%rax)
  40255b:	00 00                	add    %al,(%rax)
  40255d:	00 00                	add    %al,(%rax)
  40255f:	00 36                	add    %dh,(%rsi)
  402561:	01 00                	add    %eax,(%rax)
  402563:	00 00                	add    %al,(%rax)
  402565:	00 00                	add    %al,(%rax)
  402567:	00 36                	add    %dh,(%rsi)
  402569:	01 00                	add    %eax,(%rax)
  40256b:	00 00                	add    %al,(%rax)
  40256d:	00 00                	add    %al,(%rax)
  40256f:	00 36                	add    %dh,(%rsi)
  402571:	01 00                	add    %eax,(%rax)
  402573:	00 00                	add    %al,(%rax)
  402575:	00 00                	add    %al,(%rax)
  402577:	00 36                	add    %dh,(%rsi)
  402579:	01 00                	add    %eax,(%rax)
  40257b:	00 00                	add    %al,(%rax)
  40257d:	00 00                	add    %al,(%rax)
  40257f:	00 36                	add    %dh,(%rsi)
  402581:	01 00                	add    %eax,(%rax)
  402583:	00 00                	add    %al,(%rax)
  402585:	00 00                	add    %al,(%rax)
  402587:	00 36                	add    %dh,(%rsi)
  402589:	01 00                	add    %eax,(%rax)
  40258b:	00 00                	add    %al,(%rax)
  40258d:	00 00                	add    %al,(%rax)
  40258f:	00 36                	add    %dh,(%rsi)
  402591:	01 00                	add    %eax,(%rax)
  402593:	00 00                	add    %al,(%rax)
  402595:	00 00                	add    %al,(%rax)
  402597:	00 36                	add    %dh,(%rsi)
  402599:	01 00                	add    %eax,(%rax)
  40259b:	00 00                	add    %al,(%rax)
  40259d:	00 00                	add    %al,(%rax)
  40259f:	00 36                	add    %dh,(%rsi)
  4025a1:	01 00                	add    %eax,(%rax)
  4025a3:	00 00                	add    %al,(%rax)
  4025a5:	00 00                	add    %al,(%rax)
  4025a7:	00 36                	add    %dh,(%rsi)
  4025a9:	01 00                	add    %eax,(%rax)
  4025ab:	00 00                	add    %al,(%rax)
  4025ad:	00 00                	add    %al,(%rax)
  4025af:	00 36                	add    %dh,(%rsi)
  4025b1:	01 00                	add    %eax,(%rax)
  4025b3:	00 00                	add    %al,(%rax)
  4025b5:	00 00                	add    %al,(%rax)
  4025b7:	00 36                	add    %dh,(%rsi)
  4025b9:	01 00                	add    %eax,(%rax)
  4025bb:	00 00                	add    %al,(%rax)
  4025bd:	00 00                	add    %al,(%rax)
  4025bf:	00 c0                	add    %al,%al
  4025c1:	02 00                	add    (%rax),%al
  4025c3:	00 00                	add    %al,(%rax)
  4025c5:	00 00                	add    %al,(%rax)
  4025c7:	00 c8                	add    %cl,%al
  4025c9:	02 00                	add    (%rax),%al
  4025cb:	00 00                	add    %al,(%rax)
  4025cd:	00 00                	add    %al,(%rax)
  4025cf:	00 bb 02 00 00 00    	add    %bh,0x2(%rbx)
  4025d5:	00 00                	add    %al,(%rax)
  4025d7:	00 b2 02 00 00 00    	add    %dh,0x2(%rdx)
  4025dd:	00 00                	add    %al,(%rax)
  4025df:	00 a5 02 00 00 00    	add    %ah,0x2(%rbp)
  4025e5:	00 00                	add    %al,(%rax)
  4025e7:	00 9d 02 00 00 00    	add    %bl,0x2(%rbp)
  4025ed:	00 00                	add    %al,(%rax)
  4025ef:	00 9d 02 00 00 00    	add    %bl,0x2(%rbp)
  4025f5:	00 00                	add    %al,(%rax)
  4025f7:	00 9d 02 00 00 00    	add    %bl,0x2(%rbp)
  4025fd:	00 00                	add    %al,(%rax)
  4025ff:	00 91 02 00 00 00    	add    %dl,0x2(%rcx)
  402605:	00 00                	add    %al,(%rax)
  402607:	00 89 02 00 00 00    	add    %cl,0x2(%rcx)
  40260d:	00 00                	add    %al,(%rax)
  40260f:	00 89 02 00 00 00    	add    %cl,0x2(%rcx)
  402615:	00 00                	add    %al,(%rax)
  402617:	00 89 02 00 00 00    	add    %cl,0x2(%rcx)
  40261d:	00 00                	add    %al,(%rax)
  40261f:	00 89 02 00 00 00    	add    %cl,0x2(%rcx)
  402625:	00 00                	add    %al,(%rax)
  402627:	00 89 02 00 00 00    	add    %cl,0x2(%rcx)
  40262d:	00 00                	add    %al,(%rax)
  40262f:	00 89 02 00 00 00    	add    %cl,0x2(%rcx)
  402635:	00 00                	add    %al,(%rax)
  402637:	00 89 02 00 00 00    	add    %cl,0x2(%rcx)
  40263d:	00 00                	add    %al,(%rax)
  40263f:	00 7d 02             	add    %bh,0x2(%rbp)
  402642:	00 00                	add    %al,(%rax)
  402644:	00 00                	add    %al,(%rax)
  402646:	00 00                	add    %al,(%rax)
  402648:	74 02                	je     40264c <__intel_mic_avx512f_memset+0x54c>
  40264a:	00 00                	add    %al,(%rax)
  40264c:	00 00                	add    %al,(%rax)
  40264e:	00 00                	add    %al,(%rax)
  402650:	74 02                	je     402654 <__intel_mic_avx512f_memset+0x554>
  402652:	00 00                	add    %al,(%rax)
  402654:	00 00                	add    %al,(%rax)
  402656:	00 00                	add    %al,(%rax)
  402658:	74 02                	je     40265c <__intel_mic_avx512f_memset+0x55c>
  40265a:	00 00                	add    %al,(%rax)
  40265c:	00 00                	add    %al,(%rax)
  40265e:	00 00                	add    %al,(%rax)
  402660:	74 02                	je     402664 <__intel_mic_avx512f_memset+0x564>
  402662:	00 00                	add    %al,(%rax)
  402664:	00 00                	add    %al,(%rax)
  402666:	00 00                	add    %al,(%rax)
  402668:	74 02                	je     40266c <__intel_mic_avx512f_memset+0x56c>
  40266a:	00 00                	add    %al,(%rax)
  40266c:	00 00                	add    %al,(%rax)
  40266e:	00 00                	add    %al,(%rax)
  402670:	74 02                	je     402674 <__intel_mic_avx512f_memset+0x574>
  402672:	00 00                	add    %al,(%rax)
  402674:	00 00                	add    %al,(%rax)
  402676:	00 00                	add    %al,(%rax)
  402678:	74 02                	je     40267c <__intel_mic_avx512f_memset+0x57c>
  40267a:	00 00                	add    %al,(%rax)
  40267c:	00 00                	add    %al,(%rax)
  40267e:	00 00                	add    %al,(%rax)
  402680:	74 02                	je     402684 <__intel_mic_avx512f_memset+0x584>
  402682:	00 00                	add    %al,(%rax)
  402684:	00 00                	add    %al,(%rax)
  402686:	00 00                	add    %al,(%rax)
  402688:	74 02                	je     40268c <__intel_mic_avx512f_memset+0x58c>
  40268a:	00 00                	add    %al,(%rax)
  40268c:	00 00                	add    %al,(%rax)
  40268e:	00 00                	add    %al,(%rax)
  402690:	74 02                	je     402694 <__intel_mic_avx512f_memset+0x594>
  402692:	00 00                	add    %al,(%rax)
  402694:	00 00                	add    %al,(%rax)
  402696:	00 00                	add    %al,(%rax)
  402698:	74 02                	je     40269c <__intel_mic_avx512f_memset+0x59c>
  40269a:	00 00                	add    %al,(%rax)
  40269c:	00 00                	add    %al,(%rax)
  40269e:	00 00                	add    %al,(%rax)
  4026a0:	74 02                	je     4026a4 <__intel_mic_avx512f_memset+0x5a4>
  4026a2:	00 00                	add    %al,(%rax)
  4026a4:	00 00                	add    %al,(%rax)
  4026a6:	00 00                	add    %al,(%rax)
  4026a8:	74 02                	je     4026ac <__intel_mic_avx512f_memset+0x5ac>
  4026aa:	00 00                	add    %al,(%rax)
  4026ac:	00 00                	add    %al,(%rax)
  4026ae:	00 00                	add    %al,(%rax)
  4026b0:	74 02                	je     4026b4 <__intel_mic_avx512f_memset+0x5b4>
  4026b2:	00 00                	add    %al,(%rax)
  4026b4:	00 00                	add    %al,(%rax)
  4026b6:	00 00                	add    %al,(%rax)
  4026b8:	74 02                	je     4026bc <__intel_mic_avx512f_memset+0x5bc>
  4026ba:	00 00                	add    %al,(%rax)
  4026bc:	00 00                	add    %al,(%rax)
  4026be:	00 00                	add    %al,(%rax)
  4026c0:	65 02 00             	add    %gs:(%rax),%al
  4026c3:	00 00                	add    %al,(%rax)
  4026c5:	00 00                	add    %al,(%rax)
  4026c7:	00 5c 02 00          	add    %bl,0x0(%rdx,%rax,1)
  4026cb:	00 00                	add    %al,(%rax)
  4026cd:	00 00                	add    %al,(%rax)
  4026cf:	00 5c 02 00          	add    %bl,0x0(%rdx,%rax,1)
  4026d3:	00 00                	add    %al,(%rax)
  4026d5:	00 00                	add    %al,(%rax)
  4026d7:	00 5c 02 00          	add    %bl,0x0(%rdx,%rax,1)
  4026db:	00 00                	add    %al,(%rax)
  4026dd:	00 00                	add    %al,(%rax)
  4026df:	00 5c 02 00          	add    %bl,0x0(%rdx,%rax,1)
  4026e3:	00 00                	add    %al,(%rax)
  4026e5:	00 00                	add    %al,(%rax)
  4026e7:	00 5c 02 00          	add    %bl,0x0(%rdx,%rax,1)
  4026eb:	00 00                	add    %al,(%rax)
  4026ed:	00 00                	add    %al,(%rax)
  4026ef:	00 5c 02 00          	add    %bl,0x0(%rdx,%rax,1)
  4026f3:	00 00                	add    %al,(%rax)
  4026f5:	00 00                	add    %al,(%rax)
  4026f7:	00 5c 02 00          	add    %bl,0x0(%rdx,%rax,1)
  4026fb:	00 00                	add    %al,(%rax)
  4026fd:	00 00                	add    %al,(%rax)
  4026ff:	00 5c 02 00          	add    %bl,0x0(%rdx,%rax,1)
  402703:	00 00                	add    %al,(%rax)
  402705:	00 00                	add    %al,(%rax)
  402707:	00 5c 02 00          	add    %bl,0x0(%rdx,%rax,1)
  40270b:	00 00                	add    %al,(%rax)
  40270d:	00 00                	add    %al,(%rax)
  40270f:	00 5c 02 00          	add    %bl,0x0(%rdx,%rax,1)
  402713:	00 00                	add    %al,(%rax)
  402715:	00 00                	add    %al,(%rax)
  402717:	00 5c 02 00          	add    %bl,0x0(%rdx,%rax,1)
  40271b:	00 00                	add    %al,(%rax)
  40271d:	00 00                	add    %al,(%rax)
  40271f:	00 5c 02 00          	add    %bl,0x0(%rdx,%rax,1)
  402723:	00 00                	add    %al,(%rax)
  402725:	00 00                	add    %al,(%rax)
  402727:	00 5c 02 00          	add    %bl,0x0(%rdx,%rax,1)
  40272b:	00 00                	add    %al,(%rax)
  40272d:	00 00                	add    %al,(%rax)
  40272f:	00 5c 02 00          	add    %bl,0x0(%rdx,%rax,1)
  402733:	00 00                	add    %al,(%rax)
  402735:	00 00                	add    %al,(%rax)
  402737:	00 5c 02 00          	add    %bl,0x0(%rdx,%rax,1)
  40273b:	00 00                	add    %al,(%rax)
  40273d:	00 00                	add    %al,(%rax)
  40273f:	00 5c 02 00          	add    %bl,0x0(%rdx,%rax,1)
  402743:	00 00                	add    %al,(%rax)
  402745:	00 00                	add    %al,(%rax)
  402747:	00 5c 02 00          	add    %bl,0x0(%rdx,%rax,1)
  40274b:	00 00                	add    %al,(%rax)
  40274d:	00 00                	add    %al,(%rax)
  40274f:	00 5c 02 00          	add    %bl,0x0(%rdx,%rax,1)
  402753:	00 00                	add    %al,(%rax)
  402755:	00 00                	add    %al,(%rax)
  402757:	00 5c 02 00          	add    %bl,0x0(%rdx,%rax,1)
  40275b:	00 00                	add    %al,(%rax)
  40275d:	00 00                	add    %al,(%rax)
  40275f:	00 5c 02 00          	add    %bl,0x0(%rdx,%rax,1)
  402763:	00 00                	add    %al,(%rax)
  402765:	00 00                	add    %al,(%rax)
  402767:	00 5c 02 00          	add    %bl,0x0(%rdx,%rax,1)
  40276b:	00 00                	add    %al,(%rax)
  40276d:	00 00                	add    %al,(%rax)
  40276f:	00 5c 02 00          	add    %bl,0x0(%rdx,%rax,1)
  402773:	00 00                	add    %al,(%rax)
  402775:	00 00                	add    %al,(%rax)
  402777:	00 5c 02 00          	add    %bl,0x0(%rdx,%rax,1)
  40277b:	00 00                	add    %al,(%rax)
  40277d:	00 00                	add    %al,(%rax)
  40277f:	00 5c 02 00          	add    %bl,0x0(%rdx,%rax,1)
  402783:	00 00                	add    %al,(%rax)
  402785:	00 00                	add    %al,(%rax)
  402787:	00 5c 02 00          	add    %bl,0x0(%rdx,%rax,1)
  40278b:	00 00                	add    %al,(%rax)
  40278d:	00 00                	add    %al,(%rax)
  40278f:	00 5c 02 00          	add    %bl,0x0(%rdx,%rax,1)
  402793:	00 00                	add    %al,(%rax)
  402795:	00 00                	add    %al,(%rax)
  402797:	00 5c 02 00          	add    %bl,0x0(%rdx,%rax,1)
  40279b:	00 00                	add    %al,(%rax)
  40279d:	00 00                	add    %al,(%rax)
  40279f:	00 5c 02 00          	add    %bl,0x0(%rdx,%rax,1)
  4027a3:	00 00                	add    %al,(%rax)
  4027a5:	00 00                	add    %al,(%rax)
  4027a7:	00 5c 02 00          	add    %bl,0x0(%rdx,%rax,1)
  4027ab:	00 00                	add    %al,(%rax)
  4027ad:	00 00                	add    %al,(%rax)
  4027af:	00 5c 02 00          	add    %bl,0x0(%rdx,%rax,1)
  4027b3:	00 00                	add    %al,(%rax)
  4027b5:	00 00                	add    %al,(%rax)
  4027b7:	00 5c 02 00          	add    %bl,0x0(%rdx,%rax,1)
  4027bb:	00 00                	add    %al,(%rax)
  4027bd:	00 00                	add    %al,(%rax)
  4027bf:	00 e3                	add    %ah,%bl
  4027c1:	02 00                	add    (%rax),%al
  4027c3:	00 00                	add    %al,(%rax)
  4027c5:	00 00                	add    %al,(%rax)
  4027c7:	00 e3                	add    %ah,%bl
  4027c9:	02 00                	add    (%rax),%al
  4027cb:	00 00                	add    %al,(%rax)
  4027cd:	00 00                	add    %al,(%rax)
  4027cf:	00 e3                	add    %ah,%bl
  4027d1:	02 00                	add    (%rax),%al
  4027d3:	00 00                	add    %al,(%rax)
  4027d5:	00 00                	add    %al,(%rax)
  4027d7:	00 e3                	add    %ah,%bl
  4027d9:	02 00                	add    (%rax),%al
  4027db:	00 00                	add    %al,(%rax)
  4027dd:	00 00                	add    %al,(%rax)
  4027df:	00 e3                	add    %ah,%bl
  4027e1:	02 00                	add    (%rax),%al
  4027e3:	00 00                	add    %al,(%rax)
  4027e5:	00 00                	add    %al,(%rax)
  4027e7:	00 e3                	add    %ah,%bl
  4027e9:	02 00                	add    (%rax),%al
  4027eb:	00 00                	add    %al,(%rax)
  4027ed:	00 00                	add    %al,(%rax)
  4027ef:	00 e3                	add    %ah,%bl
  4027f1:	02 00                	add    (%rax),%al
  4027f3:	00 00                	add    %al,(%rax)
  4027f5:	00 00                	add    %al,(%rax)
  4027f7:	00 e3                	add    %ah,%bl
  4027f9:	02 00                	add    (%rax),%al
  4027fb:	00 00                	add    %al,(%rax)
  4027fd:	00 00                	add    %al,(%rax)
  4027ff:	00 e3                	add    %ah,%bl
  402801:	02 00                	add    (%rax),%al
  402803:	00 00                	add    %al,(%rax)
  402805:	00 00                	add    %al,(%rax)
  402807:	00 e3                	add    %ah,%bl
  402809:	02 00                	add    (%rax),%al
  40280b:	00 00                	add    %al,(%rax)
  40280d:	00 00                	add    %al,(%rax)
  40280f:	00 e3                	add    %ah,%bl
  402811:	02 00                	add    (%rax),%al
  402813:	00 00                	add    %al,(%rax)
  402815:	00 00                	add    %al,(%rax)
  402817:	00 e3                	add    %ah,%bl
  402819:	02 00                	add    (%rax),%al
  40281b:	00 00                	add    %al,(%rax)
  40281d:	00 00                	add    %al,(%rax)
  40281f:	00 e3                	add    %ah,%bl
  402821:	02 00                	add    (%rax),%al
  402823:	00 00                	add    %al,(%rax)
  402825:	00 00                	add    %al,(%rax)
  402827:	00 e3                	add    %ah,%bl
  402829:	02 00                	add    (%rax),%al
  40282b:	00 00                	add    %al,(%rax)
  40282d:	00 00                	add    %al,(%rax)
  40282f:	00 e3                	add    %ah,%bl
  402831:	02 00                	add    (%rax),%al
  402833:	00 00                	add    %al,(%rax)
  402835:	00 00                	add    %al,(%rax)
  402837:	00 e3                	add    %ah,%bl
  402839:	02 00                	add    (%rax),%al
  40283b:	00 00                	add    %al,(%rax)
  40283d:	00 00                	add    %al,(%rax)
  40283f:	00 e3                	add    %ah,%bl
  402841:	02 00                	add    (%rax),%al
  402843:	00 00                	add    %al,(%rax)
  402845:	00 00                	add    %al,(%rax)
  402847:	00 e3                	add    %ah,%bl
  402849:	02 00                	add    (%rax),%al
  40284b:	00 00                	add    %al,(%rax)
  40284d:	00 00                	add    %al,(%rax)
  40284f:	00 e3                	add    %ah,%bl
  402851:	02 00                	add    (%rax),%al
  402853:	00 00                	add    %al,(%rax)
  402855:	00 00                	add    %al,(%rax)
  402857:	00 e3                	add    %ah,%bl
  402859:	02 00                	add    (%rax),%al
  40285b:	00 00                	add    %al,(%rax)
  40285d:	00 00                	add    %al,(%rax)
  40285f:	00 e3                	add    %ah,%bl
  402861:	02 00                	add    (%rax),%al
  402863:	00 00                	add    %al,(%rax)
  402865:	00 00                	add    %al,(%rax)
  402867:	00 e3                	add    %ah,%bl
  402869:	02 00                	add    (%rax),%al
  40286b:	00 00                	add    %al,(%rax)
  40286d:	00 00                	add    %al,(%rax)
  40286f:	00 e3                	add    %ah,%bl
  402871:	02 00                	add    (%rax),%al
  402873:	00 00                	add    %al,(%rax)
  402875:	00 00                	add    %al,(%rax)
  402877:	00 e3                	add    %ah,%bl
  402879:	02 00                	add    (%rax),%al
  40287b:	00 00                	add    %al,(%rax)
  40287d:	00 00                	add    %al,(%rax)
  40287f:	00 e3                	add    %ah,%bl
  402881:	02 00                	add    (%rax),%al
  402883:	00 00                	add    %al,(%rax)
  402885:	00 00                	add    %al,(%rax)
  402887:	00 e3                	add    %ah,%bl
  402889:	02 00                	add    (%rax),%al
  40288b:	00 00                	add    %al,(%rax)
  40288d:	00 00                	add    %al,(%rax)
  40288f:	00 e3                	add    %ah,%bl
  402891:	02 00                	add    (%rax),%al
  402893:	00 00                	add    %al,(%rax)
  402895:	00 00                	add    %al,(%rax)
  402897:	00 e3                	add    %ah,%bl
  402899:	02 00                	add    (%rax),%al
  40289b:	00 00                	add    %al,(%rax)
  40289d:	00 00                	add    %al,(%rax)
  40289f:	00 e3                	add    %ah,%bl
  4028a1:	02 00                	add    (%rax),%al
  4028a3:	00 00                	add    %al,(%rax)
  4028a5:	00 00                	add    %al,(%rax)
  4028a7:	00 e3                	add    %ah,%bl
  4028a9:	02 00                	add    (%rax),%al
  4028ab:	00 00                	add    %al,(%rax)
  4028ad:	00 00                	add    %al,(%rax)
  4028af:	00 e3                	add    %ah,%bl
  4028b1:	02 00                	add    (%rax),%al
  4028b3:	00 00                	add    %al,(%rax)
  4028b5:	00 00                	add    %al,(%rax)
  4028b7:	00 e3                	add    %ah,%bl
  4028b9:	02 00                	add    (%rax),%al
  4028bb:	00 00                	add    %al,(%rax)
  4028bd:	00 00                	add    %al,(%rax)
  4028bf:	00 e3                	add    %ah,%bl
  4028c1:	02 00                	add    (%rax),%al
  4028c3:	00 00                	add    %al,(%rax)
  4028c5:	00 00                	add    %al,(%rax)
  4028c7:	00 e3                	add    %ah,%bl
  4028c9:	02 00                	add    (%rax),%al
  4028cb:	00 00                	add    %al,(%rax)
  4028cd:	00 00                	add    %al,(%rax)
  4028cf:	00 e3                	add    %ah,%bl
  4028d1:	02 00                	add    (%rax),%al
  4028d3:	00 00                	add    %al,(%rax)
  4028d5:	00 00                	add    %al,(%rax)
  4028d7:	00 e3                	add    %ah,%bl
  4028d9:	02 00                	add    (%rax),%al
  4028db:	00 00                	add    %al,(%rax)
  4028dd:	00 00                	add    %al,(%rax)
  4028df:	00 e3                	add    %ah,%bl
  4028e1:	02 00                	add    (%rax),%al
  4028e3:	00 00                	add    %al,(%rax)
  4028e5:	00 00                	add    %al,(%rax)
  4028e7:	00 e3                	add    %ah,%bl
  4028e9:	02 00                	add    (%rax),%al
  4028eb:	00 00                	add    %al,(%rax)
  4028ed:	00 00                	add    %al,(%rax)
  4028ef:	00 e3                	add    %ah,%bl
  4028f1:	02 00                	add    (%rax),%al
  4028f3:	00 00                	add    %al,(%rax)
  4028f5:	00 00                	add    %al,(%rax)
  4028f7:	00 e3                	add    %ah,%bl
  4028f9:	02 00                	add    (%rax),%al
  4028fb:	00 00                	add    %al,(%rax)
  4028fd:	00 00                	add    %al,(%rax)
  4028ff:	00 e3                	add    %ah,%bl
  402901:	02 00                	add    (%rax),%al
  402903:	00 00                	add    %al,(%rax)
  402905:	00 00                	add    %al,(%rax)
  402907:	00 e3                	add    %ah,%bl
  402909:	02 00                	add    (%rax),%al
  40290b:	00 00                	add    %al,(%rax)
  40290d:	00 00                	add    %al,(%rax)
  40290f:	00 e3                	add    %ah,%bl
  402911:	02 00                	add    (%rax),%al
  402913:	00 00                	add    %al,(%rax)
  402915:	00 00                	add    %al,(%rax)
  402917:	00 e3                	add    %ah,%bl
  402919:	02 00                	add    (%rax),%al
  40291b:	00 00                	add    %al,(%rax)
  40291d:	00 00                	add    %al,(%rax)
  40291f:	00 e3                	add    %ah,%bl
  402921:	02 00                	add    (%rax),%al
  402923:	00 00                	add    %al,(%rax)
  402925:	00 00                	add    %al,(%rax)
  402927:	00 e3                	add    %ah,%bl
  402929:	02 00                	add    (%rax),%al
  40292b:	00 00                	add    %al,(%rax)
  40292d:	00 00                	add    %al,(%rax)
  40292f:	00 e3                	add    %ah,%bl
  402931:	02 00                	add    (%rax),%al
  402933:	00 00                	add    %al,(%rax)
  402935:	00 00                	add    %al,(%rax)
  402937:	00 e3                	add    %ah,%bl
  402939:	02 00                	add    (%rax),%al
  40293b:	00 00                	add    %al,(%rax)
  40293d:	00 00                	add    %al,(%rax)
  40293f:	00 e3                	add    %ah,%bl
  402941:	02 00                	add    (%rax),%al
  402943:	00 00                	add    %al,(%rax)
  402945:	00 00                	add    %al,(%rax)
  402947:	00 e3                	add    %ah,%bl
  402949:	02 00                	add    (%rax),%al
  40294b:	00 00                	add    %al,(%rax)
  40294d:	00 00                	add    %al,(%rax)
  40294f:	00 e3                	add    %ah,%bl
  402951:	02 00                	add    (%rax),%al
  402953:	00 00                	add    %al,(%rax)
  402955:	00 00                	add    %al,(%rax)
  402957:	00 e3                	add    %ah,%bl
  402959:	02 00                	add    (%rax),%al
  40295b:	00 00                	add    %al,(%rax)
  40295d:	00 00                	add    %al,(%rax)
  40295f:	00 e3                	add    %ah,%bl
  402961:	02 00                	add    (%rax),%al
  402963:	00 00                	add    %al,(%rax)
  402965:	00 00                	add    %al,(%rax)
  402967:	00 e3                	add    %ah,%bl
  402969:	02 00                	add    (%rax),%al
  40296b:	00 00                	add    %al,(%rax)
  40296d:	00 00                	add    %al,(%rax)
  40296f:	00 e3                	add    %ah,%bl
  402971:	02 00                	add    (%rax),%al
  402973:	00 00                	add    %al,(%rax)
  402975:	00 00                	add    %al,(%rax)
  402977:	00 e3                	add    %ah,%bl
  402979:	02 00                	add    (%rax),%al
  40297b:	00 00                	add    %al,(%rax)
  40297d:	00 00                	add    %al,(%rax)
  40297f:	00 e3                	add    %ah,%bl
  402981:	02 00                	add    (%rax),%al
  402983:	00 00                	add    %al,(%rax)
  402985:	00 00                	add    %al,(%rax)
  402987:	00 e3                	add    %ah,%bl
  402989:	02 00                	add    (%rax),%al
  40298b:	00 00                	add    %al,(%rax)
  40298d:	00 00                	add    %al,(%rax)
  40298f:	00 e3                	add    %ah,%bl
  402991:	02 00                	add    (%rax),%al
  402993:	00 00                	add    %al,(%rax)
  402995:	00 00                	add    %al,(%rax)
  402997:	00 e3                	add    %ah,%bl
  402999:	02 00                	add    (%rax),%al
  40299b:	00 00                	add    %al,(%rax)
  40299d:	00 00                	add    %al,(%rax)
  40299f:	00 e3                	add    %ah,%bl
  4029a1:	02 00                	add    (%rax),%al
  4029a3:	00 00                	add    %al,(%rax)
  4029a5:	00 00                	add    %al,(%rax)
  4029a7:	00 e3                	add    %ah,%bl
  4029a9:	02 00                	add    (%rax),%al
  4029ab:	00 00                	add    %al,(%rax)
  4029ad:	00 00                	add    %al,(%rax)
  4029af:	00 e3                	add    %ah,%bl
  4029b1:	02 00                	add    (%rax),%al
  4029b3:	00 00                	add    %al,(%rax)
  4029b5:	00 00                	add    %al,(%rax)
  4029b7:	00 e3                	add    %ah,%bl
  4029b9:	02 00                	add    (%rax),%al
  4029bb:	00 00                	add    %al,(%rax)
  4029bd:	00 00                	add    %al,(%rax)
  4029bf:	00 ea                	add    %ch,%dl
  4029c1:	02 00                	add    (%rax),%al
  4029c3:	00 00                	add    %al,(%rax)
  4029c5:	00 00                	add    %al,(%rax)
  4029c7:	00 ea                	add    %ch,%dl
  4029c9:	02 00                	add    (%rax),%al
  4029cb:	00 00                	add    %al,(%rax)
  4029cd:	00 00                	add    %al,(%rax)
  4029cf:	00 ea                	add    %ch,%dl
  4029d1:	02 00                	add    (%rax),%al
  4029d3:	00 00                	add    %al,(%rax)
  4029d5:	00 00                	add    %al,(%rax)
  4029d7:	00 ea                	add    %ch,%dl
  4029d9:	02 00                	add    (%rax),%al
  4029db:	00 00                	add    %al,(%rax)
  4029dd:	00 00                	add    %al,(%rax)
  4029df:	00 ea                	add    %ch,%dl
  4029e1:	02 00                	add    (%rax),%al
  4029e3:	00 00                	add    %al,(%rax)
  4029e5:	00 00                	add    %al,(%rax)
  4029e7:	00 ea                	add    %ch,%dl
  4029e9:	02 00                	add    (%rax),%al
  4029eb:	00 00                	add    %al,(%rax)
  4029ed:	00 00                	add    %al,(%rax)
  4029ef:	00 ea                	add    %ch,%dl
  4029f1:	02 00                	add    (%rax),%al
  4029f3:	00 00                	add    %al,(%rax)
  4029f5:	00 00                	add    %al,(%rax)
  4029f7:	00 ea                	add    %ch,%dl
  4029f9:	02 00                	add    (%rax),%al
  4029fb:	00 00                	add    %al,(%rax)
  4029fd:	00 00                	add    %al,(%rax)
  4029ff:	00 ea                	add    %ch,%dl
  402a01:	02 00                	add    (%rax),%al
  402a03:	00 00                	add    %al,(%rax)
  402a05:	00 00                	add    %al,(%rax)
  402a07:	00 ea                	add    %ch,%dl
  402a09:	02 00                	add    (%rax),%al
  402a0b:	00 00                	add    %al,(%rax)
  402a0d:	00 00                	add    %al,(%rax)
  402a0f:	00 ea                	add    %ch,%dl
  402a11:	02 00                	add    (%rax),%al
  402a13:	00 00                	add    %al,(%rax)
  402a15:	00 00                	add    %al,(%rax)
  402a17:	00 ea                	add    %ch,%dl
  402a19:	02 00                	add    (%rax),%al
  402a1b:	00 00                	add    %al,(%rax)
  402a1d:	00 00                	add    %al,(%rax)
  402a1f:	00 ea                	add    %ch,%dl
  402a21:	02 00                	add    (%rax),%al
  402a23:	00 00                	add    %al,(%rax)
  402a25:	00 00                	add    %al,(%rax)
  402a27:	00 ea                	add    %ch,%dl
  402a29:	02 00                	add    (%rax),%al
  402a2b:	00 00                	add    %al,(%rax)
  402a2d:	00 00                	add    %al,(%rax)
  402a2f:	00 ea                	add    %ch,%dl
  402a31:	02 00                	add    (%rax),%al
  402a33:	00 00                	add    %al,(%rax)
  402a35:	00 00                	add    %al,(%rax)
  402a37:	00 ea                	add    %ch,%dl
  402a39:	02 00                	add    (%rax),%al
  402a3b:	00 00                	add    %al,(%rax)
  402a3d:	00 00                	add    %al,(%rax)
  402a3f:	00 ea                	add    %ch,%dl
  402a41:	02 00                	add    (%rax),%al
  402a43:	00 00                	add    %al,(%rax)
  402a45:	00 00                	add    %al,(%rax)
  402a47:	00 ea                	add    %ch,%dl
  402a49:	02 00                	add    (%rax),%al
  402a4b:	00 00                	add    %al,(%rax)
  402a4d:	00 00                	add    %al,(%rax)
  402a4f:	00 ea                	add    %ch,%dl
  402a51:	02 00                	add    (%rax),%al
  402a53:	00 00                	add    %al,(%rax)
  402a55:	00 00                	add    %al,(%rax)
  402a57:	00 ea                	add    %ch,%dl
  402a59:	02 00                	add    (%rax),%al
  402a5b:	00 00                	add    %al,(%rax)
  402a5d:	00 00                	add    %al,(%rax)
  402a5f:	00 ea                	add    %ch,%dl
  402a61:	02 00                	add    (%rax),%al
  402a63:	00 00                	add    %al,(%rax)
  402a65:	00 00                	add    %al,(%rax)
  402a67:	00 ea                	add    %ch,%dl
  402a69:	02 00                	add    (%rax),%al
  402a6b:	00 00                	add    %al,(%rax)
  402a6d:	00 00                	add    %al,(%rax)
  402a6f:	00 ea                	add    %ch,%dl
  402a71:	02 00                	add    (%rax),%al
  402a73:	00 00                	add    %al,(%rax)
  402a75:	00 00                	add    %al,(%rax)
  402a77:	00 ea                	add    %ch,%dl
  402a79:	02 00                	add    (%rax),%al
  402a7b:	00 00                	add    %al,(%rax)
  402a7d:	00 00                	add    %al,(%rax)
  402a7f:	00 ea                	add    %ch,%dl
  402a81:	02 00                	add    (%rax),%al
  402a83:	00 00                	add    %al,(%rax)
  402a85:	00 00                	add    %al,(%rax)
  402a87:	00 ea                	add    %ch,%dl
  402a89:	02 00                	add    (%rax),%al
  402a8b:	00 00                	add    %al,(%rax)
  402a8d:	00 00                	add    %al,(%rax)
  402a8f:	00 ea                	add    %ch,%dl
  402a91:	02 00                	add    (%rax),%al
  402a93:	00 00                	add    %al,(%rax)
  402a95:	00 00                	add    %al,(%rax)
  402a97:	00 ea                	add    %ch,%dl
  402a99:	02 00                	add    (%rax),%al
  402a9b:	00 00                	add    %al,(%rax)
  402a9d:	00 00                	add    %al,(%rax)
  402a9f:	00 ea                	add    %ch,%dl
  402aa1:	02 00                	add    (%rax),%al
  402aa3:	00 00                	add    %al,(%rax)
  402aa5:	00 00                	add    %al,(%rax)
  402aa7:	00 ea                	add    %ch,%dl
  402aa9:	02 00                	add    (%rax),%al
  402aab:	00 00                	add    %al,(%rax)
  402aad:	00 00                	add    %al,(%rax)
  402aaf:	00 ea                	add    %ch,%dl
  402ab1:	02 00                	add    (%rax),%al
  402ab3:	00 00                	add    %al,(%rax)
  402ab5:	00 00                	add    %al,(%rax)
  402ab7:	00 ea                	add    %ch,%dl
  402ab9:	02 00                	add    (%rax),%al
  402abb:	00 00                	add    %al,(%rax)
  402abd:	00 00                	add    %al,(%rax)
  402abf:	00 ea                	add    %ch,%dl
  402ac1:	02 00                	add    (%rax),%al
  402ac3:	00 00                	add    %al,(%rax)
  402ac5:	00 00                	add    %al,(%rax)
  402ac7:	00 ea                	add    %ch,%dl
  402ac9:	02 00                	add    (%rax),%al
  402acb:	00 00                	add    %al,(%rax)
  402acd:	00 00                	add    %al,(%rax)
  402acf:	00 ea                	add    %ch,%dl
  402ad1:	02 00                	add    (%rax),%al
  402ad3:	00 00                	add    %al,(%rax)
  402ad5:	00 00                	add    %al,(%rax)
  402ad7:	00 ea                	add    %ch,%dl
  402ad9:	02 00                	add    (%rax),%al
  402adb:	00 00                	add    %al,(%rax)
  402add:	00 00                	add    %al,(%rax)
  402adf:	00 ea                	add    %ch,%dl
  402ae1:	02 00                	add    (%rax),%al
  402ae3:	00 00                	add    %al,(%rax)
  402ae5:	00 00                	add    %al,(%rax)
  402ae7:	00 ea                	add    %ch,%dl
  402ae9:	02 00                	add    (%rax),%al
  402aeb:	00 00                	add    %al,(%rax)
  402aed:	00 00                	add    %al,(%rax)
  402aef:	00 ea                	add    %ch,%dl
  402af1:	02 00                	add    (%rax),%al
  402af3:	00 00                	add    %al,(%rax)
  402af5:	00 00                	add    %al,(%rax)
  402af7:	00 ea                	add    %ch,%dl
  402af9:	02 00                	add    (%rax),%al
  402afb:	00 00                	add    %al,(%rax)
  402afd:	00 00                	add    %al,(%rax)
  402aff:	00 ea                	add    %ch,%dl
  402b01:	02 00                	add    (%rax),%al
  402b03:	00 00                	add    %al,(%rax)
  402b05:	00 00                	add    %al,(%rax)
  402b07:	00 ea                	add    %ch,%dl
  402b09:	02 00                	add    (%rax),%al
  402b0b:	00 00                	add    %al,(%rax)
  402b0d:	00 00                	add    %al,(%rax)
  402b0f:	00 ea                	add    %ch,%dl
  402b11:	02 00                	add    (%rax),%al
  402b13:	00 00                	add    %al,(%rax)
  402b15:	00 00                	add    %al,(%rax)
  402b17:	00 ea                	add    %ch,%dl
  402b19:	02 00                	add    (%rax),%al
  402b1b:	00 00                	add    %al,(%rax)
  402b1d:	00 00                	add    %al,(%rax)
  402b1f:	00 ea                	add    %ch,%dl
  402b21:	02 00                	add    (%rax),%al
  402b23:	00 00                	add    %al,(%rax)
  402b25:	00 00                	add    %al,(%rax)
  402b27:	00 ea                	add    %ch,%dl
  402b29:	02 00                	add    (%rax),%al
  402b2b:	00 00                	add    %al,(%rax)
  402b2d:	00 00                	add    %al,(%rax)
  402b2f:	00 ea                	add    %ch,%dl
  402b31:	02 00                	add    (%rax),%al
  402b33:	00 00                	add    %al,(%rax)
  402b35:	00 00                	add    %al,(%rax)
  402b37:	00 ea                	add    %ch,%dl
  402b39:	02 00                	add    (%rax),%al
  402b3b:	00 00                	add    %al,(%rax)
  402b3d:	00 00                	add    %al,(%rax)
  402b3f:	00 ea                	add    %ch,%dl
  402b41:	02 00                	add    (%rax),%al
  402b43:	00 00                	add    %al,(%rax)
  402b45:	00 00                	add    %al,(%rax)
  402b47:	00 ea                	add    %ch,%dl
  402b49:	02 00                	add    (%rax),%al
  402b4b:	00 00                	add    %al,(%rax)
  402b4d:	00 00                	add    %al,(%rax)
  402b4f:	00 ea                	add    %ch,%dl
  402b51:	02 00                	add    (%rax),%al
  402b53:	00 00                	add    %al,(%rax)
  402b55:	00 00                	add    %al,(%rax)
  402b57:	00 ea                	add    %ch,%dl
  402b59:	02 00                	add    (%rax),%al
  402b5b:	00 00                	add    %al,(%rax)
  402b5d:	00 00                	add    %al,(%rax)
  402b5f:	00 ea                	add    %ch,%dl
  402b61:	02 00                	add    (%rax),%al
  402b63:	00 00                	add    %al,(%rax)
  402b65:	00 00                	add    %al,(%rax)
  402b67:	00 ea                	add    %ch,%dl
  402b69:	02 00                	add    (%rax),%al
  402b6b:	00 00                	add    %al,(%rax)
  402b6d:	00 00                	add    %al,(%rax)
  402b6f:	00 ea                	add    %ch,%dl
  402b71:	02 00                	add    (%rax),%al
  402b73:	00 00                	add    %al,(%rax)
  402b75:	00 00                	add    %al,(%rax)
  402b77:	00 ea                	add    %ch,%dl
  402b79:	02 00                	add    (%rax),%al
  402b7b:	00 00                	add    %al,(%rax)
  402b7d:	00 00                	add    %al,(%rax)
  402b7f:	00 ea                	add    %ch,%dl
  402b81:	02 00                	add    (%rax),%al
  402b83:	00 00                	add    %al,(%rax)
  402b85:	00 00                	add    %al,(%rax)
  402b87:	00 ea                	add    %ch,%dl
  402b89:	02 00                	add    (%rax),%al
  402b8b:	00 00                	add    %al,(%rax)
  402b8d:	00 00                	add    %al,(%rax)
  402b8f:	00 ea                	add    %ch,%dl
  402b91:	02 00                	add    (%rax),%al
  402b93:	00 00                	add    %al,(%rax)
  402b95:	00 00                	add    %al,(%rax)
  402b97:	00 ea                	add    %ch,%dl
  402b99:	02 00                	add    (%rax),%al
  402b9b:	00 00                	add    %al,(%rax)
  402b9d:	00 00                	add    %al,(%rax)
  402b9f:	00 ea                	add    %ch,%dl
  402ba1:	02 00                	add    (%rax),%al
  402ba3:	00 00                	add    %al,(%rax)
  402ba5:	00 00                	add    %al,(%rax)
  402ba7:	00 ea                	add    %ch,%dl
  402ba9:	02 00                	add    (%rax),%al
  402bab:	00 00                	add    %al,(%rax)
  402bad:	00 00                	add    %al,(%rax)
  402baf:	00 ea                	add    %ch,%dl
  402bb1:	02 00                	add    (%rax),%al
  402bb3:	00 00                	add    %al,(%rax)
  402bb5:	00 00                	add    %al,(%rax)
  402bb7:	00 ea                	add    %ch,%dl
  402bb9:	02 00                	add    (%rax),%al
  402bbb:	00 00                	add    %al,(%rax)
  402bbd:	00 00                	add    %al,(%rax)
  402bbf:	00 f1                	add    %dh,%cl
  402bc1:	02 00                	add    (%rax),%al
  402bc3:	00 00                	add    %al,(%rax)
  402bc5:	00 00                	add    %al,(%rax)
  402bc7:	00 f1                	add    %dh,%cl
  402bc9:	02 00                	add    (%rax),%al
  402bcb:	00 00                	add    %al,(%rax)
  402bcd:	00 00                	add    %al,(%rax)
  402bcf:	00 f1                	add    %dh,%cl
  402bd1:	02 00                	add    (%rax),%al
  402bd3:	00 00                	add    %al,(%rax)
  402bd5:	00 00                	add    %al,(%rax)
  402bd7:	00 f1                	add    %dh,%cl
  402bd9:	02 00                	add    (%rax),%al
  402bdb:	00 00                	add    %al,(%rax)
  402bdd:	00 00                	add    %al,(%rax)
  402bdf:	00 f1                	add    %dh,%cl
  402be1:	02 00                	add    (%rax),%al
  402be3:	00 00                	add    %al,(%rax)
  402be5:	00 00                	add    %al,(%rax)
  402be7:	00 f1                	add    %dh,%cl
  402be9:	02 00                	add    (%rax),%al
  402beb:	00 00                	add    %al,(%rax)
  402bed:	00 00                	add    %al,(%rax)
  402bef:	00 f1                	add    %dh,%cl
  402bf1:	02 00                	add    (%rax),%al
  402bf3:	00 00                	add    %al,(%rax)
  402bf5:	00 00                	add    %al,(%rax)
  402bf7:	00 f1                	add    %dh,%cl
  402bf9:	02 00                	add    (%rax),%al
  402bfb:	00 00                	add    %al,(%rax)
  402bfd:	00 00                	add    %al,(%rax)
  402bff:	00 f1                	add    %dh,%cl
  402c01:	02 00                	add    (%rax),%al
  402c03:	00 00                	add    %al,(%rax)
  402c05:	00 00                	add    %al,(%rax)
  402c07:	00 f1                	add    %dh,%cl
  402c09:	02 00                	add    (%rax),%al
  402c0b:	00 00                	add    %al,(%rax)
  402c0d:	00 00                	add    %al,(%rax)
  402c0f:	00 f1                	add    %dh,%cl
  402c11:	02 00                	add    (%rax),%al
  402c13:	00 00                	add    %al,(%rax)
  402c15:	00 00                	add    %al,(%rax)
  402c17:	00 f1                	add    %dh,%cl
  402c19:	02 00                	add    (%rax),%al
  402c1b:	00 00                	add    %al,(%rax)
  402c1d:	00 00                	add    %al,(%rax)
  402c1f:	00 f1                	add    %dh,%cl
  402c21:	02 00                	add    (%rax),%al
  402c23:	00 00                	add    %al,(%rax)
  402c25:	00 00                	add    %al,(%rax)
  402c27:	00 f1                	add    %dh,%cl
  402c29:	02 00                	add    (%rax),%al
  402c2b:	00 00                	add    %al,(%rax)
  402c2d:	00 00                	add    %al,(%rax)
  402c2f:	00 f1                	add    %dh,%cl
  402c31:	02 00                	add    (%rax),%al
  402c33:	00 00                	add    %al,(%rax)
  402c35:	00 00                	add    %al,(%rax)
  402c37:	00 f1                	add    %dh,%cl
  402c39:	02 00                	add    (%rax),%al
  402c3b:	00 00                	add    %al,(%rax)
  402c3d:	00 00                	add    %al,(%rax)
  402c3f:	00 f1                	add    %dh,%cl
  402c41:	02 00                	add    (%rax),%al
  402c43:	00 00                	add    %al,(%rax)
  402c45:	00 00                	add    %al,(%rax)
  402c47:	00 f1                	add    %dh,%cl
  402c49:	02 00                	add    (%rax),%al
  402c4b:	00 00                	add    %al,(%rax)
  402c4d:	00 00                	add    %al,(%rax)
  402c4f:	00 f1                	add    %dh,%cl
  402c51:	02 00                	add    (%rax),%al
  402c53:	00 00                	add    %al,(%rax)
  402c55:	00 00                	add    %al,(%rax)
  402c57:	00 f1                	add    %dh,%cl
  402c59:	02 00                	add    (%rax),%al
  402c5b:	00 00                	add    %al,(%rax)
  402c5d:	00 00                	add    %al,(%rax)
  402c5f:	00 f1                	add    %dh,%cl
  402c61:	02 00                	add    (%rax),%al
  402c63:	00 00                	add    %al,(%rax)
  402c65:	00 00                	add    %al,(%rax)
  402c67:	00 f1                	add    %dh,%cl
  402c69:	02 00                	add    (%rax),%al
  402c6b:	00 00                	add    %al,(%rax)
  402c6d:	00 00                	add    %al,(%rax)
  402c6f:	00 f1                	add    %dh,%cl
  402c71:	02 00                	add    (%rax),%al
  402c73:	00 00                	add    %al,(%rax)
  402c75:	00 00                	add    %al,(%rax)
  402c77:	00 f1                	add    %dh,%cl
  402c79:	02 00                	add    (%rax),%al
  402c7b:	00 00                	add    %al,(%rax)
  402c7d:	00 00                	add    %al,(%rax)
  402c7f:	00 f1                	add    %dh,%cl
  402c81:	02 00                	add    (%rax),%al
  402c83:	00 00                	add    %al,(%rax)
  402c85:	00 00                	add    %al,(%rax)
  402c87:	00 f1                	add    %dh,%cl
  402c89:	02 00                	add    (%rax),%al
  402c8b:	00 00                	add    %al,(%rax)
  402c8d:	00 00                	add    %al,(%rax)
  402c8f:	00 f1                	add    %dh,%cl
  402c91:	02 00                	add    (%rax),%al
  402c93:	00 00                	add    %al,(%rax)
  402c95:	00 00                	add    %al,(%rax)
  402c97:	00 f1                	add    %dh,%cl
  402c99:	02 00                	add    (%rax),%al
  402c9b:	00 00                	add    %al,(%rax)
  402c9d:	00 00                	add    %al,(%rax)
  402c9f:	00 f1                	add    %dh,%cl
  402ca1:	02 00                	add    (%rax),%al
  402ca3:	00 00                	add    %al,(%rax)
  402ca5:	00 00                	add    %al,(%rax)
  402ca7:	00 f1                	add    %dh,%cl
  402ca9:	02 00                	add    (%rax),%al
  402cab:	00 00                	add    %al,(%rax)
  402cad:	00 00                	add    %al,(%rax)
  402caf:	00 f1                	add    %dh,%cl
  402cb1:	02 00                	add    (%rax),%al
  402cb3:	00 00                	add    %al,(%rax)
  402cb5:	00 00                	add    %al,(%rax)
  402cb7:	00 f1                	add    %dh,%cl
  402cb9:	02 00                	add    (%rax),%al
  402cbb:	00 00                	add    %al,(%rax)
  402cbd:	00 00                	add    %al,(%rax)
  402cbf:	00 f1                	add    %dh,%cl
  402cc1:	02 00                	add    (%rax),%al
  402cc3:	00 00                	add    %al,(%rax)
  402cc5:	00 00                	add    %al,(%rax)
  402cc7:	00 f1                	add    %dh,%cl
  402cc9:	02 00                	add    (%rax),%al
  402ccb:	00 00                	add    %al,(%rax)
  402ccd:	00 00                	add    %al,(%rax)
  402ccf:	00 f1                	add    %dh,%cl
  402cd1:	02 00                	add    (%rax),%al
  402cd3:	00 00                	add    %al,(%rax)
  402cd5:	00 00                	add    %al,(%rax)
  402cd7:	00 f1                	add    %dh,%cl
  402cd9:	02 00                	add    (%rax),%al
  402cdb:	00 00                	add    %al,(%rax)
  402cdd:	00 00                	add    %al,(%rax)
  402cdf:	00 f1                	add    %dh,%cl
  402ce1:	02 00                	add    (%rax),%al
  402ce3:	00 00                	add    %al,(%rax)
  402ce5:	00 00                	add    %al,(%rax)
  402ce7:	00 f1                	add    %dh,%cl
  402ce9:	02 00                	add    (%rax),%al
  402ceb:	00 00                	add    %al,(%rax)
  402ced:	00 00                	add    %al,(%rax)
  402cef:	00 f1                	add    %dh,%cl
  402cf1:	02 00                	add    (%rax),%al
  402cf3:	00 00                	add    %al,(%rax)
  402cf5:	00 00                	add    %al,(%rax)
  402cf7:	00 f1                	add    %dh,%cl
  402cf9:	02 00                	add    (%rax),%al
  402cfb:	00 00                	add    %al,(%rax)
  402cfd:	00 00                	add    %al,(%rax)
  402cff:	00 f1                	add    %dh,%cl
  402d01:	02 00                	add    (%rax),%al
  402d03:	00 00                	add    %al,(%rax)
  402d05:	00 00                	add    %al,(%rax)
  402d07:	00 f1                	add    %dh,%cl
  402d09:	02 00                	add    (%rax),%al
  402d0b:	00 00                	add    %al,(%rax)
  402d0d:	00 00                	add    %al,(%rax)
  402d0f:	00 f1                	add    %dh,%cl
  402d11:	02 00                	add    (%rax),%al
  402d13:	00 00                	add    %al,(%rax)
  402d15:	00 00                	add    %al,(%rax)
  402d17:	00 f1                	add    %dh,%cl
  402d19:	02 00                	add    (%rax),%al
  402d1b:	00 00                	add    %al,(%rax)
  402d1d:	00 00                	add    %al,(%rax)
  402d1f:	00 f1                	add    %dh,%cl
  402d21:	02 00                	add    (%rax),%al
  402d23:	00 00                	add    %al,(%rax)
  402d25:	00 00                	add    %al,(%rax)
  402d27:	00 f1                	add    %dh,%cl
  402d29:	02 00                	add    (%rax),%al
  402d2b:	00 00                	add    %al,(%rax)
  402d2d:	00 00                	add    %al,(%rax)
  402d2f:	00 f1                	add    %dh,%cl
  402d31:	02 00                	add    (%rax),%al
  402d33:	00 00                	add    %al,(%rax)
  402d35:	00 00                	add    %al,(%rax)
  402d37:	00 f1                	add    %dh,%cl
  402d39:	02 00                	add    (%rax),%al
  402d3b:	00 00                	add    %al,(%rax)
  402d3d:	00 00                	add    %al,(%rax)
  402d3f:	00 f1                	add    %dh,%cl
  402d41:	02 00                	add    (%rax),%al
  402d43:	00 00                	add    %al,(%rax)
  402d45:	00 00                	add    %al,(%rax)
  402d47:	00 f1                	add    %dh,%cl
  402d49:	02 00                	add    (%rax),%al
  402d4b:	00 00                	add    %al,(%rax)
  402d4d:	00 00                	add    %al,(%rax)
  402d4f:	00 f1                	add    %dh,%cl
  402d51:	02 00                	add    (%rax),%al
  402d53:	00 00                	add    %al,(%rax)
  402d55:	00 00                	add    %al,(%rax)
  402d57:	00 f1                	add    %dh,%cl
  402d59:	02 00                	add    (%rax),%al
  402d5b:	00 00                	add    %al,(%rax)
  402d5d:	00 00                	add    %al,(%rax)
  402d5f:	00 f1                	add    %dh,%cl
  402d61:	02 00                	add    (%rax),%al
  402d63:	00 00                	add    %al,(%rax)
  402d65:	00 00                	add    %al,(%rax)
  402d67:	00 f1                	add    %dh,%cl
  402d69:	02 00                	add    (%rax),%al
  402d6b:	00 00                	add    %al,(%rax)
  402d6d:	00 00                	add    %al,(%rax)
  402d6f:	00 f1                	add    %dh,%cl
  402d71:	02 00                	add    (%rax),%al
  402d73:	00 00                	add    %al,(%rax)
  402d75:	00 00                	add    %al,(%rax)
  402d77:	00 f1                	add    %dh,%cl
  402d79:	02 00                	add    (%rax),%al
  402d7b:	00 00                	add    %al,(%rax)
  402d7d:	00 00                	add    %al,(%rax)
  402d7f:	00 f1                	add    %dh,%cl
  402d81:	02 00                	add    (%rax),%al
  402d83:	00 00                	add    %al,(%rax)
  402d85:	00 00                	add    %al,(%rax)
  402d87:	00 f1                	add    %dh,%cl
  402d89:	02 00                	add    (%rax),%al
  402d8b:	00 00                	add    %al,(%rax)
  402d8d:	00 00                	add    %al,(%rax)
  402d8f:	00 f1                	add    %dh,%cl
  402d91:	02 00                	add    (%rax),%al
  402d93:	00 00                	add    %al,(%rax)
  402d95:	00 00                	add    %al,(%rax)
  402d97:	00 f1                	add    %dh,%cl
  402d99:	02 00                	add    (%rax),%al
  402d9b:	00 00                	add    %al,(%rax)
  402d9d:	00 00                	add    %al,(%rax)
  402d9f:	00 f1                	add    %dh,%cl
  402da1:	02 00                	add    (%rax),%al
  402da3:	00 00                	add    %al,(%rax)
  402da5:	00 00                	add    %al,(%rax)
  402da7:	00 f1                	add    %dh,%cl
  402da9:	02 00                	add    (%rax),%al
  402dab:	00 00                	add    %al,(%rax)
  402dad:	00 00                	add    %al,(%rax)
  402daf:	00 f1                	add    %dh,%cl
  402db1:	02 00                	add    (%rax),%al
  402db3:	00 00                	add    %al,(%rax)
  402db5:	00 00                	add    %al,(%rax)
  402db7:	00 f1                	add    %dh,%cl
  402db9:	02 00                	add    (%rax),%al
  402dbb:	00 00                	add    %al,(%rax)
  402dbd:	00 00                	add    %al,(%rax)
  402dbf:	00 f8                	add    %bh,%al
  402dc1:	02 00                	add    (%rax),%al
  402dc3:	00 00                	add    %al,(%rax)
  402dc5:	00 00                	add    %al,(%rax)
  402dc7:	00 f8                	add    %bh,%al
  402dc9:	02 00                	add    (%rax),%al
  402dcb:	00 00                	add    %al,(%rax)
  402dcd:	00 00                	add    %al,(%rax)
  402dcf:	00 f8                	add    %bh,%al
  402dd1:	02 00                	add    (%rax),%al
  402dd3:	00 00                	add    %al,(%rax)
  402dd5:	00 00                	add    %al,(%rax)
  402dd7:	00 f8                	add    %bh,%al
  402dd9:	02 00                	add    (%rax),%al
  402ddb:	00 00                	add    %al,(%rax)
  402ddd:	00 00                	add    %al,(%rax)
  402ddf:	00 f8                	add    %bh,%al
  402de1:	02 00                	add    (%rax),%al
  402de3:	00 00                	add    %al,(%rax)
  402de5:	00 00                	add    %al,(%rax)
  402de7:	00 f8                	add    %bh,%al
  402de9:	02 00                	add    (%rax),%al
  402deb:	00 00                	add    %al,(%rax)
  402ded:	00 00                	add    %al,(%rax)
  402def:	00 f8                	add    %bh,%al
  402df1:	02 00                	add    (%rax),%al
  402df3:	00 00                	add    %al,(%rax)
  402df5:	00 00                	add    %al,(%rax)
  402df7:	00 f8                	add    %bh,%al
  402df9:	02 00                	add    (%rax),%al
  402dfb:	00 00                	add    %al,(%rax)
  402dfd:	00 00                	add    %al,(%rax)
  402dff:	00 f8                	add    %bh,%al
  402e01:	02 00                	add    (%rax),%al
  402e03:	00 00                	add    %al,(%rax)
  402e05:	00 00                	add    %al,(%rax)
  402e07:	00 f8                	add    %bh,%al
  402e09:	02 00                	add    (%rax),%al
  402e0b:	00 00                	add    %al,(%rax)
  402e0d:	00 00                	add    %al,(%rax)
  402e0f:	00 f8                	add    %bh,%al
  402e11:	02 00                	add    (%rax),%al
  402e13:	00 00                	add    %al,(%rax)
  402e15:	00 00                	add    %al,(%rax)
  402e17:	00 f8                	add    %bh,%al
  402e19:	02 00                	add    (%rax),%al
  402e1b:	00 00                	add    %al,(%rax)
  402e1d:	00 00                	add    %al,(%rax)
  402e1f:	00 f8                	add    %bh,%al
  402e21:	02 00                	add    (%rax),%al
  402e23:	00 00                	add    %al,(%rax)
  402e25:	00 00                	add    %al,(%rax)
  402e27:	00 f8                	add    %bh,%al
  402e29:	02 00                	add    (%rax),%al
  402e2b:	00 00                	add    %al,(%rax)
  402e2d:	00 00                	add    %al,(%rax)
  402e2f:	00 f8                	add    %bh,%al
  402e31:	02 00                	add    (%rax),%al
  402e33:	00 00                	add    %al,(%rax)
  402e35:	00 00                	add    %al,(%rax)
  402e37:	00 f8                	add    %bh,%al
  402e39:	02 00                	add    (%rax),%al
  402e3b:	00 00                	add    %al,(%rax)
  402e3d:	00 00                	add    %al,(%rax)
  402e3f:	00 f8                	add    %bh,%al
  402e41:	02 00                	add    (%rax),%al
  402e43:	00 00                	add    %al,(%rax)
  402e45:	00 00                	add    %al,(%rax)
  402e47:	00 f8                	add    %bh,%al
  402e49:	02 00                	add    (%rax),%al
  402e4b:	00 00                	add    %al,(%rax)
  402e4d:	00 00                	add    %al,(%rax)
  402e4f:	00 f8                	add    %bh,%al
  402e51:	02 00                	add    (%rax),%al
  402e53:	00 00                	add    %al,(%rax)
  402e55:	00 00                	add    %al,(%rax)
  402e57:	00 f8                	add    %bh,%al
  402e59:	02 00                	add    (%rax),%al
  402e5b:	00 00                	add    %al,(%rax)
  402e5d:	00 00                	add    %al,(%rax)
  402e5f:	00 f8                	add    %bh,%al
  402e61:	02 00                	add    (%rax),%al
  402e63:	00 00                	add    %al,(%rax)
  402e65:	00 00                	add    %al,(%rax)
  402e67:	00 f8                	add    %bh,%al
  402e69:	02 00                	add    (%rax),%al
  402e6b:	00 00                	add    %al,(%rax)
  402e6d:	00 00                	add    %al,(%rax)
  402e6f:	00 f8                	add    %bh,%al
  402e71:	02 00                	add    (%rax),%al
  402e73:	00 00                	add    %al,(%rax)
  402e75:	00 00                	add    %al,(%rax)
  402e77:	00 f8                	add    %bh,%al
  402e79:	02 00                	add    (%rax),%al
  402e7b:	00 00                	add    %al,(%rax)
  402e7d:	00 00                	add    %al,(%rax)
  402e7f:	00 f8                	add    %bh,%al
  402e81:	02 00                	add    (%rax),%al
  402e83:	00 00                	add    %al,(%rax)
  402e85:	00 00                	add    %al,(%rax)
  402e87:	00 f8                	add    %bh,%al
  402e89:	02 00                	add    (%rax),%al
  402e8b:	00 00                	add    %al,(%rax)
  402e8d:	00 00                	add    %al,(%rax)
  402e8f:	00 f8                	add    %bh,%al
  402e91:	02 00                	add    (%rax),%al
  402e93:	00 00                	add    %al,(%rax)
  402e95:	00 00                	add    %al,(%rax)
  402e97:	00 f8                	add    %bh,%al
  402e99:	02 00                	add    (%rax),%al
  402e9b:	00 00                	add    %al,(%rax)
  402e9d:	00 00                	add    %al,(%rax)
  402e9f:	00 f8                	add    %bh,%al
  402ea1:	02 00                	add    (%rax),%al
  402ea3:	00 00                	add    %al,(%rax)
  402ea5:	00 00                	add    %al,(%rax)
  402ea7:	00 f8                	add    %bh,%al
  402ea9:	02 00                	add    (%rax),%al
  402eab:	00 00                	add    %al,(%rax)
  402ead:	00 00                	add    %al,(%rax)
  402eaf:	00 f8                	add    %bh,%al
  402eb1:	02 00                	add    (%rax),%al
  402eb3:	00 00                	add    %al,(%rax)
  402eb5:	00 00                	add    %al,(%rax)
  402eb7:	00 f8                	add    %bh,%al
  402eb9:	02 00                	add    (%rax),%al
  402ebb:	00 00                	add    %al,(%rax)
  402ebd:	00 00                	add    %al,(%rax)
  402ebf:	00 f8                	add    %bh,%al
  402ec1:	02 00                	add    (%rax),%al
  402ec3:	00 00                	add    %al,(%rax)
  402ec5:	00 00                	add    %al,(%rax)
  402ec7:	00 f8                	add    %bh,%al
  402ec9:	02 00                	add    (%rax),%al
  402ecb:	00 00                	add    %al,(%rax)
  402ecd:	00 00                	add    %al,(%rax)
  402ecf:	00 f8                	add    %bh,%al
  402ed1:	02 00                	add    (%rax),%al
  402ed3:	00 00                	add    %al,(%rax)
  402ed5:	00 00                	add    %al,(%rax)
  402ed7:	00 f8                	add    %bh,%al
  402ed9:	02 00                	add    (%rax),%al
  402edb:	00 00                	add    %al,(%rax)
  402edd:	00 00                	add    %al,(%rax)
  402edf:	00 f8                	add    %bh,%al
  402ee1:	02 00                	add    (%rax),%al
  402ee3:	00 00                	add    %al,(%rax)
  402ee5:	00 00                	add    %al,(%rax)
  402ee7:	00 f8                	add    %bh,%al
  402ee9:	02 00                	add    (%rax),%al
  402eeb:	00 00                	add    %al,(%rax)
  402eed:	00 00                	add    %al,(%rax)
  402eef:	00 f8                	add    %bh,%al
  402ef1:	02 00                	add    (%rax),%al
  402ef3:	00 00                	add    %al,(%rax)
  402ef5:	00 00                	add    %al,(%rax)
  402ef7:	00 f8                	add    %bh,%al
  402ef9:	02 00                	add    (%rax),%al
  402efb:	00 00                	add    %al,(%rax)
  402efd:	00 00                	add    %al,(%rax)
  402eff:	00 f8                	add    %bh,%al
  402f01:	02 00                	add    (%rax),%al
  402f03:	00 00                	add    %al,(%rax)
  402f05:	00 00                	add    %al,(%rax)
  402f07:	00 f8                	add    %bh,%al
  402f09:	02 00                	add    (%rax),%al
  402f0b:	00 00                	add    %al,(%rax)
  402f0d:	00 00                	add    %al,(%rax)
  402f0f:	00 f8                	add    %bh,%al
  402f11:	02 00                	add    (%rax),%al
  402f13:	00 00                	add    %al,(%rax)
  402f15:	00 00                	add    %al,(%rax)
  402f17:	00 f8                	add    %bh,%al
  402f19:	02 00                	add    (%rax),%al
  402f1b:	00 00                	add    %al,(%rax)
  402f1d:	00 00                	add    %al,(%rax)
  402f1f:	00 f8                	add    %bh,%al
  402f21:	02 00                	add    (%rax),%al
  402f23:	00 00                	add    %al,(%rax)
  402f25:	00 00                	add    %al,(%rax)
  402f27:	00 f8                	add    %bh,%al
  402f29:	02 00                	add    (%rax),%al
  402f2b:	00 00                	add    %al,(%rax)
  402f2d:	00 00                	add    %al,(%rax)
  402f2f:	00 f8                	add    %bh,%al
  402f31:	02 00                	add    (%rax),%al
  402f33:	00 00                	add    %al,(%rax)
  402f35:	00 00                	add    %al,(%rax)
  402f37:	00 f8                	add    %bh,%al
  402f39:	02 00                	add    (%rax),%al
  402f3b:	00 00                	add    %al,(%rax)
  402f3d:	00 00                	add    %al,(%rax)
  402f3f:	00 f8                	add    %bh,%al
  402f41:	02 00                	add    (%rax),%al
  402f43:	00 00                	add    %al,(%rax)
  402f45:	00 00                	add    %al,(%rax)
  402f47:	00 f8                	add    %bh,%al
  402f49:	02 00                	add    (%rax),%al
  402f4b:	00 00                	add    %al,(%rax)
  402f4d:	00 00                	add    %al,(%rax)
  402f4f:	00 f8                	add    %bh,%al
  402f51:	02 00                	add    (%rax),%al
  402f53:	00 00                	add    %al,(%rax)
  402f55:	00 00                	add    %al,(%rax)
  402f57:	00 f8                	add    %bh,%al
  402f59:	02 00                	add    (%rax),%al
  402f5b:	00 00                	add    %al,(%rax)
  402f5d:	00 00                	add    %al,(%rax)
  402f5f:	00 f8                	add    %bh,%al
  402f61:	02 00                	add    (%rax),%al
  402f63:	00 00                	add    %al,(%rax)
  402f65:	00 00                	add    %al,(%rax)
  402f67:	00 f8                	add    %bh,%al
  402f69:	02 00                	add    (%rax),%al
  402f6b:	00 00                	add    %al,(%rax)
  402f6d:	00 00                	add    %al,(%rax)
  402f6f:	00 f8                	add    %bh,%al
  402f71:	02 00                	add    (%rax),%al
  402f73:	00 00                	add    %al,(%rax)
  402f75:	00 00                	add    %al,(%rax)
  402f77:	00 f8                	add    %bh,%al
  402f79:	02 00                	add    (%rax),%al
  402f7b:	00 00                	add    %al,(%rax)
  402f7d:	00 00                	add    %al,(%rax)
  402f7f:	00 f8                	add    %bh,%al
  402f81:	02 00                	add    (%rax),%al
  402f83:	00 00                	add    %al,(%rax)
  402f85:	00 00                	add    %al,(%rax)
  402f87:	00 f8                	add    %bh,%al
  402f89:	02 00                	add    (%rax),%al
  402f8b:	00 00                	add    %al,(%rax)
  402f8d:	00 00                	add    %al,(%rax)
  402f8f:	00 f8                	add    %bh,%al
  402f91:	02 00                	add    (%rax),%al
  402f93:	00 00                	add    %al,(%rax)
  402f95:	00 00                	add    %al,(%rax)
  402f97:	00 f8                	add    %bh,%al
  402f99:	02 00                	add    (%rax),%al
  402f9b:	00 00                	add    %al,(%rax)
  402f9d:	00 00                	add    %al,(%rax)
  402f9f:	00 f8                	add    %bh,%al
  402fa1:	02 00                	add    (%rax),%al
  402fa3:	00 00                	add    %al,(%rax)
  402fa5:	00 00                	add    %al,(%rax)
  402fa7:	00 f8                	add    %bh,%al
  402fa9:	02 00                	add    (%rax),%al
  402fab:	00 00                	add    %al,(%rax)
  402fad:	00 00                	add    %al,(%rax)
  402faf:	00 f8                	add    %bh,%al
  402fb1:	02 00                	add    (%rax),%al
  402fb3:	00 00                	add    %al,(%rax)
  402fb5:	00 00                	add    %al,(%rax)
  402fb7:	00 f8                	add    %bh,%al
  402fb9:	02 00                	add    (%rax),%al
  402fbb:	00 00                	add    %al,(%rax)
  402fbd:	00 00                	add    %al,(%rax)
  402fbf:	00 ff                	add    %bh,%bh
  402fc1:	02 00                	add    (%rax),%al
  402fc3:	00 00                	add    %al,(%rax)
  402fc5:	00 00                	add    %al,(%rax)
  402fc7:	00 ff                	add    %bh,%bh
  402fc9:	02 00                	add    (%rax),%al
  402fcb:	00 00                	add    %al,(%rax)
  402fcd:	00 00                	add    %al,(%rax)
  402fcf:	00 ff                	add    %bh,%bh
  402fd1:	02 00                	add    (%rax),%al
  402fd3:	00 00                	add    %al,(%rax)
  402fd5:	00 00                	add    %al,(%rax)
  402fd7:	00 ff                	add    %bh,%bh
  402fd9:	02 00                	add    (%rax),%al
  402fdb:	00 00                	add    %al,(%rax)
  402fdd:	00 00                	add    %al,(%rax)
  402fdf:	00 ff                	add    %bh,%bh
  402fe1:	02 00                	add    (%rax),%al
  402fe3:	00 00                	add    %al,(%rax)
  402fe5:	00 00                	add    %al,(%rax)
  402fe7:	00 ff                	add    %bh,%bh
  402fe9:	02 00                	add    (%rax),%al
  402feb:	00 00                	add    %al,(%rax)
  402fed:	00 00                	add    %al,(%rax)
  402fef:	00 ff                	add    %bh,%bh
  402ff1:	02 00                	add    (%rax),%al
  402ff3:	00 00                	add    %al,(%rax)
  402ff5:	00 00                	add    %al,(%rax)
  402ff7:	00 ff                	add    %bh,%bh
  402ff9:	02 00                	add    (%rax),%al
  402ffb:	00 00                	add    %al,(%rax)
  402ffd:	00 00                	add    %al,(%rax)
  402fff:	00 ff                	add    %bh,%bh
  403001:	02 00                	add    (%rax),%al
  403003:	00 00                	add    %al,(%rax)
  403005:	00 00                	add    %al,(%rax)
  403007:	00 ff                	add    %bh,%bh
  403009:	02 00                	add    (%rax),%al
  40300b:	00 00                	add    %al,(%rax)
  40300d:	00 00                	add    %al,(%rax)
  40300f:	00 ff                	add    %bh,%bh
  403011:	02 00                	add    (%rax),%al
  403013:	00 00                	add    %al,(%rax)
  403015:	00 00                	add    %al,(%rax)
  403017:	00 ff                	add    %bh,%bh
  403019:	02 00                	add    (%rax),%al
  40301b:	00 00                	add    %al,(%rax)
  40301d:	00 00                	add    %al,(%rax)
  40301f:	00 ff                	add    %bh,%bh
  403021:	02 00                	add    (%rax),%al
  403023:	00 00                	add    %al,(%rax)
  403025:	00 00                	add    %al,(%rax)
  403027:	00 ff                	add    %bh,%bh
  403029:	02 00                	add    (%rax),%al
  40302b:	00 00                	add    %al,(%rax)
  40302d:	00 00                	add    %al,(%rax)
  40302f:	00 ff                	add    %bh,%bh
  403031:	02 00                	add    (%rax),%al
  403033:	00 00                	add    %al,(%rax)
  403035:	00 00                	add    %al,(%rax)
  403037:	00 ff                	add    %bh,%bh
  403039:	02 00                	add    (%rax),%al
  40303b:	00 00                	add    %al,(%rax)
  40303d:	00 00                	add    %al,(%rax)
  40303f:	00 ff                	add    %bh,%bh
  403041:	02 00                	add    (%rax),%al
  403043:	00 00                	add    %al,(%rax)
  403045:	00 00                	add    %al,(%rax)
  403047:	00 ff                	add    %bh,%bh
  403049:	02 00                	add    (%rax),%al
  40304b:	00 00                	add    %al,(%rax)
  40304d:	00 00                	add    %al,(%rax)
  40304f:	00 ff                	add    %bh,%bh
  403051:	02 00                	add    (%rax),%al
  403053:	00 00                	add    %al,(%rax)
  403055:	00 00                	add    %al,(%rax)
  403057:	00 ff                	add    %bh,%bh
  403059:	02 00                	add    (%rax),%al
  40305b:	00 00                	add    %al,(%rax)
  40305d:	00 00                	add    %al,(%rax)
  40305f:	00 ff                	add    %bh,%bh
  403061:	02 00                	add    (%rax),%al
  403063:	00 00                	add    %al,(%rax)
  403065:	00 00                	add    %al,(%rax)
  403067:	00 ff                	add    %bh,%bh
  403069:	02 00                	add    (%rax),%al
  40306b:	00 00                	add    %al,(%rax)
  40306d:	00 00                	add    %al,(%rax)
  40306f:	00 ff                	add    %bh,%bh
  403071:	02 00                	add    (%rax),%al
  403073:	00 00                	add    %al,(%rax)
  403075:	00 00                	add    %al,(%rax)
  403077:	00 ff                	add    %bh,%bh
  403079:	02 00                	add    (%rax),%al
  40307b:	00 00                	add    %al,(%rax)
  40307d:	00 00                	add    %al,(%rax)
  40307f:	00 ff                	add    %bh,%bh
  403081:	02 00                	add    (%rax),%al
  403083:	00 00                	add    %al,(%rax)
  403085:	00 00                	add    %al,(%rax)
  403087:	00 ff                	add    %bh,%bh
  403089:	02 00                	add    (%rax),%al
  40308b:	00 00                	add    %al,(%rax)
  40308d:	00 00                	add    %al,(%rax)
  40308f:	00 ff                	add    %bh,%bh
  403091:	02 00                	add    (%rax),%al
  403093:	00 00                	add    %al,(%rax)
  403095:	00 00                	add    %al,(%rax)
  403097:	00 ff                	add    %bh,%bh
  403099:	02 00                	add    (%rax),%al
  40309b:	00 00                	add    %al,(%rax)
  40309d:	00 00                	add    %al,(%rax)
  40309f:	00 ff                	add    %bh,%bh
  4030a1:	02 00                	add    (%rax),%al
  4030a3:	00 00                	add    %al,(%rax)
  4030a5:	00 00                	add    %al,(%rax)
  4030a7:	00 ff                	add    %bh,%bh
  4030a9:	02 00                	add    (%rax),%al
  4030ab:	00 00                	add    %al,(%rax)
  4030ad:	00 00                	add    %al,(%rax)
  4030af:	00 ff                	add    %bh,%bh
  4030b1:	02 00                	add    (%rax),%al
  4030b3:	00 00                	add    %al,(%rax)
  4030b5:	00 00                	add    %al,(%rax)
  4030b7:	00 ff                	add    %bh,%bh
  4030b9:	02 00                	add    (%rax),%al
  4030bb:	00 00                	add    %al,(%rax)
  4030bd:	00 00                	add    %al,(%rax)
  4030bf:	00 ff                	add    %bh,%bh
  4030c1:	02 00                	add    (%rax),%al
  4030c3:	00 00                	add    %al,(%rax)
  4030c5:	00 00                	add    %al,(%rax)
  4030c7:	00 ff                	add    %bh,%bh
  4030c9:	02 00                	add    (%rax),%al
  4030cb:	00 00                	add    %al,(%rax)
  4030cd:	00 00                	add    %al,(%rax)
  4030cf:	00 ff                	add    %bh,%bh
  4030d1:	02 00                	add    (%rax),%al
  4030d3:	00 00                	add    %al,(%rax)
  4030d5:	00 00                	add    %al,(%rax)
  4030d7:	00 ff                	add    %bh,%bh
  4030d9:	02 00                	add    (%rax),%al
  4030db:	00 00                	add    %al,(%rax)
  4030dd:	00 00                	add    %al,(%rax)
  4030df:	00 ff                	add    %bh,%bh
  4030e1:	02 00                	add    (%rax),%al
  4030e3:	00 00                	add    %al,(%rax)
  4030e5:	00 00                	add    %al,(%rax)
  4030e7:	00 ff                	add    %bh,%bh
  4030e9:	02 00                	add    (%rax),%al
  4030eb:	00 00                	add    %al,(%rax)
  4030ed:	00 00                	add    %al,(%rax)
  4030ef:	00 ff                	add    %bh,%bh
  4030f1:	02 00                	add    (%rax),%al
  4030f3:	00 00                	add    %al,(%rax)
  4030f5:	00 00                	add    %al,(%rax)
  4030f7:	00 ff                	add    %bh,%bh
  4030f9:	02 00                	add    (%rax),%al
  4030fb:	00 00                	add    %al,(%rax)
  4030fd:	00 00                	add    %al,(%rax)
  4030ff:	00 ff                	add    %bh,%bh
  403101:	02 00                	add    (%rax),%al
  403103:	00 00                	add    %al,(%rax)
  403105:	00 00                	add    %al,(%rax)
  403107:	00 ff                	add    %bh,%bh
  403109:	02 00                	add    (%rax),%al
  40310b:	00 00                	add    %al,(%rax)
  40310d:	00 00                	add    %al,(%rax)
  40310f:	00 ff                	add    %bh,%bh
  403111:	02 00                	add    (%rax),%al
  403113:	00 00                	add    %al,(%rax)
  403115:	00 00                	add    %al,(%rax)
  403117:	00 ff                	add    %bh,%bh
  403119:	02 00                	add    (%rax),%al
  40311b:	00 00                	add    %al,(%rax)
  40311d:	00 00                	add    %al,(%rax)
  40311f:	00 ff                	add    %bh,%bh
  403121:	02 00                	add    (%rax),%al
  403123:	00 00                	add    %al,(%rax)
  403125:	00 00                	add    %al,(%rax)
  403127:	00 ff                	add    %bh,%bh
  403129:	02 00                	add    (%rax),%al
  40312b:	00 00                	add    %al,(%rax)
  40312d:	00 00                	add    %al,(%rax)
  40312f:	00 ff                	add    %bh,%bh
  403131:	02 00                	add    (%rax),%al
  403133:	00 00                	add    %al,(%rax)
  403135:	00 00                	add    %al,(%rax)
  403137:	00 ff                	add    %bh,%bh
  403139:	02 00                	add    (%rax),%al
  40313b:	00 00                	add    %al,(%rax)
  40313d:	00 00                	add    %al,(%rax)
  40313f:	00 ff                	add    %bh,%bh
  403141:	02 00                	add    (%rax),%al
  403143:	00 00                	add    %al,(%rax)
  403145:	00 00                	add    %al,(%rax)
  403147:	00 ff                	add    %bh,%bh
  403149:	02 00                	add    (%rax),%al
  40314b:	00 00                	add    %al,(%rax)
  40314d:	00 00                	add    %al,(%rax)
  40314f:	00 ff                	add    %bh,%bh
  403151:	02 00                	add    (%rax),%al
  403153:	00 00                	add    %al,(%rax)
  403155:	00 00                	add    %al,(%rax)
  403157:	00 ff                	add    %bh,%bh
  403159:	02 00                	add    (%rax),%al
  40315b:	00 00                	add    %al,(%rax)
  40315d:	00 00                	add    %al,(%rax)
  40315f:	00 ff                	add    %bh,%bh
  403161:	02 00                	add    (%rax),%al
  403163:	00 00                	add    %al,(%rax)
  403165:	00 00                	add    %al,(%rax)
  403167:	00 ff                	add    %bh,%bh
  403169:	02 00                	add    (%rax),%al
  40316b:	00 00                	add    %al,(%rax)
  40316d:	00 00                	add    %al,(%rax)
  40316f:	00 ff                	add    %bh,%bh
  403171:	02 00                	add    (%rax),%al
  403173:	00 00                	add    %al,(%rax)
  403175:	00 00                	add    %al,(%rax)
  403177:	00 ff                	add    %bh,%bh
  403179:	02 00                	add    (%rax),%al
  40317b:	00 00                	add    %al,(%rax)
  40317d:	00 00                	add    %al,(%rax)
  40317f:	00 ff                	add    %bh,%bh
  403181:	02 00                	add    (%rax),%al
  403183:	00 00                	add    %al,(%rax)
  403185:	00 00                	add    %al,(%rax)
  403187:	00 ff                	add    %bh,%bh
  403189:	02 00                	add    (%rax),%al
  40318b:	00 00                	add    %al,(%rax)
  40318d:	00 00                	add    %al,(%rax)
  40318f:	00 ff                	add    %bh,%bh
  403191:	02 00                	add    (%rax),%al
  403193:	00 00                	add    %al,(%rax)
  403195:	00 00                	add    %al,(%rax)
  403197:	00 ff                	add    %bh,%bh
  403199:	02 00                	add    (%rax),%al
  40319b:	00 00                	add    %al,(%rax)
  40319d:	00 00                	add    %al,(%rax)
  40319f:	00 ff                	add    %bh,%bh
  4031a1:	02 00                	add    (%rax),%al
  4031a3:	00 00                	add    %al,(%rax)
  4031a5:	00 00                	add    %al,(%rax)
  4031a7:	00 ff                	add    %bh,%bh
  4031a9:	02 00                	add    (%rax),%al
  4031ab:	00 00                	add    %al,(%rax)
  4031ad:	00 00                	add    %al,(%rax)
  4031af:	00 ff                	add    %bh,%bh
  4031b1:	02 00                	add    (%rax),%al
  4031b3:	00 00                	add    %al,(%rax)
  4031b5:	00 00                	add    %al,(%rax)
  4031b7:	00 ff                	add    %bh,%bh
  4031b9:	02 00                	add    (%rax),%al
  4031bb:	00 00                	add    %al,(%rax)
  4031bd:	00 00                	add    %al,(%rax)
  4031bf:	00 06                	add    %al,(%rsi)
  4031c1:	03 00                	add    (%rax),%eax
  4031c3:	00 00                	add    %al,(%rax)
  4031c5:	00 00                	add    %al,(%rax)
  4031c7:	00 06                	add    %al,(%rsi)
  4031c9:	03 00                	add    (%rax),%eax
  4031cb:	00 00                	add    %al,(%rax)
  4031cd:	00 00                	add    %al,(%rax)
  4031cf:	00 06                	add    %al,(%rsi)
  4031d1:	03 00                	add    (%rax),%eax
  4031d3:	00 00                	add    %al,(%rax)
  4031d5:	00 00                	add    %al,(%rax)
  4031d7:	00 06                	add    %al,(%rsi)
  4031d9:	03 00                	add    (%rax),%eax
  4031db:	00 00                	add    %al,(%rax)
  4031dd:	00 00                	add    %al,(%rax)
  4031df:	00 06                	add    %al,(%rsi)
  4031e1:	03 00                	add    (%rax),%eax
  4031e3:	00 00                	add    %al,(%rax)
  4031e5:	00 00                	add    %al,(%rax)
  4031e7:	00 06                	add    %al,(%rsi)
  4031e9:	03 00                	add    (%rax),%eax
  4031eb:	00 00                	add    %al,(%rax)
  4031ed:	00 00                	add    %al,(%rax)
  4031ef:	00 06                	add    %al,(%rsi)
  4031f1:	03 00                	add    (%rax),%eax
  4031f3:	00 00                	add    %al,(%rax)
  4031f5:	00 00                	add    %al,(%rax)
  4031f7:	00 06                	add    %al,(%rsi)
  4031f9:	03 00                	add    (%rax),%eax
  4031fb:	00 00                	add    %al,(%rax)
  4031fd:	00 00                	add    %al,(%rax)
  4031ff:	00 06                	add    %al,(%rsi)
  403201:	03 00                	add    (%rax),%eax
  403203:	00 00                	add    %al,(%rax)
  403205:	00 00                	add    %al,(%rax)
  403207:	00 06                	add    %al,(%rsi)
  403209:	03 00                	add    (%rax),%eax
  40320b:	00 00                	add    %al,(%rax)
  40320d:	00 00                	add    %al,(%rax)
  40320f:	00 06                	add    %al,(%rsi)
  403211:	03 00                	add    (%rax),%eax
  403213:	00 00                	add    %al,(%rax)
  403215:	00 00                	add    %al,(%rax)
  403217:	00 06                	add    %al,(%rsi)
  403219:	03 00                	add    (%rax),%eax
  40321b:	00 00                	add    %al,(%rax)
  40321d:	00 00                	add    %al,(%rax)
  40321f:	00 06                	add    %al,(%rsi)
  403221:	03 00                	add    (%rax),%eax
  403223:	00 00                	add    %al,(%rax)
  403225:	00 00                	add    %al,(%rax)
  403227:	00 06                	add    %al,(%rsi)
  403229:	03 00                	add    (%rax),%eax
  40322b:	00 00                	add    %al,(%rax)
  40322d:	00 00                	add    %al,(%rax)
  40322f:	00 06                	add    %al,(%rsi)
  403231:	03 00                	add    (%rax),%eax
  403233:	00 00                	add    %al,(%rax)
  403235:	00 00                	add    %al,(%rax)
  403237:	00 06                	add    %al,(%rsi)
  403239:	03 00                	add    (%rax),%eax
  40323b:	00 00                	add    %al,(%rax)
  40323d:	00 00                	add    %al,(%rax)
  40323f:	00 06                	add    %al,(%rsi)
  403241:	03 00                	add    (%rax),%eax
  403243:	00 00                	add    %al,(%rax)
  403245:	00 00                	add    %al,(%rax)
  403247:	00 06                	add    %al,(%rsi)
  403249:	03 00                	add    (%rax),%eax
  40324b:	00 00                	add    %al,(%rax)
  40324d:	00 00                	add    %al,(%rax)
  40324f:	00 06                	add    %al,(%rsi)
  403251:	03 00                	add    (%rax),%eax
  403253:	00 00                	add    %al,(%rax)
  403255:	00 00                	add    %al,(%rax)
  403257:	00 06                	add    %al,(%rsi)
  403259:	03 00                	add    (%rax),%eax
  40325b:	00 00                	add    %al,(%rax)
  40325d:	00 00                	add    %al,(%rax)
  40325f:	00 06                	add    %al,(%rsi)
  403261:	03 00                	add    (%rax),%eax
  403263:	00 00                	add    %al,(%rax)
  403265:	00 00                	add    %al,(%rax)
  403267:	00 06                	add    %al,(%rsi)
  403269:	03 00                	add    (%rax),%eax
  40326b:	00 00                	add    %al,(%rax)
  40326d:	00 00                	add    %al,(%rax)
  40326f:	00 06                	add    %al,(%rsi)
  403271:	03 00                	add    (%rax),%eax
  403273:	00 00                	add    %al,(%rax)
  403275:	00 00                	add    %al,(%rax)
  403277:	00 06                	add    %al,(%rsi)
  403279:	03 00                	add    (%rax),%eax
  40327b:	00 00                	add    %al,(%rax)
  40327d:	00 00                	add    %al,(%rax)
  40327f:	00 06                	add    %al,(%rsi)
  403281:	03 00                	add    (%rax),%eax
  403283:	00 00                	add    %al,(%rax)
  403285:	00 00                	add    %al,(%rax)
  403287:	00 06                	add    %al,(%rsi)
  403289:	03 00                	add    (%rax),%eax
  40328b:	00 00                	add    %al,(%rax)
  40328d:	00 00                	add    %al,(%rax)
  40328f:	00 06                	add    %al,(%rsi)
  403291:	03 00                	add    (%rax),%eax
  403293:	00 00                	add    %al,(%rax)
  403295:	00 00                	add    %al,(%rax)
  403297:	00 06                	add    %al,(%rsi)
  403299:	03 00                	add    (%rax),%eax
  40329b:	00 00                	add    %al,(%rax)
  40329d:	00 00                	add    %al,(%rax)
  40329f:	00 06                	add    %al,(%rsi)
  4032a1:	03 00                	add    (%rax),%eax
  4032a3:	00 00                	add    %al,(%rax)
  4032a5:	00 00                	add    %al,(%rax)
  4032a7:	00 06                	add    %al,(%rsi)
  4032a9:	03 00                	add    (%rax),%eax
  4032ab:	00 00                	add    %al,(%rax)
  4032ad:	00 00                	add    %al,(%rax)
  4032af:	00 06                	add    %al,(%rsi)
  4032b1:	03 00                	add    (%rax),%eax
  4032b3:	00 00                	add    %al,(%rax)
  4032b5:	00 00                	add    %al,(%rax)
  4032b7:	00 06                	add    %al,(%rsi)
  4032b9:	03 00                	add    (%rax),%eax
  4032bb:	00 00                	add    %al,(%rax)
  4032bd:	00 00                	add    %al,(%rax)
  4032bf:	00 06                	add    %al,(%rsi)
  4032c1:	03 00                	add    (%rax),%eax
  4032c3:	00 00                	add    %al,(%rax)
  4032c5:	00 00                	add    %al,(%rax)
  4032c7:	00 06                	add    %al,(%rsi)
  4032c9:	03 00                	add    (%rax),%eax
  4032cb:	00 00                	add    %al,(%rax)
  4032cd:	00 00                	add    %al,(%rax)
  4032cf:	00 06                	add    %al,(%rsi)
  4032d1:	03 00                	add    (%rax),%eax
  4032d3:	00 00                	add    %al,(%rax)
  4032d5:	00 00                	add    %al,(%rax)
  4032d7:	00 06                	add    %al,(%rsi)
  4032d9:	03 00                	add    (%rax),%eax
  4032db:	00 00                	add    %al,(%rax)
  4032dd:	00 00                	add    %al,(%rax)
  4032df:	00 06                	add    %al,(%rsi)
  4032e1:	03 00                	add    (%rax),%eax
  4032e3:	00 00                	add    %al,(%rax)
  4032e5:	00 00                	add    %al,(%rax)
  4032e7:	00 06                	add    %al,(%rsi)
  4032e9:	03 00                	add    (%rax),%eax
  4032eb:	00 00                	add    %al,(%rax)
  4032ed:	00 00                	add    %al,(%rax)
  4032ef:	00 06                	add    %al,(%rsi)
  4032f1:	03 00                	add    (%rax),%eax
  4032f3:	00 00                	add    %al,(%rax)
  4032f5:	00 00                	add    %al,(%rax)
  4032f7:	00 06                	add    %al,(%rsi)
  4032f9:	03 00                	add    (%rax),%eax
  4032fb:	00 00                	add    %al,(%rax)
  4032fd:	00 00                	add    %al,(%rax)
  4032ff:	00 06                	add    %al,(%rsi)
  403301:	03 00                	add    (%rax),%eax
  403303:	00 00                	add    %al,(%rax)
  403305:	00 00                	add    %al,(%rax)
  403307:	00 06                	add    %al,(%rsi)
  403309:	03 00                	add    (%rax),%eax
  40330b:	00 00                	add    %al,(%rax)
  40330d:	00 00                	add    %al,(%rax)
  40330f:	00 06                	add    %al,(%rsi)
  403311:	03 00                	add    (%rax),%eax
  403313:	00 00                	add    %al,(%rax)
  403315:	00 00                	add    %al,(%rax)
  403317:	00 06                	add    %al,(%rsi)
  403319:	03 00                	add    (%rax),%eax
  40331b:	00 00                	add    %al,(%rax)
  40331d:	00 00                	add    %al,(%rax)
  40331f:	00 06                	add    %al,(%rsi)
  403321:	03 00                	add    (%rax),%eax
  403323:	00 00                	add    %al,(%rax)
  403325:	00 00                	add    %al,(%rax)
  403327:	00 06                	add    %al,(%rsi)
  403329:	03 00                	add    (%rax),%eax
  40332b:	00 00                	add    %al,(%rax)
  40332d:	00 00                	add    %al,(%rax)
  40332f:	00 06                	add    %al,(%rsi)
  403331:	03 00                	add    (%rax),%eax
  403333:	00 00                	add    %al,(%rax)
  403335:	00 00                	add    %al,(%rax)
  403337:	00 06                	add    %al,(%rsi)
  403339:	03 00                	add    (%rax),%eax
  40333b:	00 00                	add    %al,(%rax)
  40333d:	00 00                	add    %al,(%rax)
  40333f:	00 06                	add    %al,(%rsi)
  403341:	03 00                	add    (%rax),%eax
  403343:	00 00                	add    %al,(%rax)
  403345:	00 00                	add    %al,(%rax)
  403347:	00 06                	add    %al,(%rsi)
  403349:	03 00                	add    (%rax),%eax
  40334b:	00 00                	add    %al,(%rax)
  40334d:	00 00                	add    %al,(%rax)
  40334f:	00 06                	add    %al,(%rsi)
  403351:	03 00                	add    (%rax),%eax
  403353:	00 00                	add    %al,(%rax)
  403355:	00 00                	add    %al,(%rax)
  403357:	00 06                	add    %al,(%rsi)
  403359:	03 00                	add    (%rax),%eax
  40335b:	00 00                	add    %al,(%rax)
  40335d:	00 00                	add    %al,(%rax)
  40335f:	00 06                	add    %al,(%rsi)
  403361:	03 00                	add    (%rax),%eax
  403363:	00 00                	add    %al,(%rax)
  403365:	00 00                	add    %al,(%rax)
  403367:	00 06                	add    %al,(%rsi)
  403369:	03 00                	add    (%rax),%eax
  40336b:	00 00                	add    %al,(%rax)
  40336d:	00 00                	add    %al,(%rax)
  40336f:	00 06                	add    %al,(%rsi)
  403371:	03 00                	add    (%rax),%eax
  403373:	00 00                	add    %al,(%rax)
  403375:	00 00                	add    %al,(%rax)
  403377:	00 06                	add    %al,(%rsi)
  403379:	03 00                	add    (%rax),%eax
  40337b:	00 00                	add    %al,(%rax)
  40337d:	00 00                	add    %al,(%rax)
  40337f:	00 06                	add    %al,(%rsi)
  403381:	03 00                	add    (%rax),%eax
  403383:	00 00                	add    %al,(%rax)
  403385:	00 00                	add    %al,(%rax)
  403387:	00 06                	add    %al,(%rsi)
  403389:	03 00                	add    (%rax),%eax
  40338b:	00 00                	add    %al,(%rax)
  40338d:	00 00                	add    %al,(%rax)
  40338f:	00 06                	add    %al,(%rsi)
  403391:	03 00                	add    (%rax),%eax
  403393:	00 00                	add    %al,(%rax)
  403395:	00 00                	add    %al,(%rax)
  403397:	00 06                	add    %al,(%rsi)
  403399:	03 00                	add    (%rax),%eax
  40339b:	00 00                	add    %al,(%rax)
  40339d:	00 00                	add    %al,(%rax)
  40339f:	00 06                	add    %al,(%rsi)
  4033a1:	03 00                	add    (%rax),%eax
  4033a3:	00 00                	add    %al,(%rax)
  4033a5:	00 00                	add    %al,(%rax)
  4033a7:	00 06                	add    %al,(%rsi)
  4033a9:	03 00                	add    (%rax),%eax
  4033ab:	00 00                	add    %al,(%rax)
  4033ad:	00 00                	add    %al,(%rax)
  4033af:	00 06                	add    %al,(%rsi)
  4033b1:	03 00                	add    (%rax),%eax
  4033b3:	00 00                	add    %al,(%rax)
  4033b5:	00 00                	add    %al,(%rax)
  4033b7:	00 06                	add    %al,(%rsi)
  4033b9:	03 00                	add    (%rax),%eax
  4033bb:	00 00                	add    %al,(%rax)
  4033bd:	00 00                	add    %al,(%rax)
  4033bf:	00 0d 03 00 00 00    	add    %cl,0x3(%rip)        # 4033c8 <__intel_mic_avx512f_memset+0x12c8>
  4033c5:	00 00                	add    %al,(%rax)
  4033c7:	00 0d 03 00 00 00    	add    %cl,0x3(%rip)        # 4033d0 <__intel_mic_avx512f_memset+0x12d0>
  4033cd:	00 00                	add    %al,(%rax)
  4033cf:	00 0d 03 00 00 00    	add    %cl,0x3(%rip)        # 4033d8 <__intel_mic_avx512f_memset+0x12d8>
  4033d5:	00 00                	add    %al,(%rax)
  4033d7:	00 0d 03 00 00 00    	add    %cl,0x3(%rip)        # 4033e0 <__intel_mic_avx512f_memset+0x12e0>
  4033dd:	00 00                	add    %al,(%rax)
  4033df:	00 0d 03 00 00 00    	add    %cl,0x3(%rip)        # 4033e8 <__intel_mic_avx512f_memset+0x12e8>
  4033e5:	00 00                	add    %al,(%rax)
  4033e7:	00 0d 03 00 00 00    	add    %cl,0x3(%rip)        # 4033f0 <__intel_mic_avx512f_memset+0x12f0>
  4033ed:	00 00                	add    %al,(%rax)
  4033ef:	00 0d 03 00 00 00    	add    %cl,0x3(%rip)        # 4033f8 <__intel_mic_avx512f_memset+0x12f8>
  4033f5:	00 00                	add    %al,(%rax)
  4033f7:	00 0d 03 00 00 00    	add    %cl,0x3(%rip)        # 403400 <__intel_mic_avx512f_memset+0x1300>
  4033fd:	00 00                	add    %al,(%rax)
  4033ff:	00 0d 03 00 00 00    	add    %cl,0x3(%rip)        # 403408 <__intel_mic_avx512f_memset+0x1308>
  403405:	00 00                	add    %al,(%rax)
  403407:	00 0d 03 00 00 00    	add    %cl,0x3(%rip)        # 403410 <__intel_mic_avx512f_memset+0x1310>
  40340d:	00 00                	add    %al,(%rax)
  40340f:	00 0d 03 00 00 00    	add    %cl,0x3(%rip)        # 403418 <__intel_mic_avx512f_memset+0x1318>
  403415:	00 00                	add    %al,(%rax)
  403417:	00 0d 03 00 00 00    	add    %cl,0x3(%rip)        # 403420 <__intel_mic_avx512f_memset+0x1320>
  40341d:	00 00                	add    %al,(%rax)
  40341f:	00 0d 03 00 00 00    	add    %cl,0x3(%rip)        # 403428 <__intel_mic_avx512f_memset+0x1328>
  403425:	00 00                	add    %al,(%rax)
  403427:	00 0d 03 00 00 00    	add    %cl,0x3(%rip)        # 403430 <__intel_mic_avx512f_memset+0x1330>
  40342d:	00 00                	add    %al,(%rax)
  40342f:	00 0d 03 00 00 00    	add    %cl,0x3(%rip)        # 403438 <__intel_mic_avx512f_memset+0x1338>
  403435:	00 00                	add    %al,(%rax)
  403437:	00 0d 03 00 00 00    	add    %cl,0x3(%rip)        # 403440 <__intel_mic_avx512f_memset+0x1340>
  40343d:	00 00                	add    %al,(%rax)
  40343f:	00 0d 03 00 00 00    	add    %cl,0x3(%rip)        # 403448 <__intel_mic_avx512f_memset+0x1348>
  403445:	00 00                	add    %al,(%rax)
  403447:	00 0d 03 00 00 00    	add    %cl,0x3(%rip)        # 403450 <__intel_mic_avx512f_memset+0x1350>
  40344d:	00 00                	add    %al,(%rax)
  40344f:	00 0d 03 00 00 00    	add    %cl,0x3(%rip)        # 403458 <__intel_mic_avx512f_memset+0x1358>
  403455:	00 00                	add    %al,(%rax)
  403457:	00 0d 03 00 00 00    	add    %cl,0x3(%rip)        # 403460 <__intel_mic_avx512f_memset+0x1360>
  40345d:	00 00                	add    %al,(%rax)
  40345f:	00 0d 03 00 00 00    	add    %cl,0x3(%rip)        # 403468 <__intel_mic_avx512f_memset+0x1368>
  403465:	00 00                	add    %al,(%rax)
  403467:	00 0d 03 00 00 00    	add    %cl,0x3(%rip)        # 403470 <__intel_mic_avx512f_memset+0x1370>
  40346d:	00 00                	add    %al,(%rax)
  40346f:	00 0d 03 00 00 00    	add    %cl,0x3(%rip)        # 403478 <__intel_mic_avx512f_memset+0x1378>
  403475:	00 00                	add    %al,(%rax)
  403477:	00 0d 03 00 00 00    	add    %cl,0x3(%rip)        # 403480 <__intel_mic_avx512f_memset+0x1380>
  40347d:	00 00                	add    %al,(%rax)
  40347f:	00 0d 03 00 00 00    	add    %cl,0x3(%rip)        # 403488 <__intel_mic_avx512f_memset+0x1388>
  403485:	00 00                	add    %al,(%rax)
  403487:	00 0d 03 00 00 00    	add    %cl,0x3(%rip)        # 403490 <__intel_mic_avx512f_memset+0x1390>
  40348d:	00 00                	add    %al,(%rax)
  40348f:	00 0d 03 00 00 00    	add    %cl,0x3(%rip)        # 403498 <__intel_mic_avx512f_memset+0x1398>
  403495:	00 00                	add    %al,(%rax)
  403497:	00 0d 03 00 00 00    	add    %cl,0x3(%rip)        # 4034a0 <__intel_mic_avx512f_memset+0x13a0>
  40349d:	00 00                	add    %al,(%rax)
  40349f:	00 0d 03 00 00 00    	add    %cl,0x3(%rip)        # 4034a8 <__intel_mic_avx512f_memset+0x13a8>
  4034a5:	00 00                	add    %al,(%rax)
  4034a7:	00 0d 03 00 00 00    	add    %cl,0x3(%rip)        # 4034b0 <__intel_mic_avx512f_memset+0x13b0>
  4034ad:	00 00                	add    %al,(%rax)
  4034af:	00 0d 03 00 00 00    	add    %cl,0x3(%rip)        # 4034b8 <__intel_mic_avx512f_memset+0x13b8>
  4034b5:	00 00                	add    %al,(%rax)
  4034b7:	00 0d 03 00 00 00    	add    %cl,0x3(%rip)        # 4034c0 <__intel_mic_avx512f_memset+0x13c0>
  4034bd:	00 00                	add    %al,(%rax)
  4034bf:	00 0d 03 00 00 00    	add    %cl,0x3(%rip)        # 4034c8 <__intel_mic_avx512f_memset+0x13c8>
  4034c5:	00 00                	add    %al,(%rax)
  4034c7:	00 0d 03 00 00 00    	add    %cl,0x3(%rip)        # 4034d0 <__intel_mic_avx512f_memset+0x13d0>
  4034cd:	00 00                	add    %al,(%rax)
  4034cf:	00 0d 03 00 00 00    	add    %cl,0x3(%rip)        # 4034d8 <__intel_mic_avx512f_memset+0x13d8>
  4034d5:	00 00                	add    %al,(%rax)
  4034d7:	00 0d 03 00 00 00    	add    %cl,0x3(%rip)        # 4034e0 <__intel_mic_avx512f_memset+0x13e0>
  4034dd:	00 00                	add    %al,(%rax)
  4034df:	00 0d 03 00 00 00    	add    %cl,0x3(%rip)        # 4034e8 <__intel_mic_avx512f_memset+0x13e8>
  4034e5:	00 00                	add    %al,(%rax)
  4034e7:	00 0d 03 00 00 00    	add    %cl,0x3(%rip)        # 4034f0 <__intel_mic_avx512f_memset+0x13f0>
  4034ed:	00 00                	add    %al,(%rax)
  4034ef:	00 0d 03 00 00 00    	add    %cl,0x3(%rip)        # 4034f8 <__intel_mic_avx512f_memset+0x13f8>
  4034f5:	00 00                	add    %al,(%rax)
  4034f7:	00 0d 03 00 00 00    	add    %cl,0x3(%rip)        # 403500 <__intel_mic_avx512f_memset+0x1400>
  4034fd:	00 00                	add    %al,(%rax)
  4034ff:	00 0d 03 00 00 00    	add    %cl,0x3(%rip)        # 403508 <__intel_mic_avx512f_memset+0x1408>
  403505:	00 00                	add    %al,(%rax)
  403507:	00 0d 03 00 00 00    	add    %cl,0x3(%rip)        # 403510 <__intel_mic_avx512f_memset+0x1410>
  40350d:	00 00                	add    %al,(%rax)
  40350f:	00 0d 03 00 00 00    	add    %cl,0x3(%rip)        # 403518 <__intel_mic_avx512f_memset+0x1418>
  403515:	00 00                	add    %al,(%rax)
  403517:	00 0d 03 00 00 00    	add    %cl,0x3(%rip)        # 403520 <__intel_mic_avx512f_memset+0x1420>
  40351d:	00 00                	add    %al,(%rax)
  40351f:	00 0d 03 00 00 00    	add    %cl,0x3(%rip)        # 403528 <__intel_mic_avx512f_memset+0x1428>
  403525:	00 00                	add    %al,(%rax)
  403527:	00 0d 03 00 00 00    	add    %cl,0x3(%rip)        # 403530 <__intel_mic_avx512f_memset+0x1430>
  40352d:	00 00                	add    %al,(%rax)
  40352f:	00 0d 03 00 00 00    	add    %cl,0x3(%rip)        # 403538 <__intel_mic_avx512f_memset+0x1438>
  403535:	00 00                	add    %al,(%rax)
  403537:	00 0d 03 00 00 00    	add    %cl,0x3(%rip)        # 403540 <__intel_mic_avx512f_memset+0x1440>
  40353d:	00 00                	add    %al,(%rax)
  40353f:	00 0d 03 00 00 00    	add    %cl,0x3(%rip)        # 403548 <__intel_mic_avx512f_memset+0x1448>
  403545:	00 00                	add    %al,(%rax)
  403547:	00 0d 03 00 00 00    	add    %cl,0x3(%rip)        # 403550 <__intel_mic_avx512f_memset+0x1450>
  40354d:	00 00                	add    %al,(%rax)
  40354f:	00 0d 03 00 00 00    	add    %cl,0x3(%rip)        # 403558 <__intel_mic_avx512f_memset+0x1458>
  403555:	00 00                	add    %al,(%rax)
  403557:	00 0d 03 00 00 00    	add    %cl,0x3(%rip)        # 403560 <__intel_mic_avx512f_memset+0x1460>
  40355d:	00 00                	add    %al,(%rax)
  40355f:	00 0d 03 00 00 00    	add    %cl,0x3(%rip)        # 403568 <__intel_mic_avx512f_memset+0x1468>
  403565:	00 00                	add    %al,(%rax)
  403567:	00 0d 03 00 00 00    	add    %cl,0x3(%rip)        # 403570 <__intel_mic_avx512f_memset+0x1470>
  40356d:	00 00                	add    %al,(%rax)
  40356f:	00 0d 03 00 00 00    	add    %cl,0x3(%rip)        # 403578 <__intel_mic_avx512f_memset+0x1478>
  403575:	00 00                	add    %al,(%rax)
  403577:	00 0d 03 00 00 00    	add    %cl,0x3(%rip)        # 403580 <__intel_mic_avx512f_memset+0x1480>
  40357d:	00 00                	add    %al,(%rax)
  40357f:	00 0d 03 00 00 00    	add    %cl,0x3(%rip)        # 403588 <__intel_mic_avx512f_memset+0x1488>
  403585:	00 00                	add    %al,(%rax)
  403587:	00 0d 03 00 00 00    	add    %cl,0x3(%rip)        # 403590 <__intel_mic_avx512f_memset+0x1490>
  40358d:	00 00                	add    %al,(%rax)
  40358f:	00 0d 03 00 00 00    	add    %cl,0x3(%rip)        # 403598 <__intel_mic_avx512f_memset+0x1498>
  403595:	00 00                	add    %al,(%rax)
  403597:	00 0d 03 00 00 00    	add    %cl,0x3(%rip)        # 4035a0 <__intel_mic_avx512f_memset+0x14a0>
  40359d:	00 00                	add    %al,(%rax)
  40359f:	00 0d 03 00 00 00    	add    %cl,0x3(%rip)        # 4035a8 <__intel_mic_avx512f_memset+0x14a8>
  4035a5:	00 00                	add    %al,(%rax)
  4035a7:	00 0d 03 00 00 00    	add    %cl,0x3(%rip)        # 4035b0 <__intel_mic_avx512f_memset+0x14b0>
  4035ad:	00 00                	add    %al,(%rax)
  4035af:	00 0d 03 00 00 00    	add    %cl,0x3(%rip)        # 4035b8 <__intel_mic_avx512f_memset+0x14b8>
  4035b5:	00 00                	add    %al,(%rax)
  4035b7:	00 0d 03 00 00 00    	add    %cl,0x3(%rip)        # 4035c0 <__intel_mic_avx512f_memset+0x14c0>
  4035bd:	00 00                	add    %al,(%rax)
  4035bf:	00 c0                	add    %al,%al
  4035c1:	12 00                	adc    (%rax),%al
  4035c3:	00 00                	add    %al,(%rax)
  4035c5:	00 00                	add    %al,(%rax)
  4035c7:	00 c8                	add    %cl,%al
  4035c9:	12 00                	adc    (%rax),%al
  4035cb:	00 00                	add    %al,(%rax)
  4035cd:	00 00                	add    %al,(%rax)
  4035cf:	00 bb 12 00 00 00    	add    %bh,0x12(%rbx)
  4035d5:	00 00                	add    %al,(%rax)
  4035d7:	00 b2 12 00 00 00    	add    %dh,0x12(%rdx)
  4035dd:	00 00                	add    %al,(%rax)
  4035df:	00 a5 12 00 00 00    	add    %ah,0x12(%rbp)
  4035e5:	00 00                	add    %al,(%rax)
  4035e7:	00 9d 12 00 00 00    	add    %bl,0x12(%rbp)
  4035ed:	00 00                	add    %al,(%rax)
  4035ef:	00 9d 12 00 00 00    	add    %bl,0x12(%rbp)
  4035f5:	00 00                	add    %al,(%rax)
  4035f7:	00 9d 12 00 00 00    	add    %bl,0x12(%rbp)
  4035fd:	00 00                	add    %al,(%rax)
  4035ff:	00 91 12 00 00 00    	add    %dl,0x12(%rcx)
  403605:	00 00                	add    %al,(%rax)
  403607:	00 89 12 00 00 00    	add    %cl,0x12(%rcx)
  40360d:	00 00                	add    %al,(%rax)
  40360f:	00 89 12 00 00 00    	add    %cl,0x12(%rcx)
  403615:	00 00                	add    %al,(%rax)
  403617:	00 89 12 00 00 00    	add    %cl,0x12(%rcx)
  40361d:	00 00                	add    %al,(%rax)
  40361f:	00 89 12 00 00 00    	add    %cl,0x12(%rcx)
  403625:	00 00                	add    %al,(%rax)
  403627:	00 89 12 00 00 00    	add    %cl,0x12(%rcx)
  40362d:	00 00                	add    %al,(%rax)
  40362f:	00 89 12 00 00 00    	add    %cl,0x12(%rcx)
  403635:	00 00                	add    %al,(%rax)
  403637:	00 89 12 00 00 00    	add    %cl,0x12(%rcx)
  40363d:	00 00                	add    %al,(%rax)
  40363f:	00 7d 12             	add    %bh,0x12(%rbp)
  403642:	00 00                	add    %al,(%rax)
  403644:	00 00                	add    %al,(%rax)
  403646:	00 00                	add    %al,(%rax)
  403648:	74 12                	je     40365c <__intel_mic_avx512f_memset+0x155c>
  40364a:	00 00                	add    %al,(%rax)
  40364c:	00 00                	add    %al,(%rax)
  40364e:	00 00                	add    %al,(%rax)
  403650:	74 12                	je     403664 <__intel_mic_avx512f_memset+0x1564>
  403652:	00 00                	add    %al,(%rax)
  403654:	00 00                	add    %al,(%rax)
  403656:	00 00                	add    %al,(%rax)
  403658:	74 12                	je     40366c <__intel_mic_avx512f_memset+0x156c>
  40365a:	00 00                	add    %al,(%rax)
  40365c:	00 00                	add    %al,(%rax)
  40365e:	00 00                	add    %al,(%rax)
  403660:	74 12                	je     403674 <__intel_mic_avx512f_memset+0x1574>
  403662:	00 00                	add    %al,(%rax)
  403664:	00 00                	add    %al,(%rax)
  403666:	00 00                	add    %al,(%rax)
  403668:	74 12                	je     40367c <__intel_mic_avx512f_memset+0x157c>
  40366a:	00 00                	add    %al,(%rax)
  40366c:	00 00                	add    %al,(%rax)
  40366e:	00 00                	add    %al,(%rax)
  403670:	74 12                	je     403684 <__intel_mic_avx512f_memset+0x1584>
  403672:	00 00                	add    %al,(%rax)
  403674:	00 00                	add    %al,(%rax)
  403676:	00 00                	add    %al,(%rax)
  403678:	74 12                	je     40368c <__intel_mic_avx512f_memset+0x158c>
  40367a:	00 00                	add    %al,(%rax)
  40367c:	00 00                	add    %al,(%rax)
  40367e:	00 00                	add    %al,(%rax)
  403680:	74 12                	je     403694 <__intel_mic_avx512f_memset+0x1594>
  403682:	00 00                	add    %al,(%rax)
  403684:	00 00                	add    %al,(%rax)
  403686:	00 00                	add    %al,(%rax)
  403688:	74 12                	je     40369c <__intel_mic_avx512f_memset+0x159c>
  40368a:	00 00                	add    %al,(%rax)
  40368c:	00 00                	add    %al,(%rax)
  40368e:	00 00                	add    %al,(%rax)
  403690:	74 12                	je     4036a4 <__intel_mic_avx512f_memset+0x15a4>
  403692:	00 00                	add    %al,(%rax)
  403694:	00 00                	add    %al,(%rax)
  403696:	00 00                	add    %al,(%rax)
  403698:	74 12                	je     4036ac <__intel_mic_avx512f_memset+0x15ac>
  40369a:	00 00                	add    %al,(%rax)
  40369c:	00 00                	add    %al,(%rax)
  40369e:	00 00                	add    %al,(%rax)
  4036a0:	74 12                	je     4036b4 <__intel_mic_avx512f_memset+0x15b4>
  4036a2:	00 00                	add    %al,(%rax)
  4036a4:	00 00                	add    %al,(%rax)
  4036a6:	00 00                	add    %al,(%rax)
  4036a8:	74 12                	je     4036bc <__intel_mic_avx512f_memset+0x15bc>
  4036aa:	00 00                	add    %al,(%rax)
  4036ac:	00 00                	add    %al,(%rax)
  4036ae:	00 00                	add    %al,(%rax)
  4036b0:	74 12                	je     4036c4 <__intel_mic_avx512f_memset+0x15c4>
  4036b2:	00 00                	add    %al,(%rax)
  4036b4:	00 00                	add    %al,(%rax)
  4036b6:	00 00                	add    %al,(%rax)
  4036b8:	74 12                	je     4036cc <__intel_mic_avx512f_memset+0x15cc>
  4036ba:	00 00                	add    %al,(%rax)
  4036bc:	00 00                	add    %al,(%rax)
  4036be:	00 00                	add    %al,(%rax)
  4036c0:	65 12 00             	adc    %gs:(%rax),%al
  4036c3:	00 00                	add    %al,(%rax)
  4036c5:	00 00                	add    %al,(%rax)
  4036c7:	00 5c 12 00          	add    %bl,0x0(%rdx,%rdx,1)
  4036cb:	00 00                	add    %al,(%rax)
  4036cd:	00 00                	add    %al,(%rax)
  4036cf:	00 5c 12 00          	add    %bl,0x0(%rdx,%rdx,1)
  4036d3:	00 00                	add    %al,(%rax)
  4036d5:	00 00                	add    %al,(%rax)
  4036d7:	00 5c 12 00          	add    %bl,0x0(%rdx,%rdx,1)
  4036db:	00 00                	add    %al,(%rax)
  4036dd:	00 00                	add    %al,(%rax)
  4036df:	00 5c 12 00          	add    %bl,0x0(%rdx,%rdx,1)
  4036e3:	00 00                	add    %al,(%rax)
  4036e5:	00 00                	add    %al,(%rax)
  4036e7:	00 5c 12 00          	add    %bl,0x0(%rdx,%rdx,1)
  4036eb:	00 00                	add    %al,(%rax)
  4036ed:	00 00                	add    %al,(%rax)
  4036ef:	00 5c 12 00          	add    %bl,0x0(%rdx,%rdx,1)
  4036f3:	00 00                	add    %al,(%rax)
  4036f5:	00 00                	add    %al,(%rax)
  4036f7:	00 5c 12 00          	add    %bl,0x0(%rdx,%rdx,1)
  4036fb:	00 00                	add    %al,(%rax)
  4036fd:	00 00                	add    %al,(%rax)
  4036ff:	00 5c 12 00          	add    %bl,0x0(%rdx,%rdx,1)
  403703:	00 00                	add    %al,(%rax)
  403705:	00 00                	add    %al,(%rax)
  403707:	00 5c 12 00          	add    %bl,0x0(%rdx,%rdx,1)
  40370b:	00 00                	add    %al,(%rax)
  40370d:	00 00                	add    %al,(%rax)
  40370f:	00 5c 12 00          	add    %bl,0x0(%rdx,%rdx,1)
  403713:	00 00                	add    %al,(%rax)
  403715:	00 00                	add    %al,(%rax)
  403717:	00 5c 12 00          	add    %bl,0x0(%rdx,%rdx,1)
  40371b:	00 00                	add    %al,(%rax)
  40371d:	00 00                	add    %al,(%rax)
  40371f:	00 5c 12 00          	add    %bl,0x0(%rdx,%rdx,1)
  403723:	00 00                	add    %al,(%rax)
  403725:	00 00                	add    %al,(%rax)
  403727:	00 5c 12 00          	add    %bl,0x0(%rdx,%rdx,1)
  40372b:	00 00                	add    %al,(%rax)
  40372d:	00 00                	add    %al,(%rax)
  40372f:	00 5c 12 00          	add    %bl,0x0(%rdx,%rdx,1)
  403733:	00 00                	add    %al,(%rax)
  403735:	00 00                	add    %al,(%rax)
  403737:	00 5c 12 00          	add    %bl,0x0(%rdx,%rdx,1)
  40373b:	00 00                	add    %al,(%rax)
  40373d:	00 00                	add    %al,(%rax)
  40373f:	00 5c 12 00          	add    %bl,0x0(%rdx,%rdx,1)
  403743:	00 00                	add    %al,(%rax)
  403745:	00 00                	add    %al,(%rax)
  403747:	00 5c 12 00          	add    %bl,0x0(%rdx,%rdx,1)
  40374b:	00 00                	add    %al,(%rax)
  40374d:	00 00                	add    %al,(%rax)
  40374f:	00 5c 12 00          	add    %bl,0x0(%rdx,%rdx,1)
  403753:	00 00                	add    %al,(%rax)
  403755:	00 00                	add    %al,(%rax)
  403757:	00 5c 12 00          	add    %bl,0x0(%rdx,%rdx,1)
  40375b:	00 00                	add    %al,(%rax)
  40375d:	00 00                	add    %al,(%rax)
  40375f:	00 5c 12 00          	add    %bl,0x0(%rdx,%rdx,1)
  403763:	00 00                	add    %al,(%rax)
  403765:	00 00                	add    %al,(%rax)
  403767:	00 5c 12 00          	add    %bl,0x0(%rdx,%rdx,1)
  40376b:	00 00                	add    %al,(%rax)
  40376d:	00 00                	add    %al,(%rax)
  40376f:	00 5c 12 00          	add    %bl,0x0(%rdx,%rdx,1)
  403773:	00 00                	add    %al,(%rax)
  403775:	00 00                	add    %al,(%rax)
  403777:	00 5c 12 00          	add    %bl,0x0(%rdx,%rdx,1)
  40377b:	00 00                	add    %al,(%rax)
  40377d:	00 00                	add    %al,(%rax)
  40377f:	00 5c 12 00          	add    %bl,0x0(%rdx,%rdx,1)
  403783:	00 00                	add    %al,(%rax)
  403785:	00 00                	add    %al,(%rax)
  403787:	00 5c 12 00          	add    %bl,0x0(%rdx,%rdx,1)
  40378b:	00 00                	add    %al,(%rax)
  40378d:	00 00                	add    %al,(%rax)
  40378f:	00 5c 12 00          	add    %bl,0x0(%rdx,%rdx,1)
  403793:	00 00                	add    %al,(%rax)
  403795:	00 00                	add    %al,(%rax)
  403797:	00 5c 12 00          	add    %bl,0x0(%rdx,%rdx,1)
  40379b:	00 00                	add    %al,(%rax)
  40379d:	00 00                	add    %al,(%rax)
  40379f:	00 5c 12 00          	add    %bl,0x0(%rdx,%rdx,1)
  4037a3:	00 00                	add    %al,(%rax)
  4037a5:	00 00                	add    %al,(%rax)
  4037a7:	00 5c 12 00          	add    %bl,0x0(%rdx,%rdx,1)
  4037ab:	00 00                	add    %al,(%rax)
  4037ad:	00 00                	add    %al,(%rax)
  4037af:	00 5c 12 00          	add    %bl,0x0(%rdx,%rdx,1)
  4037b3:	00 00                	add    %al,(%rax)
  4037b5:	00 00                	add    %al,(%rax)
  4037b7:	00 5c 12 00          	add    %bl,0x0(%rdx,%rdx,1)
  4037bb:	00 00                	add    %al,(%rax)
  4037bd:	00 00                	add    %al,(%rax)
  4037bf:	00 4d 12             	add    %cl,0x12(%rbp)
  4037c2:	00 00                	add    %al,(%rax)
  4037c4:	00 00                	add    %al,(%rax)
  4037c6:	00 00                	add    %al,(%rax)
  4037c8:	42 12 00             	rex.X adc (%rax),%al
  4037cb:	00 00                	add    %al,(%rax)
  4037cd:	00 00                	add    %al,(%rax)
  4037cf:	00 42 12             	add    %al,0x12(%rdx)
  4037d2:	00 00                	add    %al,(%rax)
  4037d4:	00 00                	add    %al,(%rax)
  4037d6:	00 00                	add    %al,(%rax)
  4037d8:	42 12 00             	rex.X adc (%rax),%al
  4037db:	00 00                	add    %al,(%rax)
  4037dd:	00 00                	add    %al,(%rax)
  4037df:	00 42 12             	add    %al,0x12(%rdx)
  4037e2:	00 00                	add    %al,(%rax)
  4037e4:	00 00                	add    %al,(%rax)
  4037e6:	00 00                	add    %al,(%rax)
  4037e8:	42 12 00             	rex.X adc (%rax),%al
  4037eb:	00 00                	add    %al,(%rax)
  4037ed:	00 00                	add    %al,(%rax)
  4037ef:	00 42 12             	add    %al,0x12(%rdx)
  4037f2:	00 00                	add    %al,(%rax)
  4037f4:	00 00                	add    %al,(%rax)
  4037f6:	00 00                	add    %al,(%rax)
  4037f8:	42 12 00             	rex.X adc (%rax),%al
  4037fb:	00 00                	add    %al,(%rax)
  4037fd:	00 00                	add    %al,(%rax)
  4037ff:	00 42 12             	add    %al,0x12(%rdx)
  403802:	00 00                	add    %al,(%rax)
  403804:	00 00                	add    %al,(%rax)
  403806:	00 00                	add    %al,(%rax)
  403808:	42 12 00             	rex.X adc (%rax),%al
  40380b:	00 00                	add    %al,(%rax)
  40380d:	00 00                	add    %al,(%rax)
  40380f:	00 42 12             	add    %al,0x12(%rdx)
  403812:	00 00                	add    %al,(%rax)
  403814:	00 00                	add    %al,(%rax)
  403816:	00 00                	add    %al,(%rax)
  403818:	42 12 00             	rex.X adc (%rax),%al
  40381b:	00 00                	add    %al,(%rax)
  40381d:	00 00                	add    %al,(%rax)
  40381f:	00 42 12             	add    %al,0x12(%rdx)
  403822:	00 00                	add    %al,(%rax)
  403824:	00 00                	add    %al,(%rax)
  403826:	00 00                	add    %al,(%rax)
  403828:	42 12 00             	rex.X adc (%rax),%al
  40382b:	00 00                	add    %al,(%rax)
  40382d:	00 00                	add    %al,(%rax)
  40382f:	00 42 12             	add    %al,0x12(%rdx)
  403832:	00 00                	add    %al,(%rax)
  403834:	00 00                	add    %al,(%rax)
  403836:	00 00                	add    %al,(%rax)
  403838:	42 12 00             	rex.X adc (%rax),%al
  40383b:	00 00                	add    %al,(%rax)
  40383d:	00 00                	add    %al,(%rax)
  40383f:	00 42 12             	add    %al,0x12(%rdx)
  403842:	00 00                	add    %al,(%rax)
  403844:	00 00                	add    %al,(%rax)
  403846:	00 00                	add    %al,(%rax)
  403848:	42 12 00             	rex.X adc (%rax),%al
  40384b:	00 00                	add    %al,(%rax)
  40384d:	00 00                	add    %al,(%rax)
  40384f:	00 42 12             	add    %al,0x12(%rdx)
  403852:	00 00                	add    %al,(%rax)
  403854:	00 00                	add    %al,(%rax)
  403856:	00 00                	add    %al,(%rax)
  403858:	42 12 00             	rex.X adc (%rax),%al
  40385b:	00 00                	add    %al,(%rax)
  40385d:	00 00                	add    %al,(%rax)
  40385f:	00 42 12             	add    %al,0x12(%rdx)
  403862:	00 00                	add    %al,(%rax)
  403864:	00 00                	add    %al,(%rax)
  403866:	00 00                	add    %al,(%rax)
  403868:	42 12 00             	rex.X adc (%rax),%al
  40386b:	00 00                	add    %al,(%rax)
  40386d:	00 00                	add    %al,(%rax)
  40386f:	00 42 12             	add    %al,0x12(%rdx)
  403872:	00 00                	add    %al,(%rax)
  403874:	00 00                	add    %al,(%rax)
  403876:	00 00                	add    %al,(%rax)
  403878:	42 12 00             	rex.X adc (%rax),%al
  40387b:	00 00                	add    %al,(%rax)
  40387d:	00 00                	add    %al,(%rax)
  40387f:	00 42 12             	add    %al,0x12(%rdx)
  403882:	00 00                	add    %al,(%rax)
  403884:	00 00                	add    %al,(%rax)
  403886:	00 00                	add    %al,(%rax)
  403888:	42 12 00             	rex.X adc (%rax),%al
  40388b:	00 00                	add    %al,(%rax)
  40388d:	00 00                	add    %al,(%rax)
  40388f:	00 42 12             	add    %al,0x12(%rdx)
  403892:	00 00                	add    %al,(%rax)
  403894:	00 00                	add    %al,(%rax)
  403896:	00 00                	add    %al,(%rax)
  403898:	42 12 00             	rex.X adc (%rax),%al
  40389b:	00 00                	add    %al,(%rax)
  40389d:	00 00                	add    %al,(%rax)
  40389f:	00 42 12             	add    %al,0x12(%rdx)
  4038a2:	00 00                	add    %al,(%rax)
  4038a4:	00 00                	add    %al,(%rax)
  4038a6:	00 00                	add    %al,(%rax)
  4038a8:	42 12 00             	rex.X adc (%rax),%al
  4038ab:	00 00                	add    %al,(%rax)
  4038ad:	00 00                	add    %al,(%rax)
  4038af:	00 42 12             	add    %al,0x12(%rdx)
  4038b2:	00 00                	add    %al,(%rax)
  4038b4:	00 00                	add    %al,(%rax)
  4038b6:	00 00                	add    %al,(%rax)
  4038b8:	42 12 00             	rex.X adc (%rax),%al
  4038bb:	00 00                	add    %al,(%rax)
  4038bd:	00 00                	add    %al,(%rax)
  4038bf:	00 42 12             	add    %al,0x12(%rdx)
  4038c2:	00 00                	add    %al,(%rax)
  4038c4:	00 00                	add    %al,(%rax)
  4038c6:	00 00                	add    %al,(%rax)
  4038c8:	42 12 00             	rex.X adc (%rax),%al
  4038cb:	00 00                	add    %al,(%rax)
  4038cd:	00 00                	add    %al,(%rax)
  4038cf:	00 42 12             	add    %al,0x12(%rdx)
  4038d2:	00 00                	add    %al,(%rax)
  4038d4:	00 00                	add    %al,(%rax)
  4038d6:	00 00                	add    %al,(%rax)
  4038d8:	42 12 00             	rex.X adc (%rax),%al
  4038db:	00 00                	add    %al,(%rax)
  4038dd:	00 00                	add    %al,(%rax)
  4038df:	00 42 12             	add    %al,0x12(%rdx)
  4038e2:	00 00                	add    %al,(%rax)
  4038e4:	00 00                	add    %al,(%rax)
  4038e6:	00 00                	add    %al,(%rax)
  4038e8:	42 12 00             	rex.X adc (%rax),%al
  4038eb:	00 00                	add    %al,(%rax)
  4038ed:	00 00                	add    %al,(%rax)
  4038ef:	00 42 12             	add    %al,0x12(%rdx)
  4038f2:	00 00                	add    %al,(%rax)
  4038f4:	00 00                	add    %al,(%rax)
  4038f6:	00 00                	add    %al,(%rax)
  4038f8:	42 12 00             	rex.X adc (%rax),%al
  4038fb:	00 00                	add    %al,(%rax)
  4038fd:	00 00                	add    %al,(%rax)
  4038ff:	00 42 12             	add    %al,0x12(%rdx)
  403902:	00 00                	add    %al,(%rax)
  403904:	00 00                	add    %al,(%rax)
  403906:	00 00                	add    %al,(%rax)
  403908:	42 12 00             	rex.X adc (%rax),%al
  40390b:	00 00                	add    %al,(%rax)
  40390d:	00 00                	add    %al,(%rax)
  40390f:	00 42 12             	add    %al,0x12(%rdx)
  403912:	00 00                	add    %al,(%rax)
  403914:	00 00                	add    %al,(%rax)
  403916:	00 00                	add    %al,(%rax)
  403918:	42 12 00             	rex.X adc (%rax),%al
  40391b:	00 00                	add    %al,(%rax)
  40391d:	00 00                	add    %al,(%rax)
  40391f:	00 42 12             	add    %al,0x12(%rdx)
  403922:	00 00                	add    %al,(%rax)
  403924:	00 00                	add    %al,(%rax)
  403926:	00 00                	add    %al,(%rax)
  403928:	42 12 00             	rex.X adc (%rax),%al
  40392b:	00 00                	add    %al,(%rax)
  40392d:	00 00                	add    %al,(%rax)
  40392f:	00 42 12             	add    %al,0x12(%rdx)
  403932:	00 00                	add    %al,(%rax)
  403934:	00 00                	add    %al,(%rax)
  403936:	00 00                	add    %al,(%rax)
  403938:	42 12 00             	rex.X adc (%rax),%al
  40393b:	00 00                	add    %al,(%rax)
  40393d:	00 00                	add    %al,(%rax)
  40393f:	00 42 12             	add    %al,0x12(%rdx)
  403942:	00 00                	add    %al,(%rax)
  403944:	00 00                	add    %al,(%rax)
  403946:	00 00                	add    %al,(%rax)
  403948:	42 12 00             	rex.X adc (%rax),%al
  40394b:	00 00                	add    %al,(%rax)
  40394d:	00 00                	add    %al,(%rax)
  40394f:	00 42 12             	add    %al,0x12(%rdx)
  403952:	00 00                	add    %al,(%rax)
  403954:	00 00                	add    %al,(%rax)
  403956:	00 00                	add    %al,(%rax)
  403958:	42 12 00             	rex.X adc (%rax),%al
  40395b:	00 00                	add    %al,(%rax)
  40395d:	00 00                	add    %al,(%rax)
  40395f:	00 42 12             	add    %al,0x12(%rdx)
  403962:	00 00                	add    %al,(%rax)
  403964:	00 00                	add    %al,(%rax)
  403966:	00 00                	add    %al,(%rax)
  403968:	42 12 00             	rex.X adc (%rax),%al
  40396b:	00 00                	add    %al,(%rax)
  40396d:	00 00                	add    %al,(%rax)
  40396f:	00 42 12             	add    %al,0x12(%rdx)
  403972:	00 00                	add    %al,(%rax)
  403974:	00 00                	add    %al,(%rax)
  403976:	00 00                	add    %al,(%rax)
  403978:	42 12 00             	rex.X adc (%rax),%al
  40397b:	00 00                	add    %al,(%rax)
  40397d:	00 00                	add    %al,(%rax)
  40397f:	00 42 12             	add    %al,0x12(%rdx)
  403982:	00 00                	add    %al,(%rax)
  403984:	00 00                	add    %al,(%rax)
  403986:	00 00                	add    %al,(%rax)
  403988:	42 12 00             	rex.X adc (%rax),%al
  40398b:	00 00                	add    %al,(%rax)
  40398d:	00 00                	add    %al,(%rax)
  40398f:	00 42 12             	add    %al,0x12(%rdx)
  403992:	00 00                	add    %al,(%rax)
  403994:	00 00                	add    %al,(%rax)
  403996:	00 00                	add    %al,(%rax)
  403998:	42 12 00             	rex.X adc (%rax),%al
  40399b:	00 00                	add    %al,(%rax)
  40399d:	00 00                	add    %al,(%rax)
  40399f:	00 42 12             	add    %al,0x12(%rdx)
  4039a2:	00 00                	add    %al,(%rax)
  4039a4:	00 00                	add    %al,(%rax)
  4039a6:	00 00                	add    %al,(%rax)
  4039a8:	42 12 00             	rex.X adc (%rax),%al
  4039ab:	00 00                	add    %al,(%rax)
  4039ad:	00 00                	add    %al,(%rax)
  4039af:	00 42 12             	add    %al,0x12(%rdx)
  4039b2:	00 00                	add    %al,(%rax)
  4039b4:	00 00                	add    %al,(%rax)
  4039b6:	00 00                	add    %al,(%rax)
  4039b8:	42 12 00             	rex.X adc (%rax),%al
  4039bb:	00 00                	add    %al,(%rax)
  4039bd:	00 00                	add    %al,(%rax)
  4039bf:	00 c3                	add    %al,%bl
  4039c1:	0f 1f 00             	nopl   (%rax)
  4039c4:	66 2e 0f 1f 84 00 00 	cs nopw 0x0(%rax,%rax,1)
  4039cb:	00 00 00 
  4039ce:	66 90                	xchg   %ax,%ax

00000000004039d0 <__intel_avx_rep_memset>:
  4039d0:	f3 0f 1e fa          	endbr64
  4039d4:	49 89 f8             	mov    %rdi,%r8
  4039d7:	49 c7 c2 c0 b0 40 00 	mov    $0x40b0c0,%r10
  4039de:	49 89 fb             	mov    %rdi,%r11
  4039e1:	48 b8 01 01 01 01 01 	movabs $0x101010101010101,%rax
  4039e8:	01 01 01 
  4039eb:	4c 0f b6 ce          	movzbq %sil,%r9
  4039ef:	4c 0f af c8          	imul   %rax,%r9
  4039f3:	48 8d 35 86 0c 00 00 	lea    0xc86(%rip),%rsi        # 404680 <__intel_avx_rep_memset+0xcb0>
  4039fa:	c4 c1 f9 6e c1       	vmovq  %r9,%xmm0
  4039ff:	48 81 fa 80 00 00 00 	cmp    $0x80,%rdx
  403a06:	77 18                	ja     403a20 <__intel_avx_rep_memset+0x50>
  403a08:	4c 89 df             	mov    %r11,%rdi
  403a0b:	48 01 d7             	add    %rdx,%rdi
  403a0e:	48 2b 34 d6          	sub    (%rsi,%rdx,8),%rsi
  403a12:	3e ff e6             	notrack jmp *%rsi
  403a15:	66 66 2e 0f 1f 84 00 	data16 cs nopw 0x0(%rax,%rax,1)
  403a1c:	00 00 00 00 
  403a20:	48 8d 35 59 03 00 00 	lea    0x359(%rip),%rsi        # 403d80 <__intel_avx_rep_memset+0x3b0>
  403a27:	4c 89 d9             	mov    %r11,%rcx
  403a2a:	48 83 e1 1f          	and    $0x1f,%rcx
  403a2e:	74 23                	je     403a53 <__intel_avx_rep_memset+0x83>
  403a30:	48 f7 d9             	neg    %rcx
  403a33:	48 83 c1 20          	add    $0x20,%rcx
  403a37:	48 29 ca             	sub    %rcx,%rdx
  403a3a:	4c 89 df             	mov    %r11,%rdi
  403a3d:	48 01 cf             	add    %rcx,%rdi
  403a40:	48 2b 34 ce          	sub    (%rsi,%rcx,8),%rsi
  403a44:	3e ff e6             	notrack jmp *%rsi
  403a47:	66 0f 1f 84 00 00 00 	nopw   0x0(%rax,%rax,1)
  403a4e:	00 00 
  403a50:	49 01 cb             	add    %rcx,%r11
  403a53:	48 81 fa 00 01 00 00 	cmp    $0x100,%rdx
  403a5a:	0f 8c 30 01 00 00    	jl     403b90 <__intel_avx_rep_memset+0x1c0>
  403a60:	49 8b 0a             	mov    (%r10),%rcx
  403a63:	48 89 cf             	mov    %rcx,%rdi
  403a66:	48 c1 e9 04          	shr    $0x4,%rcx
  403a6a:	48 29 cf             	sub    %rcx,%rdi
  403a6d:	48 39 fa             	cmp    %rdi,%rdx
  403a70:	73 5e                	jae    403ad0 <__intel_avx_rep_memset+0x100>
  403a72:	c4 e2 7d 58 c0       	vpbroadcastd %xmm0,%ymm0
  403a77:	c4 c1 7d 7f 03       	vmovdqa %ymm0,(%r11)
  403a7c:	c4 c1 7d 7f 43 20    	vmovdqa %ymm0,0x20(%r11)
  403a82:	c4 c1 7d 7f 43 40    	vmovdqa %ymm0,0x40(%r11)
  403a88:	c4 c1 7d 7f 43 60    	vmovdqa %ymm0,0x60(%r11)
  403a8e:	49 81 c3 00 01 00 00 	add    $0x100,%r11
  403a95:	48 81 ea 00 01 00 00 	sub    $0x100,%rdx
  403a9c:	c4 c1 7d 7f 43 80    	vmovdqa %ymm0,-0x80(%r11)
  403aa2:	c4 c1 7d 7f 43 a0    	vmovdqa %ymm0,-0x60(%r11)
  403aa8:	c4 c1 7d 7f 43 c0    	vmovdqa %ymm0,-0x40(%r11)
  403aae:	c4 c1 7d 7f 43 e0    	vmovdqa %ymm0,-0x20(%r11)
  403ab4:	48 81 fa 00 01 00 00 	cmp    $0x100,%rdx
  403abb:	7d ba                	jge    403a77 <__intel_avx_rep_memset+0xa7>
  403abd:	e9 de 00 00 00       	jmp    403ba0 <__intel_avx_rep_memset+0x1d0>
  403ac2:	66 66 66 66 66 2e 0f 	data16 data16 data16 data16 cs nopw 0x0(%rax,%rax,1)
  403ac9:	1f 84 00 00 00 00 00 
  403ad0:	4c 89 df             	mov    %r11,%rdi
  403ad3:	4c 89 c8             	mov    %r9,%rax
  403ad6:	48 89 d1             	mov    %rdx,%rcx
  403ad9:	fc                   	cld
  403ada:	f3 aa                	rep stos %al,%es:(%rdi)
  403adc:	e9 af 0f 00 00       	jmp    404a90 <__intel_avx_rep_memset+0x10c0>
  403ae1:	66 66 66 66 66 66 2e 	data16 data16 data16 data16 data16 cs nopw 0x0(%rax,%rax,1)
  403ae8:	0f 1f 84 00 00 00 00 
  403aef:	00 
  403af0:	45 88 0b             	mov    %r9b,(%r11)
  403af3:	e9 58 ff ff ff       	jmp    403a50 <__intel_avx_rep_memset+0x80>
  403af8:	0f 1f 84 00 00 00 00 	nopl   0x0(%rax,%rax,1)
  403aff:	00 
  403b00:	66 45 89 0b          	mov    %r9w,(%r11)
  403b04:	e9 47 ff ff ff       	jmp    403a50 <__intel_avx_rep_memset+0x80>
  403b09:	0f 1f 80 00 00 00 00 	nopl   0x0(%rax)
  403b10:	66 45 89 0b          	mov    %r9w,(%r11)
  403b14:	45 88 4b 02          	mov    %r9b,0x2(%r11)
  403b18:	e9 33 ff ff ff       	jmp    403a50 <__intel_avx_rep_memset+0x80>
  403b1d:	0f 1f 00             	nopl   (%rax)
  403b20:	45 89 0b             	mov    %r9d,(%r11)
  403b23:	e9 28 ff ff ff       	jmp    403a50 <__intel_avx_rep_memset+0x80>
  403b28:	0f 1f 84 00 00 00 00 	nopl   0x0(%rax,%rax,1)
  403b2f:	00 
  403b30:	45 89 0b             	mov    %r9d,(%r11)
  403b33:	44 89 4f fc          	mov    %r9d,-0x4(%rdi)
  403b37:	e9 14 ff ff ff       	jmp    403a50 <__intel_avx_rep_memset+0x80>
  403b3c:	0f 1f 40 00          	nopl   0x0(%rax)
  403b40:	4d 89 0b             	mov    %r9,(%r11)
  403b43:	e9 08 ff ff ff       	jmp    403a50 <__intel_avx_rep_memset+0x80>
  403b48:	0f 1f 84 00 00 00 00 	nopl   0x0(%rax,%rax,1)
  403b4f:	00 
  403b50:	4d 89 0b             	mov    %r9,(%r11)
  403b53:	4c 89 4f f8          	mov    %r9,-0x8(%rdi)
  403b57:	e9 f4 fe ff ff       	jmp    403a50 <__intel_avx_rep_memset+0x80>
  403b5c:	0f 1f 40 00          	nopl   0x0(%rax)
  403b60:	4d 89 0b             	mov    %r9,(%r11)
  403b63:	4d 89 4b 08          	mov    %r9,0x8(%r11)
  403b67:	e9 e4 fe ff ff       	jmp    403a50 <__intel_avx_rep_memset+0x80>
  403b6c:	0f 1f 40 00          	nopl   0x0(%rax)
  403b70:	4d 89 0b             	mov    %r9,(%r11)
  403b73:	4d 89 4b 08          	mov    %r9,0x8(%r11)
  403b77:	4c 89 4f f0          	mov    %r9,-0x10(%rdi)
  403b7b:	4c 89 4f f8          	mov    %r9,-0x8(%rdi)
  403b7f:	e9 cc fe ff ff       	jmp    403a50 <__intel_avx_rep_memset+0x80>
  403b84:	66 66 66 2e 0f 1f 84 	data16 data16 cs nopw 0x0(%rax,%rax,1)
  403b8b:	00 00 00 00 00 
  403b90:	c4 e2 7d 58 c0       	vpbroadcastd %xmm0,%ymm0
  403b95:	66 66 2e 0f 1f 84 00 	data16 cs nopw 0x0(%rax,%rax,1)
  403b9c:	00 00 00 00 
  403ba0:	49 01 d3             	add    %rdx,%r11
  403ba3:	4c 89 df             	mov    %r11,%rdi
  403ba6:	49 83 e3 e0          	and    $0xffffffffffffffe0,%r11
  403baa:	48 8d 35 cf 02 00 00 	lea    0x2cf(%rip),%rsi        # 403e80 <__intel_avx_rep_memset+0x4b0>
  403bb1:	48 2b 34 d6          	sub    (%rsi,%rdx,8),%rsi
  403bb5:	3e ff e6             	notrack jmp *%rsi
  403bb8:	0f 1f 84 00 00 00 00 	nopl   0x0(%rax,%rax,1)
  403bbf:	00 
  403bc0:	c4 c1 7c 29 83 20 ff 	vmovaps %ymm0,-0xe0(%r11)
  403bc7:	ff ff 
  403bc9:	c4 c1 7c 29 83 40 ff 	vmovaps %ymm0,-0xc0(%r11)
  403bd0:	ff ff 
  403bd2:	c4 c1 7c 29 83 60 ff 	vmovaps %ymm0,-0xa0(%r11)
  403bd9:	ff ff 
  403bdb:	0f 1f 44 00 00       	nopl   0x0(%rax,%rax,1)
  403be0:	c4 c1 7c 29 43 80    	vmovaps %ymm0,-0x80(%r11)
  403be6:	c4 c1 7c 29 43 a0    	vmovaps %ymm0,-0x60(%r11)
  403bec:	c4 c1 7c 29 43 c0    	vmovaps %ymm0,-0x40(%r11)
  403bf2:	c4 c1 7c 29 43 e0    	vmovaps %ymm0,-0x20(%r11)
  403bf8:	48 89 fa             	mov    %rdi,%rdx
  403bfb:	48 83 e2 1f          	and    $0x1f,%rdx
  403bff:	48 8d 35 7a 02 00 00 	lea    0x27a(%rip),%rsi        # 403e80 <__intel_avx_rep_memset+0x4b0>
  403c06:	48 2b 34 d6          	sub    (%rsi,%rdx,8),%rsi
  403c0a:	3e ff e6             	notrack jmp *%rsi
  403c0d:	0f 1f 00             	nopl   (%rax)
  403c10:	45 88 0b             	mov    %r9b,(%r11)
  403c13:	e9 78 0e 00 00       	jmp    404a90 <__intel_avx_rep_memset+0x10c0>
  403c18:	0f 1f 84 00 00 00 00 	nopl   0x0(%rax,%rax,1)
  403c1f:	00 
  403c20:	e9 6b 0e 00 00       	jmp    404a90 <__intel_avx_rep_memset+0x10c0>
  403c25:	66 66 2e 0f 1f 84 00 	data16 cs nopw 0x0(%rax,%rax,1)
  403c2c:	00 00 00 00 
  403c30:	66 45 89 0b          	mov    %r9w,(%r11)
  403c34:	e9 57 0e 00 00       	jmp    404a90 <__intel_avx_rep_memset+0x10c0>
  403c39:	0f 1f 80 00 00 00 00 	nopl   0x0(%rax)
  403c40:	66 45 89 0b          	mov    %r9w,(%r11)
  403c44:	45 88 4b 02          	mov    %r9b,0x2(%r11)
  403c48:	e9 43 0e 00 00       	jmp    404a90 <__intel_avx_rep_memset+0x10c0>
  403c4d:	0f 1f 00             	nopl   (%rax)
  403c50:	45 89 0b             	mov    %r9d,(%r11)
  403c53:	e9 38 0e 00 00       	jmp    404a90 <__intel_avx_rep_memset+0x10c0>
  403c58:	0f 1f 84 00 00 00 00 	nopl   0x0(%rax,%rax,1)
  403c5f:	00 
  403c60:	45 89 0b             	mov    %r9d,(%r11)
  403c63:	44 89 4f fc          	mov    %r9d,-0x4(%rdi)
  403c67:	e9 24 0e 00 00       	jmp    404a90 <__intel_avx_rep_memset+0x10c0>
  403c6c:	0f 1f 40 00          	nopl   0x0(%rax)
  403c70:	4d 89 0b             	mov    %r9,(%r11)
  403c73:	e9 18 0e 00 00       	jmp    404a90 <__intel_avx_rep_memset+0x10c0>
  403c78:	0f 1f 84 00 00 00 00 	nopl   0x0(%rax,%rax,1)
  403c7f:	00 
  403c80:	4d 89 0b             	mov    %r9,(%r11)
  403c83:	4c 89 4f f8          	mov    %r9,-0x8(%rdi)
  403c87:	e9 04 0e 00 00       	jmp    404a90 <__intel_avx_rep_memset+0x10c0>
  403c8c:	0f 1f 40 00          	nopl   0x0(%rax)
  403c90:	c4 c1 78 11 03       	vmovups %xmm0,(%r11)
  403c95:	e9 f6 0d 00 00       	jmp    404a90 <__intel_avx_rep_memset+0x10c0>
  403c9a:	66 0f 1f 44 00 00    	nopw   0x0(%rax,%rax,1)
  403ca0:	c4 c1 78 11 03       	vmovups %xmm0,(%r11)
  403ca5:	c5 f8 11 47 f0       	vmovups %xmm0,-0x10(%rdi)
  403caa:	e9 e1 0d 00 00       	jmp    404a90 <__intel_avx_rep_memset+0x10c0>
  403caf:	90                   	nop
  403cb0:	c4 e2 7d 58 c0       	vpbroadcastd %xmm0,%ymm0
  403cb5:	c4 c1 7c 11 03       	vmovups %ymm0,(%r11)
  403cba:	e9 d1 0d 00 00       	jmp    404a90 <__intel_avx_rep_memset+0x10c0>
  403cbf:	90                   	nop
  403cc0:	c4 e2 7d 58 c0       	vpbroadcastd %xmm0,%ymm0
  403cc5:	c4 c1 7c 11 03       	vmovups %ymm0,(%r11)
  403cca:	c5 fc 11 47 e0       	vmovups %ymm0,-0x20(%rdi)
  403ccf:	e9 bc 0d 00 00       	jmp    404a90 <__intel_avx_rep_memset+0x10c0>
  403cd4:	66 66 66 2e 0f 1f 84 	data16 data16 cs nopw 0x0(%rax,%rax,1)
  403cdb:	00 00 00 00 00 
  403ce0:	c4 e2 7d 58 c0       	vpbroadcastd %xmm0,%ymm0
  403ce5:	c4 c1 7c 11 03       	vmovups %ymm0,(%r11)
  403cea:	c4 c1 7c 11 43 20    	vmovups %ymm0,0x20(%r11)
  403cf0:	e9 9b 0d 00 00       	jmp    404a90 <__intel_avx_rep_memset+0x10c0>
  403cf5:	66 66 2e 0f 1f 84 00 	data16 cs nopw 0x0(%rax,%rax,1)
  403cfc:	00 00 00 00 
  403d00:	c4 e2 7d 58 c0       	vpbroadcastd %xmm0,%ymm0
  403d05:	c4 c1 7c 11 03       	vmovups %ymm0,(%r11)
  403d0a:	c4 c1 7c 11 43 20    	vmovups %ymm0,0x20(%r11)
  403d10:	c5 fc 11 47 e0       	vmovups %ymm0,-0x20(%rdi)
  403d15:	c5 fc 11 47 c0       	vmovups %ymm0,-0x40(%rdi)
  403d1a:	e9 71 0d 00 00       	jmp    404a90 <__intel_avx_rep_memset+0x10c0>
  403d1f:	90                   	nop
  403d20:	c4 e2 7d 58 c0       	vpbroadcastd %xmm0,%ymm0
  403d25:	c4 c1 7c 11 03       	vmovups %ymm0,(%r11)
  403d2a:	c4 c1 7c 11 43 20    	vmovups %ymm0,0x20(%r11)
  403d30:	c4 c1 7c 11 43 40    	vmovups %ymm0,0x40(%r11)
  403d36:	c4 c1 7c 11 43 60    	vmovups %ymm0,0x60(%r11)
  403d3c:	e9 4f 0d 00 00       	jmp    404a90 <__intel_avx_rep_memset+0x10c0>
  403d41:	66 66 66 66 66 66 2e 	data16 data16 data16 data16 data16 cs nopw 0x0(%rax,%rax,1)
  403d48:	0f 1f 84 00 00 00 00 
  403d4f:	00 
  403d50:	66 0f 6c c0          	punpcklqdq %xmm0,%xmm0
  403d54:	c4 c1 78 11 03       	vmovups %xmm0,(%r11)
  403d59:	e9 32 0d 00 00       	jmp    404a90 <__intel_avx_rep_memset+0x10c0>
  403d5e:	66 90                	xchg   %ax,%ax
  403d60:	66 0f 6c c0          	punpcklqdq %xmm0,%xmm0
  403d64:	c4 c1 78 11 03       	vmovups %xmm0,(%r11)
  403d69:	c5 f8 11 47 f0       	vmovups %xmm0,-0x10(%rdi)
  403d6e:	e9 1d 0d 00 00       	jmp    404a90 <__intel_avx_rep_memset+0x10c0>
  403d73:	66 66 66 66 2e 0f 1f 	data16 data16 data16 cs nopw 0x0(%rax,%rax,1)
  403d7a:	84 00 00 00 00 00 
  403d80:	8d 02                	lea    (%rdx),%eax
  403d82:	00 00                	add    %al,(%rax)
  403d84:	00 00                	add    %al,(%rax)
  403d86:	00 00                	add    %al,(%rax)
  403d88:	90                   	nop
  403d89:	02 00                	add    (%rax),%al
  403d8b:	00 00                	add    %al,(%rax)
  403d8d:	00 00                	add    %al,(%rax)
  403d8f:	00 80 02 00 00 00    	add    %al,0x2(%rax)
  403d95:	00 00                	add    %al,(%rax)
  403d97:	00 70 02             	add    %dh,0x2(%rax)
  403d9a:	00 00                	add    %al,(%rax)
  403d9c:	00 00                	add    %al,(%rax)
  403d9e:	00 00                	add    %al,(%rax)
  403da0:	60                   	(bad)
  403da1:	02 00                	add    (%rax),%al
  403da3:	00 00                	add    %al,(%rax)
  403da5:	00 00                	add    %al,(%rax)
  403da7:	00 50 02             	add    %dl,0x2(%rax)
  403daa:	00 00                	add    %al,(%rax)
  403dac:	00 00                	add    %al,(%rax)
  403dae:	00 00                	add    %al,(%rax)
  403db0:	50                   	push   %rax
  403db1:	02 00                	add    (%rax),%al
  403db3:	00 00                	add    %al,(%rax)
  403db5:	00 00                	add    %al,(%rax)
  403db7:	00 50 02             	add    %dl,0x2(%rax)
  403dba:	00 00                	add    %al,(%rax)
  403dbc:	00 00                	add    %al,(%rax)
  403dbe:	00 00                	add    %al,(%rax)
  403dc0:	40 02 00             	rex add (%rax),%al
  403dc3:	00 00                	add    %al,(%rax)
  403dc5:	00 00                	add    %al,(%rax)
  403dc7:	00 30                	add    %dh,(%rax)
  403dc9:	02 00                	add    (%rax),%al
  403dcb:	00 00                	add    %al,(%rax)
  403dcd:	00 00                	add    %al,(%rax)
  403dcf:	00 30                	add    %dh,(%rax)
  403dd1:	02 00                	add    (%rax),%al
  403dd3:	00 00                	add    %al,(%rax)
  403dd5:	00 00                	add    %al,(%rax)
  403dd7:	00 30                	add    %dh,(%rax)
  403dd9:	02 00                	add    (%rax),%al
  403ddb:	00 00                	add    %al,(%rax)
  403ddd:	00 00                	add    %al,(%rax)
  403ddf:	00 30                	add    %dh,(%rax)
  403de1:	02 00                	add    (%rax),%al
  403de3:	00 00                	add    %al,(%rax)
  403de5:	00 00                	add    %al,(%rax)
  403de7:	00 30                	add    %dh,(%rax)
  403de9:	02 00                	add    (%rax),%al
  403deb:	00 00                	add    %al,(%rax)
  403ded:	00 00                	add    %al,(%rax)
  403def:	00 30                	add    %dh,(%rax)
  403df1:	02 00                	add    (%rax),%al
  403df3:	00 00                	add    %al,(%rax)
  403df5:	00 00                	add    %al,(%rax)
  403df7:	00 30                	add    %dh,(%rax)
  403df9:	02 00                	add    (%rax),%al
  403dfb:	00 00                	add    %al,(%rax)
  403dfd:	00 00                	add    %al,(%rax)
  403dff:	00 20                	add    %ah,(%rax)
  403e01:	02 00                	add    (%rax),%al
  403e03:	00 00                	add    %al,(%rax)
  403e05:	00 00                	add    %al,(%rax)
  403e07:	00 10                	add    %dl,(%rax)
  403e09:	02 00                	add    (%rax),%al
  403e0b:	00 00                	add    %al,(%rax)
  403e0d:	00 00                	add    %al,(%rax)
  403e0f:	00 10                	add    %dl,(%rax)
  403e11:	02 00                	add    (%rax),%al
  403e13:	00 00                	add    %al,(%rax)
  403e15:	00 00                	add    %al,(%rax)
  403e17:	00 10                	add    %dl,(%rax)
  403e19:	02 00                	add    (%rax),%al
  403e1b:	00 00                	add    %al,(%rax)
  403e1d:	00 00                	add    %al,(%rax)
  403e1f:	00 10                	add    %dl,(%rax)
  403e21:	02 00                	add    (%rax),%al
  403e23:	00 00                	add    %al,(%rax)
  403e25:	00 00                	add    %al,(%rax)
  403e27:	00 10                	add    %dl,(%rax)
  403e29:	02 00                	add    (%rax),%al
  403e2b:	00 00                	add    %al,(%rax)
  403e2d:	00 00                	add    %al,(%rax)
  403e2f:	00 10                	add    %dl,(%rax)
  403e31:	02 00                	add    (%rax),%al
  403e33:	00 00                	add    %al,(%rax)
  403e35:	00 00                	add    %al,(%rax)
  403e37:	00 10                	add    %dl,(%rax)
  403e39:	02 00                	add    (%rax),%al
  403e3b:	00 00                	add    %al,(%rax)
  403e3d:	00 00                	add    %al,(%rax)
  403e3f:	00 10                	add    %dl,(%rax)
  403e41:	02 00                	add    (%rax),%al
  403e43:	00 00                	add    %al,(%rax)
  403e45:	00 00                	add    %al,(%rax)
  403e47:	00 10                	add    %dl,(%rax)
  403e49:	02 00                	add    (%rax),%al
  403e4b:	00 00                	add    %al,(%rax)
  403e4d:	00 00                	add    %al,(%rax)
  403e4f:	00 10                	add    %dl,(%rax)
  403e51:	02 00                	add    (%rax),%al
  403e53:	00 00                	add    %al,(%rax)
  403e55:	00 00                	add    %al,(%rax)
  403e57:	00 10                	add    %dl,(%rax)
  403e59:	02 00                	add    (%rax),%al
  403e5b:	00 00                	add    %al,(%rax)
  403e5d:	00 00                	add    %al,(%rax)
  403e5f:	00 10                	add    %dl,(%rax)
  403e61:	02 00                	add    (%rax),%al
  403e63:	00 00                	add    %al,(%rax)
  403e65:	00 00                	add    %al,(%rax)
  403e67:	00 10                	add    %dl,(%rax)
  403e69:	02 00                	add    (%rax),%al
  403e6b:	00 00                	add    %al,(%rax)
  403e6d:	00 00                	add    %al,(%rax)
  403e6f:	00 10                	add    %dl,(%rax)
  403e71:	02 00                	add    (%rax),%al
  403e73:	00 00                	add    %al,(%rax)
  403e75:	00 00                	add    %al,(%rax)
  403e77:	00 10                	add    %dl,(%rax)
  403e79:	02 00                	add    (%rax),%al
  403e7b:	00 00                	add    %al,(%rax)
  403e7d:	00 00                	add    %al,(%rax)
  403e7f:	00 60 02             	add    %ah,0x2(%rax)
  403e82:	00 00                	add    %al,(%rax)
  403e84:	00 00                	add    %al,(%rax)
  403e86:	00 00                	add    %al,(%rax)
  403e88:	70 02                	jo     403e8c <__intel_avx_rep_memset+0x4bc>
  403e8a:	00 00                	add    %al,(%rax)
  403e8c:	00 00                	add    %al,(%rax)
  403e8e:	00 00                	add    %al,(%rax)
  403e90:	50                   	push   %rax
  403e91:	02 00                	add    (%rax),%al
  403e93:	00 00                	add    %al,(%rax)
  403e95:	00 00                	add    %al,(%rax)
  403e97:	00 40 02             	add    %al,0x2(%rax)
  403e9a:	00 00                	add    %al,(%rax)
  403e9c:	00 00                	add    %al,(%rax)
  403e9e:	00 00                	add    %al,(%rax)
  403ea0:	30 02                	xor    %al,(%rdx)
  403ea2:	00 00                	add    %al,(%rax)
  403ea4:	00 00                	add    %al,(%rax)
  403ea6:	00 00                	add    %al,(%rax)
  403ea8:	20 02                	and    %al,(%rdx)
  403eaa:	00 00                	add    %al,(%rax)
  403eac:	00 00                	add    %al,(%rax)
  403eae:	00 00                	add    %al,(%rax)
  403eb0:	20 02                	and    %al,(%rdx)
  403eb2:	00 00                	add    %al,(%rax)
  403eb4:	00 00                	add    %al,(%rax)
  403eb6:	00 00                	add    %al,(%rax)
  403eb8:	20 02                	and    %al,(%rdx)
  403eba:	00 00                	add    %al,(%rax)
  403ebc:	00 00                	add    %al,(%rax)
  403ebe:	00 00                	add    %al,(%rax)
  403ec0:	10 02                	adc    %al,(%rdx)
  403ec2:	00 00                	add    %al,(%rax)
  403ec4:	00 00                	add    %al,(%rax)
  403ec6:	00 00                	add    %al,(%rax)
  403ec8:	00 02                	add    %al,(%rdx)
  403eca:	00 00                	add    %al,(%rax)
  403ecc:	00 00                	add    %al,(%rax)
  403ece:	00 00                	add    %al,(%rax)
  403ed0:	00 02                	add    %al,(%rdx)
  403ed2:	00 00                	add    %al,(%rax)
  403ed4:	00 00                	add    %al,(%rax)
  403ed6:	00 00                	add    %al,(%rax)
  403ed8:	00 02                	add    %al,(%rdx)
  403eda:	00 00                	add    %al,(%rax)
  403edc:	00 00                	add    %al,(%rax)
  403ede:	00 00                	add    %al,(%rax)
  403ee0:	00 02                	add    %al,(%rdx)
  403ee2:	00 00                	add    %al,(%rax)
  403ee4:	00 00                	add    %al,(%rax)
  403ee6:	00 00                	add    %al,(%rax)
  403ee8:	00 02                	add    %al,(%rdx)
  403eea:	00 00                	add    %al,(%rax)
  403eec:	00 00                	add    %al,(%rax)
  403eee:	00 00                	add    %al,(%rax)
  403ef0:	00 02                	add    %al,(%rdx)
  403ef2:	00 00                	add    %al,(%rax)
  403ef4:	00 00                	add    %al,(%rax)
  403ef6:	00 00                	add    %al,(%rax)
  403ef8:	00 02                	add    %al,(%rdx)
  403efa:	00 00                	add    %al,(%rax)
  403efc:	00 00                	add    %al,(%rax)
  403efe:	00 00                	add    %al,(%rax)
  403f00:	f0 01 00             	lock add %eax,(%rax)
  403f03:	00 00                	add    %al,(%rax)
  403f05:	00 00                	add    %al,(%rax)
  403f07:	00 e0                	add    %ah,%al
  403f09:	01 00                	add    %eax,(%rax)
  403f0b:	00 00                	add    %al,(%rax)
  403f0d:	00 00                	add    %al,(%rax)
  403f0f:	00 e0                	add    %ah,%al
  403f11:	01 00                	add    %eax,(%rax)
  403f13:	00 00                	add    %al,(%rax)
  403f15:	00 00                	add    %al,(%rax)
  403f17:	00 e0                	add    %ah,%al
  403f19:	01 00                	add    %eax,(%rax)
  403f1b:	00 00                	add    %al,(%rax)
  403f1d:	00 00                	add    %al,(%rax)
  403f1f:	00 e0                	add    %ah,%al
  403f21:	01 00                	add    %eax,(%rax)
  403f23:	00 00                	add    %al,(%rax)
  403f25:	00 00                	add    %al,(%rax)
  403f27:	00 e0                	add    %ah,%al
  403f29:	01 00                	add    %eax,(%rax)
  403f2b:	00 00                	add    %al,(%rax)
  403f2d:	00 00                	add    %al,(%rax)
  403f2f:	00 e0                	add    %ah,%al
  403f31:	01 00                	add    %eax,(%rax)
  403f33:	00 00                	add    %al,(%rax)
  403f35:	00 00                	add    %al,(%rax)
  403f37:	00 e0                	add    %ah,%al
  403f39:	01 00                	add    %eax,(%rax)
  403f3b:	00 00                	add    %al,(%rax)
  403f3d:	00 00                	add    %al,(%rax)
  403f3f:	00 e0                	add    %ah,%al
  403f41:	01 00                	add    %eax,(%rax)
  403f43:	00 00                	add    %al,(%rax)
  403f45:	00 00                	add    %al,(%rax)
  403f47:	00 e0                	add    %ah,%al
  403f49:	01 00                	add    %eax,(%rax)
  403f4b:	00 00                	add    %al,(%rax)
  403f4d:	00 00                	add    %al,(%rax)
  403f4f:	00 e0                	add    %ah,%al
  403f51:	01 00                	add    %eax,(%rax)
  403f53:	00 00                	add    %al,(%rax)
  403f55:	00 00                	add    %al,(%rax)
  403f57:	00 e0                	add    %ah,%al
  403f59:	01 00                	add    %eax,(%rax)
  403f5b:	00 00                	add    %al,(%rax)
  403f5d:	00 00                	add    %al,(%rax)
  403f5f:	00 e0                	add    %ah,%al
  403f61:	01 00                	add    %eax,(%rax)
  403f63:	00 00                	add    %al,(%rax)
  403f65:	00 00                	add    %al,(%rax)
  403f67:	00 e0                	add    %ah,%al
  403f69:	01 00                	add    %eax,(%rax)
  403f6b:	00 00                	add    %al,(%rax)
  403f6d:	00 00                	add    %al,(%rax)
  403f6f:	00 e0                	add    %ah,%al
  403f71:	01 00                	add    %eax,(%rax)
  403f73:	00 00                	add    %al,(%rax)
  403f75:	00 00                	add    %al,(%rax)
  403f77:	00 e0                	add    %ah,%al
  403f79:	01 00                	add    %eax,(%rax)
  403f7b:	00 00                	add    %al,(%rax)
  403f7d:	00 00                	add    %al,(%rax)
  403f7f:	00 8e 02 00 00 00    	add    %cl,0x2(%rsi)
  403f85:	00 00                	add    %al,(%rax)
  403f87:	00 8e 02 00 00 00    	add    %cl,0x2(%rsi)
  403f8d:	00 00                	add    %al,(%rax)
  403f8f:	00 8e 02 00 00 00    	add    %cl,0x2(%rsi)
  403f95:	00 00                	add    %al,(%rax)
  403f97:	00 8e 02 00 00 00    	add    %cl,0x2(%rsi)
  403f9d:	00 00                	add    %al,(%rax)
  403f9f:	00 8e 02 00 00 00    	add    %cl,0x2(%rsi)
  403fa5:	00 00                	add    %al,(%rax)
  403fa7:	00 8e 02 00 00 00    	add    %cl,0x2(%rsi)
  403fad:	00 00                	add    %al,(%rax)
  403faf:	00 8e 02 00 00 00    	add    %cl,0x2(%rsi)
  403fb5:	00 00                	add    %al,(%rax)
  403fb7:	00 8e 02 00 00 00    	add    %cl,0x2(%rsi)
  403fbd:	00 00                	add    %al,(%rax)
  403fbf:	00 8e 02 00 00 00    	add    %cl,0x2(%rsi)
  403fc5:	00 00                	add    %al,(%rax)
  403fc7:	00 8e 02 00 00 00    	add    %cl,0x2(%rsi)
  403fcd:	00 00                	add    %al,(%rax)
  403fcf:	00 8e 02 00 00 00    	add    %cl,0x2(%rsi)
  403fd5:	00 00                	add    %al,(%rax)
  403fd7:	00 8e 02 00 00 00    	add    %cl,0x2(%rsi)
  403fdd:	00 00                	add    %al,(%rax)
  403fdf:	00 8e 02 00 00 00    	add    %cl,0x2(%rsi)
  403fe5:	00 00                	add    %al,(%rax)
  403fe7:	00 8e 02 00 00 00    	add    %cl,0x2(%rsi)
  403fed:	00 00                	add    %al,(%rax)
  403fef:	00 8e 02 00 00 00    	add    %cl,0x2(%rsi)
  403ff5:	00 00                	add    %al,(%rax)
  403ff7:	00 8e 02 00 00 00    	add    %cl,0x2(%rsi)
  403ffd:	00 00                	add    %al,(%rax)
  403fff:	00 8e 02 00 00 00    	add    %cl,0x2(%rsi)
  404005:	00 00                	add    %al,(%rax)
  404007:	00 8e 02 00 00 00    	add    %cl,0x2(%rsi)
  40400d:	00 00                	add    %al,(%rax)
  40400f:	00 8e 02 00 00 00    	add    %cl,0x2(%rsi)
  404015:	00 00                	add    %al,(%rax)
  404017:	00 8e 02 00 00 00    	add    %cl,0x2(%rsi)
  40401d:	00 00                	add    %al,(%rax)
  40401f:	00 8e 02 00 00 00    	add    %cl,0x2(%rsi)
  404025:	00 00                	add    %al,(%rax)
  404027:	00 8e 02 00 00 00    	add    %cl,0x2(%rsi)
  40402d:	00 00                	add    %al,(%rax)
  40402f:	00 8e 02 00 00 00    	add    %cl,0x2(%rsi)
  404035:	00 00                	add    %al,(%rax)
  404037:	00 8e 02 00 00 00    	add    %cl,0x2(%rsi)
  40403d:	00 00                	add    %al,(%rax)
  40403f:	00 8e 02 00 00 00    	add    %cl,0x2(%rsi)
  404045:	00 00                	add    %al,(%rax)
  404047:	00 8e 02 00 00 00    	add    %cl,0x2(%rsi)
  40404d:	00 00                	add    %al,(%rax)
  40404f:	00 8e 02 00 00 00    	add    %cl,0x2(%rsi)
  404055:	00 00                	add    %al,(%rax)
  404057:	00 8e 02 00 00 00    	add    %cl,0x2(%rsi)
  40405d:	00 00                	add    %al,(%rax)
  40405f:	00 8e 02 00 00 00    	add    %cl,0x2(%rsi)
  404065:	00 00                	add    %al,(%rax)
  404067:	00 8e 02 00 00 00    	add    %cl,0x2(%rsi)
  40406d:	00 00                	add    %al,(%rax)
  40406f:	00 8e 02 00 00 00    	add    %cl,0x2(%rsi)
  404075:	00 00                	add    %al,(%rax)
  404077:	00 8e 02 00 00 00    	add    %cl,0x2(%rsi)
  40407d:	00 00                	add    %al,(%rax)
  40407f:	00 94 02 00 00 00 00 	add    %dl,0x0(%rdx,%rax,1)
  404086:	00 00                	add    %al,(%rax)
  404088:	94                   	xchg   %eax,%esp
  404089:	02 00                	add    (%rax),%al
  40408b:	00 00                	add    %al,(%rax)
  40408d:	00 00                	add    %al,(%rax)
  40408f:	00 94 02 00 00 00 00 	add    %dl,0x0(%rdx,%rax,1)
  404096:	00 00                	add    %al,(%rax)
  404098:	94                   	xchg   %eax,%esp
  404099:	02 00                	add    (%rax),%al
  40409b:	00 00                	add    %al,(%rax)
  40409d:	00 00                	add    %al,(%rax)
  40409f:	00 94 02 00 00 00 00 	add    %dl,0x0(%rdx,%rax,1)
  4040a6:	00 00                	add    %al,(%rax)
  4040a8:	94                   	xchg   %eax,%esp
  4040a9:	02 00                	add    (%rax),%al
  4040ab:	00 00                	add    %al,(%rax)
  4040ad:	00 00                	add    %al,(%rax)
  4040af:	00 94 02 00 00 00 00 	add    %dl,0x0(%rdx,%rax,1)
  4040b6:	00 00                	add    %al,(%rax)
  4040b8:	94                   	xchg   %eax,%esp
  4040b9:	02 00                	add    (%rax),%al
  4040bb:	00 00                	add    %al,(%rax)
  4040bd:	00 00                	add    %al,(%rax)
  4040bf:	00 94 02 00 00 00 00 	add    %dl,0x0(%rdx,%rax,1)
  4040c6:	00 00                	add    %al,(%rax)
  4040c8:	94                   	xchg   %eax,%esp
  4040c9:	02 00                	add    (%rax),%al
  4040cb:	00 00                	add    %al,(%rax)
  4040cd:	00 00                	add    %al,(%rax)
  4040cf:	00 94 02 00 00 00 00 	add    %dl,0x0(%rdx,%rax,1)
  4040d6:	00 00                	add    %al,(%rax)
  4040d8:	94                   	xchg   %eax,%esp
  4040d9:	02 00                	add    (%rax),%al
  4040db:	00 00                	add    %al,(%rax)
  4040dd:	00 00                	add    %al,(%rax)
  4040df:	00 94 02 00 00 00 00 	add    %dl,0x0(%rdx,%rax,1)
  4040e6:	00 00                	add    %al,(%rax)
  4040e8:	94                   	xchg   %eax,%esp
  4040e9:	02 00                	add    (%rax),%al
  4040eb:	00 00                	add    %al,(%rax)
  4040ed:	00 00                	add    %al,(%rax)
  4040ef:	00 94 02 00 00 00 00 	add    %dl,0x0(%rdx,%rax,1)
  4040f6:	00 00                	add    %al,(%rax)
  4040f8:	94                   	xchg   %eax,%esp
  4040f9:	02 00                	add    (%rax),%al
  4040fb:	00 00                	add    %al,(%rax)
  4040fd:	00 00                	add    %al,(%rax)
  4040ff:	00 94 02 00 00 00 00 	add    %dl,0x0(%rdx,%rax,1)
  404106:	00 00                	add    %al,(%rax)
  404108:	94                   	xchg   %eax,%esp
  404109:	02 00                	add    (%rax),%al
  40410b:	00 00                	add    %al,(%rax)
  40410d:	00 00                	add    %al,(%rax)
  40410f:	00 94 02 00 00 00 00 	add    %dl,0x0(%rdx,%rax,1)
  404116:	00 00                	add    %al,(%rax)
  404118:	94                   	xchg   %eax,%esp
  404119:	02 00                	add    (%rax),%al
  40411b:	00 00                	add    %al,(%rax)
  40411d:	00 00                	add    %al,(%rax)
  40411f:	00 94 02 00 00 00 00 	add    %dl,0x0(%rdx,%rax,1)
  404126:	00 00                	add    %al,(%rax)
  404128:	94                   	xchg   %eax,%esp
  404129:	02 00                	add    (%rax),%al
  40412b:	00 00                	add    %al,(%rax)
  40412d:	00 00                	add    %al,(%rax)
  40412f:	00 94 02 00 00 00 00 	add    %dl,0x0(%rdx,%rax,1)
  404136:	00 00                	add    %al,(%rax)
  404138:	94                   	xchg   %eax,%esp
  404139:	02 00                	add    (%rax),%al
  40413b:	00 00                	add    %al,(%rax)
  40413d:	00 00                	add    %al,(%rax)
  40413f:	00 94 02 00 00 00 00 	add    %dl,0x0(%rdx,%rax,1)
  404146:	00 00                	add    %al,(%rax)
  404148:	94                   	xchg   %eax,%esp
  404149:	02 00                	add    (%rax),%al
  40414b:	00 00                	add    %al,(%rax)
  40414d:	00 00                	add    %al,(%rax)
  40414f:	00 94 02 00 00 00 00 	add    %dl,0x0(%rdx,%rax,1)
  404156:	00 00                	add    %al,(%rax)
  404158:	94                   	xchg   %eax,%esp
  404159:	02 00                	add    (%rax),%al
  40415b:	00 00                	add    %al,(%rax)
  40415d:	00 00                	add    %al,(%rax)
  40415f:	00 94 02 00 00 00 00 	add    %dl,0x0(%rdx,%rax,1)
  404166:	00 00                	add    %al,(%rax)
  404168:	94                   	xchg   %eax,%esp
  404169:	02 00                	add    (%rax),%al
  40416b:	00 00                	add    %al,(%rax)
  40416d:	00 00                	add    %al,(%rax)
  40416f:	00 94 02 00 00 00 00 	add    %dl,0x0(%rdx,%rax,1)
  404176:	00 00                	add    %al,(%rax)
  404178:	94                   	xchg   %eax,%esp
  404179:	02 00                	add    (%rax),%al
  40417b:	00 00                	add    %al,(%rax)
  40417d:	00 00                	add    %al,(%rax)
  40417f:	00 9a 02 00 00 00    	add    %bl,0x2(%rdx)
  404185:	00 00                	add    %al,(%rax)
  404187:	00 9a 02 00 00 00    	add    %bl,0x2(%rdx)
  40418d:	00 00                	add    %al,(%rax)
  40418f:	00 9a 02 00 00 00    	add    %bl,0x2(%rdx)
  404195:	00 00                	add    %al,(%rax)
  404197:	00 9a 02 00 00 00    	add    %bl,0x2(%rdx)
  40419d:	00 00                	add    %al,(%rax)
  40419f:	00 9a 02 00 00 00    	add    %bl,0x2(%rdx)
  4041a5:	00 00                	add    %al,(%rax)
  4041a7:	00 9a 02 00 00 00    	add    %bl,0x2(%rdx)
  4041ad:	00 00                	add    %al,(%rax)
  4041af:	00 9a 02 00 00 00    	add    %bl,0x2(%rdx)
  4041b5:	00 00                	add    %al,(%rax)
  4041b7:	00 9a 02 00 00 00    	add    %bl,0x2(%rdx)
  4041bd:	00 00                	add    %al,(%rax)
  4041bf:	00 9a 02 00 00 00    	add    %bl,0x2(%rdx)
  4041c5:	00 00                	add    %al,(%rax)
  4041c7:	00 9a 02 00 00 00    	add    %bl,0x2(%rdx)
  4041cd:	00 00                	add    %al,(%rax)
  4041cf:	00 9a 02 00 00 00    	add    %bl,0x2(%rdx)
  4041d5:	00 00                	add    %al,(%rax)
  4041d7:	00 9a 02 00 00 00    	add    %bl,0x2(%rdx)
  4041dd:	00 00                	add    %al,(%rax)
  4041df:	00 9a 02 00 00 00    	add    %bl,0x2(%rdx)
  4041e5:	00 00                	add    %al,(%rax)
  4041e7:	00 9a 02 00 00 00    	add    %bl,0x2(%rdx)
  4041ed:	00 00                	add    %al,(%rax)
  4041ef:	00 9a 02 00 00 00    	add    %bl,0x2(%rdx)
  4041f5:	00 00                	add    %al,(%rax)
  4041f7:	00 9a 02 00 00 00    	add    %bl,0x2(%rdx)
  4041fd:	00 00                	add    %al,(%rax)
  4041ff:	00 9a 02 00 00 00    	add    %bl,0x2(%rdx)
  404205:	00 00                	add    %al,(%rax)
  404207:	00 9a 02 00 00 00    	add    %bl,0x2(%rdx)
  40420d:	00 00                	add    %al,(%rax)
  40420f:	00 9a 02 00 00 00    	add    %bl,0x2(%rdx)
  404215:	00 00                	add    %al,(%rax)
  404217:	00 9a 02 00 00 00    	add    %bl,0x2(%rdx)
  40421d:	00 00                	add    %al,(%rax)
  40421f:	00 9a 02 00 00 00    	add    %bl,0x2(%rdx)
  404225:	00 00                	add    %al,(%rax)
  404227:	00 9a 02 00 00 00    	add    %bl,0x2(%rdx)
  40422d:	00 00                	add    %al,(%rax)
  40422f:	00 9a 02 00 00 00    	add    %bl,0x2(%rdx)
  404235:	00 00                	add    %al,(%rax)
  404237:	00 9a 02 00 00 00    	add    %bl,0x2(%rdx)
  40423d:	00 00                	add    %al,(%rax)
  40423f:	00 9a 02 00 00 00    	add    %bl,0x2(%rdx)
  404245:	00 00                	add    %al,(%rax)
  404247:	00 9a 02 00 00 00    	add    %bl,0x2(%rdx)
  40424d:	00 00                	add    %al,(%rax)
  40424f:	00 9a 02 00 00 00    	add    %bl,0x2(%rdx)
  404255:	00 00                	add    %al,(%rax)
  404257:	00 9a 02 00 00 00    	add    %bl,0x2(%rdx)
  40425d:	00 00                	add    %al,(%rax)
  40425f:	00 9a 02 00 00 00    	add    %bl,0x2(%rdx)
  404265:	00 00                	add    %al,(%rax)
  404267:	00 9a 02 00 00 00    	add    %bl,0x2(%rdx)
  40426d:	00 00                	add    %al,(%rax)
  40426f:	00 9a 02 00 00 00    	add    %bl,0x2(%rdx)
  404275:	00 00                	add    %al,(%rax)
  404277:	00 9a 02 00 00 00    	add    %bl,0x2(%rdx)
  40427d:	00 00                	add    %al,(%rax)
  40427f:	00 a0 02 00 00 00    	add    %ah,0x2(%rax)
  404285:	00 00                	add    %al,(%rax)
  404287:	00 a0 02 00 00 00    	add    %ah,0x2(%rax)
  40428d:	00 00                	add    %al,(%rax)
  40428f:	00 a0 02 00 00 00    	add    %ah,0x2(%rax)
  404295:	00 00                	add    %al,(%rax)
  404297:	00 a0 02 00 00 00    	add    %ah,0x2(%rax)
  40429d:	00 00                	add    %al,(%rax)
  40429f:	00 a0 02 00 00 00    	add    %ah,0x2(%rax)
  4042a5:	00 00                	add    %al,(%rax)
  4042a7:	00 a0 02 00 00 00    	add    %ah,0x2(%rax)
  4042ad:	00 00                	add    %al,(%rax)
  4042af:	00 a0 02 00 00 00    	add    %ah,0x2(%rax)
  4042b5:	00 00                	add    %al,(%rax)
  4042b7:	00 a0 02 00 00 00    	add    %ah,0x2(%rax)
  4042bd:	00 00                	add    %al,(%rax)
  4042bf:	00 a0 02 00 00 00    	add    %ah,0x2(%rax)
  4042c5:	00 00                	add    %al,(%rax)
  4042c7:	00 a0 02 00 00 00    	add    %ah,0x2(%rax)
  4042cd:	00 00                	add    %al,(%rax)
  4042cf:	00 a0 02 00 00 00    	add    %ah,0x2(%rax)
  4042d5:	00 00                	add    %al,(%rax)
  4042d7:	00 a0 02 00 00 00    	add    %ah,0x2(%rax)
  4042dd:	00 00                	add    %al,(%rax)
  4042df:	00 a0 02 00 00 00    	add    %ah,0x2(%rax)
  4042e5:	00 00                	add    %al,(%rax)
  4042e7:	00 a0 02 00 00 00    	add    %ah,0x2(%rax)
  4042ed:	00 00                	add    %al,(%rax)
  4042ef:	00 a0 02 00 00 00    	add    %ah,0x2(%rax)
  4042f5:	00 00                	add    %al,(%rax)
  4042f7:	00 a0 02 00 00 00    	add    %ah,0x2(%rax)
  4042fd:	00 00                	add    %al,(%rax)
  4042ff:	00 a0 02 00 00 00    	add    %ah,0x2(%rax)
  404305:	00 00                	add    %al,(%rax)
  404307:	00 a0 02 00 00 00    	add    %ah,0x2(%rax)
  40430d:	00 00                	add    %al,(%rax)
  40430f:	00 a0 02 00 00 00    	add    %ah,0x2(%rax)
  404315:	00 00                	add    %al,(%rax)
  404317:	00 a0 02 00 00 00    	add    %ah,0x2(%rax)
  40431d:	00 00                	add    %al,(%rax)
  40431f:	00 a0 02 00 00 00    	add    %ah,0x2(%rax)
  404325:	00 00                	add    %al,(%rax)
  404327:	00 a0 02 00 00 00    	add    %ah,0x2(%rax)
  40432d:	00 00                	add    %al,(%rax)
  40432f:	00 a0 02 00 00 00    	add    %ah,0x2(%rax)
  404335:	00 00                	add    %al,(%rax)
  404337:	00 a0 02 00 00 00    	add    %ah,0x2(%rax)
  40433d:	00 00                	add    %al,(%rax)
  40433f:	00 a0 02 00 00 00    	add    %ah,0x2(%rax)
  404345:	00 00                	add    %al,(%rax)
  404347:	00 a0 02 00 00 00    	add    %ah,0x2(%rax)
  40434d:	00 00                	add    %al,(%rax)
  40434f:	00 a0 02 00 00 00    	add    %ah,0x2(%rax)
  404355:	00 00                	add    %al,(%rax)
  404357:	00 a0 02 00 00 00    	add    %ah,0x2(%rax)
  40435d:	00 00                	add    %al,(%rax)
  40435f:	00 a0 02 00 00 00    	add    %ah,0x2(%rax)
  404365:	00 00                	add    %al,(%rax)
  404367:	00 a0 02 00 00 00    	add    %ah,0x2(%rax)
  40436d:	00 00                	add    %al,(%rax)
  40436f:	00 a0 02 00 00 00    	add    %ah,0x2(%rax)
  404375:	00 00                	add    %al,(%rax)
  404377:	00 a0 02 00 00 00    	add    %ah,0x2(%rax)
  40437d:	00 00                	add    %al,(%rax)
  40437f:	00 ae 02 00 00 00    	add    %ch,0x2(%rsi)
  404385:	00 00                	add    %al,(%rax)
  404387:	00 ae 02 00 00 00    	add    %ch,0x2(%rsi)
  40438d:	00 00                	add    %al,(%rax)
  40438f:	00 ae 02 00 00 00    	add    %ch,0x2(%rsi)
  404395:	00 00                	add    %al,(%rax)
  404397:	00 ae 02 00 00 00    	add    %ch,0x2(%rsi)
  40439d:	00 00                	add    %al,(%rax)
  40439f:	00 ae 02 00 00 00    	add    %ch,0x2(%rsi)
  4043a5:	00 00                	add    %al,(%rax)
  4043a7:	00 ae 02 00 00 00    	add    %ch,0x2(%rsi)
  4043ad:	00 00                	add    %al,(%rax)
  4043af:	00 ae 02 00 00 00    	add    %ch,0x2(%rsi)
  4043b5:	00 00                	add    %al,(%rax)
  4043b7:	00 ae 02 00 00 00    	add    %ch,0x2(%rsi)
  4043bd:	00 00                	add    %al,(%rax)
  4043bf:	00 ae 02 00 00 00    	add    %ch,0x2(%rsi)
  4043c5:	00 00                	add    %al,(%rax)
  4043c7:	00 ae 02 00 00 00    	add    %ch,0x2(%rsi)
  4043cd:	00 00                	add    %al,(%rax)
  4043cf:	00 ae 02 00 00 00    	add    %ch,0x2(%rsi)
  4043d5:	00 00                	add    %al,(%rax)
  4043d7:	00 ae 02 00 00 00    	add    %ch,0x2(%rsi)
  4043dd:	00 00                	add    %al,(%rax)
  4043df:	00 ae 02 00 00 00    	add    %ch,0x2(%rsi)
  4043e5:	00 00                	add    %al,(%rax)
  4043e7:	00 ae 02 00 00 00    	add    %ch,0x2(%rsi)
  4043ed:	00 00                	add    %al,(%rax)
  4043ef:	00 ae 02 00 00 00    	add    %ch,0x2(%rsi)
  4043f5:	00 00                	add    %al,(%rax)
  4043f7:	00 ae 02 00 00 00    	add    %ch,0x2(%rsi)
  4043fd:	00 00                	add    %al,(%rax)
  4043ff:	00 ae 02 00 00 00    	add    %ch,0x2(%rsi)
  404405:	00 00                	add    %al,(%rax)
  404407:	00 ae 02 00 00 00    	add    %ch,0x2(%rsi)
  40440d:	00 00                	add    %al,(%rax)
  40440f:	00 ae 02 00 00 00    	add    %ch,0x2(%rsi)
  404415:	00 00                	add    %al,(%rax)
  404417:	00 ae 02 00 00 00    	add    %ch,0x2(%rsi)
  40441d:	00 00                	add    %al,(%rax)
  40441f:	00 ae 02 00 00 00    	add    %ch,0x2(%rsi)
  404425:	00 00                	add    %al,(%rax)
  404427:	00 ae 02 00 00 00    	add    %ch,0x2(%rsi)
  40442d:	00 00                	add    %al,(%rax)
  40442f:	00 ae 02 00 00 00    	add    %ch,0x2(%rsi)
  404435:	00 00                	add    %al,(%rax)
  404437:	00 ae 02 00 00 00    	add    %ch,0x2(%rsi)
  40443d:	00 00                	add    %al,(%rax)
  40443f:	00 ae 02 00 00 00    	add    %ch,0x2(%rsi)
  404445:	00 00                	add    %al,(%rax)
  404447:	00 ae 02 00 00 00    	add    %ch,0x2(%rsi)
  40444d:	00 00                	add    %al,(%rax)
  40444f:	00 ae 02 00 00 00    	add    %ch,0x2(%rsi)
  404455:	00 00                	add    %al,(%rax)
  404457:	00 ae 02 00 00 00    	add    %ch,0x2(%rsi)
  40445d:	00 00                	add    %al,(%rax)
  40445f:	00 ae 02 00 00 00    	add    %ch,0x2(%rsi)
  404465:	00 00                	add    %al,(%rax)
  404467:	00 ae 02 00 00 00    	add    %ch,0x2(%rsi)
  40446d:	00 00                	add    %al,(%rax)
  40446f:	00 ae 02 00 00 00    	add    %ch,0x2(%rsi)
  404475:	00 00                	add    %al,(%rax)
  404477:	00 ae 02 00 00 00    	add    %ch,0x2(%rsi)
  40447d:	00 00                	add    %al,(%rax)
  40447f:	00 b7 02 00 00 00    	add    %dh,0x2(%rdi)
  404485:	00 00                	add    %al,(%rax)
  404487:	00 b7 02 00 00 00    	add    %dh,0x2(%rdi)
  40448d:	00 00                	add    %al,(%rax)
  40448f:	00 b7 02 00 00 00    	add    %dh,0x2(%rdi)
  404495:	00 00                	add    %al,(%rax)
  404497:	00 b7 02 00 00 00    	add    %dh,0x2(%rdi)
  40449d:	00 00                	add    %al,(%rax)
  40449f:	00 b7 02 00 00 00    	add    %dh,0x2(%rdi)
  4044a5:	00 00                	add    %al,(%rax)
  4044a7:	00 b7 02 00 00 00    	add    %dh,0x2(%rdi)
  4044ad:	00 00                	add    %al,(%rax)
  4044af:	00 b7 02 00 00 00    	add    %dh,0x2(%rdi)
  4044b5:	00 00                	add    %al,(%rax)
  4044b7:	00 b7 02 00 00 00    	add    %dh,0x2(%rdi)
  4044bd:	00 00                	add    %al,(%rax)
  4044bf:	00 b7 02 00 00 00    	add    %dh,0x2(%rdi)
  4044c5:	00 00                	add    %al,(%rax)
  4044c7:	00 b7 02 00 00 00    	add    %dh,0x2(%rdi)
  4044cd:	00 00                	add    %al,(%rax)
  4044cf:	00 b7 02 00 00 00    	add    %dh,0x2(%rdi)
  4044d5:	00 00                	add    %al,(%rax)
  4044d7:	00 b7 02 00 00 00    	add    %dh,0x2(%rdi)
  4044dd:	00 00                	add    %al,(%rax)
  4044df:	00 b7 02 00 00 00    	add    %dh,0x2(%rdi)
  4044e5:	00 00                	add    %al,(%rax)
  4044e7:	00 b7 02 00 00 00    	add    %dh,0x2(%rdi)
  4044ed:	00 00                	add    %al,(%rax)
  4044ef:	00 b7 02 00 00 00    	add    %dh,0x2(%rdi)
  4044f5:	00 00                	add    %al,(%rax)
  4044f7:	00 b7 02 00 00 00    	add    %dh,0x2(%rdi)
  4044fd:	00 00                	add    %al,(%rax)
  4044ff:	00 b7 02 00 00 00    	add    %dh,0x2(%rdi)
  404505:	00 00                	add    %al,(%rax)
  404507:	00 b7 02 00 00 00    	add    %dh,0x2(%rdi)
  40450d:	00 00                	add    %al,(%rax)
  40450f:	00 b7 02 00 00 00    	add    %dh,0x2(%rdi)
  404515:	00 00                	add    %al,(%rax)
  404517:	00 b7 02 00 00 00    	add    %dh,0x2(%rdi)
  40451d:	00 00                	add    %al,(%rax)
  40451f:	00 b7 02 00 00 00    	add    %dh,0x2(%rdi)
  404525:	00 00                	add    %al,(%rax)
  404527:	00 b7 02 00 00 00    	add    %dh,0x2(%rdi)
  40452d:	00 00                	add    %al,(%rax)
  40452f:	00 b7 02 00 00 00    	add    %dh,0x2(%rdi)
  404535:	00 00                	add    %al,(%rax)
  404537:	00 b7 02 00 00 00    	add    %dh,0x2(%rdi)
  40453d:	00 00                	add    %al,(%rax)
  40453f:	00 b7 02 00 00 00    	add    %dh,0x2(%rdi)
  404545:	00 00                	add    %al,(%rax)
  404547:	00 b7 02 00 00 00    	add    %dh,0x2(%rdi)
  40454d:	00 00                	add    %al,(%rax)
  40454f:	00 b7 02 00 00 00    	add    %dh,0x2(%rdi)
  404555:	00 00                	add    %al,(%rax)
  404557:	00 b7 02 00 00 00    	add    %dh,0x2(%rdi)
  40455d:	00 00                	add    %al,(%rax)
  40455f:	00 b7 02 00 00 00    	add    %dh,0x2(%rdi)
  404565:	00 00                	add    %al,(%rax)
  404567:	00 b7 02 00 00 00    	add    %dh,0x2(%rdi)
  40456d:	00 00                	add    %al,(%rax)
  40456f:	00 b7 02 00 00 00    	add    %dh,0x2(%rdi)
  404575:	00 00                	add    %al,(%rax)
  404577:	00 b7 02 00 00 00    	add    %dh,0x2(%rdi)
  40457d:	00 00                	add    %al,(%rax)
  40457f:	00 c0                	add    %al,%al
  404581:	02 00                	add    (%rax),%al
  404583:	00 00                	add    %al,(%rax)
  404585:	00 00                	add    %al,(%rax)
  404587:	00 c0                	add    %al,%al
  404589:	02 00                	add    (%rax),%al
  40458b:	00 00                	add    %al,(%rax)
  40458d:	00 00                	add    %al,(%rax)
  40458f:	00 c0                	add    %al,%al
  404591:	02 00                	add    (%rax),%al
  404593:	00 00                	add    %al,(%rax)
  404595:	00 00                	add    %al,(%rax)
  404597:	00 c0                	add    %al,%al
  404599:	02 00                	add    (%rax),%al
  40459b:	00 00                	add    %al,(%rax)
  40459d:	00 00                	add    %al,(%rax)
  40459f:	00 c0                	add    %al,%al
  4045a1:	02 00                	add    (%rax),%al
  4045a3:	00 00                	add    %al,(%rax)
  4045a5:	00 00                	add    %al,(%rax)
  4045a7:	00 c0                	add    %al,%al
  4045a9:	02 00                	add    (%rax),%al
  4045ab:	00 00                	add    %al,(%rax)
  4045ad:	00 00                	add    %al,(%rax)
  4045af:	00 c0                	add    %al,%al
  4045b1:	02 00                	add    (%rax),%al
  4045b3:	00 00                	add    %al,(%rax)
  4045b5:	00 00                	add    %al,(%rax)
  4045b7:	00 c0                	add    %al,%al
  4045b9:	02 00                	add    (%rax),%al
  4045bb:	00 00                	add    %al,(%rax)
  4045bd:	00 00                	add    %al,(%rax)
  4045bf:	00 c0                	add    %al,%al
  4045c1:	02 00                	add    (%rax),%al
  4045c3:	00 00                	add    %al,(%rax)
  4045c5:	00 00                	add    %al,(%rax)
  4045c7:	00 c0                	add    %al,%al
  4045c9:	02 00                	add    (%rax),%al
  4045cb:	00 00                	add    %al,(%rax)
  4045cd:	00 00                	add    %al,(%rax)
  4045cf:	00 c0                	add    %al,%al
  4045d1:	02 00                	add    (%rax),%al
  4045d3:	00 00                	add    %al,(%rax)
  4045d5:	00 00                	add    %al,(%rax)
  4045d7:	00 c0                	add    %al,%al
  4045d9:	02 00                	add    (%rax),%al
  4045db:	00 00                	add    %al,(%rax)
  4045dd:	00 00                	add    %al,(%rax)
  4045df:	00 c0                	add    %al,%al
  4045e1:	02 00                	add    (%rax),%al
  4045e3:	00 00                	add    %al,(%rax)
  4045e5:	00 00                	add    %al,(%rax)
  4045e7:	00 c0                	add    %al,%al
  4045e9:	02 00                	add    (%rax),%al
  4045eb:	00 00                	add    %al,(%rax)
  4045ed:	00 00                	add    %al,(%rax)
  4045ef:	00 c0                	add    %al,%al
  4045f1:	02 00                	add    (%rax),%al
  4045f3:	00 00                	add    %al,(%rax)
  4045f5:	00 00                	add    %al,(%rax)
  4045f7:	00 c0                	add    %al,%al
  4045f9:	02 00                	add    (%rax),%al
  4045fb:	00 00                	add    %al,(%rax)
  4045fd:	00 00                	add    %al,(%rax)
