
results_heavy/bin/icx_-O3_Restrict_N4096:     file format elf64-x86-64


Disassembly of section .init:

0000000000401000 <_init>:
  401000:	48 83 ec 08          	sub    $0x8,%rsp
  401004:	48 8b 05 bd bf 00 00 	mov    0xbfbd(%rip),%rax        # 40cfc8 <__gmon_start__@Base>
  40100b:	48 85 c0             	test   %rax,%rax
  40100e:	74 02                	je     401012 <_init+0x12>
  401010:	ff d0                	call   *%rax
  401012:	48 83 c4 08          	add    $0x8,%rsp
  401016:	c3                   	ret

Disassembly of section .plt:

0000000000401020 <getenv@plt-0x10>:
  401020:	ff 35 ca bf 00 00    	push   0xbfca(%rip)        # 40cff0 <_GLOBAL_OFFSET_TABLE_+0x8>
  401026:	ff 25 cc bf 00 00    	jmp    *0xbfcc(%rip)        # 40cff8 <_GLOBAL_OFFSET_TABLE_+0x10>
  40102c:	0f 1f 40 00          	nopl   0x0(%rax)

0000000000401030 <getenv@plt>:
  401030:	ff 25 ca bf 00 00    	jmp    *0xbfca(%rip)        # 40d000 <getenv@GLIBC_2.2.5>
  401036:	68 00 00 00 00       	push   $0x0
  40103b:	e9 e0 ff ff ff       	jmp    401020 <_init+0x20>

0000000000401040 <free@plt>:
  401040:	ff 25 c2 bf 00 00    	jmp    *0xbfc2(%rip)        # 40d008 <free@GLIBC_2.2.5>
  401046:	68 01 00 00 00       	push   $0x1
  40104b:	e9 d0 ff ff ff       	jmp    401020 <_init+0x20>

0000000000401050 <clock_gettime@plt>:
  401050:	ff 25 ba bf 00 00    	jmp    *0xbfba(%rip)        # 40d010 <clock_gettime@GLIBC_2.17>
  401056:	68 02 00 00 00       	push   $0x2
  40105b:	e9 c0 ff ff ff       	jmp    401020 <_init+0x20>

0000000000401060 <setenv@plt>:
  401060:	ff 25 b2 bf 00 00    	jmp    *0xbfb2(%rip)        # 40d018 <setenv@GLIBC_2.2.5>
  401066:	68 03 00 00 00       	push   $0x3
  40106b:	e9 b0 ff ff ff       	jmp    401020 <_init+0x20>

0000000000401070 <fclose@plt>:
  401070:	ff 25 aa bf 00 00    	jmp    *0xbfaa(%rip)        # 40d020 <fclose@GLIBC_2.2.5>
  401076:	68 04 00 00 00       	push   $0x4
  40107b:	e9 a0 ff ff ff       	jmp    401020 <_init+0x20>

0000000000401080 <strlen@plt>:
  401080:	ff 25 a2 bf 00 00    	jmp    *0xbfa2(%rip)        # 40d028 <strlen@GLIBC_2.2.5>
  401086:	68 05 00 00 00       	push   $0x5
  40108b:	e9 90 ff ff ff       	jmp    401020 <_init+0x20>

0000000000401090 <__stack_chk_fail@plt>:
  401090:	ff 25 9a bf 00 00    	jmp    *0xbf9a(%rip)        # 40d030 <__stack_chk_fail@GLIBC_2.4>
  401096:	68 06 00 00 00       	push   $0x6
  40109b:	e9 80 ff ff ff       	jmp    401020 <_init+0x20>

00000000004010a0 <strchr@plt>:
  4010a0:	ff 25 92 bf 00 00    	jmp    *0xbf92(%rip)        # 40d038 <strchr@GLIBC_2.2.5>
  4010a6:	68 07 00 00 00       	push   $0x7
  4010ab:	e9 70 ff ff ff       	jmp    401020 <_init+0x20>

00000000004010b0 <fputc@plt>:
  4010b0:	ff 25 8a bf 00 00    	jmp    *0xbf8a(%rip)        # 40d040 <fputc@GLIBC_2.2.5>
  4010b6:	68 08 00 00 00       	push   $0x8
  4010bb:	e9 60 ff ff ff       	jmp    401020 <_init+0x20>

00000000004010c0 <fprintf@plt>:
  4010c0:	ff 25 82 bf 00 00    	jmp    *0xbf82(%rip)        # 40d048 <fprintf@GLIBC_2.2.5>
  4010c6:	68 09 00 00 00       	push   $0x9
  4010cb:	e9 50 ff ff ff       	jmp    401020 <_init+0x20>

00000000004010d0 <memcpy@plt>:
  4010d0:	ff 25 7a bf 00 00    	jmp    *0xbf7a(%rip)        # 40d050 <memcpy@GLIBC_2.14>
  4010d6:	68 0a 00 00 00       	push   $0xa
  4010db:	e9 40 ff ff ff       	jmp    401020 <_init+0x20>

00000000004010e0 <malloc@plt>:
  4010e0:	ff 25 72 bf 00 00    	jmp    *0xbf72(%rip)        # 40d058 <malloc@GLIBC_2.2.5>
  4010e6:	68 0b 00 00 00       	push   $0xb
  4010eb:	e9 30 ff ff ff       	jmp    401020 <_init+0x20>

00000000004010f0 <catopen@plt>:
  4010f0:	ff 25 6a bf 00 00    	jmp    *0xbf6a(%rip)        # 40d060 <catopen@GLIBC_2.2.5>
  4010f6:	68 0c 00 00 00       	push   $0xc
  4010fb:	e9 20 ff ff ff       	jmp    401020 <_init+0x20>

0000000000401100 <__vsnprintf_chk@plt>:
  401100:	ff 25 62 bf 00 00    	jmp    *0xbf62(%rip)        # 40d068 <__vsnprintf_chk@GLIBC_2.3.4>
  401106:	68 0d 00 00 00       	push   $0xd
  40110b:	e9 10 ff ff ff       	jmp    401020 <_init+0x20>

0000000000401110 <__strncpy_chk@plt>:
  401110:	ff 25 5a bf 00 00    	jmp    *0xbf5a(%rip)        # 40d070 <__strncpy_chk@GLIBC_2.3.4>
  401116:	68 0e 00 00 00       	push   $0xe
  40111b:	e9 00 ff ff ff       	jmp    401020 <_init+0x20>

0000000000401120 <__printf_chk@plt>:
  401120:	ff 25 52 bf 00 00    	jmp    *0xbf52(%rip)        # 40d078 <__printf_chk@GLIBC_2.3.4>
  401126:	68 0f 00 00 00       	push   $0xf
  40112b:	e9 f0 fe ff ff       	jmp    401020 <_init+0x20>

0000000000401130 <fopen@plt>:
  401130:	ff 25 4a bf 00 00    	jmp    *0xbf4a(%rip)        # 40d080 <fopen@GLIBC_2.2.5>
  401136:	68 10 00 00 00       	push   $0x10
  40113b:	e9 e0 fe ff ff       	jmp    401020 <_init+0x20>

0000000000401140 <catgets@plt>:
  401140:	ff 25 42 bf 00 00    	jmp    *0xbf42(%rip)        # 40d088 <catgets@GLIBC_2.2.5>
  401146:	68 11 00 00 00       	push   $0x11
  40114b:	e9 d0 fe ff ff       	jmp    401020 <_init+0x20>

0000000000401150 <exit@plt>:
  401150:	ff 25 3a bf 00 00    	jmp    *0xbf3a(%rip)        # 40d090 <exit@GLIBC_2.2.5>
  401156:	68 12 00 00 00       	push   $0x12
  40115b:	e9 c0 fe ff ff       	jmp    401020 <_init+0x20>

0000000000401160 <__fprintf_chk@plt>:
  401160:	ff 25 32 bf 00 00    	jmp    *0xbf32(%rip)        # 40d098 <__fprintf_chk@GLIBC_2.3.4>
  401166:	68 13 00 00 00       	push   $0x13
  40116b:	e9 b0 fe ff ff       	jmp    401020 <_init+0x20>

0000000000401170 <__strncat_chk@plt>:
  401170:	ff 25 2a bf 00 00    	jmp    *0xbf2a(%rip)        # 40d0a0 <__strncat_chk@GLIBC_2.3.4>
  401176:	68 14 00 00 00       	push   $0x14
  40117b:	e9 a0 fe ff ff       	jmp    401020 <_init+0x20>

Disassembly of section .plt.got:

0000000000401180 <memset@plt>:
  401180:	ff 25 3a be 00 00    	jmp    *0xbe3a(%rip)        # 40cfc0 <memset@GLIBC_2.2.5>
  401186:	66 90                	xchg   %ax,%ax

0000000000401188 <__cxa_finalize@plt>:
  401188:	ff 25 4a be 00 00    	jmp    *0xbe4a(%rip)        # 40cfd8 <__cxa_finalize@GLIBC_2.2.5>
  40118e:	66 90                	xchg   %ax,%ax

Disassembly of section .text:

00000000004011c0 <_GLOBAL__sub_I_fast_mem_ops.c>:
  4011c0:	f3 0f 1e fa          	endbr64
  4011c4:	55                   	push   %rbp
  4011c5:	48 89 e5             	mov    %rsp,%rbp
  4011c8:	41 56                	push   %r14
  4011ca:	53                   	push   %rbx
  4011cb:	48 83 ec 20          	sub    $0x20,%rsp
  4011cf:	83 3d 36 c6 00 00 00 	cmpl   $0x0,0xc636(%rip)        # 40d80c <_ZL18__libirc_cache_tbl+0xc>
  4011d6:	0f 84 05 01 00 00    	je     4012e1 <_GLOBAL__sub_I_fast_mem_ops.c+0x121>
  4011dc:	83 3d 1d c6 00 00 00 	cmpl   $0x0,0xc61d(%rip)        # 40d800 <_ZL18__libirc_cache_tbl>
  4011e3:	0f 84 0a 01 00 00    	je     4012f3 <_GLOBAL__sub_I_fast_mem_ops.c+0x133>
  4011e9:	83 3d 14 c6 00 00 00 	cmpl   $0x0,0xc614(%rip)        # 40d804 <_ZL18__libirc_cache_tbl+0x4>
  4011f0:	0f 84 21 02 00 00    	je     401417 <_GLOBAL__sub_I_fast_mem_ops.c+0x257>
  4011f6:	53                   	push   %rbx
  4011f7:	b8 01 00 00 00       	mov    $0x1,%eax
  4011fc:	0f a2                	cpuid
  4011fe:	89 5d d0             	mov    %ebx,-0x30(%rbp)
  401201:	89 55 e0             	mov    %edx,-0x20(%rbp)
  401204:	89 45 ec             	mov    %eax,-0x14(%rbp)
  401207:	5b                   	pop    %rbx
  401208:	8b 45 e0             	mov    -0x20(%rbp),%eax
  40120b:	89 c1                	mov    %eax,%ecx
  40120d:	c1 e9 17             	shr    $0x17,%ecx
  401210:	83 e1 01             	and    $0x1,%ecx
  401213:	a9 00 00 00 04       	test   $0x4000000,%eax
  401218:	41 be 02 00 00 00    	mov    $0x2,%r14d
  40121e:	44 0f 44 f1          	cmove  %ecx,%r14d
  401222:	8b 05 e8 c5 00 00    	mov    0xc5e8(%rip),%eax        # 40d810 <_ZL18__libirc_cache_tbl+0x10>
  401228:	85 c0                	test   %eax,%eax
  40122a:	0f 84 f8 01 00 00    	je     401428 <_GLOBAL__sub_I_fast_mem_ops.c+0x268>
  401230:	8b 0d f2 c5 00 00    	mov    0xc5f2(%rip),%ecx        # 40d828 <_ZL18__libirc_cache_tbl+0x28>
  401236:	0f af 0d e7 c5 00 00 	imul   0xc5e7(%rip),%ecx        # 40d824 <_ZL18__libirc_cache_tbl+0x24>
  40123d:	8b 15 dd c5 00 00    	mov    0xc5dd(%rip),%edx        # 40d820 <_ZL18__libirc_cache_tbl+0x20>
  401243:	8b 35 cf c5 00 00    	mov    0xc5cf(%rip),%esi        # 40d818 <_ZL18__libirc_cache_tbl+0x18>
  401249:	0f af 35 c4 c5 00 00 	imul   0xc5c4(%rip),%esi        # 40d814 <_ZL18__libirc_cache_tbl+0x14>
  401250:	39 d0                	cmp    %edx,%eax
  401252:	0f 47 d0             	cmova  %eax,%edx
  401255:	0f 42 f1             	cmovb  %ecx,%esi
  401258:	8b 0d da c5 00 00    	mov    0xc5da(%rip),%ecx        # 40d838 <_ZL18__libirc_cache_tbl+0x38>
  40125e:	0f af 0d cf c5 00 00 	imul   0xc5cf(%rip),%ecx        # 40d834 <_ZL18__libirc_cache_tbl+0x34>
  401265:	8b 3d c5 c5 00 00    	mov    0xc5c5(%rip),%edi        # 40d830 <_ZL18__libirc_cache_tbl+0x30>
  40126b:	39 fa                	cmp    %edi,%edx
  40126d:	0f 43 ce             	cmovae %esi,%ecx
  401270:	0f 46 d7             	cmovbe %edi,%edx
  401273:	48 89 d6             	mov    %rdx,%rsi
  401276:	48 c1 e6 0a          	shl    $0xa,%rsi
  40127a:	48 89 35 37 be 00 00 	mov    %rsi,0xbe37(%rip)        # 40d0b8 <__libirc_largest_cache_size>
  401281:	48 c1 e2 09          	shl    $0x9,%rdx
  401285:	48 89 15 34 be 00 00 	mov    %rdx,0xbe34(%rip)        # 40d0c0 <__libirc_largest_cache_size_half>
  40128c:	c1 e0 0a             	shl    $0xa,%eax
  40128f:	48 89 05 32 be 00 00 	mov    %rax,0xbe32(%rip)        # 40d0c8 <__libirc_data_cache_size>
  401296:	48 89 c2             	mov    %rax,%rdx
  401299:	48 d1 ea             	shr    %rdx
  40129c:	48 89 15 2d be 00 00 	mov    %rdx,0xbe2d(%rip)        # 40d0d0 <__libirc_data_cache_size_half>
  4012a3:	48 89 c2             	mov    %rax,%rdx
  4012a6:	48 c1 ea 02          	shr    $0x2,%rdx
  4012aa:	48 89 15 27 be 00 00 	mov    %rdx,0xbe27(%rip)        # 40d0d8 <__libirc_largest_cache_size_quoter>
  4012b1:	48 89 0d 90 c5 00 00 	mov    %rcx,0xc590(%rip)        # 40d848 <__libirc_largest_cachelinesize>
  4012b8:	48 c7 05 1d be 00 00 	movq   $0x2000,0xbe1d(%rip)        # 40d0e0 <__libirc_copy_loop_threshold>
  4012bf:	00 20 00 00 
  4012c3:	48 01 c0             	add    %rax,%rax
  4012c6:	48 8d 04 40          	lea    (%rax,%rax,2),%rax
  4012ca:	48 89 05 17 be 00 00 	mov    %rax,0xbe17(%rip)        # 40d0e8 <__libirc_rep_move_threshold>
  4012d1:	48 c7 05 14 be 00 00 	movq   $0x800,0xbe14(%rip)        # 40d0f0 <__libirc_set_loop_threshold>
  4012d8:	00 08 00 00 
  4012dc:	e9 5d 01 00 00       	jmp    40143e <_GLOBAL__sub_I_fast_mem_ops.c+0x27e>
  4012e1:	e8 5a 7a 00 00       	call   408d40 <_ZL23__libirc_init_cache_tblv>
  4012e6:	83 3d 13 c5 00 00 00 	cmpl   $0x0,0xc513(%rip)        # 40d800 <_ZL18__libirc_cache_tbl>
  4012ed:	0f 85 f6 fe ff ff    	jne    4011e9 <_GLOBAL__sub_I_fast_mem_ops.c+0x29>
  4012f3:	c7 45 ec 00 00 00 00 	movl   $0x0,-0x14(%rbp)
  4012fa:	48 8d 75 d0          	lea    -0x30(%rbp),%rsi
  4012fe:	48 89 75 e0          	mov    %rsi,-0x20(%rbp)
  401302:	50                   	push   %rax
  401303:	53                   	push   %rbx
  401304:	51                   	push   %rcx
  401305:	52                   	push   %rdx
  401306:	4c 8b 45 e0          	mov    -0x20(%rbp),%r8
  40130a:	8b 45 ec             	mov    -0x14(%rbp),%eax
  40130d:	0f a2                	cpuid
  40130f:	41 89 00             	mov    %eax,(%r8)
  401312:	41 89 58 04          	mov    %ebx,0x4(%r8)
  401316:	41 89 48 08          	mov    %ecx,0x8(%r8)
  40131a:	41 89 50 0c          	mov    %edx,0xc(%r8)
  40131e:	5a                   	pop    %rdx
  40131f:	59                   	pop    %rcx
  401320:	5b                   	pop    %rbx
  401321:	58                   	pop    %rax
  401322:	45 31 f6             	xor    %r14d,%r14d
  401325:	81 7d d4 41 75 74 68 	cmpl   $0x68747541,-0x2c(%rbp)
  40132c:	0f 85 0c 01 00 00    	jne    40143e <_GLOBAL__sub_I_fast_mem_ops.c+0x27e>
  401332:	81 7d dc 65 6e 74 69 	cmpl   $0x69746e65,-0x24(%rbp)
  401339:	0f 85 ff 00 00 00    	jne    40143e <_GLOBAL__sub_I_fast_mem_ops.c+0x27e>
  40133f:	81 7d d8 63 41 4d 44 	cmpl   $0x444d4163,-0x28(%rbp)
  401346:	0f 85 f2 00 00 00    	jne    40143e <_GLOBAL__sub_I_fast_mem_ops.c+0x27e>
  40134c:	c7 45 ec 01 00 00 00 	movl   $0x1,-0x14(%rbp)
  401353:	48 89 75 e0          	mov    %rsi,-0x20(%rbp)
  401357:	50                   	push   %rax
  401358:	53                   	push   %rbx
  401359:	51                   	push   %rcx
  40135a:	52                   	push   %rdx
  40135b:	4c 8b 45 e0          	mov    -0x20(%rbp),%r8
  40135f:	8b 45 ec             	mov    -0x14(%rbp),%eax
  401362:	0f a2                	cpuid
  401364:	41 89 00             	mov    %eax,(%r8)
  401367:	41 89 58 04          	mov    %ebx,0x4(%r8)
  40136b:	41 89 48 08          	mov    %ecx,0x8(%r8)
  40136f:	41 89 50 0c          	mov    %edx,0xc(%r8)
  401373:	5a                   	pop    %rdx
  401374:	59                   	pop    %rcx
  401375:	5b                   	pop    %rbx
  401376:	58                   	pop    %rax
  401377:	44 8b 75 dc          	mov    -0x24(%rbp),%r14d
  40137b:	41 c1 ee 17          	shr    $0x17,%r14d
  40137f:	41 83 e6 01          	and    $0x1,%r14d
  401383:	c7 45 ec 00 00 00 80 	movl   $0x80000000,-0x14(%rbp)
  40138a:	48 89 75 e0          	mov    %rsi,-0x20(%rbp)
  40138e:	50                   	push   %rax
  40138f:	53                   	push   %rbx
  401390:	51                   	push   %rcx
  401391:	52                   	push   %rdx
  401392:	4c 8b 45 e0          	mov    -0x20(%rbp),%r8
  401396:	8b 45 ec             	mov    -0x14(%rbp),%eax
  401399:	0f a2                	cpuid
  40139b:	41 89 00             	mov    %eax,(%r8)
  40139e:	41 89 58 04          	mov    %ebx,0x4(%r8)
  4013a2:	41 89 48 08          	mov    %ecx,0x8(%r8)
  4013a6:	41 89 50 0c          	mov    %edx,0xc(%r8)
  4013aa:	5a                   	pop    %rdx
  4013ab:	59                   	pop    %rcx
  4013ac:	5b                   	pop    %rbx
  4013ad:	58                   	pop    %rax
  4013ae:	81 7d d0 06 00 00 80 	cmpl   $0x80000006,-0x30(%rbp)
  4013b5:	0f 82 83 00 00 00    	jb     40143e <_GLOBAL__sub_I_fast_mem_ops.c+0x27e>
  4013bb:	c7 45 ec 06 00 00 80 	movl   $0x80000006,-0x14(%rbp)
  4013c2:	48 89 75 e0          	mov    %rsi,-0x20(%rbp)
  4013c6:	50                   	push   %rax
  4013c7:	53                   	push   %rbx
  4013c8:	51                   	push   %rcx
  4013c9:	52                   	push   %rdx
  4013ca:	4c 8b 45 e0          	mov    -0x20(%rbp),%r8
  4013ce:	8b 45 ec             	mov    -0x14(%rbp),%eax
  4013d1:	0f a2                	cpuid
  4013d3:	41 89 00             	mov    %eax,(%r8)
  4013d6:	41 89 58 04          	mov    %ebx,0x4(%r8)
  4013da:	41 89 48 08          	mov    %ecx,0x8(%r8)
  4013de:	41 89 50 0c          	mov    %edx,0xc(%r8)
  4013e2:	5a                   	pop    %rdx
  4013e3:	59                   	pop    %rcx
  4013e4:	5b                   	pop    %rbx
  4013e5:	58                   	pop    %rax
  4013e6:	8b 45 d8             	mov    -0x28(%rbp),%eax
  4013e9:	48 c1 e8 06          	shr    $0x6,%rax
  4013ed:	25 00 fc ff 03       	and    $0x3fffc00,%eax
  4013f2:	48 89 05 bf bc 00 00 	mov    %rax,0xbcbf(%rip)        # 40d0b8 <__libirc_largest_cache_size>
  4013f9:	48 d1 e8             	shr    %rax
  4013fc:	48 89 05 bd bc 00 00 	mov    %rax,0xbcbd(%rip)        # 40d0c0 <__libirc_largest_cache_size_half>
  401403:	48 8b 05 be bc 00 00 	mov    0xbcbe(%rip),%rax        # 40d0c8 <__libirc_data_cache_size>
  40140a:	48 c1 e8 02          	shr    $0x2,%rax
  40140e:	48 89 05 c3 bc 00 00 	mov    %rax,0xbcc3(%rip)        # 40d0d8 <__libirc_largest_cache_size_quoter>
  401415:	eb 27                	jmp    40143e <_GLOBAL__sub_I_fast_mem_ops.c+0x27e>
  401417:	45 31 f6             	xor    %r14d,%r14d
  40141a:	8b 05 f0 c3 00 00    	mov    0xc3f0(%rip),%eax        # 40d810 <_ZL18__libirc_cache_tbl+0x10>
  401420:	85 c0                	test   %eax,%eax
  401422:	0f 85 08 fe ff ff    	jne    401230 <_GLOBAL__sub_I_fast_mem_ops.c+0x70>
  401428:	48 8d 3d 11 98 00 00 	lea    0x9811(%rip),%rdi        # 40ac40 <_ZL16cpuid2_cache_tbl+0x800>
  40142f:	e8 fc fb ff ff       	call   401030 <getenv@plt>
  401434:	48 85 c0             	test   %rax,%rax
  401437:	74 05                	je     40143e <_GLOBAL__sub_I_fast_mem_ops.c+0x27e>
  401439:	80 38 00             	cmpb   $0x0,(%rax)
  40143c:	75 17                	jne    401455 <_GLOBAL__sub_I_fast_mem_ops.c+0x295>
  40143e:	44 89 35 fb c3 00 00 	mov    %r14d,0xc3fb(%rip)        # 40d840 <__libirc_mem_ops_method>
  401445:	44 89 35 04 c4 00 00 	mov    %r14d,0xc404(%rip)        # 40d850 <_ZL12__libirc_tmp>
  40144c:	48 83 c4 20          	add    $0x20,%rsp
  401450:	5b                   	pop    %rbx
  401451:	41 5e                	pop    %r14
  401453:	5d                   	pop    %rbp
  401454:	c3                   	ret
  401455:	bf 01 00 00 00       	mov    $0x1,%edi
  40145a:	31 f6                	xor    %esi,%esi
  40145c:	31 d2                	xor    %edx,%edx
  40145e:	31 c0                	xor    %eax,%eax
  401460:	e8 0b 82 00 00       	call   409670 <__libirc_print>
  401465:	bf 01 00 00 00       	mov    $0x1,%edi
  40146a:	be 3d 00 00 00       	mov    $0x3d,%esi
  40146f:	31 d2                	xor    %edx,%edx
  401471:	31 c0                	xor    %eax,%eax
  401473:	e8 f8 81 00 00       	call   409670 <__libirc_print>
  401478:	bf 01 00 00 00       	mov    $0x1,%edi
  40147d:	31 f6                	xor    %esi,%esi
  40147f:	31 d2                	xor    %edx,%edx
  401481:	31 c0                	xor    %eax,%eax
  401483:	e8 e8 81 00 00       	call   409670 <__libirc_print>
  401488:	bf 01 00 00 00       	mov    $0x1,%edi
  40148d:	e8 be fc ff ff       	call   401150 <exit@plt>
  401492:	66 2e 0f 1f 84 00 00 	cs nopw 0x0(%rax,%rax,1)
  401499:	00 00 00 
  40149c:	0f 1f 40 00          	nopl   0x0(%rax)

00000000004014a0 <_start>:
  4014a0:	31 ed                	xor    %ebp,%ebp
  4014a2:	49 89 d1             	mov    %rdx,%r9
  4014a5:	5e                   	pop    %rsi
  4014a6:	48 89 e2             	mov    %rsp,%rdx
  4014a9:	48 83 e4 f0          	and    $0xfffffffffffffff0,%rsp
  4014ad:	50                   	push   %rax
  4014ae:	54                   	push   %rsp
  4014af:	45 31 c0             	xor    %r8d,%r8d
  4014b2:	31 c9                	xor    %ecx,%ecx
  4014b4:	48 c7 c7 90 15 40 00 	mov    $0x401590,%rdi
  4014bb:	ff 15 ef ba 00 00    	call   *0xbaef(%rip)        # 40cfb0 <__libc_start_main@GLIBC_2.34>
  4014c1:	f4                   	hlt
  4014c2:	66 2e 0f 1f 84 00 00 	cs nopw 0x0(%rax,%rax,1)
  4014c9:	00 00 00 
  4014cc:	0f 1f 40 00          	nopl   0x0(%rax)

00000000004014d0 <deregister_tm_clones>:
  4014d0:	48 8d 3d 21 bc 00 00 	lea    0xbc21(%rip),%rdi        # 40d0f8 <__TMC_END__>
  4014d7:	48 8d 05 1a bc 00 00 	lea    0xbc1a(%rip),%rax        # 40d0f8 <__TMC_END__>
  4014de:	48 39 f8             	cmp    %rdi,%rax
  4014e1:	74 15                	je     4014f8 <deregister_tm_clones+0x28>
  4014e3:	48 8b 05 ce ba 00 00 	mov    0xbace(%rip),%rax        # 40cfb8 <_ITM_deregisterTMCloneTable@Base>
  4014ea:	48 85 c0             	test   %rax,%rax
  4014ed:	74 09                	je     4014f8 <deregister_tm_clones+0x28>
  4014ef:	ff e0                	jmp    *%rax
  4014f1:	0f 1f 80 00 00 00 00 	nopl   0x0(%rax)
  4014f8:	c3                   	ret
  4014f9:	0f 1f 80 00 00 00 00 	nopl   0x0(%rax)

0000000000401500 <register_tm_clones>:
  401500:	48 8d 3d f1 bb 00 00 	lea    0xbbf1(%rip),%rdi        # 40d0f8 <__TMC_END__>
  401507:	48 8d 35 ea bb 00 00 	lea    0xbbea(%rip),%rsi        # 40d0f8 <__TMC_END__>
  40150e:	48 29 fe             	sub    %rdi,%rsi
  401511:	48 89 f0             	mov    %rsi,%rax
  401514:	48 c1 ee 3f          	shr    $0x3f,%rsi
  401518:	48 c1 f8 03          	sar    $0x3,%rax
  40151c:	48 01 c6             	add    %rax,%rsi
  40151f:	48 d1 fe             	sar    %rsi
  401522:	74 14                	je     401538 <register_tm_clones+0x38>
  401524:	48 8b 05 a5 ba 00 00 	mov    0xbaa5(%rip),%rax        # 40cfd0 <_ITM_registerTMCloneTable@Base>
  40152b:	48 85 c0             	test   %rax,%rax
  40152e:	74 08                	je     401538 <register_tm_clones+0x38>
  401530:	ff e0                	jmp    *%rax
  401532:	66 0f 1f 44 00 00    	nopw   0x0(%rax,%rax,1)
  401538:	c3                   	ret
  401539:	0f 1f 80 00 00 00 00 	nopl   0x0(%rax)

0000000000401540 <__do_global_dtors_aux>:
  401540:	f3 0f 1e fa          	endbr64
  401544:	80 3d bd bb 00 00 00 	cmpb   $0x0,0xbbbd(%rip)        # 40d108 <completed.0>
  40154b:	75 2b                	jne    401578 <__do_global_dtors_aux+0x38>
  40154d:	55                   	push   %rbp
  40154e:	48 83 3d 82 ba 00 00 	cmpq   $0x0,0xba82(%rip)        # 40cfd8 <__cxa_finalize@GLIBC_2.2.5>
  401555:	00 
  401556:	48 89 e5             	mov    %rsp,%rbp
  401559:	74 0c                	je     401567 <__do_global_dtors_aux+0x27>
  40155b:	48 8b 3d 4e bb 00 00 	mov    0xbb4e(%rip),%rdi        # 40d0b0 <__dso_handle>
  401562:	e8 21 fc ff ff       	call   401188 <__cxa_finalize@plt>
  401567:	e8 64 ff ff ff       	call   4014d0 <deregister_tm_clones>
  40156c:	c6 05 95 bb 00 00 01 	movb   $0x1,0xbb95(%rip)        # 40d108 <completed.0>
  401573:	5d                   	pop    %rbp
  401574:	c3                   	ret
  401575:	0f 1f 00             	nopl   (%rax)
  401578:	c3                   	ret
  401579:	0f 1f 80 00 00 00 00 	nopl   0x0(%rax)

0000000000401580 <frame_dummy>:
  401580:	f3 0f 1e fa          	endbr64
  401584:	e9 77 ff ff ff       	jmp    401500 <register_tm_clones>
  401589:	0f 1f 80 00 00 00 00 	nopl   0x0(%rax)

0000000000401590 <main>:
  401590:	55                   	push   %rbp
  401591:	48 89 e5             	mov    %rsp,%rbp
  401594:	41 57                	push   %r15
  401596:	41 56                	push   %r14
  401598:	41 55                	push   %r13
  40159a:	41 54                	push   %r12
  40159c:	53                   	push   %rbx
  40159d:	48 83 e4 c0          	and    $0xffffffffffffffc0,%rsp
  4015a1:	48 81 ec 00 26 00 00 	sub    $0x2600,%rsp
  4015a8:	48 be ee 9f 9d 10 00 	movabs $0x100000109d9fee,%rsi
  4015af:	00 10 00 
  4015b2:	bf 03 00 00 00       	mov    $0x3,%edi
  4015b7:	e8 34 22 00 00       	call   4037f0 <__intel_new_feature_proc_init>
  4015bc:	bf 00 00 00 08       	mov    $0x8000000,%edi
  4015c1:	e8 1a fb ff ff       	call   4010e0 <malloc@plt>
  4015c6:	48 89 c3             	mov    %rax,%rbx
  4015c9:	bf 00 00 00 08       	mov    $0x8000000,%edi
  4015ce:	e8 0d fb ff ff       	call   4010e0 <malloc@plt>
  4015d3:	49 89 c6             	mov    %rax,%r14
  4015d6:	bf 00 00 00 08       	mov    $0x8000000,%edi
  4015db:	e8 00 fb ff ff       	call   4010e0 <malloc@plt>
  4015e0:	b9 01 00 00 00       	mov    $0x1,%ecx
  4015e5:	48 85 db             	test   %rbx,%rbx
  4015e8:	74 0a                	je     4015f4 <main+0x64>
  4015ea:	4d 85 f6             	test   %r14,%r14
  4015ed:	74 05                	je     4015f4 <main+0x64>
  4015ef:	48 85 c0             	test   %rax,%rax
  4015f2:	75 11                	jne    401605 <main+0x75>
  4015f4:	89 c8                	mov    %ecx,%eax
  4015f6:	48 8d 65 d8          	lea    -0x28(%rbp),%rsp
  4015fa:	5b                   	pop    %rbx
  4015fb:	41 5c                	pop    %r12
  4015fd:	41 5d                	pop    %r13
  4015ff:	41 5e                	pop    %r14
  401601:	41 5f                	pop    %r15
  401603:	5d                   	pop    %rbp
  401604:	c3                   	ret
  401605:	4c 8d a4 24 18 05 00 	lea    0x518(%rsp),%r12
  40160c:	00 
  40160d:	45 31 ff             	xor    %r15d,%r15d
  401610:	ba 00 00 00 08       	mov    $0x8000000,%edx
  401615:	48 89 44 24 38       	mov    %rax,0x38(%rsp)
  40161a:	48 89 c7             	mov    %rax,%rdi
  40161d:	31 f6                	xor    %esi,%esi
  40161f:	e8 ac 17 00 00       	call   402dd0 <_intel_fast_memset>
  401624:	4c 89 e2             	mov    %r12,%rdx
  401627:	48 89 9c 24 80 15 00 	mov    %rbx,0x1580(%rsp)
  40162e:	00 
  40162f:	89 d8                	mov    %ebx,%eax
  401631:	83 e0 3f             	and    $0x3f,%eax
  401634:	48 89 84 24 88 15 00 	mov    %rax,0x1588(%rsp)
  40163b:	00 
  40163c:	48 c7 84 24 90 15 00 	movq   $0x0,0x1590(%rsp)
  401643:	00 00 00 00 00 
  401648:	4c 89 b4 24 00 05 00 	mov    %r14,0x500(%rsp)
  40164f:	00 
  401650:	4c 89 74 24 78       	mov    %r14,0x78(%rsp)
  401655:	44 89 f0             	mov    %r14d,%eax
  401658:	83 e0 3f             	and    $0x3f,%eax
  40165b:	48 89 84 24 08 05 00 	mov    %rax,0x508(%rsp)
  401662:	00 
  401663:	48 c7 84 24 10 05 00 	movq   $0x0,0x510(%rsp)
  40166a:	00 00 00 00 00 
  40166f:	49 c7 c4 fc ff ff ff 	mov    $0xfffffffffffffffc,%r12
  401676:	c4 e2 7d 19 0d 91 89 	vbroadcastsd 0x8991(%rip),%ymm1        # 40a010 <_IO_stdin_used+0x10>
  40167d:	00 00 
  40167f:	45 31 ed             	xor    %r13d,%r13d
  401682:	eb 1d                	jmp    4016a1 <main+0x111>
  401684:	66 66 66 2e 0f 1f 84 	data16 data16 cs nopw 0x0(%rax,%rax,1)
  40168b:	00 00 00 00 00 
  401690:	49 83 c4 20          	add    $0x20,%r12
  401694:	49 81 fc fc ff ff 00 	cmp    $0xfffffc,%r12
  40169b:	0f 83 31 01 00 00    	jae    4017d2 <main+0x242>
  4016a1:	4c 89 f8             	mov    %r15,%rax
  4016a4:	48 c1 e0 08          	shl    $0x8,%rax
  4016a8:	48 8d 8c 24 98 15 00 	lea    0x1598(%rsp),%rcx
  4016af:	00 
  4016b0:	c4 e2 7d 19 05 4f 89 	vbroadcastsd 0x894f(%rip),%ymm0        # 40a008 <_IO_stdin_used+0x8>
  4016b7:	00 00 
  4016b9:	c5 fd 11 04 01       	vmovupd %ymm0,(%rcx,%rax,1)
  4016be:	4d 89 ee             	mov    %r13,%r14
  4016c1:	49 c1 e6 08          	shl    $0x8,%r14
  4016c5:	c4 a1 7d 11 0c 32    	vmovupd %ymm1,(%rdx,%r14,1)
  4016cb:	c5 fd 11 44 01 20    	vmovupd %ymm0,0x20(%rcx,%rax,1)
  4016d1:	c4 a1 7d 11 4c 32 20 	vmovupd %ymm1,0x20(%rdx,%r14,1)
  4016d8:	c5 fd 11 44 01 40    	vmovupd %ymm0,0x40(%rcx,%rax,1)
  4016de:	c4 a1 7d 11 4c 32 40 	vmovupd %ymm1,0x40(%rdx,%r14,1)
  4016e5:	c5 fd 11 44 01 60    	vmovupd %ymm0,0x60(%rcx,%rax,1)
  4016eb:	c4 a1 7d 11 4c 32 60 	vmovupd %ymm1,0x60(%rdx,%r14,1)
  4016f2:	c5 fd 11 84 01 80 00 	vmovupd %ymm0,0x80(%rcx,%rax,1)
  4016f9:	00 00 
  4016fb:	c4 a1 7d 11 8c 32 80 	vmovupd %ymm1,0x80(%rdx,%r14,1)
  401702:	00 00 00 
  401705:	c5 fd 11 84 01 a0 00 	vmovupd %ymm0,0xa0(%rcx,%rax,1)
  40170c:	00 00 
  40170e:	c4 a1 7d 11 8c 32 a0 	vmovupd %ymm1,0xa0(%rdx,%r14,1)
  401715:	00 00 00 
  401718:	c5 fd 11 84 01 c0 00 	vmovupd %ymm0,0xc0(%rcx,%rax,1)
  40171f:	00 00 
  401721:	c4 a1 7d 11 8c 32 c0 	vmovupd %ymm1,0xc0(%rdx,%r14,1)
  401728:	00 00 00 
  40172b:	c5 fd 11 84 01 e0 00 	vmovupd %ymm0,0xe0(%rcx,%rax,1)
  401732:	00 00 
  401734:	49 ff c7             	inc    %r15
  401737:	49 83 ff 10          	cmp    $0x10,%r15
  40173b:	74 23                	je     401760 <main+0x1d0>
  40173d:	c4 a1 7d 11 8c 32 e0 	vmovupd %ymm1,0xe0(%rdx,%r14,1)
  401744:	00 00 00 
  401747:	49 ff c5             	inc    %r13
  40174a:	49 83 fd 10          	cmp    $0x10,%r13
  40174e:	0f 85 3c ff ff ff    	jne    401690 <main+0x100>
  401754:	eb 4c                	jmp    4017a2 <main+0x212>
  401756:	66 2e 0f 1f 84 00 00 	cs nopw 0x0(%rax,%rax,1)
  40175d:	00 00 00 
  401760:	be 00 10 00 00       	mov    $0x1000,%esi
  401765:	48 8d bc 24 40 15 00 	lea    0x1540(%rsp),%rdi
  40176c:	00 
  40176d:	31 d2                	xor    %edx,%edx
  40176f:	c5 f8 77             	vzeroupper
  401772:	e8 49 1c 00 00       	call   4033c0 <__libirc_nontemporal_store>
  401777:	c4 e2 7d 19 0d 90 88 	vbroadcastsd 0x8890(%rip),%ymm1        # 40a010 <_IO_stdin_used+0x10>
  40177e:	00 00 
  401780:	48 8d 94 24 18 05 00 	lea    0x518(%rsp),%rdx
  401787:	00 
  401788:	45 31 ff             	xor    %r15d,%r15d
  40178b:	c4 a1 7d 11 8c 32 e0 	vmovupd %ymm1,0xe0(%rdx,%r14,1)
  401792:	00 00 00 
  401795:	49 ff c5             	inc    %r13
  401798:	49 83 fd 10          	cmp    $0x10,%r13
  40179c:	0f 85 ee fe ff ff    	jne    401690 <main+0x100>
  4017a2:	be 00 10 00 00       	mov    $0x1000,%esi
  4017a7:	48 8d bc 24 c0 04 00 	lea    0x4c0(%rsp),%rdi
  4017ae:	00 
  4017af:	31 d2                	xor    %edx,%edx
  4017b1:	c5 f8 77             	vzeroupper
  4017b4:	e8 07 1c 00 00       	call   4033c0 <__libirc_nontemporal_store>
  4017b9:	c4 e2 7d 19 0d 4e 88 	vbroadcastsd 0x884e(%rip),%ymm1        # 40a010 <_IO_stdin_used+0x10>
  4017c0:	00 00 
  4017c2:	48 8d 94 24 18 05 00 	lea    0x518(%rsp),%rdx
  4017c9:	00 
  4017ca:	45 31 ed             	xor    %r13d,%r13d
  4017cd:	e9 be fe ff ff       	jmp    401690 <main+0x100>
  4017d2:	49 c1 e5 08          	shl    $0x8,%r13
  4017d6:	48 8d bc 24 c0 04 00 	lea    0x4c0(%rsp),%rdi
  4017dd:	00 
  4017de:	4c 89 ee             	mov    %r13,%rsi
  4017e1:	ba 01 00 00 00       	mov    $0x1,%edx
  4017e6:	c5 f8 77             	vzeroupper
  4017e9:	e8 d2 1b 00 00       	call   4033c0 <__libirc_nontemporal_store>
  4017ee:	49 c1 e7 08          	shl    $0x8,%r15
  4017f2:	48 8d bc 24 40 15 00 	lea    0x1540(%rsp),%rdi
  4017f9:	00 
  4017fa:	4c 89 fe             	mov    %r15,%rsi
  4017fd:	ba 01 00 00 00       	mov    $0x1,%edx
  401802:	e8 b9 1b 00 00       	call   4033c0 <__libirc_nontemporal_store>
  401807:	0f ae f8             	sfence
  40180a:	48 8d b4 24 b0 04 00 	lea    0x4b0(%rsp),%rsi
  401811:	00 
  401812:	bf 01 00 00 00       	mov    $0x1,%edi
  401817:	e8 34 f8 ff ff       	call   401050 <clock_gettime@plt>
  40181c:	48 8b 44 24 38       	mov    0x38(%rsp),%rax
  401821:	48 05 00 80 01 00    	add    $0x18000,%rax
  401827:	48 89 44 24 40       	mov    %rax,0x40(%rsp)
  40182c:	48 8b 44 24 78       	mov    0x78(%rsp),%rax
  401831:	48 05 00 80 01 00    	add    $0x18000,%rax
  401837:	48 89 44 24 50       	mov    %rax,0x50(%rsp)
  40183c:	31 f6                	xor    %esi,%esi
  40183e:	66 90                	xchg   %ax,%ax
  401840:	48 89 74 24 60       	mov    %rsi,0x60(%rsp)
  401845:	48 c1 e6 12          	shl    $0x12,%rsi
  401849:	48 8b 4c 24 50       	mov    0x50(%rsp),%rcx
  40184e:	45 31 c0             	xor    %r8d,%r8d
  401851:	66 66 66 66 66 66 2e 	data16 data16 data16 data16 data16 cs nopw 0x0(%rax,%rax,1)
  401858:	0f 1f 84 00 00 00 00 
  40185f:	00 
  401860:	4d 89 c1             	mov    %r8,%r9
  401863:	49 c1 e1 06          	shl    $0x6,%r9
  401867:	49 01 f1             	add    %rsi,%r9
  40186a:	48 89 cf             	mov    %rcx,%rdi
  40186d:	4c 8b 5c 24 40       	mov    0x40(%rsp),%r11
  401872:	45 31 f6             	xor    %r14d,%r14d
  401875:	66 66 2e 0f 1f 84 00 	data16 cs nopw 0x0(%rax,%rax,1)
  40187c:	00 00 00 00 
  401880:	4d 89 df             	mov    %r11,%r15
  401883:	45 31 e4             	xor    %r12d,%r12d
  401886:	66 2e 0f 1f 84 00 00 	cs nopw 0x0(%rax,%rax,1)
  40188d:	00 00 00 
  401890:	4d 89 e5             	mov    %r12,%r13
  401893:	49 c1 e5 0e          	shl    $0xe,%r13
  401897:	4d 01 cd             	add    %r9,%r13
  40189a:	49 89 fa             	mov    %rdi,%r10
  40189d:	31 d2                	xor    %edx,%edx
  40189f:	90                   	nop
  4018a0:	49 8d 44 95 00       	lea    0x0(%r13,%rdx,4),%rax
  4018a5:	c4 e2 7d 19 04 c3    	vbroadcastsd (%rbx,%rax,8),%ymm0
  4018ab:	c5 fc 11 84 24 00 01 	vmovups %ymm0,0x100(%rsp)
  4018b2:	00 00 
  4018b4:	c4 e2 7d 19 84 c3 00 	vbroadcastsd 0x8000(%rbx,%rax,8),%ymm0
  4018bb:	80 00 00 
  4018be:	c5 fc 11 84 24 e0 00 	vmovups %ymm0,0xe0(%rsp)
  4018c5:	00 00 
  4018c7:	c4 e2 7d 19 84 c3 00 	vbroadcastsd 0x10000(%rbx,%rax,8),%ymm0
  4018ce:	00 01 00 
  4018d1:	c5 fc 11 84 24 a0 00 	vmovups %ymm0,0xa0(%rsp)
  4018d8:	00 00 
  4018da:	c4 e2 7d 19 84 c3 00 	vbroadcastsd 0x18000(%rbx,%rax,8),%ymm0
  4018e1:	80 01 00 
  4018e4:	c5 fc 11 84 24 80 00 	vmovups %ymm0,0x80(%rsp)
  4018eb:	00 00 
  4018ed:	c4 e2 7d 19 44 c3 08 	vbroadcastsd 0x8(%rbx,%rax,8),%ymm0
  4018f4:	c5 fc 11 84 24 c0 00 	vmovups %ymm0,0xc0(%rsp)
  4018fb:	00 00 
  4018fd:	c4 e2 7d 19 ac c3 08 	vbroadcastsd 0x8008(%rbx,%rax,8),%ymm5
  401904:	80 00 00 
  401907:	c4 e2 7d 19 b4 c3 08 	vbroadcastsd 0x10008(%rbx,%rax,8),%ymm6
  40190e:	00 01 00 
  401911:	c4 e2 7d 19 bc c3 08 	vbroadcastsd 0x18008(%rbx,%rax,8),%ymm7
  401918:	80 01 00 
  40191b:	c4 62 7d 19 44 c3 10 	vbroadcastsd 0x10(%rbx,%rax,8),%ymm8
  401922:	c4 62 7d 19 8c c3 10 	vbroadcastsd 0x8010(%rbx,%rax,8),%ymm9
  401929:	80 00 00 
  40192c:	c4 62 7d 19 94 c3 10 	vbroadcastsd 0x10010(%rbx,%rax,8),%ymm10
  401933:	00 01 00 
  401936:	c4 62 7d 19 9c c3 10 	vbroadcastsd 0x18010(%rbx,%rax,8),%ymm11
  40193d:	80 01 00 
  401940:	c4 62 7d 19 64 c3 18 	vbroadcastsd 0x18(%rbx,%rax,8),%ymm12
  401947:	c4 62 7d 19 ac c3 18 	vbroadcastsd 0x8018(%rbx,%rax,8),%ymm13
  40194e:	80 00 00 
  401951:	c4 62 7d 19 b4 c3 18 	vbroadcastsd 0x10018(%rbx,%rax,8),%ymm14
  401958:	00 01 00 
  40195b:	c4 62 7d 19 bc c3 18 	vbroadcastsd 0x18018(%rbx,%rax,8),%ymm15
  401962:	80 01 00 
  401965:	48 c7 c0 fc ff ff ff 	mov    $0xfffffffffffffffc,%rax
  40196c:	0f 1f 40 00          	nopl   0x0(%rax)
  401970:	c4 c1 7d 10 84 c2 20 	vmovupd -0x17fe0(%r10,%rax,8),%ymm0
  401977:	80 fe ff 
  40197a:	c4 c1 7d 10 8c c7 20 	vmovupd -0x17fe0(%r15,%rax,8),%ymm1
  401981:	80 fe ff 
  401984:	c4 e2 fd b8 8c 24 00 	vfmadd231pd 0x100(%rsp),%ymm0,%ymm1
  40198b:	01 00 00 
  40198e:	c4 c1 7d 10 94 c7 20 	vmovupd -0xffe0(%r15,%rax,8),%ymm2
  401995:	00 ff ff 
  401998:	c4 e2 fd b8 94 24 e0 	vfmadd231pd 0xe0(%rsp),%ymm0,%ymm2
  40199f:	00 00 00 
  4019a2:	c4 c1 7d 10 9c c7 20 	vmovupd -0x7fe0(%r15,%rax,8),%ymm3
  4019a9:	80 ff ff 
  4019ac:	c4 e2 fd b8 9c 24 a0 	vfmadd231pd 0xa0(%rsp),%ymm0,%ymm3
  4019b3:	00 00 00 
  4019b6:	c5 fd 10 a4 24 80 00 	vmovupd 0x80(%rsp),%ymm4
  4019bd:	00 00 
  4019bf:	c4 c2 dd a8 44 c7 20 	vfmadd213pd 0x20(%r15,%rax,8),%ymm4,%ymm0
  4019c6:	c4 c1 7d 10 a4 c2 20 	vmovupd -0xffe0(%r10,%rax,8),%ymm4
  4019cd:	00 ff ff 
  4019d0:	c4 e2 dd b8 8c 24 c0 	vfmadd231pd 0xc0(%rsp),%ymm4,%ymm1
  4019d7:	00 00 00 
  4019da:	c4 e2 dd b8 d5       	vfmadd231pd %ymm5,%ymm4,%ymm2
  4019df:	c4 e2 dd b8 de       	vfmadd231pd %ymm6,%ymm4,%ymm3
  4019e4:	c4 e2 c5 b8 c4       	vfmadd231pd %ymm4,%ymm7,%ymm0
  4019e9:	c4 c1 7d 10 a4 c2 20 	vmovupd -0x7fe0(%r10,%rax,8),%ymm4
  4019f0:	80 ff ff 
  4019f3:	c4 c2 dd b8 c8       	vfmadd231pd %ymm8,%ymm4,%ymm1
  4019f8:	c4 c2 dd b8 d1       	vfmadd231pd %ymm9,%ymm4,%ymm2
  4019fd:	c4 c2 dd b8 da       	vfmadd231pd %ymm10,%ymm4,%ymm3
  401a02:	c4 e2 a5 b8 c4       	vfmadd231pd %ymm4,%ymm11,%ymm0
  401a07:	c4 c1 7d 10 64 c2 20 	vmovupd 0x20(%r10,%rax,8),%ymm4
  401a0e:	c4 c2 dd b8 cc       	vfmadd231pd %ymm12,%ymm4,%ymm1
  401a13:	c4 c1 7d 11 8c c7 20 	vmovupd %ymm1,-0x17fe0(%r15,%rax,8)
  401a1a:	80 fe ff 
  401a1d:	c4 c2 dd b8 d5       	vfmadd231pd %ymm13,%ymm4,%ymm2
  401a22:	c4 c1 7d 11 94 c7 20 	vmovupd %ymm2,-0xffe0(%r15,%rax,8)
  401a29:	00 ff ff 
  401a2c:	c4 c2 dd b8 de       	vfmadd231pd %ymm14,%ymm4,%ymm3
  401a31:	c4 c1 7d 11 9c c7 20 	vmovupd %ymm3,-0x7fe0(%r15,%rax,8)
  401a38:	80 ff ff 
  401a3b:	c4 e2 85 b8 c4       	vfmadd231pd %ymm4,%ymm15,%ymm0
  401a40:	c4 c1 7d 11 44 c7 20 	vmovupd %ymm0,0x20(%r15,%rax,8)
  401a47:	48 83 c0 04          	add    $0x4,%rax
  401a4b:	48 83 f8 3c          	cmp    $0x3c,%rax
  401a4f:	0f 82 1b ff ff ff    	jb     401970 <main+0x3e0>
  401a55:	49 81 c2 00 00 02 00 	add    $0x20000,%r10
  401a5c:	48 83 fa 0f          	cmp    $0xf,%rdx
  401a60:	48 8d 52 01          	lea    0x1(%rdx),%rdx
  401a64:	0f 85 36 fe ff ff    	jne    4018a0 <main+0x310>
  401a6a:	49 81 c7 00 00 02 00 	add    $0x20000,%r15
  401a71:	49 83 fc 0f          	cmp    $0xf,%r12
  401a75:	4d 8d 64 24 01       	lea    0x1(%r12),%r12
  401a7a:	0f 85 10 fe ff ff    	jne    401890 <main+0x300>
  401a80:	49 81 c3 00 02 00 00 	add    $0x200,%r11
  401a87:	48 81 c7 00 02 00 00 	add    $0x200,%rdi
  401a8e:	49 83 fe 3f          	cmp    $0x3f,%r14
  401a92:	4d 8d 76 01          	lea    0x1(%r14),%r14
  401a96:	0f 85 e4 fd ff ff    	jne    401880 <main+0x2f0>
  401a9c:	48 81 c1 00 00 20 00 	add    $0x200000,%rcx
  401aa3:	49 83 f8 3f          	cmp    $0x3f,%r8
  401aa7:	4d 8d 40 01          	lea    0x1(%r8),%r8
  401aab:	0f 85 af fd ff ff    	jne    401860 <main+0x2d0>
  401ab1:	48 81 44 24 40 00 00 	addq   $0x200000,0x40(%rsp)
  401ab8:	20 00 
  401aba:	48 8b 74 24 60       	mov    0x60(%rsp),%rsi
  401abf:	48 83 fe 3f          	cmp    $0x3f,%rsi
  401ac3:	48 8d 76 01          	lea    0x1(%rsi),%rsi
  401ac7:	0f 85 73 fd ff ff    	jne    401840 <main+0x2b0>
  401acd:	48 8d b4 24 a0 04 00 	lea    0x4a0(%rsp),%rsi
  401ad4:	00 
  401ad5:	bf 01 00 00 00       	mov    $0x1,%edi
  401ada:	c5 f8 77             	vzeroupper
  401add:	e8 6e f5 ff ff       	call   401050 <clock_gettime@plt>
  401ae2:	48 8b 3d 17 b6 00 00 	mov    0xb617(%rip),%rdi        # 40d100 <stderr@GLIBC_2.2.5>
  401ae9:	c5 fa 6f 84 24 a0 04 	vmovdqu 0x4a0(%rsp),%xmm0
  401af0:	00 00 
  401af2:	c5 f9 fb 84 24 b0 04 	vpsubq 0x4b0(%rsp),%xmm0,%xmm0
  401af9:	00 00 
  401afb:	c4 e3 f9 16 c0 01    	vpextrq $0x1,%xmm0,%rax
  401b01:	48 8d 88 00 ca 9a 3b 	lea    0x3b9aca00(%rax),%rcx
  401b08:	48 89 c2             	mov    %rax,%rdx
  401b0b:	48 c1 fa 3f          	sar    $0x3f,%rdx
  401b0f:	c4 e1 f9 7e c6       	vmovq  %xmm0,%rsi
  401b14:	48 01 d6             	add    %rdx,%rsi
  401b17:	48 85 c0             	test   %rax,%rax
  401b1a:	48 0f 49 c8          	cmovns %rax,%rcx
  401b1e:	c5 d0 57 ed          	vxorps %xmm5,%xmm5,%xmm5
  401b22:	c4 e1 d3 2a ce       	vcvtsi2sd %rsi,%xmm5,%xmm1
  401b27:	c5 d0 57 ed          	vxorps %xmm5,%xmm5,%xmm5
  401b2b:	c4 e1 d3 2a c1       	vcvtsi2sd %rcx,%xmm5,%xmm0
  401b30:	c4 e2 f1 99 05 df 84 	vfmadd132sd 0x84df(%rip),%xmm1,%xmm0        # 40a018 <_IO_stdin_used+0x18>
  401b37:	00 00 
  401b39:	be 20 a0 40 00       	mov    $0x40a020,%esi
  401b3e:	b0 01                	mov    $0x1,%al
  401b40:	e8 7b f5 ff ff       	call   4010c0 <fprintf@plt>
  401b45:	bf 2e a0 40 00       	mov    $0x40a02e,%edi
  401b4a:	be dd a1 40 00       	mov    $0x40a1dd,%esi
  401b4f:	e8 dc f5 ff ff       	call   401130 <fopen@plt>
  401b54:	48 85 c0             	test   %rax,%rax
  401b57:	0f 84 2d 12 00 00    	je     402d8a <main+0x17fa>
  401b5d:	4c 8b 74 24 38       	mov    0x38(%rsp),%r14
  401b62:	c4 c1 7b 10 06       	vmovsd (%r14),%xmm0
  401b67:	c5 f8 11 84 24 00 01 	vmovups %xmm0,0x100(%rsp)
  401b6e:	00 00 
  401b70:	be 3a a0 40 00       	mov    $0x40a03a,%esi
  401b75:	49 89 c7             	mov    %rax,%r15
  401b78:	48 89 c7             	mov    %rax,%rdi
  401b7b:	b0 01                	mov    $0x1,%al
  401b7d:	e8 3e f5 ff ff       	call   4010c0 <fprintf@plt>
  401b82:	c4 c1 7b 10 46 08    	vmovsd 0x8(%r14),%xmm0
  401b88:	c5 f8 11 84 24 e0 00 	vmovups %xmm0,0xe0(%rsp)
  401b8f:	00 00 
  401b91:	be 3a a0 40 00       	mov    $0x40a03a,%esi
  401b96:	4c 89 ff             	mov    %r15,%rdi
  401b99:	b0 01                	mov    $0x1,%al
  401b9b:	e8 20 f5 ff ff       	call   4010c0 <fprintf@plt>
  401ba0:	c4 c1 7b 10 46 10    	vmovsd 0x10(%r14),%xmm0
  401ba6:	c5 f8 11 84 24 a0 00 	vmovups %xmm0,0xa0(%rsp)
  401bad:	00 00 
  401baf:	be 3a a0 40 00       	mov    $0x40a03a,%esi
  401bb4:	4c 89 ff             	mov    %r15,%rdi
  401bb7:	b0 01                	mov    $0x1,%al
  401bb9:	e8 02 f5 ff ff       	call   4010c0 <fprintf@plt>
  401bbe:	c4 c1 7b 10 46 18    	vmovsd 0x18(%r14),%xmm0
  401bc4:	c5 f8 11 84 24 80 00 	vmovups %xmm0,0x80(%rsp)
  401bcb:	00 00 
  401bcd:	be 3a a0 40 00       	mov    $0x40a03a,%esi
  401bd2:	4c 89 ff             	mov    %r15,%rdi
  401bd5:	b0 01                	mov    $0x1,%al
  401bd7:	e8 e4 f4 ff ff       	call   4010c0 <fprintf@plt>
  401bdc:	c4 c1 7b 10 46 20    	vmovsd 0x20(%r14),%xmm0
  401be2:	c5 f8 11 44 24 50    	vmovups %xmm0,0x50(%rsp)
  401be8:	be 3a a0 40 00       	mov    $0x40a03a,%esi
  401bed:	4c 89 ff             	mov    %r15,%rdi
  401bf0:	b0 01                	mov    $0x1,%al
  401bf2:	e8 c9 f4 ff ff       	call   4010c0 <fprintf@plt>
  401bf7:	c4 c1 7b 10 46 28    	vmovsd 0x28(%r14),%xmm0
  401bfd:	c5 f8 11 84 24 90 02 	vmovups %xmm0,0x290(%rsp)
  401c04:	00 00 
  401c06:	be 3a a0 40 00       	mov    $0x40a03a,%esi
  401c0b:	4c 89 ff             	mov    %r15,%rdi
  401c0e:	b0 01                	mov    $0x1,%al
  401c10:	e8 ab f4 ff ff       	call   4010c0 <fprintf@plt>
  401c15:	c4 c1 7b 10 46 30    	vmovsd 0x30(%r14),%xmm0
  401c1b:	c5 f8 11 84 24 80 02 	vmovups %xmm0,0x280(%rsp)
  401c22:	00 00 
  401c24:	be 3a a0 40 00       	mov    $0x40a03a,%esi
  401c29:	4c 89 ff             	mov    %r15,%rdi
  401c2c:	b0 01                	mov    $0x1,%al
  401c2e:	e8 8d f4 ff ff       	call   4010c0 <fprintf@plt>
  401c33:	c4 c1 7b 10 46 38    	vmovsd 0x38(%r14),%xmm0
  401c39:	c5 f8 11 84 24 70 02 	vmovups %xmm0,0x270(%rsp)
  401c40:	00 00 
  401c42:	be 3a a0 40 00       	mov    $0x40a03a,%esi
  401c47:	4c 89 ff             	mov    %r15,%rdi
  401c4a:	b0 01                	mov    $0x1,%al
  401c4c:	e8 6f f4 ff ff       	call   4010c0 <fprintf@plt>
  401c51:	c4 c1 7b 10 46 40    	vmovsd 0x40(%r14),%xmm0
  401c57:	c5 f8 11 84 24 c0 00 	vmovups %xmm0,0xc0(%rsp)
  401c5e:	00 00 
  401c60:	be 3a a0 40 00       	mov    $0x40a03a,%esi
  401c65:	4c 89 ff             	mov    %r15,%rdi
  401c68:	b0 01                	mov    $0x1,%al
  401c6a:	e8 51 f4 ff ff       	call   4010c0 <fprintf@plt>
  401c6f:	c4 c1 7b 10 46 48    	vmovsd 0x48(%r14),%xmm0
  401c75:	c5 f8 11 44 24 40    	vmovups %xmm0,0x40(%rsp)
  401c7b:	be 3a a0 40 00       	mov    $0x40a03a,%esi
  401c80:	4c 89 ff             	mov    %r15,%rdi
  401c83:	b0 01                	mov    $0x1,%al
  401c85:	e8 36 f4 ff ff       	call   4010c0 <fprintf@plt>
  401c8a:	bf 0a 00 00 00       	mov    $0xa,%edi
  401c8f:	4c 89 fe             	mov    %r15,%rsi
  401c92:	e8 19 f4 ff ff       	call   4010b0 <fputc@plt>
  401c97:	c4 c1 7b 10 86 00 80 	vmovsd 0x8000(%r14),%xmm0
  401c9e:	00 00 
  401ca0:	c5 f8 11 44 24 60    	vmovups %xmm0,0x60(%rsp)
  401ca6:	be 3a a0 40 00       	mov    $0x40a03a,%esi
  401cab:	4c 89 ff             	mov    %r15,%rdi
  401cae:	b0 01                	mov    $0x1,%al
  401cb0:	e8 0b f4 ff ff       	call   4010c0 <fprintf@plt>
  401cb5:	c4 c1 7b 10 86 08 80 	vmovsd 0x8008(%r14),%xmm0
  401cbc:	00 00 
  401cbe:	c5 f8 11 84 24 a0 02 	vmovups %xmm0,0x2a0(%rsp)
  401cc5:	00 00 
  401cc7:	be 3a a0 40 00       	mov    $0x40a03a,%esi
  401ccc:	4c 89 ff             	mov    %r15,%rdi
  401ccf:	b0 01                	mov    $0x1,%al
  401cd1:	e8 ea f3 ff ff       	call   4010c0 <fprintf@plt>
  401cd6:	c4 c1 7b 10 86 10 80 	vmovsd 0x8010(%r14),%xmm0
  401cdd:	00 00 
  401cdf:	c5 f8 11 84 24 60 02 	vmovups %xmm0,0x260(%rsp)
  401ce6:	00 00 
  401ce8:	be 3a a0 40 00       	mov    $0x40a03a,%esi
  401ced:	4c 89 ff             	mov    %r15,%rdi
  401cf0:	b0 01                	mov    $0x1,%al
  401cf2:	e8 c9 f3 ff ff       	call   4010c0 <fprintf@plt>
  401cf7:	c4 c1 7b 10 86 18 80 	vmovsd 0x8018(%r14),%xmm0
  401cfe:	00 00 
  401d00:	c5 f8 11 84 24 50 02 	vmovups %xmm0,0x250(%rsp)
  401d07:	00 00 
  401d09:	be 3a a0 40 00       	mov    $0x40a03a,%esi
  401d0e:	4c 89 ff             	mov    %r15,%rdi
  401d11:	b0 01                	mov    $0x1,%al
  401d13:	e8 a8 f3 ff ff       	call   4010c0 <fprintf@plt>
  401d18:	c4 c1 7b 10 86 20 80 	vmovsd 0x8020(%r14),%xmm0
  401d1f:	00 00 
  401d21:	c5 f8 11 84 24 40 02 	vmovups %xmm0,0x240(%rsp)
  401d28:	00 00 
  401d2a:	be 3a a0 40 00       	mov    $0x40a03a,%esi
  401d2f:	4c 89 ff             	mov    %r15,%rdi
  401d32:	b0 01                	mov    $0x1,%al
  401d34:	e8 87 f3 ff ff       	call   4010c0 <fprintf@plt>
  401d39:	c4 c1 7b 10 86 28 80 	vmovsd 0x8028(%r14),%xmm0
  401d40:	00 00 
  401d42:	c5 f8 11 84 24 20 02 	vmovups %xmm0,0x220(%rsp)
  401d49:	00 00 
  401d4b:	be 3a a0 40 00       	mov    $0x40a03a,%esi
  401d50:	4c 89 ff             	mov    %r15,%rdi
  401d53:	b0 01                	mov    $0x1,%al
  401d55:	e8 66 f3 ff ff       	call   4010c0 <fprintf@plt>
  401d5a:	c4 c1 7b 10 86 30 80 	vmovsd 0x8030(%r14),%xmm0
  401d61:	00 00 
  401d63:	c5 f8 11 84 24 30 02 	vmovups %xmm0,0x230(%rsp)
  401d6a:	00 00 
  401d6c:	be 3a a0 40 00       	mov    $0x40a03a,%esi
  401d71:	4c 89 ff             	mov    %r15,%rdi
  401d74:	b0 01                	mov    $0x1,%al
  401d76:	e8 45 f3 ff ff       	call   4010c0 <fprintf@plt>
  401d7b:	c4 c1 7b 10 86 38 80 	vmovsd 0x8038(%r14),%xmm0
  401d82:	00 00 
  401d84:	c5 f8 11 84 24 10 02 	vmovups %xmm0,0x210(%rsp)
  401d8b:	00 00 
  401d8d:	be 3a a0 40 00       	mov    $0x40a03a,%esi
  401d92:	4c 89 ff             	mov    %r15,%rdi
  401d95:	b0 01                	mov    $0x1,%al
  401d97:	e8 24 f3 ff ff       	call   4010c0 <fprintf@plt>
  401d9c:	c4 c1 7b 10 86 40 80 	vmovsd 0x8040(%r14),%xmm0
  401da3:	00 00 
  401da5:	c5 f8 11 84 24 00 02 	vmovups %xmm0,0x200(%rsp)
  401dac:	00 00 
  401dae:	be 3a a0 40 00       	mov    $0x40a03a,%esi
  401db3:	4c 89 ff             	mov    %r15,%rdi
  401db6:	b0 01                	mov    $0x1,%al
  401db8:	e8 03 f3 ff ff       	call   4010c0 <fprintf@plt>
  401dbd:	c4 c1 7b 10 86 48 80 	vmovsd 0x8048(%r14),%xmm0
  401dc4:	00 00 
  401dc6:	c5 f8 11 84 24 f0 01 	vmovups %xmm0,0x1f0(%rsp)
  401dcd:	00 00 
  401dcf:	be 3a a0 40 00       	mov    $0x40a03a,%esi
  401dd4:	4c 89 ff             	mov    %r15,%rdi
  401dd7:	b0 01                	mov    $0x1,%al
  401dd9:	e8 e2 f2 ff ff       	call   4010c0 <fprintf@plt>
  401dde:	bf 0a 00 00 00       	mov    $0xa,%edi
  401de3:	4c 89 fe             	mov    %r15,%rsi
  401de6:	e8 c5 f2 ff ff       	call   4010b0 <fputc@plt>
  401deb:	c4 c1 7b 10 86 00 00 	vmovsd 0x10000(%r14),%xmm0
  401df2:	01 00 
  401df4:	c5 f8 11 84 24 a0 01 	vmovups %xmm0,0x1a0(%rsp)
  401dfb:	00 00 
  401dfd:	be 3a a0 40 00       	mov    $0x40a03a,%esi
  401e02:	4c 89 ff             	mov    %r15,%rdi
  401e05:	b0 01                	mov    $0x1,%al
  401e07:	e8 b4 f2 ff ff       	call   4010c0 <fprintf@plt>
  401e0c:	c4 c1 7b 10 86 08 00 	vmovsd 0x10008(%r14),%xmm0
  401e13:	01 00 
  401e15:	c5 f8 11 84 24 90 01 	vmovups %xmm0,0x190(%rsp)
  401e1c:	00 00 
  401e1e:	be 3a a0 40 00       	mov    $0x40a03a,%esi
  401e23:	4c 89 ff             	mov    %r15,%rdi
  401e26:	b0 01                	mov    $0x1,%al
  401e28:	e8 93 f2 ff ff       	call   4010c0 <fprintf@plt>
  401e2d:	c4 c1 7b 10 86 10 00 	vmovsd 0x10010(%r14),%xmm0
  401e34:	01 00 
  401e36:	c5 f8 11 84 24 80 01 	vmovups %xmm0,0x180(%rsp)
  401e3d:	00 00 
  401e3f:	be 3a a0 40 00       	mov    $0x40a03a,%esi
  401e44:	4c 89 ff             	mov    %r15,%rdi
  401e47:	b0 01                	mov    $0x1,%al
  401e49:	e8 72 f2 ff ff       	call   4010c0 <fprintf@plt>
  401e4e:	c4 c1 7b 10 86 18 00 	vmovsd 0x10018(%r14),%xmm0
  401e55:	01 00 
  401e57:	c5 f8 11 84 24 70 01 	vmovups %xmm0,0x170(%rsp)
  401e5e:	00 00 
  401e60:	be 3a a0 40 00       	mov    $0x40a03a,%esi
  401e65:	4c 89 ff             	mov    %r15,%rdi
  401e68:	b0 01                	mov    $0x1,%al
  401e6a:	e8 51 f2 ff ff       	call   4010c0 <fprintf@plt>
  401e6f:	c4 c1 7b 10 86 20 00 	vmovsd 0x10020(%r14),%xmm0
  401e76:	01 00 
  401e78:	c5 f8 11 84 24 e0 01 	vmovups %xmm0,0x1e0(%rsp)
  401e7f:	00 00 
  401e81:	be 3a a0 40 00       	mov    $0x40a03a,%esi
  401e86:	4c 89 ff             	mov    %r15,%rdi
  401e89:	b0 01                	mov    $0x1,%al
  401e8b:	e8 30 f2 ff ff       	call   4010c0 <fprintf@plt>
  401e90:	c4 c1 7b 10 86 28 00 	vmovsd 0x10028(%r14),%xmm0
  401e97:	01 00 
  401e99:	c5 f8 11 84 24 d0 01 	vmovups %xmm0,0x1d0(%rsp)
  401ea0:	00 00 
  401ea2:	be 3a a0 40 00       	mov    $0x40a03a,%esi
  401ea7:	4c 89 ff             	mov    %r15,%rdi
  401eaa:	b0 01                	mov    $0x1,%al
  401eac:	e8 0f f2 ff ff       	call   4010c0 <fprintf@plt>
  401eb1:	c4 c1 7b 10 86 30 00 	vmovsd 0x10030(%r14),%xmm0
  401eb8:	01 00 
  401eba:	c5 f8 11 84 24 c0 01 	vmovups %xmm0,0x1c0(%rsp)
  401ec1:	00 00 
  401ec3:	be 3a a0 40 00       	mov    $0x40a03a,%esi
  401ec8:	4c 89 ff             	mov    %r15,%rdi
  401ecb:	b0 01                	mov    $0x1,%al
  401ecd:	e8 ee f1 ff ff       	call   4010c0 <fprintf@plt>
  401ed2:	c4 c1 7b 10 86 38 00 	vmovsd 0x10038(%r14),%xmm0
  401ed9:	01 00 
  401edb:	c5 f8 11 84 24 b0 01 	vmovups %xmm0,0x1b0(%rsp)
  401ee2:	00 00 
  401ee4:	be 3a a0 40 00       	mov    $0x40a03a,%esi
  401ee9:	4c 89 ff             	mov    %r15,%rdi
  401eec:	b0 01                	mov    $0x1,%al
  401eee:	e8 cd f1 ff ff       	call   4010c0 <fprintf@plt>
  401ef3:	c4 c1 7b 10 86 40 00 	vmovsd 0x10040(%r14),%xmm0
  401efa:	01 00 
  401efc:	c5 f8 11 84 24 60 01 	vmovups %xmm0,0x160(%rsp)
  401f03:	00 00 
  401f05:	be 3a a0 40 00       	mov    $0x40a03a,%esi
  401f0a:	4c 89 ff             	mov    %r15,%rdi
  401f0d:	b0 01                	mov    $0x1,%al
  401f0f:	e8 ac f1 ff ff       	call   4010c0 <fprintf@plt>
  401f14:	c4 c1 7b 10 86 48 00 	vmovsd 0x10048(%r14),%xmm0
  401f1b:	01 00 
  401f1d:	c5 f8 11 84 24 40 01 	vmovups %xmm0,0x140(%rsp)
  401f24:	00 00 
  401f26:	be 3a a0 40 00       	mov    $0x40a03a,%esi
  401f2b:	4c 89 ff             	mov    %r15,%rdi
  401f2e:	b0 01                	mov    $0x1,%al
  401f30:	e8 8b f1 ff ff       	call   4010c0 <fprintf@plt>
  401f35:	bf 0a 00 00 00       	mov    $0xa,%edi
  401f3a:	4c 89 fe             	mov    %r15,%rsi
  401f3d:	e8 6e f1 ff ff       	call   4010b0 <fputc@plt>
  401f42:	c4 c1 7b 10 86 00 80 	vmovsd 0x18000(%r14),%xmm0
  401f49:	01 00 
  401f4b:	c5 f8 11 84 24 80 04 	vmovups %xmm0,0x480(%rsp)
  401f52:	00 00 
  401f54:	be 3a a0 40 00       	mov    $0x40a03a,%esi
  401f59:	4c 89 ff             	mov    %r15,%rdi
  401f5c:	b0 01                	mov    $0x1,%al
  401f5e:	e8 5d f1 ff ff       	call   4010c0 <fprintf@plt>
  401f63:	c4 c1 7b 10 86 08 80 	vmovsd 0x18008(%r14),%xmm0
  401f6a:	01 00 
  401f6c:	c5 f8 11 84 24 60 04 	vmovups %xmm0,0x460(%rsp)
  401f73:	00 00 
  401f75:	be 3a a0 40 00       	mov    $0x40a03a,%esi
  401f7a:	4c 89 ff             	mov    %r15,%rdi
  401f7d:	b0 01                	mov    $0x1,%al
  401f7f:	e8 3c f1 ff ff       	call   4010c0 <fprintf@plt>
  401f84:	c4 c1 7b 10 86 10 80 	vmovsd 0x18010(%r14),%xmm0
  401f8b:	01 00 
  401f8d:	c5 f8 11 84 24 50 01 	vmovups %xmm0,0x150(%rsp)
  401f94:	00 00 
  401f96:	be 3a a0 40 00       	mov    $0x40a03a,%esi
  401f9b:	4c 89 ff             	mov    %r15,%rdi
  401f9e:	b0 01                	mov    $0x1,%al
  401fa0:	e8 1b f1 ff ff       	call   4010c0 <fprintf@plt>
  401fa5:	c4 c1 7b 10 86 18 80 	vmovsd 0x18018(%r14),%xmm0
  401fac:	01 00 
  401fae:	c5 f8 11 84 24 30 01 	vmovups %xmm0,0x130(%rsp)
  401fb5:	00 00 
  401fb7:	be 3a a0 40 00       	mov    $0x40a03a,%esi
  401fbc:	4c 89 ff             	mov    %r15,%rdi
  401fbf:	b0 01                	mov    $0x1,%al
  401fc1:	e8 fa f0 ff ff       	call   4010c0 <fprintf@plt>
  401fc6:	c4 c1 7b 10 86 20 80 	vmovsd 0x18020(%r14),%xmm0
  401fcd:	01 00 
  401fcf:	c5 f8 11 84 24 90 04 	vmovups %xmm0,0x490(%rsp)
  401fd6:	00 00 
  401fd8:	be 3a a0 40 00       	mov    $0x40a03a,%esi
  401fdd:	4c 89 ff             	mov    %r15,%rdi
  401fe0:	b0 01                	mov    $0x1,%al
  401fe2:	e8 d9 f0 ff ff       	call   4010c0 <fprintf@plt>
  401fe7:	c4 c1 7b 10 86 28 80 	vmovsd 0x18028(%r14),%xmm0
  401fee:	01 00 
  401ff0:	c5 f8 11 84 24 70 04 	vmovups %xmm0,0x470(%rsp)
  401ff7:	00 00 
  401ff9:	be 3a a0 40 00       	mov    $0x40a03a,%esi
  401ffe:	4c 89 ff             	mov    %r15,%rdi
  402001:	b0 01                	mov    $0x1,%al
  402003:	e8 b8 f0 ff ff       	call   4010c0 <fprintf@plt>
  402008:	c4 c1 7b 10 86 30 80 	vmovsd 0x18030(%r14),%xmm0
  40200f:	01 00 
  402011:	c5 f8 11 84 24 20 04 	vmovups %xmm0,0x420(%rsp)
  402018:	00 00 
  40201a:	be 3a a0 40 00       	mov    $0x40a03a,%esi
  40201f:	4c 89 ff             	mov    %r15,%rdi
  402022:	b0 01                	mov    $0x1,%al
  402024:	e8 97 f0 ff ff       	call   4010c0 <fprintf@plt>
  402029:	c4 c1 7b 10 86 38 80 	vmovsd 0x18038(%r14),%xmm0
  402030:	01 00 
  402032:	c5 f8 11 84 24 00 04 	vmovups %xmm0,0x400(%rsp)
  402039:	00 00 
  40203b:	be 3a a0 40 00       	mov    $0x40a03a,%esi
  402040:	4c 89 ff             	mov    %r15,%rdi
  402043:	b0 01                	mov    $0x1,%al
  402045:	e8 76 f0 ff ff       	call   4010c0 <fprintf@plt>
  40204a:	c4 c1 7b 10 86 40 80 	vmovsd 0x18040(%r14),%xmm0
  402051:	01 00 
  402053:	c5 f8 11 84 24 f0 03 	vmovups %xmm0,0x3f0(%rsp)
  40205a:	00 00 
  40205c:	be 3a a0 40 00       	mov    $0x40a03a,%esi
  402061:	4c 89 ff             	mov    %r15,%rdi
  402064:	b0 01                	mov    $0x1,%al
  402066:	e8 55 f0 ff ff       	call   4010c0 <fprintf@plt>
  40206b:	c4 c1 7b 10 86 48 80 	vmovsd 0x18048(%r14),%xmm0
  402072:	01 00 
  402074:	c5 f8 11 84 24 e0 03 	vmovups %xmm0,0x3e0(%rsp)
  40207b:	00 00 
  40207d:	be 3a a0 40 00       	mov    $0x40a03a,%esi
  402082:	4c 89 ff             	mov    %r15,%rdi
  402085:	b0 01                	mov    $0x1,%al
  402087:	e8 34 f0 ff ff       	call   4010c0 <fprintf@plt>
  40208c:	bf 0a 00 00 00       	mov    $0xa,%edi
  402091:	4c 89 fe             	mov    %r15,%rsi
  402094:	e8 17 f0 ff ff       	call   4010b0 <fputc@plt>
  402099:	c4 c1 7b 10 86 00 00 	vmovsd 0x20000(%r14),%xmm0
  4020a0:	02 00 
  4020a2:	c5 f8 11 84 24 50 04 	vmovups %xmm0,0x450(%rsp)
  4020a9:	00 00 
  4020ab:	be 3a a0 40 00       	mov    $0x40a03a,%esi
  4020b0:	4c 89 ff             	mov    %r15,%rdi
  4020b3:	b0 01                	mov    $0x1,%al
  4020b5:	e8 06 f0 ff ff       	call   4010c0 <fprintf@plt>
  4020ba:	c4 c1 7b 10 86 08 00 	vmovsd 0x20008(%r14),%xmm0
  4020c1:	02 00 
  4020c3:	c5 f8 11 84 24 40 04 	vmovups %xmm0,0x440(%rsp)
  4020ca:	00 00 
  4020cc:	be 3a a0 40 00       	mov    $0x40a03a,%esi
  4020d1:	4c 89 ff             	mov    %r15,%rdi
  4020d4:	b0 01                	mov    $0x1,%al
  4020d6:	e8 e5 ef ff ff       	call   4010c0 <fprintf@plt>
  4020db:	c4 c1 7b 10 86 10 00 	vmovsd 0x20010(%r14),%xmm0
  4020e2:	02 00 
  4020e4:	c5 f8 11 84 24 30 04 	vmovups %xmm0,0x430(%rsp)
  4020eb:	00 00 
  4020ed:	be 3a a0 40 00       	mov    $0x40a03a,%esi
  4020f2:	4c 89 ff             	mov    %r15,%rdi
  4020f5:	b0 01                	mov    $0x1,%al
  4020f7:	e8 c4 ef ff ff       	call   4010c0 <fprintf@plt>
  4020fc:	c4 c1 7b 10 86 18 00 	vmovsd 0x20018(%r14),%xmm0
  402103:	02 00 
  402105:	c5 f8 11 84 24 10 04 	vmovups %xmm0,0x410(%rsp)
  40210c:	00 00 
  40210e:	be 3a a0 40 00       	mov    $0x40a03a,%esi
  402113:	4c 89 ff             	mov    %r15,%rdi
  402116:	b0 01                	mov    $0x1,%al
  402118:	e8 a3 ef ff ff       	call   4010c0 <fprintf@plt>
  40211d:	c4 c1 7b 10 86 20 00 	vmovsd 0x20020(%r14),%xmm0
  402124:	02 00 
  402126:	c5 f8 11 84 24 d0 03 	vmovups %xmm0,0x3d0(%rsp)
  40212d:	00 00 
  40212f:	be 3a a0 40 00       	mov    $0x40a03a,%esi
  402134:	4c 89 ff             	mov    %r15,%rdi
  402137:	b0 01                	mov    $0x1,%al
  402139:	e8 82 ef ff ff       	call   4010c0 <fprintf@plt>
  40213e:	c4 c1 7b 10 86 28 00 	vmovsd 0x20028(%r14),%xmm0
  402145:	02 00 
  402147:	c5 f8 11 84 24 c0 03 	vmovups %xmm0,0x3c0(%rsp)
  40214e:	00 00 
  402150:	be 3a a0 40 00       	mov    $0x40a03a,%esi
  402155:	4c 89 ff             	mov    %r15,%rdi
  402158:	b0 01                	mov    $0x1,%al
  40215a:	e8 61 ef ff ff       	call   4010c0 <fprintf@plt>
  40215f:	c4 c1 7b 10 86 30 00 	vmovsd 0x20030(%r14),%xmm0
  402166:	02 00 
  402168:	c5 f8 11 84 24 b0 03 	vmovups %xmm0,0x3b0(%rsp)
  40216f:	00 00 
  402171:	be 3a a0 40 00       	mov    $0x40a03a,%esi
  402176:	4c 89 ff             	mov    %r15,%rdi
  402179:	b0 01                	mov    $0x1,%al
  40217b:	e8 40 ef ff ff       	call   4010c0 <fprintf@plt>
  402180:	c4 c1 7b 10 86 38 00 	vmovsd 0x20038(%r14),%xmm0
  402187:	02 00 
  402189:	c5 f8 11 84 24 90 03 	vmovups %xmm0,0x390(%rsp)
  402190:	00 00 
  402192:	be 3a a0 40 00       	mov    $0x40a03a,%esi
  402197:	4c 89 ff             	mov    %r15,%rdi
  40219a:	b0 01                	mov    $0x1,%al
  40219c:	e8 1f ef ff ff       	call   4010c0 <fprintf@plt>
  4021a1:	c4 c1 7b 10 86 40 00 	vmovsd 0x20040(%r14),%xmm0
  4021a8:	02 00 
  4021aa:	c5 f8 11 84 24 a0 03 	vmovups %xmm0,0x3a0(%rsp)
  4021b1:	00 00 
  4021b3:	be 3a a0 40 00       	mov    $0x40a03a,%esi
  4021b8:	4c 89 ff             	mov    %r15,%rdi
  4021bb:	b0 01                	mov    $0x1,%al
  4021bd:	e8 fe ee ff ff       	call   4010c0 <fprintf@plt>
  4021c2:	c4 c1 7b 10 86 48 00 	vmovsd 0x20048(%r14),%xmm0
  4021c9:	02 00 
  4021cb:	c5 f8 11 84 24 80 03 	vmovups %xmm0,0x380(%rsp)
  4021d2:	00 00 
  4021d4:	be 3a a0 40 00       	mov    $0x40a03a,%esi
  4021d9:	4c 89 ff             	mov    %r15,%rdi
  4021dc:	b0 01                	mov    $0x1,%al
  4021de:	e8 dd ee ff ff       	call   4010c0 <fprintf@plt>
  4021e3:	bf 0a 00 00 00       	mov    $0xa,%edi
  4021e8:	4c 89 fe             	mov    %r15,%rsi
  4021eb:	e8 c0 ee ff ff       	call   4010b0 <fputc@plt>
  4021f0:	c4 c1 7b 10 86 00 80 	vmovsd 0x28000(%r14),%xmm0
  4021f7:	02 00 
  4021f9:	c5 f8 11 84 24 70 03 	vmovups %xmm0,0x370(%rsp)
  402200:	00 00 
  402202:	be 3a a0 40 00       	mov    $0x40a03a,%esi
  402207:	4c 89 ff             	mov    %r15,%rdi
  40220a:	b0 01                	mov    $0x1,%al
  40220c:	e8 af ee ff ff       	call   4010c0 <fprintf@plt>
  402211:	c4 c1 7b 10 86 08 80 	vmovsd 0x28008(%r14),%xmm0
  402218:	02 00 
  40221a:	c5 f8 11 84 24 60 03 	vmovups %xmm0,0x360(%rsp)
  402221:	00 00 
  402223:	be 3a a0 40 00       	mov    $0x40a03a,%esi
  402228:	4c 89 ff             	mov    %r15,%rdi
  40222b:	b0 01                	mov    $0x1,%al
  40222d:	e8 8e ee ff ff       	call   4010c0 <fprintf@plt>
  402232:	c4 c1 7b 10 86 10 80 	vmovsd 0x28010(%r14),%xmm0
  402239:	02 00 
  40223b:	c5 f8 11 84 24 10 03 	vmovups %xmm0,0x310(%rsp)
  402242:	00 00 
  402244:	be 3a a0 40 00       	mov    $0x40a03a,%esi
  402249:	4c 89 ff             	mov    %r15,%rdi
  40224c:	b0 01                	mov    $0x1,%al
  40224e:	e8 6d ee ff ff       	call   4010c0 <fprintf@plt>
  402253:	c4 c1 7b 10 86 18 80 	vmovsd 0x28018(%r14),%xmm0
  40225a:	02 00 
  40225c:	c5 f8 11 84 24 00 03 	vmovups %xmm0,0x300(%rsp)
  402263:	00 00 
  402265:	be 3a a0 40 00       	mov    $0x40a03a,%esi
  40226a:	4c 89 ff             	mov    %r15,%rdi
  40226d:	b0 01                	mov    $0x1,%al
  40226f:	e8 4c ee ff ff       	call   4010c0 <fprintf@plt>
  402274:	c4 c1 7b 10 86 20 80 	vmovsd 0x28020(%r14),%xmm0
  40227b:	02 00 
  40227d:	c5 f8 11 84 24 f0 02 	vmovups %xmm0,0x2f0(%rsp)
  402284:	00 00 
  402286:	be 3a a0 40 00       	mov    $0x40a03a,%esi
  40228b:	4c 89 ff             	mov    %r15,%rdi
  40228e:	b0 01                	mov    $0x1,%al
  402290:	e8 2b ee ff ff       	call   4010c0 <fprintf@plt>
  402295:	c4 c1 7b 10 86 28 80 	vmovsd 0x28028(%r14),%xmm0
  40229c:	02 00 
  40229e:	c5 f8 11 84 24 e0 02 	vmovups %xmm0,0x2e0(%rsp)
  4022a5:	00 00 
  4022a7:	be 3a a0 40 00       	mov    $0x40a03a,%esi
  4022ac:	4c 89 ff             	mov    %r15,%rdi
  4022af:	b0 01                	mov    $0x1,%al
  4022b1:	e8 0a ee ff ff       	call   4010c0 <fprintf@plt>
  4022b6:	c4 c1 7b 10 86 30 80 	vmovsd 0x28030(%r14),%xmm0
  4022bd:	02 00 
  4022bf:	c5 f8 11 84 24 50 03 	vmovups %xmm0,0x350(%rsp)
  4022c6:	00 00 
  4022c8:	be 3a a0 40 00       	mov    $0x40a03a,%esi
  4022cd:	4c 89 ff             	mov    %r15,%rdi
  4022d0:	b0 01                	mov    $0x1,%al
  4022d2:	e8 e9 ed ff ff       	call   4010c0 <fprintf@plt>
  4022d7:	c4 c1 7b 10 86 38 80 	vmovsd 0x28038(%r14),%xmm0
  4022de:	02 00 
  4022e0:	c5 f8 11 84 24 40 03 	vmovups %xmm0,0x340(%rsp)
  4022e7:	00 00 
  4022e9:	be 3a a0 40 00       	mov    $0x40a03a,%esi
  4022ee:	4c 89 ff             	mov    %r15,%rdi
  4022f1:	b0 01                	mov    $0x1,%al
  4022f3:	e8 c8 ed ff ff       	call   4010c0 <fprintf@plt>
  4022f8:	c4 c1 7b 10 86 40 80 	vmovsd 0x28040(%r14),%xmm0
  4022ff:	02 00 
  402301:	c5 f8 11 84 24 30 03 	vmovups %xmm0,0x330(%rsp)
  402308:	00 00 
  40230a:	be 3a a0 40 00       	mov    $0x40a03a,%esi
  40230f:	4c 89 ff             	mov    %r15,%rdi
  402312:	b0 01                	mov    $0x1,%al
  402314:	e8 a7 ed ff ff       	call   4010c0 <fprintf@plt>
  402319:	c4 c1 7b 10 86 48 80 	vmovsd 0x28048(%r14),%xmm0
  402320:	02 00 
  402322:	c5 f8 11 84 24 20 03 	vmovups %xmm0,0x320(%rsp)
  402329:	00 00 
  40232b:	be 3a a0 40 00       	mov    $0x40a03a,%esi
  402330:	4c 89 ff             	mov    %r15,%rdi
  402333:	b0 01                	mov    $0x1,%al
  402335:	e8 86 ed ff ff       	call   4010c0 <fprintf@plt>
  40233a:	bf 0a 00 00 00       	mov    $0xa,%edi
  40233f:	4c 89 fe             	mov    %r15,%rsi
  402342:	e8 69 ed ff ff       	call   4010b0 <fputc@plt>
  402347:	c4 c1 7b 10 86 00 00 	vmovsd 0x30000(%r14),%xmm0
  40234e:	03 00 
  402350:	c5 f8 11 84 24 d0 02 	vmovups %xmm0,0x2d0(%rsp)
  402357:	00 00 
  402359:	be 3a a0 40 00       	mov    $0x40a03a,%esi
  40235e:	4c 89 ff             	mov    %r15,%rdi
  402361:	b0 01                	mov    $0x1,%al
  402363:	e8 58 ed ff ff       	call   4010c0 <fprintf@plt>
  402368:	c4 c1 7b 10 86 08 00 	vmovsd 0x30008(%r14),%xmm0
  40236f:	03 00 
  402371:	c5 f8 11 84 24 c0 02 	vmovups %xmm0,0x2c0(%rsp)
  402378:	00 00 
  40237a:	be 3a a0 40 00       	mov    $0x40a03a,%esi
  40237f:	4c 89 ff             	mov    %r15,%rdi
  402382:	b0 01                	mov    $0x1,%al
  402384:	e8 37 ed ff ff       	call   4010c0 <fprintf@plt>
  402389:	c4 c1 7b 10 86 10 00 	vmovsd 0x30010(%r14),%xmm0
  402390:	03 00 
  402392:	c5 f8 11 84 24 b0 02 	vmovups %xmm0,0x2b0(%rsp)
  402399:	00 00 
  40239b:	be 3a a0 40 00       	mov    $0x40a03a,%esi
  4023a0:	4c 89 ff             	mov    %r15,%rdi
  4023a3:	b0 01                	mov    $0x1,%al
  4023a5:	e8 16 ed ff ff       	call   4010c0 <fprintf@plt>
  4023aa:	c5 f9 10 84 24 a0 01 	vmovupd 0x1a0(%rsp),%xmm0
  4023b1:	00 00 
  4023b3:	c5 f9 6c 84 24 90 01 	vpunpcklqdq 0x190(%rsp),%xmm0,%xmm0
  4023ba:	00 00 
  4023bc:	c5 f9 10 8c 24 80 01 	vmovupd 0x180(%rsp),%xmm1
  4023c3:	00 00 
  4023c5:	c5 f1 6c 8c 24 70 01 	vpunpcklqdq 0x170(%rsp),%xmm1,%xmm1
  4023cc:	00 00 
  4023ce:	c4 e3 7d 18 c1 01    	vinsertf128 $0x1,%xmm1,%ymm0,%ymm0
  4023d4:	c5 f9 10 8c 24 10 03 	vmovupd 0x310(%rsp),%xmm1
  4023db:	00 00 
  4023dd:	c5 f1 6c 8c 24 00 03 	vpunpcklqdq 0x300(%rsp),%xmm1,%xmm1
  4023e4:	00 00 
  4023e6:	c5 f9 10 94 24 f0 02 	vmovupd 0x2f0(%rsp),%xmm2
  4023ed:	00 00 
  4023ef:	c5 e9 6c 94 24 e0 02 	vpunpcklqdq 0x2e0(%rsp),%xmm2,%xmm2
  4023f6:	00 00 
  4023f8:	c4 e3 75 18 ca 01    	vinsertf128 $0x1,%xmm2,%ymm1,%ymm1
  4023fe:	c5 fd 58 c1          	vaddpd %ymm1,%ymm0,%ymm0
  402402:	c5 f9 10 4c 24 50    	vmovupd 0x50(%rsp),%xmm1
  402408:	c5 f1 6c 8c 24 90 02 	vpunpcklqdq 0x290(%rsp),%xmm1,%xmm1
  40240f:	00 00 
  402411:	c5 f9 10 94 24 80 02 	vmovupd 0x280(%rsp),%xmm2
  402418:	00 00 
  40241a:	c5 e9 6c 94 24 70 02 	vpunpcklqdq 0x270(%rsp),%xmm2,%xmm2
  402421:	00 00 
  402423:	c4 e3 75 18 ca 01    	vinsertf128 $0x1,%xmm2,%ymm1,%ymm1
  402429:	c5 f9 10 94 24 20 04 	vmovupd 0x420(%rsp),%xmm2
  402430:	00 00 
  402432:	c5 e9 6c 94 24 00 04 	vpunpcklqdq 0x400(%rsp),%xmm2,%xmm2
  402439:	00 00 
  40243b:	c5 f9 10 9c 24 f0 03 	vmovupd 0x3f0(%rsp),%xmm3
  402442:	00 00 
  402444:	c5 e1 6c 9c 24 e0 03 	vpunpcklqdq 0x3e0(%rsp),%xmm3,%xmm3
  40244b:	00 00 
  40244d:	c4 e3 6d 18 d3 01    	vinsertf128 $0x1,%xmm3,%ymm2,%ymm2
  402453:	c5 f5 58 ca          	vaddpd %ymm2,%ymm1,%ymm1
  402457:	c5 f5 58 c8          	vaddpd %ymm0,%ymm1,%ymm1
  40245b:	c5 f9 10 84 24 60 01 	vmovupd 0x160(%rsp),%xmm0
  402462:	00 00 
  402464:	c5 f9 6c 84 24 40 01 	vpunpcklqdq 0x140(%rsp),%xmm0,%xmm0
  40246b:	00 00 
  40246d:	c5 f9 10 94 24 80 04 	vmovupd 0x480(%rsp),%xmm2
  402474:	00 00 
  402476:	c5 e9 6c 94 24 60 04 	vpunpcklqdq 0x460(%rsp),%xmm2,%xmm2
  40247d:	00 00 
  40247f:	c4 e3 7d 18 d2 01    	vinsertf128 $0x1,%xmm2,%ymm0,%ymm2
  402485:	c5 f9 10 84 24 d0 02 	vmovupd 0x2d0(%rsp),%xmm0
  40248c:	00 00 
  40248e:	c5 f9 6c 9c 24 c0 02 	vpunpcklqdq 0x2c0(%rsp),%xmm0,%xmm3
  402495:	00 00 
  402497:	c4 c1 7b 10 86 18 00 	vmovsd 0x30018(%r14),%xmm0
  40249e:	03 00 
  4024a0:	c5 f9 10 a4 24 b0 02 	vmovupd 0x2b0(%rsp),%xmm4
  4024a7:	00 00 
  4024a9:	c5 d9 6c e0          	vpunpcklqdq %xmm0,%xmm4,%xmm4
  4024ad:	c4 e3 65 18 dc 01    	vinsertf128 $0x1,%xmm4,%ymm3,%ymm3
  4024b3:	c5 ed 58 d3          	vaddpd %ymm3,%ymm2,%ymm2
  4024b7:	c5 f9 10 9c 24 60 02 	vmovupd 0x260(%rsp),%xmm3
  4024be:	00 00 
  4024c0:	c5 e1 6c 9c 24 50 02 	vpunpcklqdq 0x250(%rsp),%xmm3,%xmm3
  4024c7:	00 00 
  4024c9:	c5 f9 10 a4 24 40 02 	vmovupd 0x240(%rsp),%xmm4
  4024d0:	00 00 
  4024d2:	c5 d9 6c a4 24 20 02 	vpunpcklqdq 0x220(%rsp),%xmm4,%xmm4
  4024d9:	00 00 
  4024db:	c4 e3 65 18 dc 01    	vinsertf128 $0x1,%xmm4,%ymm3,%ymm3
  4024e1:	c5 f9 10 a4 24 d0 03 	vmovupd 0x3d0(%rsp),%xmm4
  4024e8:	00 00 
  4024ea:	c5 d9 6c a4 24 c0 03 	vpunpcklqdq 0x3c0(%rsp),%xmm4,%xmm4
  4024f1:	00 00 
  4024f3:	c5 f9 10 ac 24 b0 03 	vmovupd 0x3b0(%rsp),%xmm5
  4024fa:	00 00 
  4024fc:	c5 d1 6c ac 24 90 03 	vpunpcklqdq 0x390(%rsp),%xmm5,%xmm5
  402503:	00 00 
  402505:	c4 e3 5d 18 e5 01    	vinsertf128 $0x1,%xmm5,%ymm4,%ymm4
  40250b:	c5 e5 58 dc          	vaddpd %ymm4,%ymm3,%ymm3
  40250f:	c5 e5 58 d2          	vaddpd %ymm2,%ymm3,%ymm2
  402513:	c5 f5 58 ca          	vaddpd %ymm2,%ymm1,%ymm1
  402517:	c5 f9 10 94 24 30 02 	vmovupd 0x230(%rsp),%xmm2
  40251e:	00 00 
  402520:	c5 e9 6c 94 24 10 02 	vpunpcklqdq 0x210(%rsp),%xmm2,%xmm2
  402527:	00 00 
  402529:	c5 f9 10 9c 24 00 02 	vmovupd 0x200(%rsp),%xmm3
  402530:	00 00 
  402532:	c5 e1 6c 9c 24 f0 01 	vpunpcklqdq 0x1f0(%rsp),%xmm3,%xmm3
  402539:	00 00 
  40253b:	c4 e3 6d 18 d3 01    	vinsertf128 $0x1,%xmm3,%ymm2,%ymm2
  402541:	c5 f9 10 9c 24 a0 03 	vmovupd 0x3a0(%rsp),%xmm3
  402548:	00 00 
  40254a:	c5 e1 6c 9c 24 80 03 	vpunpcklqdq 0x380(%rsp),%xmm3,%xmm3
  402551:	00 00 
  402553:	c5 f9 10 a4 24 70 03 	vmovupd 0x370(%rsp),%xmm4
  40255a:	00 00 
  40255c:	c5 d9 6c a4 24 60 03 	vpunpcklqdq 0x360(%rsp),%xmm4,%xmm4
  402563:	00 00 
  402565:	c4 e3 65 18 dc 01    	vinsertf128 $0x1,%xmm4,%ymm3,%ymm3
  40256b:	c5 ed 58 d3          	vaddpd %ymm3,%ymm2,%ymm2
  40256f:	c5 f9 10 9c 24 00 01 	vmovupd 0x100(%rsp),%xmm3
  402576:	00 00 
  402578:	c5 e1 6c 9c 24 e0 00 	vpunpcklqdq 0xe0(%rsp),%xmm3,%xmm3
  40257f:	00 00 
  402581:	c5 f9 10 a4 24 a0 00 	vmovupd 0xa0(%rsp),%xmm4
  402588:	00 00 
  40258a:	c5 d9 6c a4 24 80 00 	vpunpcklqdq 0x80(%rsp),%xmm4,%xmm4
  402591:	00 00 
  402593:	c4 e3 65 18 dc 01    	vinsertf128 $0x1,%xmm4,%ymm3,%ymm3
  402599:	c5 f9 10 a4 24 50 01 	vmovupd 0x150(%rsp),%xmm4
  4025a0:	00 00 
  4025a2:	c5 d9 6c a4 24 30 01 	vpunpcklqdq 0x130(%rsp),%xmm4,%xmm4
  4025a9:	00 00 
  4025ab:	c5 f9 10 ac 24 90 04 	vmovupd 0x490(%rsp),%xmm5
  4025b2:	00 00 
  4025b4:	c5 d1 6c ac 24 70 04 	vpunpcklqdq 0x470(%rsp),%xmm5,%xmm5
  4025bb:	00 00 
  4025bd:	c4 e3 5d 18 e5 01    	vinsertf128 $0x1,%xmm5,%ymm4,%ymm4
  4025c3:	c5 e5 58 dc          	vaddpd %ymm4,%ymm3,%ymm3
  4025c7:	c5 e5 58 d2          	vaddpd %ymm2,%ymm3,%ymm2
  4025cb:	c5 f9 10 9c 24 e0 01 	vmovupd 0x1e0(%rsp),%xmm3
  4025d2:	00 00 
  4025d4:	c5 e1 6c 9c 24 d0 01 	vpunpcklqdq 0x1d0(%rsp),%xmm3,%xmm3
  4025db:	00 00 
  4025dd:	c5 f9 10 a4 24 c0 01 	vmovupd 0x1c0(%rsp),%xmm4
  4025e4:	00 00 
  4025e6:	c5 d9 6c a4 24 b0 01 	vpunpcklqdq 0x1b0(%rsp),%xmm4,%xmm4
  4025ed:	00 00 
  4025ef:	c4 e3 65 18 dc 01    	vinsertf128 $0x1,%xmm4,%ymm3,%ymm3
  4025f5:	c5 f9 10 a4 24 50 03 	vmovupd 0x350(%rsp),%xmm4
  4025fc:	00 00 
  4025fe:	c5 d9 6c a4 24 40 03 	vpunpcklqdq 0x340(%rsp),%xmm4,%xmm4
  402605:	00 00 
  402607:	c5 f9 10 ac 24 30 03 	vmovupd 0x330(%rsp),%xmm5
  40260e:	00 00 
  402610:	c5 d1 6c ac 24 20 03 	vpunpcklqdq 0x320(%rsp),%xmm5,%xmm5
  402617:	00 00 
  402619:	c4 e3 5d 18 e5 01    	vinsertf128 $0x1,%xmm5,%ymm4,%ymm4
  40261f:	c5 e5 58 dc          	vaddpd %ymm4,%ymm3,%ymm3
  402623:	c5 f9 10 a4 24 c0 00 	vmovupd 0xc0(%rsp),%xmm4
  40262a:	00 00 
  40262c:	c5 d9 6c 64 24 40    	vpunpcklqdq 0x40(%rsp),%xmm4,%xmm4
  402632:	c5 f9 10 6c 24 60    	vmovupd 0x60(%rsp),%xmm5
  402638:	c5 d1 6c ac 24 a0 02 	vpunpcklqdq 0x2a0(%rsp),%xmm5,%xmm5
  40263f:	00 00 
  402641:	c4 e3 5d 18 e5 01    	vinsertf128 $0x1,%xmm5,%ymm4,%ymm4
  402647:	c5 f9 10 ac 24 50 04 	vmovupd 0x450(%rsp),%xmm5
  40264e:	00 00 
  402650:	c5 d1 6c ac 24 40 04 	vpunpcklqdq 0x440(%rsp),%xmm5,%xmm5
  402657:	00 00 
  402659:	c5 f9 10 b4 24 30 04 	vmovupd 0x430(%rsp),%xmm6
  402660:	00 00 
  402662:	c5 c9 6c b4 24 10 04 	vpunpcklqdq 0x410(%rsp),%xmm6,%xmm6
  402669:	00 00 
  40266b:	c4 e3 55 18 ee 01    	vinsertf128 $0x1,%xmm6,%ymm5,%ymm5
  402671:	c5 dd 58 e5          	vaddpd %ymm5,%ymm4,%ymm4
  402675:	c5 dd 58 db          	vaddpd %ymm3,%ymm4,%ymm3
  402679:	c5 ed 58 d3          	vaddpd %ymm3,%ymm2,%ymm2
  40267d:	c5 ed 58 c9          	vaddpd %ymm1,%ymm2,%ymm1
  402681:	c5 fd 11 8c 24 00 01 	vmovupd %ymm1,0x100(%rsp)
  402688:	00 00 
  40268a:	be 3a a0 40 00       	mov    $0x40a03a,%esi
  40268f:	4c 89 ff             	mov    %r15,%rdi
  402692:	b0 01                	mov    $0x1,%al
  402694:	c5 f8 77             	vzeroupper
  402697:	e8 24 ea ff ff       	call   4010c0 <fprintf@plt>
  40269c:	c4 c1 7b 10 86 20 00 	vmovsd 0x30020(%r14),%xmm0
  4026a3:	03 00 
  4026a5:	c5 f8 11 84 24 e0 00 	vmovups %xmm0,0xe0(%rsp)
  4026ac:	00 00 
  4026ae:	be 3a a0 40 00       	mov    $0x40a03a,%esi
  4026b3:	4c 89 ff             	mov    %r15,%rdi
  4026b6:	b0 01                	mov    $0x1,%al
  4026b8:	e8 03 ea ff ff       	call   4010c0 <fprintf@plt>
  4026bd:	c4 c1 7b 10 86 28 00 	vmovsd 0x30028(%r14),%xmm0
  4026c4:	03 00 
  4026c6:	c5 f8 11 84 24 a0 00 	vmovups %xmm0,0xa0(%rsp)
  4026cd:	00 00 
  4026cf:	be 3a a0 40 00       	mov    $0x40a03a,%esi
  4026d4:	4c 89 ff             	mov    %r15,%rdi
  4026d7:	b0 01                	mov    $0x1,%al
  4026d9:	e8 e2 e9 ff ff       	call   4010c0 <fprintf@plt>
  4026de:	c4 c1 7b 10 86 30 00 	vmovsd 0x30030(%r14),%xmm0
  4026e5:	03 00 
  4026e7:	c5 f8 11 84 24 c0 00 	vmovups %xmm0,0xc0(%rsp)
  4026ee:	00 00 
  4026f0:	be 3a a0 40 00       	mov    $0x40a03a,%esi
  4026f5:	4c 89 ff             	mov    %r15,%rdi
  4026f8:	b0 01                	mov    $0x1,%al
  4026fa:	e8 c1 e9 ff ff       	call   4010c0 <fprintf@plt>
  4026ff:	c4 c1 7b 10 86 38 00 	vmovsd 0x30038(%r14),%xmm0
  402706:	03 00 
  402708:	c5 f8 11 44 24 60    	vmovups %xmm0,0x60(%rsp)
  40270e:	be 3a a0 40 00       	mov    $0x40a03a,%esi
  402713:	4c 89 ff             	mov    %r15,%rdi
  402716:	b0 01                	mov    $0x1,%al
  402718:	e8 a3 e9 ff ff       	call   4010c0 <fprintf@plt>
  40271d:	c4 c1 7b 10 86 40 00 	vmovsd 0x30040(%r14),%xmm0
  402724:	03 00 
  402726:	c5 f8 11 84 24 80 00 	vmovups %xmm0,0x80(%rsp)
  40272d:	00 00 
  40272f:	be 3a a0 40 00       	mov    $0x40a03a,%esi
  402734:	4c 89 ff             	mov    %r15,%rdi
  402737:	b0 01                	mov    $0x1,%al
  402739:	e8 82 e9 ff ff       	call   4010c0 <fprintf@plt>
  40273e:	c4 c1 7b 10 86 48 00 	vmovsd 0x30048(%r14),%xmm0
  402745:	03 00 
  402747:	c5 f8 11 44 24 40    	vmovups %xmm0,0x40(%rsp)
  40274d:	be 3a a0 40 00       	mov    $0x40a03a,%esi
  402752:	4c 89 ff             	mov    %r15,%rdi
  402755:	b0 01                	mov    $0x1,%al
  402757:	e8 64 e9 ff ff       	call   4010c0 <fprintf@plt>
  40275c:	bf 0a 00 00 00       	mov    $0xa,%edi
  402761:	4c 89 fe             	mov    %r15,%rsi
  402764:	e8 47 e9 ff ff       	call   4010b0 <fputc@plt>
  402769:	c4 c1 7b 10 86 00 80 	vmovsd 0x38000(%r14),%xmm0
  402770:	03 00 
  402772:	c5 f8 11 44 24 50    	vmovups %xmm0,0x50(%rsp)
  402778:	be 3a a0 40 00       	mov    $0x40a03a,%esi
  40277d:	4c 89 ff             	mov    %r15,%rdi
  402780:	b0 01                	mov    $0x1,%al
  402782:	e8 39 e9 ff ff       	call   4010c0 <fprintf@plt>
  402787:	c4 c1 7b 10 86 08 80 	vmovsd 0x38008(%r14),%xmm0
  40278e:	03 00 
  402790:	c5 f8 11 84 24 a0 02 	vmovups %xmm0,0x2a0(%rsp)
  402797:	00 00 
  402799:	be 3a a0 40 00       	mov    $0x40a03a,%esi
  40279e:	4c 89 ff             	mov    %r15,%rdi
  4027a1:	b0 01                	mov    $0x1,%al
  4027a3:	e8 18 e9 ff ff       	call   4010c0 <fprintf@plt>
  4027a8:	c4 c1 7b 10 86 10 80 	vmovsd 0x38010(%r14),%xmm0
  4027af:	03 00 
  4027b1:	c5 f8 11 84 24 90 02 	vmovups %xmm0,0x290(%rsp)
  4027b8:	00 00 
  4027ba:	be 3a a0 40 00       	mov    $0x40a03a,%esi
  4027bf:	4c 89 ff             	mov    %r15,%rdi
  4027c2:	b0 01                	mov    $0x1,%al
  4027c4:	e8 f7 e8 ff ff       	call   4010c0 <fprintf@plt>
  4027c9:	c4 c1 7b 10 86 18 80 	vmovsd 0x38018(%r14),%xmm0
  4027d0:	03 00 
  4027d2:	c5 f8 11 84 24 80 02 	vmovups %xmm0,0x280(%rsp)
  4027d9:	00 00 
  4027db:	be 3a a0 40 00       	mov    $0x40a03a,%esi
  4027e0:	4c 89 ff             	mov    %r15,%rdi
  4027e3:	b0 01                	mov    $0x1,%al
  4027e5:	e8 d6 e8 ff ff       	call   4010c0 <fprintf@plt>
  4027ea:	c4 c1 7b 10 86 20 80 	vmovsd 0x38020(%r14),%xmm0
  4027f1:	03 00 
  4027f3:	c5 f8 11 84 24 60 02 	vmovups %xmm0,0x260(%rsp)
  4027fa:	00 00 
  4027fc:	be 3a a0 40 00       	mov    $0x40a03a,%esi
  402801:	4c 89 ff             	mov    %r15,%rdi
  402804:	b0 01                	mov    $0x1,%al
  402806:	e8 b5 e8 ff ff       	call   4010c0 <fprintf@plt>
  40280b:	c4 c1 7b 10 86 28 80 	vmovsd 0x38028(%r14),%xmm0
  402812:	03 00 
  402814:	c5 f8 11 84 24 40 02 	vmovups %xmm0,0x240(%rsp)
  40281b:	00 00 
  40281d:	be 3a a0 40 00       	mov    $0x40a03a,%esi
  402822:	4c 89 ff             	mov    %r15,%rdi
  402825:	b0 01                	mov    $0x1,%al
  402827:	e8 94 e8 ff ff       	call   4010c0 <fprintf@plt>
  40282c:	c4 c1 7b 10 86 30 80 	vmovsd 0x38030(%r14),%xmm0
  402833:	03 00 
  402835:	c5 f8 11 84 24 70 02 	vmovups %xmm0,0x270(%rsp)
  40283c:	00 00 
  40283e:	be 3a a0 40 00       	mov    $0x40a03a,%esi
  402843:	4c 89 ff             	mov    %r15,%rdi
  402846:	b0 01                	mov    $0x1,%al
  402848:	e8 73 e8 ff ff       	call   4010c0 <fprintf@plt>
  40284d:	c4 c1 7b 10 86 38 80 	vmovsd 0x38038(%r14),%xmm0
  402854:	03 00 
  402856:	c5 f8 11 84 24 50 02 	vmovups %xmm0,0x250(%rsp)
  40285d:	00 00 
  40285f:	be 3a a0 40 00       	mov    $0x40a03a,%esi
  402864:	4c 89 ff             	mov    %r15,%rdi
  402867:	b0 01                	mov    $0x1,%al
  402869:	e8 52 e8 ff ff       	call   4010c0 <fprintf@plt>
  40286e:	c4 c1 7b 10 86 40 80 	vmovsd 0x38040(%r14),%xmm0
  402875:	03 00 
  402877:	c5 f8 11 84 24 30 02 	vmovups %xmm0,0x230(%rsp)
  40287e:	00 00 
  402880:	be 3a a0 40 00       	mov    $0x40a03a,%esi
  402885:	4c 89 ff             	mov    %r15,%rdi
  402888:	b0 01                	mov    $0x1,%al
  40288a:	e8 31 e8 ff ff       	call   4010c0 <fprintf@plt>
  40288f:	c4 c1 7b 10 86 48 80 	vmovsd 0x38048(%r14),%xmm0
  402896:	03 00 
  402898:	c5 f8 11 84 24 20 02 	vmovups %xmm0,0x220(%rsp)
  40289f:	00 00 
  4028a1:	be 3a a0 40 00       	mov    $0x40a03a,%esi
  4028a6:	4c 89 ff             	mov    %r15,%rdi
  4028a9:	b0 01                	mov    $0x1,%al
  4028ab:	e8 10 e8 ff ff       	call   4010c0 <fprintf@plt>
  4028b0:	bf 0a 00 00 00       	mov    $0xa,%edi
  4028b5:	4c 89 fe             	mov    %r15,%rsi
  4028b8:	e8 f3 e7 ff ff       	call   4010b0 <fputc@plt>
  4028bd:	c4 c1 7b 10 86 00 00 	vmovsd 0x40000(%r14),%xmm0
  4028c4:	04 00 
  4028c6:	c5 f8 11 84 24 10 02 	vmovups %xmm0,0x210(%rsp)
  4028cd:	00 00 
  4028cf:	be 3a a0 40 00       	mov    $0x40a03a,%esi
  4028d4:	4c 89 ff             	mov    %r15,%rdi
  4028d7:	b0 01                	mov    $0x1,%al
  4028d9:	e8 e2 e7 ff ff       	call   4010c0 <fprintf@plt>
  4028de:	c4 c1 7b 10 86 08 00 	vmovsd 0x40008(%r14),%xmm0
  4028e5:	04 00 
  4028e7:	c5 f8 11 84 24 00 02 	vmovups %xmm0,0x200(%rsp)
  4028ee:	00 00 
  4028f0:	be 3a a0 40 00       	mov    $0x40a03a,%esi
  4028f5:	4c 89 ff             	mov    %r15,%rdi
  4028f8:	b0 01                	mov    $0x1,%al
  4028fa:	e8 c1 e7 ff ff       	call   4010c0 <fprintf@plt>
  4028ff:	c4 c1 7b 10 86 10 00 	vmovsd 0x40010(%r14),%xmm0
  402906:	04 00 
  402908:	c5 f8 11 84 24 e0 01 	vmovups %xmm0,0x1e0(%rsp)
  40290f:	00 00 
  402911:	be 3a a0 40 00       	mov    $0x40a03a,%esi
  402916:	4c 89 ff             	mov    %r15,%rdi
  402919:	b0 01                	mov    $0x1,%al
  40291b:	e8 a0 e7 ff ff       	call   4010c0 <fprintf@plt>
  402920:	c4 c1 7b 10 86 18 00 	vmovsd 0x40018(%r14),%xmm0
  402927:	04 00 
  402929:	c5 f8 11 84 24 c0 01 	vmovups %xmm0,0x1c0(%rsp)
  402930:	00 00 
  402932:	be 3a a0 40 00       	mov    $0x40a03a,%esi
  402937:	4c 89 ff             	mov    %r15,%rdi
  40293a:	b0 01                	mov    $0x1,%al
  40293c:	e8 7f e7 ff ff       	call   4010c0 <fprintf@plt>
  402941:	c4 c1 7b 10 86 20 00 	vmovsd 0x40020(%r14),%xmm0
  402948:	04 00 
  40294a:	c5 f8 11 84 24 f0 01 	vmovups %xmm0,0x1f0(%rsp)
  402951:	00 00 
  402953:	be 3a a0 40 00       	mov    $0x40a03a,%esi
  402958:	4c 89 ff             	mov    %r15,%rdi
  40295b:	b0 01                	mov    $0x1,%al
  40295d:	e8 5e e7 ff ff       	call   4010c0 <fprintf@plt>
  402962:	c4 c1 7b 10 86 28 00 	vmovsd 0x40028(%r14),%xmm0
  402969:	04 00 
  40296b:	c5 f8 11 84 24 d0 01 	vmovups %xmm0,0x1d0(%rsp)
  402972:	00 00 
  402974:	be 3a a0 40 00       	mov    $0x40a03a,%esi
  402979:	4c 89 ff             	mov    %r15,%rdi
  40297c:	b0 01                	mov    $0x1,%al
  40297e:	e8 3d e7 ff ff       	call   4010c0 <fprintf@plt>
  402983:	c4 c1 7b 10 86 30 00 	vmovsd 0x40030(%r14),%xmm0
  40298a:	04 00 
  40298c:	c5 f8 11 84 24 b0 01 	vmovups %xmm0,0x1b0(%rsp)
  402993:	00 00 
  402995:	be 3a a0 40 00       	mov    $0x40a03a,%esi
  40299a:	4c 89 ff             	mov    %r15,%rdi
  40299d:	b0 01                	mov    $0x1,%al
  40299f:	e8 1c e7 ff ff       	call   4010c0 <fprintf@plt>
  4029a4:	c4 c1 7b 10 86 38 00 	vmovsd 0x40038(%r14),%xmm0
  4029ab:	04 00 
  4029ad:	c5 f8 11 84 24 a0 01 	vmovups %xmm0,0x1a0(%rsp)
  4029b4:	00 00 
  4029b6:	be 3a a0 40 00       	mov    $0x40a03a,%esi
  4029bb:	4c 89 ff             	mov    %r15,%rdi
  4029be:	b0 01                	mov    $0x1,%al
  4029c0:	e8 fb e6 ff ff       	call   4010c0 <fprintf@plt>
  4029c5:	c4 c1 7b 10 86 40 00 	vmovsd 0x40040(%r14),%xmm0
  4029cc:	04 00 
  4029ce:	c5 f8 11 84 24 90 01 	vmovups %xmm0,0x190(%rsp)
  4029d5:	00 00 
  4029d7:	be 3a a0 40 00       	mov    $0x40a03a,%esi
  4029dc:	4c 89 ff             	mov    %r15,%rdi
  4029df:	b0 01                	mov    $0x1,%al
  4029e1:	e8 da e6 ff ff       	call   4010c0 <fprintf@plt>
  4029e6:	c4 c1 7b 10 86 48 00 	vmovsd 0x40048(%r14),%xmm0
  4029ed:	04 00 
  4029ef:	c5 f8 11 84 24 80 01 	vmovups %xmm0,0x180(%rsp)
  4029f6:	00 00 
  4029f8:	be 3a a0 40 00       	mov    $0x40a03a,%esi
  4029fd:	4c 89 ff             	mov    %r15,%rdi
  402a00:	b0 01                	mov    $0x1,%al
  402a02:	e8 b9 e6 ff ff       	call   4010c0 <fprintf@plt>
  402a07:	bf 0a 00 00 00       	mov    $0xa,%edi
  402a0c:	4c 89 fe             	mov    %r15,%rsi
  402a0f:	e8 9c e6 ff ff       	call   4010b0 <fputc@plt>
  402a14:	c4 c1 7b 10 86 00 80 	vmovsd 0x48000(%r14),%xmm0
  402a1b:	04 00 
  402a1d:	c5 f8 11 84 24 60 01 	vmovups %xmm0,0x160(%rsp)
  402a24:	00 00 
  402a26:	be 3a a0 40 00       	mov    $0x40a03a,%esi
  402a2b:	4c 89 ff             	mov    %r15,%rdi
  402a2e:	b0 01                	mov    $0x1,%al
  402a30:	e8 8b e6 ff ff       	call   4010c0 <fprintf@plt>
  402a35:	c4 c1 7b 10 86 08 80 	vmovsd 0x48008(%r14),%xmm0
  402a3c:	04 00 
  402a3e:	c5 f8 11 84 24 40 01 	vmovups %xmm0,0x140(%rsp)
  402a45:	00 00 
  402a47:	be 3a a0 40 00       	mov    $0x40a03a,%esi
  402a4c:	4c 89 ff             	mov    %r15,%rdi
  402a4f:	b0 01                	mov    $0x1,%al
  402a51:	e8 6a e6 ff ff       	call   4010c0 <fprintf@plt>
  402a56:	c4 c1 7b 10 86 10 80 	vmovsd 0x48010(%r14),%xmm0
  402a5d:	04 00 
  402a5f:	c5 f8 11 84 24 70 01 	vmovups %xmm0,0x170(%rsp)
  402a66:	00 00 
  402a68:	be 3a a0 40 00       	mov    $0x40a03a,%esi
  402a6d:	4c 89 ff             	mov    %r15,%rdi
  402a70:	b0 01                	mov    $0x1,%al
  402a72:	e8 49 e6 ff ff       	call   4010c0 <fprintf@plt>
  402a77:	c4 c1 7b 10 86 18 80 	vmovsd 0x48018(%r14),%xmm0
  402a7e:	04 00 
  402a80:	c5 f8 11 84 24 50 01 	vmovups %xmm0,0x150(%rsp)
  402a87:	00 00 
  402a89:	be 3a a0 40 00       	mov    $0x40a03a,%esi
  402a8e:	4c 89 ff             	mov    %r15,%rdi
  402a91:	b0 01                	mov    $0x1,%al
  402a93:	e8 28 e6 ff ff       	call   4010c0 <fprintf@plt>
  402a98:	c4 c1 7b 10 86 20 80 	vmovsd 0x48020(%r14),%xmm0
  402a9f:	04 00 
  402aa1:	c5 f8 11 84 24 30 01 	vmovups %xmm0,0x130(%rsp)
  402aa8:	00 00 
  402aaa:	be 3a a0 40 00       	mov    $0x40a03a,%esi
  402aaf:	4c 89 ff             	mov    %r15,%rdi
  402ab2:	b0 01                	mov    $0x1,%al
  402ab4:	e8 07 e6 ff ff       	call   4010c0 <fprintf@plt>
  402ab9:	c5 f9 10 84 24 90 02 	vmovupd 0x290(%rsp),%xmm0
  402ac0:	00 00 
  402ac2:	c5 f9 6c 84 24 80 02 	vpunpcklqdq 0x280(%rsp),%xmm0,%xmm0
  402ac9:	00 00 
  402acb:	c5 f9 10 8c 24 60 02 	vmovupd 0x260(%rsp),%xmm1
  402ad2:	00 00 
  402ad4:	c5 f1 6c 8c 24 40 02 	vpunpcklqdq 0x240(%rsp),%xmm1,%xmm1
  402adb:	00 00 
  402add:	c4 e3 7d 18 c1 01    	vinsertf128 $0x1,%xmm1,%ymm0,%ymm0
  402ae3:	c5 f9 10 8c 24 90 01 	vmovupd 0x190(%rsp),%xmm1
  402aea:	00 00 
  402aec:	c5 f1 6c 8c 24 80 01 	vpunpcklqdq 0x180(%rsp),%xmm1,%xmm1
  402af3:	00 00 
  402af5:	c5 f9 10 94 24 60 01 	vmovupd 0x160(%rsp),%xmm2
  402afc:	00 00 
  402afe:	c5 e9 6c 94 24 40 01 	vpunpcklqdq 0x140(%rsp),%xmm2,%xmm2
  402b05:	00 00 
  402b07:	c4 e3 75 18 ca 01    	vinsertf128 $0x1,%xmm2,%ymm1,%ymm1
  402b0d:	c5 fd 58 c1          	vaddpd %ymm1,%ymm0,%ymm0
  402b11:	c5 f9 10 8c 24 e0 00 	vmovupd 0xe0(%rsp),%xmm1
  402b18:	00 00 
  402b1a:	c5 f1 6c 8c 24 a0 00 	vpunpcklqdq 0xa0(%rsp),%xmm1,%xmm1
  402b21:	00 00 
  402b23:	c5 f9 10 94 24 c0 00 	vmovupd 0xc0(%rsp),%xmm2
  402b2a:	00 00 
  402b2c:	c5 e9 6c 54 24 60    	vpunpcklqdq 0x60(%rsp),%xmm2,%xmm2
  402b32:	c4 e3 75 18 ca 01    	vinsertf128 $0x1,%xmm2,%ymm1,%ymm1
  402b38:	c5 f9 10 94 24 10 02 	vmovupd 0x210(%rsp),%xmm2
  402b3f:	00 00 
  402b41:	c5 e9 6c 94 24 00 02 	vpunpcklqdq 0x200(%rsp),%xmm2,%xmm2
  402b48:	00 00 
  402b4a:	c5 f9 10 9c 24 e0 01 	vmovupd 0x1e0(%rsp),%xmm3
  402b51:	00 00 
  402b53:	c5 e1 6c 9c 24 c0 01 	vpunpcklqdq 0x1c0(%rsp),%xmm3,%xmm3
  402b5a:	00 00 
  402b5c:	c4 e3 6d 18 d3 01    	vinsertf128 $0x1,%xmm3,%ymm2,%ymm2
  402b62:	c5 f5 58 ca          	vaddpd %ymm2,%ymm1,%ymm1
  402b66:	c5 f5 58 c8          	vaddpd %ymm0,%ymm1,%ymm1
  402b6a:	c5 f9 10 84 24 70 02 	vmovupd 0x270(%rsp),%xmm0
  402b71:	00 00 
  402b73:	c5 f9 6c 84 24 50 02 	vpunpcklqdq 0x250(%rsp),%xmm0,%xmm0
  402b7a:	00 00 
  402b7c:	c5 f9 10 94 24 30 02 	vmovupd 0x230(%rsp),%xmm2
  402b83:	00 00 
  402b85:	c5 e9 6c 94 24 20 02 	vpunpcklqdq 0x220(%rsp),%xmm2,%xmm2
  402b8c:	00 00 
  402b8e:	c4 e3 7d 18 d2 01    	vinsertf128 $0x1,%xmm2,%ymm0,%ymm2
  402b94:	c5 f9 10 84 24 70 01 	vmovupd 0x170(%rsp),%xmm0
  402b9b:	00 00 
  402b9d:	c5 f9 6c 9c 24 50 01 	vpunpcklqdq 0x150(%rsp),%xmm0,%xmm3
  402ba4:	00 00 
  402ba6:	c4 c1 7b 10 86 28 80 	vmovsd 0x48028(%r14),%xmm0
  402bad:	04 00 
  402baf:	c5 f9 10 a4 24 30 01 	vmovupd 0x130(%rsp),%xmm4
  402bb6:	00 00 
  402bb8:	c5 d9 6c e0          	vpunpcklqdq %xmm0,%xmm4,%xmm4
  402bbc:	c4 e3 65 18 dc 01    	vinsertf128 $0x1,%xmm4,%ymm3,%ymm3
  402bc2:	c5 ed 58 d3          	vaddpd %ymm3,%ymm2,%ymm2
  402bc6:	c5 f9 10 9c 24 80 00 	vmovupd 0x80(%rsp),%xmm3
  402bcd:	00 00 
  402bcf:	c5 e1 6c 5c 24 40    	vpunpcklqdq 0x40(%rsp),%xmm3,%xmm3
  402bd5:	c5 f9 10 64 24 50    	vmovupd 0x50(%rsp),%xmm4
  402bdb:	c5 d9 6c a4 24 a0 02 	vpunpcklqdq 0x2a0(%rsp),%xmm4,%xmm4
  402be2:	00 00 
  402be4:	c4 e3 65 18 dc 01    	vinsertf128 $0x1,%xmm4,%ymm3,%ymm3
  402bea:	c5 f9 10 a4 24 f0 01 	vmovupd 0x1f0(%rsp),%xmm4
  402bf1:	00 00 
  402bf3:	c5 d9 6c a4 24 d0 01 	vpunpcklqdq 0x1d0(%rsp),%xmm4,%xmm4
  402bfa:	00 00 
  402bfc:	c5 f9 10 ac 24 b0 01 	vmovupd 0x1b0(%rsp),%xmm5
  402c03:	00 00 
  402c05:	c5 d1 6c ac 24 a0 01 	vpunpcklqdq 0x1a0(%rsp),%xmm5,%xmm5
  402c0c:	00 00 
  402c0e:	c4 e3 5d 18 e5 01    	vinsertf128 $0x1,%xmm5,%ymm4,%ymm4
  402c14:	c5 e5 58 dc          	vaddpd %ymm4,%ymm3,%ymm3
  402c18:	c5 e5 58 d2          	vaddpd %ymm2,%ymm3,%ymm2
  402c1c:	c5 f5 58 ca          	vaddpd %ymm2,%ymm1,%ymm1
  402c20:	c5 fd 11 8c 24 e0 00 	vmovupd %ymm1,0xe0(%rsp)
  402c27:	00 00 
  402c29:	be 3a a0 40 00       	mov    $0x40a03a,%esi
  402c2e:	4c 89 ff             	mov    %r15,%rdi
  402c31:	b0 01                	mov    $0x1,%al
  402c33:	c5 f8 77             	vzeroupper
  402c36:	e8 85 e4 ff ff       	call   4010c0 <fprintf@plt>
  402c3b:	c4 c1 7b 10 86 30 80 	vmovsd 0x48030(%r14),%xmm0
  402c42:	04 00 
  402c44:	c5 f8 11 84 24 a0 00 	vmovups %xmm0,0xa0(%rsp)
  402c4b:	00 00 
  402c4d:	be 3a a0 40 00       	mov    $0x40a03a,%esi
  402c52:	4c 89 ff             	mov    %r15,%rdi
  402c55:	b0 01                	mov    $0x1,%al
  402c57:	e8 64 e4 ff ff       	call   4010c0 <fprintf@plt>
  402c5c:	c4 c1 7b 10 86 38 80 	vmovsd 0x48038(%r14),%xmm0
  402c63:	04 00 
  402c65:	c5 f8 11 84 24 80 00 	vmovups %xmm0,0x80(%rsp)
  402c6c:	00 00 
  402c6e:	be 3a a0 40 00       	mov    $0x40a03a,%esi
  402c73:	4c 89 ff             	mov    %r15,%rdi
  402c76:	b0 01                	mov    $0x1,%al
  402c78:	e8 43 e4 ff ff       	call   4010c0 <fprintf@plt>
  402c7d:	c4 c2 7d 19 86 40 80 	vbroadcastsd 0x48040(%r14),%ymm0
  402c84:	04 00 
  402c86:	c5 fc 11 84 24 c0 00 	vmovups %ymm0,0xc0(%rsp)
  402c8d:	00 00 
  402c8f:	be 3a a0 40 00       	mov    $0x40a03a,%esi
  402c94:	4c 89 ff             	mov    %r15,%rdi
  402c97:	b0 01                	mov    $0x1,%al
  402c99:	c5 f8 77             	vzeroupper
  402c9c:	e8 1f e4 ff ff       	call   4010c0 <fprintf@plt>
  402ca1:	c5 f8 10 84 24 a0 00 	vmovups 0xa0(%rsp),%xmm0
  402ca8:	00 00 
  402caa:	c5 f9 6c 84 24 80 00 	vpunpcklqdq 0x80(%rsp),%xmm0,%xmm0
  402cb1:	00 00 
  402cb3:	c5 f8 11 84 24 a0 00 	vmovups %xmm0,0xa0(%rsp)
  402cba:	00 00 
  402cbc:	c4 c2 7d 19 86 48 80 	vbroadcastsd 0x48048(%r14),%ymm0
  402cc3:	04 00 
  402cc5:	c5 fc 10 8c 24 c0 00 	vmovups 0xc0(%rsp),%ymm1
  402ccc:	00 00 
  402cce:	c5 f5 6c c8          	vpunpcklqdq %ymm0,%ymm1,%ymm1
  402cd2:	c5 fc 11 8c 24 80 00 	vmovups %ymm1,0x80(%rsp)
  402cd9:	00 00 
  402cdb:	be 3a a0 40 00       	mov    $0x40a03a,%esi
  402ce0:	4c 89 ff             	mov    %r15,%rdi
  402ce3:	b0 01                	mov    $0x1,%al
  402ce5:	c5 f8 77             	vzeroupper
  402ce8:	e8 d3 e3 ff ff       	call   4010c0 <fprintf@plt>
  402ced:	c5 fd 10 8c 24 e0 00 	vmovupd 0xe0(%rsp),%ymm1
  402cf4:	00 00 
  402cf6:	c4 e3 7d 19 c8 01    	vextractf128 $0x1,%ymm1,%xmm0
  402cfc:	c5 f1 58 c0          	vaddpd %xmm0,%xmm1,%xmm0
  402d00:	c4 e3 79 05 c8 01    	vpermilpd $0x1,%xmm0,%xmm1
  402d06:	c5 fb 58 c1          	vaddsd %xmm1,%xmm0,%xmm0
  402d0a:	c5 fd 10 94 24 00 01 	vmovupd 0x100(%rsp),%ymm2
  402d11:	00 00 
  402d13:	c4 e3 7d 19 d1 01    	vextractf128 $0x1,%ymm2,%xmm1
  402d19:	c5 e9 58 c9          	vaddpd %xmm1,%xmm2,%xmm1
  402d1d:	c4 e3 79 05 d1 01    	vpermilpd $0x1,%xmm1,%xmm2
  402d23:	c5 f3 58 ca          	vaddsd %xmm2,%xmm1,%xmm1
  402d27:	c5 fd 10 94 24 80 00 	vmovupd 0x80(%rsp),%ymm2
  402d2e:	00 00 
  402d30:	c4 e3 7d 19 d2 01    	vextractf128 $0x1,%ymm2,%xmm2
  402d36:	c5 e9 58 94 24 a0 00 	vaddpd 0xa0(%rsp),%xmm2,%xmm2
  402d3d:	00 00 
  402d3f:	c4 e3 79 05 da 01    	vpermilpd $0x1,%xmm2,%xmm3
  402d45:	c5 eb 58 d3          	vaddsd %xmm3,%xmm2,%xmm2
  402d49:	c5 fb 58 c2          	vaddsd %xmm2,%xmm0,%xmm0
  402d4d:	c5 fb 58 c1          	vaddsd %xmm1,%xmm0,%xmm0
  402d51:	c5 fb 11 84 24 00 01 	vmovsd %xmm0,0x100(%rsp)
  402d58:	00 00 
  402d5a:	bf 0a 00 00 00       	mov    $0xa,%edi
  402d5f:	4c 89 fe             	mov    %r15,%rsi
  402d62:	c5 f8 77             	vzeroupper
  402d65:	e8 46 e3 ff ff       	call   4010b0 <fputc@plt>
  402d6a:	be 40 a0 40 00       	mov    $0x40a040,%esi
  402d6f:	4c 89 ff             	mov    %r15,%rdi
  402d72:	c5 fb 10 84 24 00 01 	vmovsd 0x100(%rsp),%xmm0
  402d79:	00 00 
  402d7b:	b0 01                	mov    $0x1,%al
  402d7d:	e8 3e e3 ff ff       	call   4010c0 <fprintf@plt>
  402d82:	4c 89 ff             	mov    %r15,%rdi
  402d85:	e8 e6 e2 ff ff       	call   401070 <fclose@plt>
  402d8a:	48 89 df             	mov    %rbx,%rdi
  402d8d:	e8 ae e2 ff ff       	call   401040 <free@plt>
  402d92:	48 8b 7c 24 78       	mov    0x78(%rsp),%rdi
  402d97:	e8 a4 e2 ff ff       	call   401040 <free@plt>
  402d9c:	48 8b 7c 24 38       	mov    0x38(%rsp),%rdi
  402da1:	e8 9a e2 ff ff       	call   401040 <free@plt>
  402da6:	31 c9                	xor    %ecx,%ecx
  402da8:	e9 47 e8 ff ff       	jmp    4015f4 <main+0x64>
  402dad:	0f 1f 00             	nopl   (%rax)

0000000000402db0 <__intel_get_fast_memset_impl.V>:
  402db0:	48 c7 c0 10 52 40 00 	mov    $0x405210,%rax
  402db7:	c3                   	ret
  402db8:	0f 1f 84 00 00 00 00 	nopl   0x0(%rax,%rax,1)
  402dbf:	00 

0000000000402dc0 <__intel_get_fast_memset_impl.Z>:
  402dc0:	48 c7 c0 40 39 40 00 	mov    $0x403940,%rax
  402dc7:	c3                   	ret
  402dc8:	0f 1f 84 00 00 00 00 	nopl   0x0(%rax,%rax,1)
  402dcf:	00 

0000000000402dd0 <_intel_fast_memset>:
  402dd0:	f3 0f 1e fa          	endbr64
  402dd4:	48 8b 05 35 a3 00 00 	mov    0xa335(%rip),%rax        # 40d110 <__real_memset_impl>
  402ddb:	48 85 c0             	test   %rax,%rax
  402dde:	0f 84 0c 00 00 00    	je     402df0 <__real_memset_impl_setup>
  402de4:	ff e0                	jmp    *%rax
  402de6:	66 2e 0f 1f 84 00 00 	cs nopw 0x0(%rax,%rax,1)
  402ded:	00 00 00 

0000000000402df0 <__real_memset_impl_setup>:
  402df0:	55                   	push   %rbp
  402df1:	41 56                	push   %r14
  402df3:	53                   	push   %rbx
  402df4:	48 89 d3             	mov    %rdx,%rbx
  402df7:	89 f5                	mov    %esi,%ebp
  402df9:	49 89 fe             	mov    %rdi,%r14
  402dfc:	48 c7 c1 30 d1 40 00 	mov    $0x40d130,%rcx
  402e03:	48 8b 01             	mov    (%rcx),%rax
  402e06:	48 85 c0             	test   %rax,%rax
  402e09:	75 12                	jne    402e1d <__real_memset_impl_setup+0x2d>
  402e0b:	0f 1f 44 00 00       	nopl   0x0(%rax,%rax,1)
  402e10:	e8 8b 51 00 00       	call   407fa0 <__intel_cpu_features_init_x>
  402e15:	48 8b 01             	mov    (%rcx),%rax
  402e18:	48 85 c0             	test   %rax,%rax
  402e1b:	74 f3                	je     402e10 <__real_memset_impl_setup+0x20>
  402e1d:	48 89 c1             	mov    %rax,%rcx
  402e20:	48 f7 d1             	not    %rcx
  402e23:	48 ba ec 9f 9d 18 07 	movabs $0x7189d9fec,%rdx
  402e2a:	00 00 00 
  402e2d:	48 85 d1             	test   %rdx,%rcx
  402e30:	75 07                	jne    402e39 <__real_memset_impl_setup+0x49>
  402e32:	e8 89 ff ff ff       	call   402dc0 <__intel_get_fast_memset_impl.Z>
  402e37:	eb 29                	jmp    402e62 <__real_memset_impl_setup+0x72>
  402e39:	89 c1                	mov    %eax,%ecx
  402e3b:	f7 d1                	not    %ecx
  402e3d:	f7 c1 ec 9f 9d 00    	test   $0x9d9fec,%ecx
  402e43:	75 07                	jne    402e4c <__real_memset_impl_setup+0x5c>
  402e45:	e8 66 ff ff ff       	call   402db0 <__intel_get_fast_memset_impl.V>
  402e4a:	eb 16                	jmp    402e62 <__real_memset_impl_setup+0x72>
  402e4c:	f7 d0                	not    %eax
  402e4e:	a8 6c                	test   $0x6c,%al
  402e50:	75 09                	jne    402e5b <__real_memset_impl_setup+0x6b>
  402e52:	48 c7 c0 e0 62 40 00 	mov    $0x4062e0,%rax
  402e59:	eb 07                	jmp    402e62 <__real_memset_impl_setup+0x72>
  402e5b:	48 8b 05 5e a1 00 00 	mov    0xa15e(%rip),%rax        # 40cfc0 <memset@GLIBC_2.2.5>
  402e62:	48 89 05 a7 a2 00 00 	mov    %rax,0xa2a7(%rip)        # 40d110 <__real_memset_impl>
  402e69:	4c 89 f7             	mov    %r14,%rdi
  402e6c:	89 ee                	mov    %ebp,%esi
  402e6e:	48 89 da             	mov    %rbx,%rdx
  402e71:	5b                   	pop    %rbx
  402e72:	41 5e                	pop    %r14
  402e74:	5d                   	pop    %rbp
  402e75:	ff e0                	jmp    *%rax
  402e77:	90                   	nop
  402e78:	0f 1f 84 00 00 00 00 	nopl   0x0(%rax,%rax,1)
  402e7f:	00 

0000000000402e80 <__libirc_nontemporal_store_512>:
  402e80:	f3 0f 1e fa          	endbr64
  402e84:	55                   	push   %rbp
  402e85:	41 57                	push   %r15
  402e87:	41 56                	push   %r14
  402e89:	41 54                	push   %r12
  402e8b:	53                   	push   %rbx
  402e8c:	49 89 f7             	mov    %rsi,%r15
  402e8f:	48 89 fb             	mov    %rdi,%rbx
  402e92:	4c 8d 77 58          	lea    0x58(%rdi),%r14
  402e96:	48 81 fe ff 00 00 00 	cmp    $0xff,%rsi
  402e9d:	77 2a                	ja     402ec9 <__libirc_nontemporal_store_512+0x49>
  402e9f:	48 8b 7b 40          	mov    0x40(%rbx),%rdi
  402ea3:	48 8b 53 50          	mov    0x50(%rbx),%rdx
  402ea7:	48 85 d2             	test   %rdx,%rdx
  402eaa:	0f 84 aa 00 00 00    	je     402f5a <__libirc_nontemporal_store_512+0xda>
  402eb0:	48 89 de             	mov    %rbx,%rsi
  402eb3:	e8 18 e2 ff ff       	call   4010d0 <memcpy@plt>
  402eb8:	48 8b 7b 40          	mov    0x40(%rbx),%rdi
  402ebc:	48 03 7b 50          	add    0x50(%rbx),%rdi
  402ec0:	48 89 7b 40          	mov    %rdi,0x40(%rbx)
  402ec4:	e9 91 00 00 00       	jmp    402f5a <__libirc_nontemporal_store_512+0xda>
  402ec9:	89 d5                	mov    %edx,%ebp
  402ecb:	48 8b 43 48          	mov    0x48(%rbx),%rax
  402ecf:	48 85 c0             	test   %rax,%rax
  402ed2:	74 36                	je     402f0a <__libirc_nontemporal_store_512+0x8a>
  402ed4:	83 e0 3f             	and    $0x3f,%eax
  402ed7:	48 89 43 48          	mov    %rax,0x48(%rbx)
  402edb:	41 bc 40 00 00 00    	mov    $0x40,%r12d
  402ee1:	49 29 c4             	sub    %rax,%r12
  402ee4:	48 8b 7b 40          	mov    0x40(%rbx),%rdi
  402ee8:	4c 89 f6             	mov    %r14,%rsi
  402eeb:	4c 89 e2             	mov    %r12,%rdx
  402eee:	e8 dd e1 ff ff       	call   4010d0 <memcpy@plt>
  402ef3:	48 c7 43 48 00 00 00 	movq   $0x0,0x48(%rbx)
  402efa:	00 
  402efb:	4c 01 63 40          	add    %r12,0x40(%rbx)
  402eff:	4e 8d 34 23          	lea    (%rbx,%r12,1),%r14
  402f03:	49 83 c6 58          	add    $0x58,%r14
  402f07:	4d 29 e7             	sub    %r12,%r15
  402f0a:	48 8b 7b 50          	mov    0x50(%rbx),%rdi
  402f0e:	48 85 ff             	test   %rdi,%rdi
  402f11:	74 62                	je     402f75 <__libirc_nontemporal_store_512+0xf5>
  402f13:	41 bc 40 00 00 00    	mov    $0x40,%r12d
  402f19:	49 29 fc             	sub    %rdi,%r12
  402f1c:	48 01 df             	add    %rbx,%rdi
  402f1f:	4c 89 f6             	mov    %r14,%rsi
  402f22:	4c 89 e2             	mov    %r12,%rdx
  402f25:	e8 a6 e1 ff ff       	call   4010d0 <memcpy@plt>
  402f2a:	48 8b 43 40          	mov    0x40(%rbx),%rax
  402f2e:	62 f1 7c 48 10 03    	vmovups (%rbx),%zmm0
  402f34:	62 f1 7c 48 2b 00    	vmovntps %zmm0,(%rax)
  402f3a:	4d 01 e6             	add    %r12,%r14
  402f3d:	4d 29 e7             	sub    %r12,%r15
  402f40:	48 8b 7b 40          	mov    0x40(%rbx),%rdi
  402f44:	48 83 c7 40          	add    $0x40,%rdi
  402f48:	48 89 7b 40          	mov    %rdi,0x40(%rbx)
  402f4c:	49 83 ff 40          	cmp    $0x40,%r15
  402f50:	73 27                	jae    402f79 <__libirc_nontemporal_store_512+0xf9>
  402f52:	85 ed                	test   %ebp,%ebp
  402f54:	0f 84 a0 01 00 00    	je     4030fa <__libirc_nontemporal_store_512+0x27a>
  402f5a:	4c 89 f6             	mov    %r14,%rsi
  402f5d:	4c 89 fa             	mov    %r15,%rdx
  402f60:	c5 f8 77             	vzeroupper
  402f63:	e8 68 e1 ff ff       	call   4010d0 <memcpy@plt>
  402f68:	4c 01 7b 40          	add    %r15,0x40(%rbx)
  402f6c:	5b                   	pop    %rbx
  402f6d:	41 5c                	pop    %r12
  402f6f:	41 5e                	pop    %r14
  402f71:	41 5f                	pop    %r15
  402f73:	5d                   	pop    %rbp
  402f74:	c3                   	ret
  402f75:	48 8b 7b 40          	mov    0x40(%rbx),%rdi
  402f79:	49 8d 47 c0          	lea    -0x40(%r15),%rax
  402f7d:	48 83 f8 3f          	cmp    $0x3f,%rax
  402f81:	b9 3f 00 00 00       	mov    $0x3f,%ecx
  402f86:	48 0f 42 c8          	cmovb  %rax,%rcx
  402f8a:	48 f7 d1             	not    %rcx
  402f8d:	4c 01 f9             	add    %r15,%rcx
  402f90:	48 89 ca             	mov    %rcx,%rdx
  402f93:	48 c1 ea 06          	shr    $0x6,%rdx
  402f97:	48 8d 72 01          	lea    0x1(%rdx),%rsi
  402f9b:	48 81 f9 c0 01 00 00 	cmp    $0x1c0,%rcx
  402fa2:	0f 82 f6 00 00 00    	jb     40309e <__libirc_nontemporal_store_512+0x21e>
  402fa8:	49 89 f0             	mov    %rsi,%r8
  402fab:	49 c1 e8 03          	shr    $0x3,%r8
  402faf:	4d 8d 8e c0 01 00 00 	lea    0x1c0(%r14),%r9
  402fb6:	66 2e 0f 1f 84 00 00 	cs nopw 0x0(%rax,%rax,1)
  402fbd:	00 00 00 
  402fc0:	62 d1 7c 48 10 41 f9 	vmovups -0x1c0(%r9),%zmm0
  402fc7:	62 f1 7c 48 2b 07    	vmovntps %zmm0,(%rdi)
  402fcd:	48 8b 7b 40          	mov    0x40(%rbx),%rdi
  402fd1:	4c 8d 57 40          	lea    0x40(%rdi),%r10
  402fd5:	4c 89 53 40          	mov    %r10,0x40(%rbx)
  402fd9:	62 d1 7c 48 10 41 fa 	vmovups -0x180(%r9),%zmm0
  402fe0:	62 f1 7c 48 2b 47 01 	vmovntps %zmm0,0x40(%rdi)
  402fe7:	48 8b 7b 40          	mov    0x40(%rbx),%rdi
  402feb:	4c 8d 57 40          	lea    0x40(%rdi),%r10
  402fef:	4c 89 53 40          	mov    %r10,0x40(%rbx)
  402ff3:	62 d1 7c 48 10 41 fb 	vmovups -0x140(%r9),%zmm0
  402ffa:	62 f1 7c 48 2b 47 01 	vmovntps %zmm0,0x40(%rdi)
  403001:	48 8b 7b 40          	mov    0x40(%rbx),%rdi
  403005:	4c 8d 57 40          	lea    0x40(%rdi),%r10
  403009:	4c 89 53 40          	mov    %r10,0x40(%rbx)
  40300d:	62 d1 7c 48 10 41 fc 	vmovups -0x100(%r9),%zmm0
  403014:	62 f1 7c 48 2b 47 01 	vmovntps %zmm0,0x40(%rdi)
  40301b:	48 8b 7b 40          	mov    0x40(%rbx),%rdi
  40301f:	4c 8d 57 40          	lea    0x40(%rdi),%r10
  403023:	4c 89 53 40          	mov    %r10,0x40(%rbx)
  403027:	62 d1 7c 48 10 41 fd 	vmovups -0xc0(%r9),%zmm0
  40302e:	62 f1 7c 48 2b 47 01 	vmovntps %zmm0,0x40(%rdi)
  403035:	48 8b 7b 40          	mov    0x40(%rbx),%rdi
  403039:	4c 8d 57 40          	lea    0x40(%rdi),%r10
  40303d:	4c 89 53 40          	mov    %r10,0x40(%rbx)
  403041:	62 d1 7c 48 10 41 fe 	vmovups -0x80(%r9),%zmm0
  403048:	62 f1 7c 48 2b 47 01 	vmovntps %zmm0,0x40(%rdi)
  40304f:	48 8b 7b 40          	mov    0x40(%rbx),%rdi
  403053:	4c 8d 57 40          	lea    0x40(%rdi),%r10
  403057:	4c 89 53 40          	mov    %r10,0x40(%rbx)
  40305b:	62 d1 7c 48 10 41 ff 	vmovups -0x40(%r9),%zmm0
  403062:	62 f1 7c 48 2b 47 01 	vmovntps %zmm0,0x40(%rdi)
  403069:	48 8b 7b 40          	mov    0x40(%rbx),%rdi
  40306d:	4c 8d 57 40          	lea    0x40(%rdi),%r10
  403071:	4c 89 53 40          	mov    %r10,0x40(%rbx)
  403075:	62 d1 7c 48 10 01    	vmovups (%r9),%zmm0
  40307b:	62 f1 7c 48 2b 47 01 	vmovntps %zmm0,0x40(%rdi)
  403082:	48 8b 7b 40          	mov    0x40(%rbx),%rdi
  403086:	48 83 c7 40          	add    $0x40,%rdi
  40308a:	48 89 7b 40          	mov    %rdi,0x40(%rbx)
  40308e:	49 81 c1 00 02 00 00 	add    $0x200,%r9
  403095:	49 ff c8             	dec    %r8
  403098:	0f 85 22 ff ff ff    	jne    402fc0 <__libirc_nontemporal_store_512+0x140>
  40309e:	48 83 e6 f8          	and    $0xfffffffffffffff8,%rsi
  4030a2:	48 39 d6             	cmp    %rdx,%rsi
  4030a5:	77 3a                	ja     4030e1 <__libirc_nontemporal_store_512+0x261>
  4030a7:	49 89 f0             	mov    %rsi,%r8
  4030aa:	49 c1 e0 06          	shl    $0x6,%r8
  4030ae:	4d 01 f0             	add    %r14,%r8
  4030b1:	48 f7 d2             	not    %rdx
  4030b4:	48 01 f2             	add    %rsi,%rdx
  4030b7:	66 0f 1f 84 00 00 00 	nopw   0x0(%rax,%rax,1)
  4030be:	00 00 
  4030c0:	62 d1 7c 48 10 00    	vmovups (%r8),%zmm0
  4030c6:	62 f1 7c 48 2b 07    	vmovntps %zmm0,(%rdi)
  4030cc:	48 8b 7b 40          	mov    0x40(%rbx),%rdi
  4030d0:	48 83 c7 40          	add    $0x40,%rdi
  4030d4:	48 89 7b 40          	mov    %rdi,0x40(%rbx)
  4030d8:	49 83 c0 40          	add    $0x40,%r8
  4030dc:	48 ff c2             	inc    %rdx
  4030df:	75 df                	jne    4030c0 <__libirc_nontemporal_store_512+0x240>
  4030e1:	48 83 e1 c0          	and    $0xffffffffffffffc0,%rcx
  4030e5:	49 01 ce             	add    %rcx,%r14
  4030e8:	49 83 c6 40          	add    $0x40,%r14
  4030ec:	48 29 c8             	sub    %rcx,%rax
  4030ef:	49 89 c7             	mov    %rax,%r15
  4030f2:	85 ed                	test   %ebp,%ebp
  4030f4:	0f 85 60 fe ff ff    	jne    402f5a <__libirc_nontemporal_store_512+0xda>
  4030fa:	48 89 df             	mov    %rbx,%rdi
  4030fd:	4c 89 f6             	mov    %r14,%rsi
  403100:	4c 89 fa             	mov    %r15,%rdx
  403103:	c5 f8 77             	vzeroupper
  403106:	e8 c5 df ff ff       	call   4010d0 <memcpy@plt>
  40310b:	4c 89 7b 50          	mov    %r15,0x50(%rbx)
  40310f:	e9 58 fe ff ff       	jmp    402f6c <__libirc_nontemporal_store_512+0xec>
  403114:	66 2e 0f 1f 84 00 00 	cs nopw 0x0(%rax,%rax,1)
  40311b:	00 00 00 
  40311e:	66 90                	xchg   %ax,%ax

0000000000403120 <__libirc_nontemporal_store_256>:
  403120:	f3 0f 1e fa          	endbr64
  403124:	55                   	push   %rbp
  403125:	41 57                	push   %r15
  403127:	41 56                	push   %r14
  403129:	41 54                	push   %r12
  40312b:	53                   	push   %rbx
  40312c:	49 89 f7             	mov    %rsi,%r15
  40312f:	48 89 fb             	mov    %rdi,%rbx
  403132:	4c 8d 77 58          	lea    0x58(%rdi),%r14
  403136:	48 83 fe 7f          	cmp    $0x7f,%rsi
  40313a:	77 2a                	ja     403166 <__libirc_nontemporal_store_256+0x46>
  40313c:	48 8b 7b 40          	mov    0x40(%rbx),%rdi
  403140:	48 8b 53 50          	mov    0x50(%rbx),%rdx
  403144:	48 85 d2             	test   %rdx,%rdx
  403147:	0f 84 a6 00 00 00    	je     4031f3 <__libirc_nontemporal_store_256+0xd3>
  40314d:	48 89 de             	mov    %rbx,%rsi
  403150:	e8 7b df ff ff       	call   4010d0 <memcpy@plt>
  403155:	48 8b 7b 40          	mov    0x40(%rbx),%rdi
  403159:	48 03 7b 50          	add    0x50(%rbx),%rdi
  40315d:	48 89 7b 40          	mov    %rdi,0x40(%rbx)
  403161:	e9 8d 00 00 00       	jmp    4031f3 <__libirc_nontemporal_store_256+0xd3>
  403166:	89 d5                	mov    %edx,%ebp
  403168:	48 8b 43 48          	mov    0x48(%rbx),%rax
  40316c:	48 85 c0             	test   %rax,%rax
  40316f:	74 36                	je     4031a7 <__libirc_nontemporal_store_256+0x87>
  403171:	83 e0 1f             	and    $0x1f,%eax
  403174:	48 89 43 48          	mov    %rax,0x48(%rbx)
  403178:	41 bc 20 00 00 00    	mov    $0x20,%r12d
  40317e:	49 29 c4             	sub    %rax,%r12
  403181:	48 8b 7b 40          	mov    0x40(%rbx),%rdi
  403185:	4c 89 f6             	mov    %r14,%rsi
  403188:	4c 89 e2             	mov    %r12,%rdx
  40318b:	e8 40 df ff ff       	call   4010d0 <memcpy@plt>
  403190:	48 c7 43 48 00 00 00 	movq   $0x0,0x48(%rbx)
  403197:	00 
  403198:	4c 01 63 40          	add    %r12,0x40(%rbx)
  40319c:	4e 8d 34 23          	lea    (%rbx,%r12,1),%r14
  4031a0:	49 83 c6 58          	add    $0x58,%r14
  4031a4:	4d 29 e7             	sub    %r12,%r15
  4031a7:	48 8b 7b 50          	mov    0x50(%rbx),%rdi
  4031ab:	48 85 ff             	test   %rdi,%rdi
  4031ae:	74 5e                	je     40320e <__libirc_nontemporal_store_256+0xee>
  4031b0:	41 bc 20 00 00 00    	mov    $0x20,%r12d
  4031b6:	49 29 fc             	sub    %rdi,%r12
  4031b9:	48 01 df             	add    %rbx,%rdi
  4031bc:	4c 89 f6             	mov    %r14,%rsi
  4031bf:	4c 89 e2             	mov    %r12,%rdx
  4031c2:	e8 09 df ff ff       	call   4010d0 <memcpy@plt>
  4031c7:	48 8b 43 40          	mov    0x40(%rbx),%rax
  4031cb:	c5 fc 10 03          	vmovups (%rbx),%ymm0
  4031cf:	c5 fc 2b 00          	vmovntps %ymm0,(%rax)
  4031d3:	4d 01 e6             	add    %r12,%r14
  4031d6:	4d 29 e7             	sub    %r12,%r15
  4031d9:	48 8b 7b 40          	mov    0x40(%rbx),%rdi
  4031dd:	48 83 c7 20          	add    $0x20,%rdi
  4031e1:	48 89 7b 40          	mov    %rdi,0x40(%rbx)
  4031e5:	49 83 ff 20          	cmp    $0x20,%r15
  4031e9:	73 27                	jae    403212 <__libirc_nontemporal_store_256+0xf2>
  4031eb:	85 ed                	test   %ebp,%ebp
  4031ed:	0f 84 84 01 00 00    	je     403377 <__libirc_nontemporal_store_256+0x257>
  4031f3:	4c 89 f6             	mov    %r14,%rsi
  4031f6:	4c 89 fa             	mov    %r15,%rdx
  4031f9:	c5 f8 77             	vzeroupper
  4031fc:	e8 cf de ff ff       	call   4010d0 <memcpy@plt>
  403201:	4c 01 7b 40          	add    %r15,0x40(%rbx)
  403205:	5b                   	pop    %rbx
  403206:	41 5c                	pop    %r12
  403208:	41 5e                	pop    %r14
  40320a:	41 5f                	pop    %r15
  40320c:	5d                   	pop    %rbp
  40320d:	c3                   	ret
  40320e:	48 8b 7b 40          	mov    0x40(%rbx),%rdi
  403212:	49 8d 47 e0          	lea    -0x20(%r15),%rax
  403216:	48 83 f8 1f          	cmp    $0x1f,%rax
  40321a:	b9 1f 00 00 00       	mov    $0x1f,%ecx
  40321f:	48 0f 42 c8          	cmovb  %rax,%rcx
  403223:	48 f7 d1             	not    %rcx
  403226:	4c 01 f9             	add    %r15,%rcx
  403229:	48 89 ca             	mov    %rcx,%rdx
  40322c:	48 c1 ea 05          	shr    $0x5,%rdx
  403230:	48 8d 72 01          	lea    0x1(%rdx),%rsi
  403234:	48 81 f9 e0 00 00 00 	cmp    $0xe0,%rcx
  40323b:	0f 82 de 00 00 00    	jb     40331f <__libirc_nontemporal_store_256+0x1ff>
  403241:	49 89 f0             	mov    %rsi,%r8
  403244:	49 c1 e8 03          	shr    $0x3,%r8
  403248:	4d 8d 8e e0 00 00 00 	lea    0xe0(%r14),%r9
  40324f:	90                   	nop
  403250:	c4 c1 7c 10 81 20 ff 	vmovups -0xe0(%r9),%ymm0
  403257:	ff ff 
  403259:	c5 fc 2b 07          	vmovntps %ymm0,(%rdi)
  40325d:	48 8b 7b 40          	mov    0x40(%rbx),%rdi
  403261:	4c 8d 57 20          	lea    0x20(%rdi),%r10
  403265:	4c 89 53 40          	mov    %r10,0x40(%rbx)
  403269:	c4 c1 7c 10 81 40 ff 	vmovups -0xc0(%r9),%ymm0
  403270:	ff ff 
  403272:	c5 fc 2b 47 20       	vmovntps %ymm0,0x20(%rdi)
  403277:	48 8b 7b 40          	mov    0x40(%rbx),%rdi
  40327b:	4c 8d 57 20          	lea    0x20(%rdi),%r10
  40327f:	4c 89 53 40          	mov    %r10,0x40(%rbx)
  403283:	c4 c1 7c 10 81 60 ff 	vmovups -0xa0(%r9),%ymm0
  40328a:	ff ff 
  40328c:	c5 fc 2b 47 20       	vmovntps %ymm0,0x20(%rdi)
  403291:	48 8b 7b 40          	mov    0x40(%rbx),%rdi
  403295:	4c 8d 57 20          	lea    0x20(%rdi),%r10
  403299:	4c 89 53 40          	mov    %r10,0x40(%rbx)
  40329d:	c4 c1 7c 10 41 80    	vmovups -0x80(%r9),%ymm0
  4032a3:	c5 fc 2b 47 20       	vmovntps %ymm0,0x20(%rdi)
  4032a8:	48 8b 7b 40          	mov    0x40(%rbx),%rdi
  4032ac:	4c 8d 57 20          	lea    0x20(%rdi),%r10
  4032b0:	4c 89 53 40          	mov    %r10,0x40(%rbx)
  4032b4:	c4 c1 7c 10 41 a0    	vmovups -0x60(%r9),%ymm0
  4032ba:	c5 fc 2b 47 20       	vmovntps %ymm0,0x20(%rdi)
  4032bf:	48 8b 7b 40          	mov    0x40(%rbx),%rdi
  4032c3:	4c 8d 57 20          	lea    0x20(%rdi),%r10
  4032c7:	4c 89 53 40          	mov    %r10,0x40(%rbx)
  4032cb:	c4 c1 7c 10 41 c0    	vmovups -0x40(%r9),%ymm0
  4032d1:	c5 fc 2b 47 20       	vmovntps %ymm0,0x20(%rdi)
  4032d6:	48 8b 7b 40          	mov    0x40(%rbx),%rdi
  4032da:	4c 8d 57 20          	lea    0x20(%rdi),%r10
  4032de:	4c 89 53 40          	mov    %r10,0x40(%rbx)
  4032e2:	c4 c1 7c 10 41 e0    	vmovups -0x20(%r9),%ymm0
  4032e8:	c5 fc 2b 47 20       	vmovntps %ymm0,0x20(%rdi)
  4032ed:	48 8b 7b 40          	mov    0x40(%rbx),%rdi
  4032f1:	4c 8d 57 20          	lea    0x20(%rdi),%r10
  4032f5:	4c 89 53 40          	mov    %r10,0x40(%rbx)
  4032f9:	c4 c1 7c 10 01       	vmovups (%r9),%ymm0
  4032fe:	c5 fc 2b 47 20       	vmovntps %ymm0,0x20(%rdi)
  403303:	48 8b 7b 40          	mov    0x40(%rbx),%rdi
  403307:	48 83 c7 20          	add    $0x20,%rdi
  40330b:	48 89 7b 40          	mov    %rdi,0x40(%rbx)
  40330f:	49 81 c1 00 01 00 00 	add    $0x100,%r9
  403316:	49 ff c8             	dec    %r8
  403319:	0f 85 31 ff ff ff    	jne    403250 <__libirc_nontemporal_store_256+0x130>
  40331f:	48 83 e6 f8          	and    $0xfffffffffffffff8,%rsi
  403323:	48 39 d6             	cmp    %rdx,%rsi
  403326:	77 36                	ja     40335e <__libirc_nontemporal_store_256+0x23e>
  403328:	49 89 f0             	mov    %rsi,%r8
  40332b:	49 c1 e0 05          	shl    $0x5,%r8
  40332f:	4d 01 f0             	add    %r14,%r8
  403332:	48 f7 d2             	not    %rdx
  403335:	48 01 f2             	add    %rsi,%rdx
  403338:	0f 1f 84 00 00 00 00 	nopl   0x0(%rax,%rax,1)
  40333f:	00 
  403340:	c4 c1 7c 10 00       	vmovups (%r8),%ymm0
  403345:	c5 fc 2b 07          	vmovntps %ymm0,(%rdi)
  403349:	48 8b 7b 40          	mov    0x40(%rbx),%rdi
  40334d:	48 83 c7 20          	add    $0x20,%rdi
  403351:	48 89 7b 40          	mov    %rdi,0x40(%rbx)
  403355:	49 83 c0 20          	add    $0x20,%r8
  403359:	48 ff c2             	inc    %rdx
  40335c:	75 e2                	jne    403340 <__libirc_nontemporal_store_256+0x220>
  40335e:	48 83 e1 e0          	and    $0xffffffffffffffe0,%rcx
  403362:	49 01 ce             	add    %rcx,%r14
  403365:	49 83 c6 20          	add    $0x20,%r14
  403369:	48 29 c8             	sub    %rcx,%rax
  40336c:	49 89 c7             	mov    %rax,%r15
  40336f:	85 ed                	test   %ebp,%ebp
  403371:	0f 85 7c fe ff ff    	jne    4031f3 <__libirc_nontemporal_store_256+0xd3>
  403377:	48 89 df             	mov    %rbx,%rdi
  40337a:	4c 89 f6             	mov    %r14,%rsi
  40337d:	4c 89 fa             	mov    %r15,%rdx
  403380:	c5 f8 77             	vzeroupper
  403383:	e8 48 dd ff ff       	call   4010d0 <memcpy@plt>
  403388:	4c 89 7b 50          	mov    %r15,0x50(%rbx)
  40338c:	e9 74 fe ff ff       	jmp    403205 <__libirc_nontemporal_store_256+0xe5>
  403391:	66 2e 0f 1f 84 00 00 	cs nopw 0x0(%rax,%rax,1)
  403398:	00 00 00 
  40339b:	0f 1f 44 00 00       	nopl   0x0(%rax,%rax,1)

00000000004033a0 <__libirc_get_nontemporal_store_func.V>:
  4033a0:	48 8d 05 79 fd ff ff 	lea    -0x287(%rip),%rax        # 403120 <__libirc_nontemporal_store_256>
  4033a7:	c3                   	ret
  4033a8:	0f 1f 84 00 00 00 00 	nopl   0x0(%rax,%rax,1)
  4033af:	00 

00000000004033b0 <__libirc_get_nontemporal_store_func.a>:
  4033b0:	48 8d 05 c9 fa ff ff 	lea    -0x537(%rip),%rax        # 402e80 <__libirc_nontemporal_store_512>
  4033b7:	c3                   	ret
  4033b8:	0f 1f 84 00 00 00 00 	nopl   0x0(%rax,%rax,1)
  4033bf:	00 

00000000004033c0 <__libirc_nontemporal_store>:
  4033c0:	f3 0f 1e fa          	endbr64
  4033c4:	41 57                	push   %r15
  4033c6:	41 56                	push   %r14
  4033c8:	53                   	push   %rbx
  4033c9:	89 d3                	mov    %edx,%ebx
  4033cb:	49 89 f6             	mov    %rsi,%r14
  4033ce:	49 89 ff             	mov    %rdi,%r15
  4033d1:	48 8b 05 40 9d 00 00 	mov    0x9d40(%rip),%rax        # 40d118 <__libirc_nontemporal_store._impl_func>
  4033d8:	48 85 c0             	test   %rax,%rax
  4033db:	75 5a                	jne    403437 <__libirc_nontemporal_store+0x77>
  4033dd:	48 c7 c1 30 d1 40 00 	mov    $0x40d130,%rcx
  4033e4:	48 8b 01             	mov    (%rcx),%rax
  4033e7:	48 85 c0             	test   %rax,%rax
  4033ea:	75 11                	jne    4033fd <__libirc_nontemporal_store+0x3d>
  4033ec:	0f 1f 40 00          	nopl   0x0(%rax)
  4033f0:	e8 ab 4b 00 00       	call   407fa0 <__intel_cpu_features_init_x>
  4033f5:	48 8b 01             	mov    (%rcx),%rax
  4033f8:	48 85 c0             	test   %rax,%rax
  4033fb:	74 f3                	je     4033f0 <__libirc_nontemporal_store+0x30>
  4033fd:	48 89 c1             	mov    %rax,%rcx
  403400:	48 f7 d1             	not    %rcx
  403403:	48 ba ec 9f 9d 19 64 	movabs $0x64199d9fec,%rdx
  40340a:	00 00 00 
  40340d:	48 85 d1             	test   %rdx,%rcx
  403410:	75 07                	jne    403419 <__libirc_nontemporal_store+0x59>
  403412:	e8 99 ff ff ff       	call   4033b0 <__libirc_get_nontemporal_store_func.a>
  403417:	eb 17                	jmp    403430 <__libirc_nontemporal_store+0x70>
  403419:	f7 d0                	not    %eax
  40341b:	a9 ec 9f 9d 00       	test   $0x9d9fec,%eax
  403420:	75 07                	jne    403429 <__libirc_nontemporal_store+0x69>
  403422:	e8 79 ff ff ff       	call   4033a0 <__libirc_get_nontemporal_store_func.V>
  403427:	eb 07                	jmp    403430 <__libirc_nontemporal_store+0x70>
  403429:	48 8d 05 20 00 00 00 	lea    0x20(%rip),%rax        # 403450 <__libirc_nontemporal_store_fallback>
  403430:	48 89 05 e1 9c 00 00 	mov    %rax,0x9ce1(%rip)        # 40d118 <__libirc_nontemporal_store._impl_func>
  403437:	4c 89 ff             	mov    %r15,%rdi
  40343a:	4c 89 f6             	mov    %r14,%rsi
  40343d:	89 da                	mov    %ebx,%edx
  40343f:	5b                   	pop    %rbx
  403440:	41 5e                	pop    %r14
  403442:	41 5f                	pop    %r15
  403444:	ff e0                	jmp    *%rax
  403446:	66 2e 0f 1f 84 00 00 	cs nopw 0x0(%rax,%rax,1)
  40344d:	00 00 00 

0000000000403450 <__libirc_nontemporal_store_fallback>:
  403450:	f3 0f 1e fa          	endbr64
  403454:	41 56                	push   %r14
  403456:	53                   	push   %rbx
  403457:	50                   	push   %rax
  403458:	48 89 f3             	mov    %rsi,%rbx
  40345b:	49 89 fe             	mov    %rdi,%r14
  40345e:	48 8b 7f 40          	mov    0x40(%rdi),%rdi
  403462:	49 8d 76 58          	lea    0x58(%r14),%rsi
  403466:	48 89 da             	mov    %rbx,%rdx
  403469:	e8 62 dc ff ff       	call   4010d0 <memcpy@plt>
  40346e:	49 01 5e 40          	add    %rbx,0x40(%r14)
  403472:	48 83 c4 08          	add    $0x8,%rsp
  403476:	5b                   	pop    %rbx
  403477:	41 5e                	pop    %r14
  403479:	c3                   	ret
  40347a:	66 90                	xchg   %ax,%ax
  40347c:	0f 1f 40 00          	nopl   0x0(%rax)

0000000000403480 <__intel_new_feature_proc_init_n>:
  403480:	f3 0f 1e fa          	endbr64
  403484:	55                   	push   %rbp
  403485:	41 57                	push   %r15
  403487:	41 56                	push   %r14
  403489:	41 55                	push   %r13
  40348b:	41 54                	push   %r12
  40348d:	53                   	push   %rbx
  40348e:	48 81 ec 38 04 00 00 	sub    $0x438,%rsp
  403495:	64 48 8b 04 25 28 00 	mov    %fs:0x28,%rax
  40349c:	00 00 
  40349e:	48 89 84 24 30 04 00 	mov    %rax,0x430(%rsp)
  4034a5:	00 
  4034a6:	0f 57 c0             	xorps  %xmm0,%xmm0
  4034a9:	0f 29 44 24 10       	movaps %xmm0,0x10(%rsp)
  4034ae:	48 c7 c1 20 d1 40 00 	mov    $0x40d120,%rcx
  4034b5:	48 83 39 00          	cmpq   $0x0,(%rcx)
  4034b9:	75 17                	jne    4034d2 <__intel_new_feature_proc_init_n+0x52>
  4034bb:	e8 00 40 00 00       	call   4074c0 <__intel_cpu_features_init>
  4034c0:	85 c0                	test   %eax,%eax
  4034c2:	0f 85 0b 02 00 00    	jne    4036d3 <__intel_new_feature_proc_init_n+0x253>
  4034c8:	48 83 39 00          	cmpq   $0x0,(%rcx)
  4034cc:	0f 84 01 02 00 00    	je     4036d3 <__intel_new_feature_proc_init_n+0x253>
  4034d2:	83 ff 02             	cmp    $0x2,%edi
  4034d5:	7d 38                	jge    40350f <__intel_new_feature_proc_init_n+0x8f>
  4034d7:	48 63 c7             	movslq %edi,%rax
  4034da:	48 8b 0c c1          	mov    (%rcx,%rax,8),%rcx
  4034de:	48 f7 d1             	not    %rcx
  4034e1:	48 85 ce             	test   %rcx,%rsi
  4034e4:	75 48                	jne    40352e <__intel_new_feature_proc_init_n+0xae>
  4034e6:	64 48 8b 04 25 28 00 	mov    %fs:0x28,%rax
  4034ed:	00 00 
  4034ef:	48 3b 84 24 30 04 00 	cmp    0x430(%rsp),%rax
  4034f6:	00 
  4034f7:	0f 85 e8 02 00 00    	jne    4037e5 <__intel_new_feature_proc_init_n+0x365>
  4034fd:	48 81 c4 38 04 00 00 	add    $0x438,%rsp
  403504:	5b                   	pop    %rbx
  403505:	41 5c                	pop    %r12
  403507:	41 5d                	pop    %r13
  403509:	41 5e                	pop    %r14
  40350b:	41 5f                	pop    %r15
  40350d:	5d                   	pop    %rbp
  40350e:	c3                   	ret
  40350f:	bf 01 00 00 00       	mov    $0x1,%edi
  403514:	31 f6                	xor    %esi,%esi
  403516:	31 d2                	xor    %edx,%edx
  403518:	31 c0                	xor    %eax,%eax
  40351a:	e8 51 61 00 00       	call   409670 <__libirc_print>
  40351f:	bf 01 00 00 00       	mov    $0x1,%edi
  403524:	be 3a 00 00 00       	mov    $0x3a,%esi
  403529:	e9 bf 01 00 00       	jmp    4036ed <__intel_new_feature_proc_init_n+0x26d>
  40352e:	48 21 f1             	and    %rsi,%rcx
  403531:	48 89 4c c4 10       	mov    %rcx,0x10(%rsp,%rax,8)
  403536:	45 31 ff             	xor    %r15d,%r15d
  403539:	bf 39 00 00 00       	mov    $0x39,%edi
  40353e:	31 f6                	xor    %esi,%esi
  403540:	31 c0                	xor    %eax,%eax
  403542:	e8 e9 5e 00 00       	call   409430 <__libirc_get_msg>
  403547:	48 89 04 24          	mov    %rax,(%rsp)
  40354b:	c6 44 24 30 00       	movb   $0x0,0x30(%rsp)
  403550:	bd 01 00 00 00       	mov    $0x1,%ebp
  403555:	4c 8d 64 24 10       	lea    0x10(%rsp),%r12
  40355a:	4c 8d 6c 24 30       	lea    0x30(%rsp),%r13
  40355f:	31 db                	xor    %ebx,%ebx
  403561:	eb 31                	jmp    403594 <__intel_new_feature_proc_init_n+0x114>
  403563:	b8 ff 03 00 00       	mov    $0x3ff,%eax
  403568:	44 29 f8             	sub    %r15d,%eax
  40356b:	48 63 d0             	movslq %eax,%rdx
  40356e:	b9 00 04 00 00       	mov    $0x400,%ecx
  403573:	4c 89 ef             	mov    %r13,%rdi
  403576:	4c 89 f6             	mov    %r14,%rsi
  403579:	e8 f2 db ff ff       	call   401170 <__strncat_chk@plt>
  40357e:	4c 89 ef             	mov    %r13,%rdi
  403581:	e8 fa da ff ff       	call   401080 <strlen@plt>
  403586:	49 89 c7             	mov    %rax,%r15
  403589:	ff c5                	inc    %ebp
  40358b:	83 fd 47             	cmp    $0x47,%ebp
  40358e:	0f 84 26 01 00 00    	je     4036ba <__intel_new_feature_proc_init_n+0x23a>
  403594:	89 e8                	mov    %ebp,%eax
  403596:	e8 15 55 00 00       	call   408ab0 <__libirc_get_feature_bitpos>
  40359b:	85 c0                	test   %eax,%eax
  40359d:	78 ea                	js     403589 <__intel_new_feature_proc_init_n+0x109>
  40359f:	4c 89 e7             	mov    %r12,%rdi
  4035a2:	89 ee                	mov    %ebp,%esi
  4035a4:	e8 47 55 00 00       	call   408af0 <__libirc_get_cpu_feature>
  4035a9:	85 c0                	test   %eax,%eax
  4035ab:	74 dc                	je     403589 <__intel_new_feature_proc_init_n+0x109>
  4035ad:	4c 89 e7             	mov    %r12,%rdi
  4035b0:	89 ee                	mov    %ebp,%esi
  4035b2:	e8 39 55 00 00       	call   408af0 <__libirc_get_cpu_feature>
  4035b7:	85 c0                	test   %eax,%eax
  4035b9:	0f 88 e6 00 00 00    	js     4036a5 <__intel_new_feature_proc_init_n+0x225>
  4035bf:	89 ef                	mov    %ebp,%edi
  4035c1:	e8 fa 49 00 00       	call   407fc0 <__libirc_get_feature_name>
  4035c6:	48 85 c0             	test   %rax,%rax
  4035c9:	0f 84 d6 00 00 00    	je     4036a5 <__intel_new_feature_proc_init_n+0x225>
  4035cf:	49 89 c6             	mov    %rax,%r14
  4035d2:	80 38 00             	cmpb   $0x0,(%rax)
  4035d5:	0f 84 ca 00 00 00    	je     4036a5 <__intel_new_feature_proc_init_n+0x225>
  4035db:	80 7c 24 30 00       	cmpb   $0x0,0x30(%rsp)
  4035e0:	74 81                	je     403563 <__intel_new_feature_proc_init_n+0xe3>
  4035e2:	48 85 db             	test   %rbx,%rbx
  4035e5:	0f 84 b2 00 00 00    	je     40369d <__intel_new_feature_proc_init_n+0x21d>
  4035eb:	4d 89 ec             	mov    %r13,%r12
  4035ee:	48 89 df             	mov    %rbx,%rdi
  4035f1:	e8 8a da ff ff       	call   401080 <strlen@plt>
  4035f6:	49 89 c5             	mov    %rax,%r13
  4035f9:	48 8d 3d 4f 6a 00 00 	lea    0x6a4f(%rip),%rdi        # 40a04f <_IO_stdin_used+0x4f>
  403600:	e8 7b da ff ff       	call   401080 <strlen@plt>
  403605:	48 89 44 24 28       	mov    %rax,0x28(%rsp)
  40360a:	48 89 5c 24 08       	mov    %rbx,0x8(%rsp)
  40360f:	49 63 df             	movslq %r15d,%rbx
  403612:	48 8b 3c 24          	mov    (%rsp),%rdi
  403616:	e8 65 da ff ff       	call   401080 <strlen@plt>
  40361b:	49 89 c7             	mov    %rax,%r15
  40361e:	4c 89 f7             	mov    %r14,%rdi
  403621:	e8 5a da ff ff       	call   401080 <strlen@plt>
  403626:	49 01 dd             	add    %rbx,%r13
  403629:	4c 03 6c 24 28       	add    0x28(%rsp),%r13
  40362e:	4c 01 f8             	add    %r15,%rax
  403631:	4c 01 e8             	add    %r13,%rax
  403634:	b9 ff 03 00 00       	mov    $0x3ff,%ecx
  403639:	29 d9                	sub    %ebx,%ecx
  40363b:	48 63 d1             	movslq %ecx,%rdx
  40363e:	48 3d ff 03 00 00    	cmp    $0x3ff,%rax
  403644:	0f 87 dd 00 00 00    	ja     403727 <__intel_new_feature_proc_init_n+0x2a7>
  40364a:	b9 00 04 00 00       	mov    $0x400,%ecx
  40364f:	4d 89 e5             	mov    %r12,%r13
  403652:	4c 89 e7             	mov    %r12,%rdi
  403655:	48 8d 35 f3 69 00 00 	lea    0x69f3(%rip),%rsi        # 40a04f <_IO_stdin_used+0x4f>
  40365c:	e8 0f db ff ff       	call   401170 <__strncat_chk@plt>
  403661:	4c 89 e7             	mov    %r12,%rdi
  403664:	e8 17 da ff ff       	call   401080 <strlen@plt>
  403669:	48 c1 e0 20          	shl    $0x20,%rax
  40366d:	48 ba 00 00 00 00 ff 	movabs $0x3ff00000000,%rdx
  403674:	03 00 00 
  403677:	48 29 c2             	sub    %rax,%rdx
  40367a:	48 c1 fa 20          	sar    $0x20,%rdx
  40367e:	b9 00 04 00 00       	mov    $0x400,%ecx
  403683:	4c 89 e7             	mov    %r12,%rdi
  403686:	48 8b 74 24 08       	mov    0x8(%rsp),%rsi
  40368b:	e8 e0 da ff ff       	call   401170 <__strncat_chk@plt>
  403690:	4c 89 f3             	mov    %r14,%rbx
  403693:	4c 8d 64 24 10       	lea    0x10(%rsp),%r12
  403698:	e9 e1 fe ff ff       	jmp    40357e <__intel_new_feature_proc_init_n+0xfe>
  40369d:	4c 89 f3             	mov    %r14,%rbx
  4036a0:	e9 e4 fe ff ff       	jmp    403589 <__intel_new_feature_proc_init_n+0x109>
  4036a5:	bf 01 00 00 00       	mov    $0x1,%edi
  4036aa:	31 f6                	xor    %esi,%esi
  4036ac:	31 d2                	xor    %edx,%edx
  4036ae:	31 c0                	xor    %eax,%eax
  4036b0:	e8 bb 5f 00 00       	call   409670 <__libirc_print>
  4036b5:	e9 ce 00 00 00       	jmp    403788 <__intel_new_feature_proc_init_n+0x308>
  4036ba:	48 85 db             	test   %rbx,%rbx
  4036bd:	0f 84 ac 00 00 00    	je     40376f <__intel_new_feature_proc_init_n+0x2ef>
  4036c3:	49 89 dc             	mov    %rbx,%r12
  4036c6:	b8 ff 03 00 00       	mov    $0x3ff,%eax
  4036cb:	44 29 f8             	sub    %r15d,%eax
  4036ce:	48 63 d0             	movslq %eax,%rdx
  4036d1:	eb 59                	jmp    40372c <__intel_new_feature_proc_init_n+0x2ac>
  4036d3:	bf 01 00 00 00       	mov    $0x1,%edi
  4036d8:	31 f6                	xor    %esi,%esi
  4036da:	31 d2                	xor    %edx,%edx
  4036dc:	31 c0                	xor    %eax,%eax
  4036de:	e8 8d 5f 00 00       	call   409670 <__libirc_print>
  4036e3:	bf 01 00 00 00       	mov    $0x1,%edi
  4036e8:	be 3b 00 00 00       	mov    $0x3b,%esi
  4036ed:	31 d2                	xor    %edx,%edx
  4036ef:	31 c0                	xor    %eax,%eax
  4036f1:	e8 7a 5f 00 00       	call   409670 <__libirc_print>
  4036f6:	64 48 8b 04 25 28 00 	mov    %fs:0x28,%rax
  4036fd:	00 00 
  4036ff:	48 3b 84 24 30 04 00 	cmp    0x430(%rsp),%rax
  403706:	00 
  403707:	0f 85 d8 00 00 00    	jne    4037e5 <__intel_new_feature_proc_init_n+0x365>
  40370d:	bf 01 00 00 00       	mov    $0x1,%edi
  403712:	31 f6                	xor    %esi,%esi
  403714:	31 d2                	xor    %edx,%edx
  403716:	31 c0                	xor    %eax,%eax
  403718:	e8 53 5f 00 00       	call   409670 <__libirc_print>
  40371d:	bf 01 00 00 00       	mov    $0x1,%edi
  403722:	e8 29 da ff ff       	call   401150 <exit@plt>
  403727:	4c 8b 64 24 08       	mov    0x8(%rsp),%r12
  40372c:	4c 8d 74 24 30       	lea    0x30(%rsp),%r14
  403731:	b9 00 04 00 00       	mov    $0x400,%ecx
  403736:	4c 89 f7             	mov    %r14,%rdi
  403739:	48 8b 34 24          	mov    (%rsp),%rsi
  40373d:	e8 2e da ff ff       	call   401170 <__strncat_chk@plt>
  403742:	4c 89 f7             	mov    %r14,%rdi
  403745:	e8 36 d9 ff ff       	call   401080 <strlen@plt>
  40374a:	48 c1 e0 20          	shl    $0x20,%rax
  40374e:	48 ba 00 00 00 00 ff 	movabs $0x3ff00000000,%rdx
  403755:	03 00 00 
  403758:	48 29 c2             	sub    %rax,%rdx
  40375b:	48 c1 fa 20          	sar    $0x20,%rdx
  40375f:	b9 00 04 00 00       	mov    $0x400,%ecx
  403764:	4c 89 f7             	mov    %r14,%rdi
  403767:	4c 89 e6             	mov    %r12,%rsi
  40376a:	e8 01 da ff ff       	call   401170 <__strncat_chk@plt>
  40376f:	0f b6 5c 24 30       	movzbl 0x30(%rsp),%ebx
  403774:	bf 01 00 00 00       	mov    $0x1,%edi
  403779:	31 f6                	xor    %esi,%esi
  40377b:	31 d2                	xor    %edx,%edx
  40377d:	31 c0                	xor    %eax,%eax
  40377f:	e8 ec 5e 00 00       	call   409670 <__libirc_print>
  403784:	84 db                	test   %bl,%bl
  403786:	75 15                	jne    40379d <__intel_new_feature_proc_init_n+0x31d>
  403788:	bf 01 00 00 00       	mov    $0x1,%edi
  40378d:	be 3a 00 00 00       	mov    $0x3a,%esi
  403792:	31 d2                	xor    %edx,%edx
  403794:	31 c0                	xor    %eax,%eax
  403796:	e8 d5 5e 00 00       	call   409670 <__libirc_print>
  40379b:	eb 1b                	jmp    4037b8 <__intel_new_feature_proc_init_n+0x338>
  40379d:	48 8d 4c 24 30       	lea    0x30(%rsp),%rcx
  4037a2:	bf 01 00 00 00       	mov    $0x1,%edi
  4037a7:	be 38 00 00 00       	mov    $0x38,%esi
  4037ac:	ba 01 00 00 00       	mov    $0x1,%edx
  4037b1:	31 c0                	xor    %eax,%eax
  4037b3:	e8 b8 5e 00 00       	call   409670 <__libirc_print>
  4037b8:	bf 01 00 00 00       	mov    $0x1,%edi
  4037bd:	31 f6                	xor    %esi,%esi
  4037bf:	31 d2                	xor    %edx,%edx
  4037c1:	31 c0                	xor    %eax,%eax
  4037c3:	e8 a8 5e 00 00       	call   409670 <__libirc_print>
  4037c8:	64 48 8b 04 25 28 00 	mov    %fs:0x28,%rax
  4037cf:	00 00 
  4037d1:	48 3b 84 24 30 04 00 	cmp    0x430(%rsp),%rax
  4037d8:	00 
  4037d9:	75 0a                	jne    4037e5 <__intel_new_feature_proc_init_n+0x365>
  4037db:	bf 01 00 00 00       	mov    $0x1,%edi
  4037e0:	e8 6b d9 ff ff       	call   401150 <exit@plt>
  4037e5:	e8 a6 d8 ff ff       	call   401090 <__stack_chk_fail@plt>
  4037ea:	66 0f 1f 44 00 00    	nopw   0x0(%rax,%rax,1)

00000000004037f0 <__intel_new_feature_proc_init>:
  4037f0:	f3 0f 1e fa          	endbr64
  4037f4:	53                   	push   %rbx
  4037f5:	89 fb                	mov    %edi,%ebx
  4037f7:	31 ff                	xor    %edi,%edi
  4037f9:	e8 82 fc ff ff       	call   403480 <__intel_new_feature_proc_init_n>
  4037fe:	48 c7 c7 20 d1 40 00 	mov    $0x40d120,%rdi
  403805:	be 06 00 00 00       	mov    $0x6,%esi
  40380a:	e8 e1 52 00 00       	call   408af0 <__libirc_get_cpu_feature>
  40380f:	83 f8 01             	cmp    $0x1,%eax
  403812:	75 0a                	jne    40381e <__intel_new_feature_proc_init+0x2e>
  403814:	31 ff                	xor    %edi,%edi
  403816:	89 de                	mov    %ebx,%esi
  403818:	5b                   	pop    %rbx
  403819:	e9 52 00 00 00       	jmp    403870 <__intel_proc_init_ftzdazule>
  40381e:	85 c0                	test   %eax,%eax
  403820:	78 02                	js     403824 <__intel_new_feature_proc_init+0x34>
  403822:	5b                   	pop    %rbx
  403823:	c3                   	ret
  403824:	bf 01 00 00 00       	mov    $0x1,%edi
  403829:	31 f6                	xor    %esi,%esi
  40382b:	31 d2                	xor    %edx,%edx
  40382d:	31 c0                	xor    %eax,%eax
  40382f:	e8 3c 5e 00 00       	call   409670 <__libirc_print>
  403834:	bf 01 00 00 00       	mov    $0x1,%edi
  403839:	be 3a 00 00 00       	mov    $0x3a,%esi
  40383e:	31 d2                	xor    %edx,%edx
  403840:	31 c0                	xor    %eax,%eax
  403842:	e8 29 5e 00 00       	call   409670 <__libirc_print>
  403847:	bf 01 00 00 00       	mov    $0x1,%edi
  40384c:	31 f6                	xor    %esi,%esi
  40384e:	31 d2                	xor    %edx,%edx
  403850:	31 c0                	xor    %eax,%eax
  403852:	e8 19 5e 00 00       	call   409670 <__libirc_print>
  403857:	bf 01 00 00 00       	mov    $0x1,%edi
  40385c:	e8 ef d8 ff ff       	call   401150 <exit@plt>
  403861:	0f 1f 00             	nopl   (%rax)
  403864:	66 2e 0f 1f 84 00 00 	cs nopw 0x0(%rax,%rax,1)
  40386b:	00 00 00 
  40386e:	66 90                	xchg   %ax,%ax

0000000000403870 <__intel_proc_init_ftzdazule>:
  403870:	f3 0f 1e fa          	endbr64
  403874:	55                   	push   %rbp
  403875:	41 56                	push   %r14
  403877:	53                   	push   %rbx
  403878:	48 81 ec 20 02 00 00 	sub    $0x220,%rsp
  40387f:	89 f3                	mov    %esi,%ebx
  403881:	41 89 f6             	mov    %esi,%r14d
  403884:	41 83 e6 04          	and    $0x4,%r14d
  403888:	89 f5                	mov    %esi,%ebp
  40388a:	83 e5 02             	and    $0x2,%ebp
  40388d:	74 07                	je     403896 <__intel_proc_init_ftzdazule+0x26>
  40388f:	89 f8                	mov    %edi,%eax
  403891:	83 e0 02             	and    $0x2,%eax
  403894:	74 12                	je     4038a8 <__intel_proc_init_ftzdazule+0x38>
  403896:	31 c0                	xor    %eax,%eax
  403898:	45 85 f6             	test   %r14d,%r14d
  40389b:	74 38                	je     4038d5 <__intel_proc_init_ftzdazule+0x65>
  40389d:	b8 01 00 00 00       	mov    $0x1,%eax
  4038a2:	40 f6 c7 04          	test   $0x4,%dil
  4038a6:	75 2d                	jne    4038d5 <__intel_proc_init_ftzdazule+0x65>
  4038a8:	48 8d 7c 24 20       	lea    0x20(%rsp),%rdi
  4038ad:	ba 00 02 00 00       	mov    $0x200,%edx
  4038b2:	31 f6                	xor    %esi,%esi
  4038b4:	e8 c7 d8 ff ff       	call   401180 <memset@plt>
  4038b9:	0f ae 44 24 20       	fxsave 0x20(%rsp)
  4038be:	8b 44 24 3c          	mov    0x3c(%rsp),%eax
  4038c2:	89 c1                	mov    %eax,%ecx
  4038c4:	c1 e1 19             	shl    $0x19,%ecx
  4038c7:	c1 f9 1f             	sar    $0x1f,%ecx
  4038ca:	21 cd                	and    %ecx,%ebp
  4038cc:	c1 e0 0e             	shl    $0xe,%eax
  4038cf:	c1 f8 1f             	sar    $0x1f,%eax
  4038d2:	44 21 f0             	and    %r14d,%eax
  4038d5:	f6 c3 01             	test   $0x1,%bl
  4038d8:	74 17                	je     4038f1 <__intel_proc_init_ftzdazule+0x81>
  4038da:	0f ae 5c 24 1c       	stmxcsr 0x1c(%rsp)
  4038df:	b9 00 80 00 00       	mov    $0x8000,%ecx
  4038e4:	0b 4c 24 1c          	or     0x1c(%rsp),%ecx
  4038e8:	89 4c 24 18          	mov    %ecx,0x18(%rsp)
  4038ec:	0f ae 54 24 18       	ldmxcsr 0x18(%rsp)
  4038f1:	85 ed                	test   %ebp,%ebp
  4038f3:	74 15                	je     40390a <__intel_proc_init_ftzdazule+0x9a>
  4038f5:	0f ae 5c 24 14       	stmxcsr 0x14(%rsp)
  4038fa:	8b 4c 24 14          	mov    0x14(%rsp),%ecx
  4038fe:	83 c9 40             	or     $0x40,%ecx
  403901:	89 4c 24 10          	mov    %ecx,0x10(%rsp)
  403905:	0f ae 54 24 10       	ldmxcsr 0x10(%rsp)
  40390a:	85 c0                	test   %eax,%eax
  40390c:	74 17                	je     403925 <__intel_proc_init_ftzdazule+0xb5>
  40390e:	0f ae 5c 24 0c       	stmxcsr 0xc(%rsp)
  403913:	b8 00 00 02 00       	mov    $0x20000,%eax
  403918:	0b 44 24 0c          	or     0xc(%rsp),%eax
  40391c:	89 44 24 08          	mov    %eax,0x8(%rsp)
  403920:	0f ae 54 24 08       	ldmxcsr 0x8(%rsp)
  403925:	48 81 c4 20 02 00 00 	add    $0x220,%rsp
  40392c:	5b                   	pop    %rbx
  40392d:	41 5e                	pop    %r14
  40392f:	5d                   	pop    %rbp
  403930:	c3                   	ret
  403931:	0f 1f 00             	nopl   (%rax)
  403934:	66 2e 0f 1f 84 00 00 	cs nopw 0x0(%rax,%rax,1)
  40393b:	00 00 00 
  40393e:	66 90                	xchg   %ax,%ax

0000000000403940 <__intel_mic_avx512f_memset>:
  403940:	f3 0f 1e fa          	endbr64
  403944:	48 89 f8             	mov    %rdi,%rax
  403947:	48 c7 c1 d8 d0 40 00 	mov    $0x40d0d8,%rcx
  40394e:	49 b8 01 01 01 01 01 	movabs $0x101010101010101,%r8
  403955:	01 01 01 
  403958:	4c 0f b6 ce          	movzbq %sil,%r9
  40395c:	4d 0f af c8          	imul   %r8,%r9
  403960:	48 8d 35 99 14 00 00 	lea    0x1499(%rip),%rsi        # 404e00 <__intel_mic_avx512f_memset+0x14c0>
  403967:	62 d2 7d 48 7c c1    	vpbroadcastd %r9d,%zmm0
  40396d:	48 81 fa 80 00 00 00 	cmp    $0x80,%rdx
  403974:	7d 0c                	jge    403982 <__intel_mic_avx512f_memset+0x42>
  403976:	49 89 f8             	mov    %rdi,%r8
  403979:	49 01 d0             	add    %rdx,%r8
  40397c:	48 2b 34 d6          	sub    (%rsi,%rdx,8),%rsi
  403980:	ff e6                	jmp    *%rsi
  403982:	48 8d 35 77 02 00 00 	lea    0x277(%rip),%rsi        # 403c00 <__intel_mic_avx512f_memset+0x2c0>
  403989:	49 89 fa             	mov    %rdi,%r10
  40398c:	49 f7 da             	neg    %r10
  40398f:	49 83 c2 40          	add    $0x40,%r10
  403993:	49 83 e2 3f          	and    $0x3f,%r10
  403997:	74 12                	je     4039ab <__intel_mic_avx512f_memset+0x6b>
  403999:	4c 29 d2             	sub    %r10,%rdx
  40399c:	49 89 f8             	mov    %rdi,%r8
  40399f:	4d 01 d0             	add    %r10,%r8
  4039a2:	4a 2b 34 d6          	sub    (%rsi,%r10,8),%rsi
  4039a6:	ff e6                	jmp    *%rsi
  4039a8:	4c 01 d7             	add    %r10,%rdi
  4039ab:	48 81 fa 00 02 00 00 	cmp    $0x200,%rdx
  4039b2:	0f 8c 21 01 00 00    	jl     403ad9 <__intel_mic_avx512f_memset+0x199>
  4039b8:	48 3b 11             	cmp    (%rcx),%rdx
  4039bb:	73 53                	jae    403a10 <__intel_mic_avx512f_memset+0xd0>
  4039bd:	62 f1 7c 48 29 07    	vmovaps %zmm0,(%rdi)
  4039c3:	62 f1 7c 48 29 47 01 	vmovaps %zmm0,0x40(%rdi)
  4039ca:	62 f1 7c 48 29 47 02 	vmovaps %zmm0,0x80(%rdi)
  4039d1:	62 f1 7c 48 29 47 03 	vmovaps %zmm0,0xc0(%rdi)
  4039d8:	48 8d bf 00 02 00 00 	lea    0x200(%rdi),%rdi
  4039df:	48 81 ea 00 02 00 00 	sub    $0x200,%rdx
  4039e6:	62 f1 7c 48 29 47 fc 	vmovaps %zmm0,-0x100(%rdi)
  4039ed:	62 f1 7c 48 29 47 fd 	vmovaps %zmm0,-0xc0(%rdi)
  4039f4:	62 f1 7c 48 29 47 fe 	vmovaps %zmm0,-0x80(%rdi)
  4039fb:	62 f1 7c 48 29 47 ff 	vmovaps %zmm0,-0x40(%rdi)
  403a02:	48 81 fa 00 02 00 00 	cmp    $0x200,%rdx
  403a09:	7d b2                	jge    4039bd <__intel_mic_avx512f_memset+0x7d>
  403a0b:	e9 c9 00 00 00       	jmp    403ad9 <__intel_mic_avx512f_memset+0x199>
  403a10:	62 f1 7d 48 e7 07    	vmovntdq %zmm0,(%rdi)
  403a16:	62 f1 7d 48 e7 47 01 	vmovntdq %zmm0,0x40(%rdi)
  403a1d:	62 f1 7d 48 e7 47 02 	vmovntdq %zmm0,0x80(%rdi)
  403a24:	62 f1 7d 48 e7 47 03 	vmovntdq %zmm0,0xc0(%rdi)
  403a2b:	48 8d bf 00 02 00 00 	lea    0x200(%rdi),%rdi
  403a32:	48 81 ea 00 02 00 00 	sub    $0x200,%rdx
  403a39:	62 f1 7d 48 e7 47 fc 	vmovntdq %zmm0,-0x100(%rdi)
  403a40:	62 f1 7d 48 e7 47 fd 	vmovntdq %zmm0,-0xc0(%rdi)
  403a47:	62 f1 7d 48 e7 47 fe 	vmovntdq %zmm0,-0x80(%rdi)
  403a4e:	62 f1 7d 48 e7 47 ff 	vmovntdq %zmm0,-0x40(%rdi)
  403a55:	48 81 fa 00 02 00 00 	cmp    $0x200,%rdx
  403a5c:	7d b2                	jge    403a10 <__intel_mic_avx512f_memset+0xd0>
  403a5e:	0f ae f8             	sfence
  403a61:	eb 76                	jmp    403ad9 <__intel_mic_avx512f_memset+0x199>
  403a63:	44 88 0f             	mov    %r9b,(%rdi)
  403a66:	e9 3d ff ff ff       	jmp    4039a8 <__intel_mic_avx512f_memset+0x68>
  403a6b:	66 44 89 0f          	mov    %r9w,(%rdi)
  403a6f:	e9 34 ff ff ff       	jmp    4039a8 <__intel_mic_avx512f_memset+0x68>
  403a74:	66 44 89 0f          	mov    %r9w,(%rdi)
  403a78:	44 88 4f 02          	mov    %r9b,0x2(%rdi)
  403a7c:	e9 27 ff ff ff       	jmp    4039a8 <__intel_mic_avx512f_memset+0x68>
  403a81:	44 89 0f             	mov    %r9d,(%rdi)
  403a84:	e9 1f ff ff ff       	jmp    4039a8 <__intel_mic_avx512f_memset+0x68>
  403a89:	44 89 0f             	mov    %r9d,(%rdi)
  403a8c:	45 89 48 fc          	mov    %r9d,-0x4(%r8)
  403a90:	e9 13 ff ff ff       	jmp    4039a8 <__intel_mic_avx512f_memset+0x68>
  403a95:	4c 89 0f             	mov    %r9,(%rdi)
  403a98:	e9 0b ff ff ff       	jmp    4039a8 <__intel_mic_avx512f_memset+0x68>
  403a9d:	4c 89 0f             	mov    %r9,(%rdi)
  403aa0:	4d 89 48 f8          	mov    %r9,-0x8(%r8)
  403aa4:	e9 ff fe ff ff       	jmp    4039a8 <__intel_mic_avx512f_memset+0x68>
  403aa9:	c5 f8 11 07          	vmovups %xmm0,(%rdi)
  403aad:	e9 f6 fe ff ff       	jmp    4039a8 <__intel_mic_avx512f_memset+0x68>
  403ab2:	c5 f8 11 07          	vmovups %xmm0,(%rdi)
  403ab6:	c4 c1 78 11 40 f0    	vmovups %xmm0,-0x10(%r8)
  403abc:	e9 e7 fe ff ff       	jmp    4039a8 <__intel_mic_avx512f_memset+0x68>
  403ac1:	c5 fc 11 07          	vmovups %ymm0,(%rdi)
  403ac5:	e9 de fe ff ff       	jmp    4039a8 <__intel_mic_avx512f_memset+0x68>
  403aca:	c5 fc 11 07          	vmovups %ymm0,(%rdi)
  403ace:	c4 c1 7c 11 40 e0    	vmovups %ymm0,-0x20(%r8)
  403ad4:	e9 cf fe ff ff       	jmp    4039a8 <__intel_mic_avx512f_memset+0x68>
  403ad9:	49 89 f8             	mov    %rdi,%r8
  403adc:	49 01 d0             	add    %rdx,%r8
  403adf:	48 01 d7             	add    %rdx,%rdi
  403ae2:	48 83 e7 c0          	and    $0xffffffffffffffc0,%rdi
  403ae6:	48 8d 35 13 03 00 00 	lea    0x313(%rip),%rsi        # 403e00 <__intel_mic_avx512f_memset+0x4c0>
  403aed:	48 2b 34 d6          	sub    (%rsi,%rdx,8),%rsi
  403af1:	ff e6                	jmp    *%rsi
  403af3:	62 f1 7c 48 29 47 f9 	vmovaps %zmm0,-0x1c0(%rdi)
  403afa:	62 f1 7c 48 29 47 fa 	vmovaps %zmm0,-0x180(%rdi)
  403b01:	62 f1 7c 48 29 47 fb 	vmovaps %zmm0,-0x140(%rdi)
  403b08:	62 f1 7c 48 29 47 fc 	vmovaps %zmm0,-0x100(%rdi)
  403b0f:	62 f1 7c 48 29 47 fd 	vmovaps %zmm0,-0xc0(%rdi)
  403b16:	62 f1 7c 48 29 47 fe 	vmovaps %zmm0,-0x80(%rdi)
  403b1d:	62 f1 7c 48 29 47 ff 	vmovaps %zmm0,-0x40(%rdi)
  403b24:	4c 89 c2             	mov    %r8,%rdx
  403b27:	48 83 e2 3f          	and    $0x3f,%rdx
  403b2b:	48 8d 35 ce 02 00 00 	lea    0x2ce(%rip),%rsi        # 403e00 <__intel_mic_avx512f_memset+0x4c0>
  403b32:	48 2b 34 d6          	sub    (%rsi,%rdx,8),%rsi
  403b36:	ff e6                	jmp    *%rsi
  403b38:	44 88 0f             	mov    %r9b,(%rdi)
  403b3b:	e9 c0 16 00 00       	jmp    405200 <__intel_mic_avx512f_memset+0x18c0>
  403b40:	e9 bb 16 00 00       	jmp    405200 <__intel_mic_avx512f_memset+0x18c0>
  403b45:	66 44 89 0f          	mov    %r9w,(%rdi)
  403b49:	e9 b2 16 00 00       	jmp    405200 <__intel_mic_avx512f_memset+0x18c0>
  403b4e:	66 44 89 0f          	mov    %r9w,(%rdi)
  403b52:	44 88 4f 02          	mov    %r9b,0x2(%rdi)
  403b56:	e9 a5 16 00 00       	jmp    405200 <__intel_mic_avx512f_memset+0x18c0>
  403b5b:	44 89 0f             	mov    %r9d,(%rdi)
  403b5e:	e9 9d 16 00 00       	jmp    405200 <__intel_mic_avx512f_memset+0x18c0>
  403b63:	44 89 0f             	mov    %r9d,(%rdi)
  403b66:	45 89 48 fc          	mov    %r9d,-0x4(%r8)
  403b6a:	e9 91 16 00 00       	jmp    405200 <__intel_mic_avx512f_memset+0x18c0>
  403b6f:	4c 89 0f             	mov    %r9,(%rdi)
  403b72:	e9 89 16 00 00       	jmp    405200 <__intel_mic_avx512f_memset+0x18c0>
  403b77:	4c 89 0f             	mov    %r9,(%rdi)
  403b7a:	4d 89 48 f8          	mov    %r9,-0x8(%r8)
  403b7e:	e9 7d 16 00 00       	jmp    405200 <__intel_mic_avx512f_memset+0x18c0>
  403b83:	c5 f8 11 07          	vmovups %xmm0,(%rdi)
  403b87:	e9 74 16 00 00       	jmp    405200 <__intel_mic_avx512f_memset+0x18c0>
  403b8c:	c5 f8 11 07          	vmovups %xmm0,(%rdi)
  403b90:	c4 c1 78 11 40 f0    	vmovups %xmm0,-0x10(%r8)
  403b96:	e9 65 16 00 00       	jmp    405200 <__intel_mic_avx512f_memset+0x18c0>
  403b9b:	c5 fc 11 07          	vmovups %ymm0,(%rdi)
  403b9f:	e9 5c 16 00 00       	jmp    405200 <__intel_mic_avx512f_memset+0x18c0>
  403ba4:	c5 fc 11 07          	vmovups %ymm0,(%rdi)
  403ba8:	c4 c1 7c 11 40 e0    	vmovups %ymm0,-0x20(%r8)
  403bae:	e9 4d 16 00 00       	jmp    405200 <__intel_mic_avx512f_memset+0x18c0>
  403bb3:	62 f1 7c 48 11 07    	vmovups %zmm0,(%rdi)
  403bb9:	e9 42 16 00 00       	jmp    405200 <__intel_mic_avx512f_memset+0x18c0>
  403bbe:	62 f1 7c 48 11 07    	vmovups %zmm0,(%rdi)
  403bc4:	62 d1 7c 48 11 40 ff 	vmovups %zmm0,-0x40(%r8)
  403bcb:	e9 30 16 00 00       	jmp    405200 <__intel_mic_avx512f_memset+0x18c0>
  403bd0:	66 66 66 66 66 66 2e 	data16 data16 data16 data16 data16 cs nopw 0x0(%rax,%rax,1)
  403bd7:	0f 1f 84 00 00 00 00 
  403bde:	00 
  403bdf:	66 66 66 66 66 66 2e 	data16 data16 data16 data16 data16 cs nopw 0x0(%rax,%rax,1)
  403be6:	0f 1f 84 00 00 00 00 
  403bed:	00 
  403bee:	66 66 66 66 66 66 2e 	data16 data16 data16 data16 data16 cs nopw 0x0(%rax,%rax,1)
  403bf5:	0f 1f 84 00 00 00 00 
  403bfc:	00 
  403bfd:	0f 1f 00             	nopl   (%rax)
  403c00:	9a                   	(bad)
  403c01:	01 00                	add    %eax,(%rax)
  403c03:	00 00                	add    %al,(%rax)
  403c05:	00 00                	add    %al,(%rax)
  403c07:	00 9d 01 00 00 00    	add    %bl,0x1(%rbp)
  403c0d:	00 00                	add    %al,(%rax)
  403c0f:	00 95 01 00 00 00    	add    %dl,0x1(%rbp)
  403c15:	00 00                	add    %al,(%rax)
  403c17:	00 8c 01 00 00 00 00 	add    %cl,0x0(%rcx,%rax,1)
  403c1e:	00 00                	add    %al,(%rax)
  403c20:	7f 01                	jg     403c23 <__intel_mic_avx512f_memset+0x2e3>
  403c22:	00 00                	add    %al,(%rax)
  403c24:	00 00                	add    %al,(%rax)
  403c26:	00 00                	add    %al,(%rax)
  403c28:	77 01                	ja     403c2b <__intel_mic_avx512f_memset+0x2eb>
  403c2a:	00 00                	add    %al,(%rax)
  403c2c:	00 00                	add    %al,(%rax)
  403c2e:	00 00                	add    %al,(%rax)
  403c30:	77 01                	ja     403c33 <__intel_mic_avx512f_memset+0x2f3>
  403c32:	00 00                	add    %al,(%rax)
  403c34:	00 00                	add    %al,(%rax)
  403c36:	00 00                	add    %al,(%rax)
  403c38:	77 01                	ja     403c3b <__intel_mic_avx512f_memset+0x2fb>
  403c3a:	00 00                	add    %al,(%rax)
  403c3c:	00 00                	add    %al,(%rax)
  403c3e:	00 00                	add    %al,(%rax)
  403c40:	6b 01 00             	imul   $0x0,(%rcx),%eax
  403c43:	00 00                	add    %al,(%rax)
  403c45:	00 00                	add    %al,(%rax)
  403c47:	00 63 01             	add    %ah,0x1(%rbx)
  403c4a:	00 00                	add    %al,(%rax)
  403c4c:	00 00                	add    %al,(%rax)
  403c4e:	00 00                	add    %al,(%rax)
  403c50:	63 01                	movsxd (%rcx),%eax
  403c52:	00 00                	add    %al,(%rax)
  403c54:	00 00                	add    %al,(%rax)
  403c56:	00 00                	add    %al,(%rax)
  403c58:	63 01                	movsxd (%rcx),%eax
  403c5a:	00 00                	add    %al,(%rax)
  403c5c:	00 00                	add    %al,(%rax)
  403c5e:	00 00                	add    %al,(%rax)
  403c60:	63 01                	movsxd (%rcx),%eax
  403c62:	00 00                	add    %al,(%rax)
  403c64:	00 00                	add    %al,(%rax)
  403c66:	00 00                	add    %al,(%rax)
  403c68:	63 01                	movsxd (%rcx),%eax
  403c6a:	00 00                	add    %al,(%rax)
  403c6c:	00 00                	add    %al,(%rax)
  403c6e:	00 00                	add    %al,(%rax)
  403c70:	63 01                	movsxd (%rcx),%eax
  403c72:	00 00                	add    %al,(%rax)
  403c74:	00 00                	add    %al,(%rax)
  403c76:	00 00                	add    %al,(%rax)
  403c78:	63 01                	movsxd (%rcx),%eax
  403c7a:	00 00                	add    %al,(%rax)
  403c7c:	00 00                	add    %al,(%rax)
  403c7e:	00 00                	add    %al,(%rax)
  403c80:	57                   	push   %rdi
  403c81:	01 00                	add    %eax,(%rax)
  403c83:	00 00                	add    %al,(%rax)
  403c85:	00 00                	add    %al,(%rax)
  403c87:	00 4e 01             	add    %cl,0x1(%rsi)
  403c8a:	00 00                	add    %al,(%rax)
  403c8c:	00 00                	add    %al,(%rax)
  403c8e:	00 00                	add    %al,(%rax)
  403c90:	4e 01 00             	rex.WRX add %r8,(%rax)
  403c93:	00 00                	add    %al,(%rax)
  403c95:	00 00                	add    %al,(%rax)
  403c97:	00 4e 01             	add    %cl,0x1(%rsi)
  403c9a:	00 00                	add    %al,(%rax)
  403c9c:	00 00                	add    %al,(%rax)
  403c9e:	00 00                	add    %al,(%rax)
  403ca0:	4e 01 00             	rex.WRX add %r8,(%rax)
  403ca3:	00 00                	add    %al,(%rax)
  403ca5:	00 00                	add    %al,(%rax)
  403ca7:	00 4e 01             	add    %cl,0x1(%rsi)
  403caa:	00 00                	add    %al,(%rax)
  403cac:	00 00                	add    %al,(%rax)
  403cae:	00 00                	add    %al,(%rax)
  403cb0:	4e 01 00             	rex.WRX add %r8,(%rax)
  403cb3:	00 00                	add    %al,(%rax)
  403cb5:	00 00                	add    %al,(%rax)
  403cb7:	00 4e 01             	add    %cl,0x1(%rsi)
  403cba:	00 00                	add    %al,(%rax)
  403cbc:	00 00                	add    %al,(%rax)
  403cbe:	00 00                	add    %al,(%rax)
  403cc0:	4e 01 00             	rex.WRX add %r8,(%rax)
  403cc3:	00 00                	add    %al,(%rax)
  403cc5:	00 00                	add    %al,(%rax)
  403cc7:	00 4e 01             	add    %cl,0x1(%rsi)
  403cca:	00 00                	add    %al,(%rax)
  403ccc:	00 00                	add    %al,(%rax)
  403cce:	00 00                	add    %al,(%rax)
  403cd0:	4e 01 00             	rex.WRX add %r8,(%rax)
  403cd3:	00 00                	add    %al,(%rax)
  403cd5:	00 00                	add    %al,(%rax)
  403cd7:	00 4e 01             	add    %cl,0x1(%rsi)
  403cda:	00 00                	add    %al,(%rax)
  403cdc:	00 00                	add    %al,(%rax)
  403cde:	00 00                	add    %al,(%rax)
  403ce0:	4e 01 00             	rex.WRX add %r8,(%rax)
  403ce3:	00 00                	add    %al,(%rax)
  403ce5:	00 00                	add    %al,(%rax)
  403ce7:	00 4e 01             	add    %cl,0x1(%rsi)
  403cea:	00 00                	add    %al,(%rax)
  403cec:	00 00                	add    %al,(%rax)
  403cee:	00 00                	add    %al,(%rax)
  403cf0:	4e 01 00             	rex.WRX add %r8,(%rax)
  403cf3:	00 00                	add    %al,(%rax)
  403cf5:	00 00                	add    %al,(%rax)
  403cf7:	00 4e 01             	add    %cl,0x1(%rsi)
  403cfa:	00 00                	add    %al,(%rax)
  403cfc:	00 00                	add    %al,(%rax)
  403cfe:	00 00                	add    %al,(%rax)
  403d00:	3f                   	(bad)
  403d01:	01 00                	add    %eax,(%rax)
  403d03:	00 00                	add    %al,(%rax)
  403d05:	00 00                	add    %al,(%rax)
  403d07:	00 36                	add    %dh,(%rsi)
  403d09:	01 00                	add    %eax,(%rax)
  403d0b:	00 00                	add    %al,(%rax)
  403d0d:	00 00                	add    %al,(%rax)
  403d0f:	00 36                	add    %dh,(%rsi)
  403d11:	01 00                	add    %eax,(%rax)
  403d13:	00 00                	add    %al,(%rax)
  403d15:	00 00                	add    %al,(%rax)
  403d17:	00 36                	add    %dh,(%rsi)
  403d19:	01 00                	add    %eax,(%rax)
  403d1b:	00 00                	add    %al,(%rax)
  403d1d:	00 00                	add    %al,(%rax)
  403d1f:	00 36                	add    %dh,(%rsi)
  403d21:	01 00                	add    %eax,(%rax)
  403d23:	00 00                	add    %al,(%rax)
  403d25:	00 00                	add    %al,(%rax)
  403d27:	00 36                	add    %dh,(%rsi)
  403d29:	01 00                	add    %eax,(%rax)
  403d2b:	00 00                	add    %al,(%rax)
  403d2d:	00 00                	add    %al,(%rax)
  403d2f:	00 36                	add    %dh,(%rsi)
  403d31:	01 00                	add    %eax,(%rax)
  403d33:	00 00                	add    %al,(%rax)
  403d35:	00 00                	add    %al,(%rax)
  403d37:	00 36                	add    %dh,(%rsi)
  403d39:	01 00                	add    %eax,(%rax)
  403d3b:	00 00                	add    %al,(%rax)
  403d3d:	00 00                	add    %al,(%rax)
  403d3f:	00 36                	add    %dh,(%rsi)
  403d41:	01 00                	add    %eax,(%rax)
  403d43:	00 00                	add    %al,(%rax)
  403d45:	00 00                	add    %al,(%rax)
  403d47:	00 36                	add    %dh,(%rsi)
  403d49:	01 00                	add    %eax,(%rax)
  403d4b:	00 00                	add    %al,(%rax)
  403d4d:	00 00                	add    %al,(%rax)
  403d4f:	00 36                	add    %dh,(%rsi)
  403d51:	01 00                	add    %eax,(%rax)
  403d53:	00 00                	add    %al,(%rax)
  403d55:	00 00                	add    %al,(%rax)
  403d57:	00 36                	add    %dh,(%rsi)
  403d59:	01 00                	add    %eax,(%rax)
  403d5b:	00 00                	add    %al,(%rax)
  403d5d:	00 00                	add    %al,(%rax)
  403d5f:	00 36                	add    %dh,(%rsi)
  403d61:	01 00                	add    %eax,(%rax)
  403d63:	00 00                	add    %al,(%rax)
  403d65:	00 00                	add    %al,(%rax)
  403d67:	00 36                	add    %dh,(%rsi)
  403d69:	01 00                	add    %eax,(%rax)
  403d6b:	00 00                	add    %al,(%rax)
  403d6d:	00 00                	add    %al,(%rax)
  403d6f:	00 36                	add    %dh,(%rsi)
  403d71:	01 00                	add    %eax,(%rax)
  403d73:	00 00                	add    %al,(%rax)
  403d75:	00 00                	add    %al,(%rax)
  403d77:	00 36                	add    %dh,(%rsi)
  403d79:	01 00                	add    %eax,(%rax)
  403d7b:	00 00                	add    %al,(%rax)
  403d7d:	00 00                	add    %al,(%rax)
  403d7f:	00 36                	add    %dh,(%rsi)
  403d81:	01 00                	add    %eax,(%rax)
  403d83:	00 00                	add    %al,(%rax)
  403d85:	00 00                	add    %al,(%rax)
  403d87:	00 36                	add    %dh,(%rsi)
  403d89:	01 00                	add    %eax,(%rax)
  403d8b:	00 00                	add    %al,(%rax)
  403d8d:	00 00                	add    %al,(%rax)
  403d8f:	00 36                	add    %dh,(%rsi)
  403d91:	01 00                	add    %eax,(%rax)
  403d93:	00 00                	add    %al,(%rax)
  403d95:	00 00                	add    %al,(%rax)
  403d97:	00 36                	add    %dh,(%rsi)
  403d99:	01 00                	add    %eax,(%rax)
  403d9b:	00 00                	add    %al,(%rax)
  403d9d:	00 00                	add    %al,(%rax)
  403d9f:	00 36                	add    %dh,(%rsi)
  403da1:	01 00                	add    %eax,(%rax)
  403da3:	00 00                	add    %al,(%rax)
  403da5:	00 00                	add    %al,(%rax)
  403da7:	00 36                	add    %dh,(%rsi)
  403da9:	01 00                	add    %eax,(%rax)
  403dab:	00 00                	add    %al,(%rax)
  403dad:	00 00                	add    %al,(%rax)
  403daf:	00 36                	add    %dh,(%rsi)
  403db1:	01 00                	add    %eax,(%rax)
  403db3:	00 00                	add    %al,(%rax)
  403db5:	00 00                	add    %al,(%rax)
  403db7:	00 36                	add    %dh,(%rsi)
  403db9:	01 00                	add    %eax,(%rax)
  403dbb:	00 00                	add    %al,(%rax)
  403dbd:	00 00                	add    %al,(%rax)
  403dbf:	00 36                	add    %dh,(%rsi)
  403dc1:	01 00                	add    %eax,(%rax)
  403dc3:	00 00                	add    %al,(%rax)
  403dc5:	00 00                	add    %al,(%rax)
  403dc7:	00 36                	add    %dh,(%rsi)
  403dc9:	01 00                	add    %eax,(%rax)
  403dcb:	00 00                	add    %al,(%rax)
  403dcd:	00 00                	add    %al,(%rax)
  403dcf:	00 36                	add    %dh,(%rsi)
  403dd1:	01 00                	add    %eax,(%rax)
  403dd3:	00 00                	add    %al,(%rax)
  403dd5:	00 00                	add    %al,(%rax)
  403dd7:	00 36                	add    %dh,(%rsi)
  403dd9:	01 00                	add    %eax,(%rax)
  403ddb:	00 00                	add    %al,(%rax)
  403ddd:	00 00                	add    %al,(%rax)
  403ddf:	00 36                	add    %dh,(%rsi)
  403de1:	01 00                	add    %eax,(%rax)
  403de3:	00 00                	add    %al,(%rax)
  403de5:	00 00                	add    %al,(%rax)
  403de7:	00 36                	add    %dh,(%rsi)
  403de9:	01 00                	add    %eax,(%rax)
  403deb:	00 00                	add    %al,(%rax)
  403ded:	00 00                	add    %al,(%rax)
  403def:	00 36                	add    %dh,(%rsi)
  403df1:	01 00                	add    %eax,(%rax)
  403df3:	00 00                	add    %al,(%rax)
  403df5:	00 00                	add    %al,(%rax)
  403df7:	00 36                	add    %dh,(%rsi)
  403df9:	01 00                	add    %eax,(%rax)
  403dfb:	00 00                	add    %al,(%rax)
  403dfd:	00 00                	add    %al,(%rax)
  403dff:	00 c0                	add    %al,%al
  403e01:	02 00                	add    (%rax),%al
  403e03:	00 00                	add    %al,(%rax)
  403e05:	00 00                	add    %al,(%rax)
  403e07:	00 c8                	add    %cl,%al
  403e09:	02 00                	add    (%rax),%al
  403e0b:	00 00                	add    %al,(%rax)
  403e0d:	00 00                	add    %al,(%rax)
  403e0f:	00 bb 02 00 00 00    	add    %bh,0x2(%rbx)
  403e15:	00 00                	add    %al,(%rax)
  403e17:	00 b2 02 00 00 00    	add    %dh,0x2(%rdx)
  403e1d:	00 00                	add    %al,(%rax)
  403e1f:	00 a5 02 00 00 00    	add    %ah,0x2(%rbp)
  403e25:	00 00                	add    %al,(%rax)
  403e27:	00 9d 02 00 00 00    	add    %bl,0x2(%rbp)
  403e2d:	00 00                	add    %al,(%rax)
  403e2f:	00 9d 02 00 00 00    	add    %bl,0x2(%rbp)
  403e35:	00 00                	add    %al,(%rax)
  403e37:	00 9d 02 00 00 00    	add    %bl,0x2(%rbp)
  403e3d:	00 00                	add    %al,(%rax)
  403e3f:	00 91 02 00 00 00    	add    %dl,0x2(%rcx)
  403e45:	00 00                	add    %al,(%rax)
  403e47:	00 89 02 00 00 00    	add    %cl,0x2(%rcx)
  403e4d:	00 00                	add    %al,(%rax)
  403e4f:	00 89 02 00 00 00    	add    %cl,0x2(%rcx)
  403e55:	00 00                	add    %al,(%rax)
  403e57:	00 89 02 00 00 00    	add    %cl,0x2(%rcx)
  403e5d:	00 00                	add    %al,(%rax)
  403e5f:	00 89 02 00 00 00    	add    %cl,0x2(%rcx)
  403e65:	00 00                	add    %al,(%rax)
  403e67:	00 89 02 00 00 00    	add    %cl,0x2(%rcx)
  403e6d:	00 00                	add    %al,(%rax)
  403e6f:	00 89 02 00 00 00    	add    %cl,0x2(%rcx)
  403e75:	00 00                	add    %al,(%rax)
  403e77:	00 89 02 00 00 00    	add    %cl,0x2(%rcx)
  403e7d:	00 00                	add    %al,(%rax)
  403e7f:	00 7d 02             	add    %bh,0x2(%rbp)
  403e82:	00 00                	add    %al,(%rax)
  403e84:	00 00                	add    %al,(%rax)
  403e86:	00 00                	add    %al,(%rax)
  403e88:	74 02                	je     403e8c <__intel_mic_avx512f_memset+0x54c>
  403e8a:	00 00                	add    %al,(%rax)
  403e8c:	00 00                	add    %al,(%rax)
  403e8e:	00 00                	add    %al,(%rax)
  403e90:	74 02                	je     403e94 <__intel_mic_avx512f_memset+0x554>
  403e92:	00 00                	add    %al,(%rax)
  403e94:	00 00                	add    %al,(%rax)
  403e96:	00 00                	add    %al,(%rax)
  403e98:	74 02                	je     403e9c <__intel_mic_avx512f_memset+0x55c>
  403e9a:	00 00                	add    %al,(%rax)
  403e9c:	00 00                	add    %al,(%rax)
  403e9e:	00 00                	add    %al,(%rax)
  403ea0:	74 02                	je     403ea4 <__intel_mic_avx512f_memset+0x564>
  403ea2:	00 00                	add    %al,(%rax)
  403ea4:	00 00                	add    %al,(%rax)
  403ea6:	00 00                	add    %al,(%rax)
  403ea8:	74 02                	je     403eac <__intel_mic_avx512f_memset+0x56c>
  403eaa:	00 00                	add    %al,(%rax)
  403eac:	00 00                	add    %al,(%rax)
  403eae:	00 00                	add    %al,(%rax)
  403eb0:	74 02                	je     403eb4 <__intel_mic_avx512f_memset+0x574>
  403eb2:	00 00                	add    %al,(%rax)
  403eb4:	00 00                	add    %al,(%rax)
  403eb6:	00 00                	add    %al,(%rax)
  403eb8:	74 02                	je     403ebc <__intel_mic_avx512f_memset+0x57c>
  403eba:	00 00                	add    %al,(%rax)
  403ebc:	00 00                	add    %al,(%rax)
  403ebe:	00 00                	add    %al,(%rax)
  403ec0:	74 02                	je     403ec4 <__intel_mic_avx512f_memset+0x584>
  403ec2:	00 00                	add    %al,(%rax)
  403ec4:	00 00                	add    %al,(%rax)
  403ec6:	00 00                	add    %al,(%rax)
  403ec8:	74 02                	je     403ecc <__intel_mic_avx512f_memset+0x58c>
  403eca:	00 00                	add    %al,(%rax)
  403ecc:	00 00                	add    %al,(%rax)
  403ece:	00 00                	add    %al,(%rax)
  403ed0:	74 02                	je     403ed4 <__intel_mic_avx512f_memset+0x594>
  403ed2:	00 00                	add    %al,(%rax)
  403ed4:	00 00                	add    %al,(%rax)
  403ed6:	00 00                	add    %al,(%rax)
  403ed8:	74 02                	je     403edc <__intel_mic_avx512f_memset+0x59c>
  403eda:	00 00                	add    %al,(%rax)
  403edc:	00 00                	add    %al,(%rax)
  403ede:	00 00                	add    %al,(%rax)
  403ee0:	74 02                	je     403ee4 <__intel_mic_avx512f_memset+0x5a4>
  403ee2:	00 00                	add    %al,(%rax)
  403ee4:	00 00                	add    %al,(%rax)
  403ee6:	00 00                	add    %al,(%rax)
  403ee8:	74 02                	je     403eec <__intel_mic_avx512f_memset+0x5ac>
  403eea:	00 00                	add    %al,(%rax)
  403eec:	00 00                	add    %al,(%rax)
  403eee:	00 00                	add    %al,(%rax)
  403ef0:	74 02                	je     403ef4 <__intel_mic_avx512f_memset+0x5b4>
  403ef2:	00 00                	add    %al,(%rax)
  403ef4:	00 00                	add    %al,(%rax)
  403ef6:	00 00                	add    %al,(%rax)
  403ef8:	74 02                	je     403efc <__intel_mic_avx512f_memset+0x5bc>
  403efa:	00 00                	add    %al,(%rax)
  403efc:	00 00                	add    %al,(%rax)
  403efe:	00 00                	add    %al,(%rax)
  403f00:	65 02 00             	add    %gs:(%rax),%al
  403f03:	00 00                	add    %al,(%rax)
  403f05:	00 00                	add    %al,(%rax)
  403f07:	00 5c 02 00          	add    %bl,0x0(%rdx,%rax,1)
  403f0b:	00 00                	add    %al,(%rax)
  403f0d:	00 00                	add    %al,(%rax)
  403f0f:	00 5c 02 00          	add    %bl,0x0(%rdx,%rax,1)
  403f13:	00 00                	add    %al,(%rax)
  403f15:	00 00                	add    %al,(%rax)
  403f17:	00 5c 02 00          	add    %bl,0x0(%rdx,%rax,1)
  403f1b:	00 00                	add    %al,(%rax)
  403f1d:	00 00                	add    %al,(%rax)
  403f1f:	00 5c 02 00          	add    %bl,0x0(%rdx,%rax,1)
  403f23:	00 00                	add    %al,(%rax)
  403f25:	00 00                	add    %al,(%rax)
  403f27:	00 5c 02 00          	add    %bl,0x0(%rdx,%rax,1)
  403f2b:	00 00                	add    %al,(%rax)
  403f2d:	00 00                	add    %al,(%rax)
  403f2f:	00 5c 02 00          	add    %bl,0x0(%rdx,%rax,1)
  403f33:	00 00                	add    %al,(%rax)
  403f35:	00 00                	add    %al,(%rax)
  403f37:	00 5c 02 00          	add    %bl,0x0(%rdx,%rax,1)
  403f3b:	00 00                	add    %al,(%rax)
  403f3d:	00 00                	add    %al,(%rax)
  403f3f:	00 5c 02 00          	add    %bl,0x0(%rdx,%rax,1)
  403f43:	00 00                	add    %al,(%rax)
  403f45:	00 00                	add    %al,(%rax)
  403f47:	00 5c 02 00          	add    %bl,0x0(%rdx,%rax,1)
  403f4b:	00 00                	add    %al,(%rax)
  403f4d:	00 00                	add    %al,(%rax)
  403f4f:	00 5c 02 00          	add    %bl,0x0(%rdx,%rax,1)
  403f53:	00 00                	add    %al,(%rax)
  403f55:	00 00                	add    %al,(%rax)
  403f57:	00 5c 02 00          	add    %bl,0x0(%rdx,%rax,1)
  403f5b:	00 00                	add    %al,(%rax)
  403f5d:	00 00                	add    %al,(%rax)
  403f5f:	00 5c 02 00          	add    %bl,0x0(%rdx,%rax,1)
  403f63:	00 00                	add    %al,(%rax)
  403f65:	00 00                	add    %al,(%rax)
  403f67:	00 5c 02 00          	add    %bl,0x0(%rdx,%rax,1)
  403f6b:	00 00                	add    %al,(%rax)
  403f6d:	00 00                	add    %al,(%rax)
  403f6f:	00 5c 02 00          	add    %bl,0x0(%rdx,%rax,1)
  403f73:	00 00                	add    %al,(%rax)
  403f75:	00 00                	add    %al,(%rax)
  403f77:	00 5c 02 00          	add    %bl,0x0(%rdx,%rax,1)
  403f7b:	00 00                	add    %al,(%rax)
  403f7d:	00 00                	add    %al,(%rax)
  403f7f:	00 5c 02 00          	add    %bl,0x0(%rdx,%rax,1)
  403f83:	00 00                	add    %al,(%rax)
  403f85:	00 00                	add    %al,(%rax)
  403f87:	00 5c 02 00          	add    %bl,0x0(%rdx,%rax,1)
  403f8b:	00 00                	add    %al,(%rax)
  403f8d:	00 00                	add    %al,(%rax)
  403f8f:	00 5c 02 00          	add    %bl,0x0(%rdx,%rax,1)
  403f93:	00 00                	add    %al,(%rax)
  403f95:	00 00                	add    %al,(%rax)
  403f97:	00 5c 02 00          	add    %bl,0x0(%rdx,%rax,1)
  403f9b:	00 00                	add    %al,(%rax)
  403f9d:	00 00                	add    %al,(%rax)
  403f9f:	00 5c 02 00          	add    %bl,0x0(%rdx,%rax,1)
  403fa3:	00 00                	add    %al,(%rax)
  403fa5:	00 00                	add    %al,(%rax)
  403fa7:	00 5c 02 00          	add    %bl,0x0(%rdx,%rax,1)
  403fab:	00 00                	add    %al,(%rax)
  403fad:	00 00                	add    %al,(%rax)
  403faf:	00 5c 02 00          	add    %bl,0x0(%rdx,%rax,1)
  403fb3:	00 00                	add    %al,(%rax)
  403fb5:	00 00                	add    %al,(%rax)
  403fb7:	00 5c 02 00          	add    %bl,0x0(%rdx,%rax,1)
  403fbb:	00 00                	add    %al,(%rax)
  403fbd:	00 00                	add    %al,(%rax)
  403fbf:	00 5c 02 00          	add    %bl,0x0(%rdx,%rax,1)
  403fc3:	00 00                	add    %al,(%rax)
  403fc5:	00 00                	add    %al,(%rax)
  403fc7:	00 5c 02 00          	add    %bl,0x0(%rdx,%rax,1)
  403fcb:	00 00                	add    %al,(%rax)
  403fcd:	00 00                	add    %al,(%rax)
  403fcf:	00 5c 02 00          	add    %bl,0x0(%rdx,%rax,1)
  403fd3:	00 00                	add    %al,(%rax)
  403fd5:	00 00                	add    %al,(%rax)
  403fd7:	00 5c 02 00          	add    %bl,0x0(%rdx,%rax,1)
  403fdb:	00 00                	add    %al,(%rax)
  403fdd:	00 00                	add    %al,(%rax)
  403fdf:	00 5c 02 00          	add    %bl,0x0(%rdx,%rax,1)
  403fe3:	00 00                	add    %al,(%rax)
  403fe5:	00 00                	add    %al,(%rax)
  403fe7:	00 5c 02 00          	add    %bl,0x0(%rdx,%rax,1)
  403feb:	00 00                	add    %al,(%rax)
  403fed:	00 00                	add    %al,(%rax)
  403fef:	00 5c 02 00          	add    %bl,0x0(%rdx,%rax,1)
  403ff3:	00 00                	add    %al,(%rax)
  403ff5:	00 00                	add    %al,(%rax)
  403ff7:	00 5c 02 00          	add    %bl,0x0(%rdx,%rax,1)
  403ffb:	00 00                	add    %al,(%rax)
  403ffd:	00 00                	add    %al,(%rax)
  403fff:	00 e3                	add    %ah,%bl
  404001:	02 00                	add    (%rax),%al
  404003:	00 00                	add    %al,(%rax)
  404005:	00 00                	add    %al,(%rax)
  404007:	00 e3                	add    %ah,%bl
  404009:	02 00                	add    (%rax),%al
  40400b:	00 00                	add    %al,(%rax)
  40400d:	00 00                	add    %al,(%rax)
  40400f:	00 e3                	add    %ah,%bl
  404011:	02 00                	add    (%rax),%al
  404013:	00 00                	add    %al,(%rax)
  404015:	00 00                	add    %al,(%rax)
  404017:	00 e3                	add    %ah,%bl
  404019:	02 00                	add    (%rax),%al
  40401b:	00 00                	add    %al,(%rax)
  40401d:	00 00                	add    %al,(%rax)
  40401f:	00 e3                	add    %ah,%bl
  404021:	02 00                	add    (%rax),%al
  404023:	00 00                	add    %al,(%rax)
  404025:	00 00                	add    %al,(%rax)
  404027:	00 e3                	add    %ah,%bl
  404029:	02 00                	add    (%rax),%al
  40402b:	00 00                	add    %al,(%rax)
  40402d:	00 00                	add    %al,(%rax)
  40402f:	00 e3                	add    %ah,%bl
  404031:	02 00                	add    (%rax),%al
  404033:	00 00                	add    %al,(%rax)
  404035:	00 00                	add    %al,(%rax)
  404037:	00 e3                	add    %ah,%bl
  404039:	02 00                	add    (%rax),%al
  40403b:	00 00                	add    %al,(%rax)
  40403d:	00 00                	add    %al,(%rax)
  40403f:	00 e3                	add    %ah,%bl
  404041:	02 00                	add    (%rax),%al
  404043:	00 00                	add    %al,(%rax)
  404045:	00 00                	add    %al,(%rax)
  404047:	00 e3                	add    %ah,%bl
  404049:	02 00                	add    (%rax),%al
  40404b:	00 00                	add    %al,(%rax)
  40404d:	00 00                	add    %al,(%rax)
  40404f:	00 e3                	add    %ah,%bl
  404051:	02 00                	add    (%rax),%al
  404053:	00 00                	add    %al,(%rax)
  404055:	00 00                	add    %al,(%rax)
  404057:	00 e3                	add    %ah,%bl
  404059:	02 00                	add    (%rax),%al
  40405b:	00 00                	add    %al,(%rax)
  40405d:	00 00                	add    %al,(%rax)
  40405f:	00 e3                	add    %ah,%bl
  404061:	02 00                	add    (%rax),%al
  404063:	00 00                	add    %al,(%rax)
  404065:	00 00                	add    %al,(%rax)
  404067:	00 e3                	add    %ah,%bl
  404069:	02 00                	add    (%rax),%al
  40406b:	00 00                	add    %al,(%rax)
  40406d:	00 00                	add    %al,(%rax)
  40406f:	00 e3                	add    %ah,%bl
  404071:	02 00                	add    (%rax),%al
  404073:	00 00                	add    %al,(%rax)
  404075:	00 00                	add    %al,(%rax)
  404077:	00 e3                	add    %ah,%bl
  404079:	02 00                	add    (%rax),%al
  40407b:	00 00                	add    %al,(%rax)
  40407d:	00 00                	add    %al,(%rax)
  40407f:	00 e3                	add    %ah,%bl
  404081:	02 00                	add    (%rax),%al
  404083:	00 00                	add    %al,(%rax)
  404085:	00 00                	add    %al,(%rax)
  404087:	00 e3                	add    %ah,%bl
  404089:	02 00                	add    (%rax),%al
  40408b:	00 00                	add    %al,(%rax)
  40408d:	00 00                	add    %al,(%rax)
  40408f:	00 e3                	add    %ah,%bl
  404091:	02 00                	add    (%rax),%al
  404093:	00 00                	add    %al,(%rax)
  404095:	00 00                	add    %al,(%rax)
  404097:	00 e3                	add    %ah,%bl
  404099:	02 00                	add    (%rax),%al
  40409b:	00 00                	add    %al,(%rax)
  40409d:	00 00                	add    %al,(%rax)
  40409f:	00 e3                	add    %ah,%bl
  4040a1:	02 00                	add    (%rax),%al
  4040a3:	00 00                	add    %al,(%rax)
  4040a5:	00 00                	add    %al,(%rax)
  4040a7:	00 e3                	add    %ah,%bl
  4040a9:	02 00                	add    (%rax),%al
  4040ab:	00 00                	add    %al,(%rax)
  4040ad:	00 00                	add    %al,(%rax)
  4040af:	00 e3                	add    %ah,%bl
  4040b1:	02 00                	add    (%rax),%al
  4040b3:	00 00                	add    %al,(%rax)
  4040b5:	00 00                	add    %al,(%rax)
  4040b7:	00 e3                	add    %ah,%bl
  4040b9:	02 00                	add    (%rax),%al
  4040bb:	00 00                	add    %al,(%rax)
  4040bd:	00 00                	add    %al,(%rax)
  4040bf:	00 e3                	add    %ah,%bl
  4040c1:	02 00                	add    (%rax),%al
  4040c3:	00 00                	add    %al,(%rax)
  4040c5:	00 00                	add    %al,(%rax)
  4040c7:	00 e3                	add    %ah,%bl
  4040c9:	02 00                	add    (%rax),%al
  4040cb:	00 00                	add    %al,(%rax)
  4040cd:	00 00                	add    %al,(%rax)
  4040cf:	00 e3                	add    %ah,%bl
  4040d1:	02 00                	add    (%rax),%al
  4040d3:	00 00                	add    %al,(%rax)
  4040d5:	00 00                	add    %al,(%rax)
  4040d7:	00 e3                	add    %ah,%bl
  4040d9:	02 00                	add    (%rax),%al
  4040db:	00 00                	add    %al,(%rax)
  4040dd:	00 00                	add    %al,(%rax)
  4040df:	00 e3                	add    %ah,%bl
  4040e1:	02 00                	add    (%rax),%al
  4040e3:	00 00                	add    %al,(%rax)
  4040e5:	00 00                	add    %al,(%rax)
  4040e7:	00 e3                	add    %ah,%bl
  4040e9:	02 00                	add    (%rax),%al
  4040eb:	00 00                	add    %al,(%rax)
  4040ed:	00 00                	add    %al,(%rax)
  4040ef:	00 e3                	add    %ah,%bl
  4040f1:	02 00                	add    (%rax),%al
  4040f3:	00 00                	add    %al,(%rax)
  4040f5:	00 00                	add    %al,(%rax)
  4040f7:	00 e3                	add    %ah,%bl
  4040f9:	02 00                	add    (%rax),%al
  4040fb:	00 00                	add    %al,(%rax)
  4040fd:	00 00                	add    %al,(%rax)
  4040ff:	00 e3                	add    %ah,%bl
  404101:	02 00                	add    (%rax),%al
  404103:	00 00                	add    %al,(%rax)
  404105:	00 00                	add    %al,(%rax)
  404107:	00 e3                	add    %ah,%bl
  404109:	02 00                	add    (%rax),%al
  40410b:	00 00                	add    %al,(%rax)
  40410d:	00 00                	add    %al,(%rax)
  40410f:	00 e3                	add    %ah,%bl
  404111:	02 00                	add    (%rax),%al
  404113:	00 00                	add    %al,(%rax)
  404115:	00 00                	add    %al,(%rax)
  404117:	00 e3                	add    %ah,%bl
  404119:	02 00                	add    (%rax),%al
  40411b:	00 00                	add    %al,(%rax)
  40411d:	00 00                	add    %al,(%rax)
  40411f:	00 e3                	add    %ah,%bl
  404121:	02 00                	add    (%rax),%al
  404123:	00 00                	add    %al,(%rax)
  404125:	00 00                	add    %al,(%rax)
  404127:	00 e3                	add    %ah,%bl
  404129:	02 00                	add    (%rax),%al
  40412b:	00 00                	add    %al,(%rax)
  40412d:	00 00                	add    %al,(%rax)
  40412f:	00 e3                	add    %ah,%bl
  404131:	02 00                	add    (%rax),%al
  404133:	00 00                	add    %al,(%rax)
  404135:	00 00                	add    %al,(%rax)
  404137:	00 e3                	add    %ah,%bl
  404139:	02 00                	add    (%rax),%al
  40413b:	00 00                	add    %al,(%rax)
  40413d:	00 00                	add    %al,(%rax)
  40413f:	00 e3                	add    %ah,%bl
  404141:	02 00                	add    (%rax),%al
  404143:	00 00                	add    %al,(%rax)
  404145:	00 00                	add    %al,(%rax)
  404147:	00 e3                	add    %ah,%bl
  404149:	02 00                	add    (%rax),%al
  40414b:	00 00                	add    %al,(%rax)
  40414d:	00 00                	add    %al,(%rax)
  40414f:	00 e3                	add    %ah,%bl
  404151:	02 00                	add    (%rax),%al
  404153:	00 00                	add    %al,(%rax)
  404155:	00 00                	add    %al,(%rax)
  404157:	00 e3                	add    %ah,%bl
  404159:	02 00                	add    (%rax),%al
  40415b:	00 00                	add    %al,(%rax)
  40415d:	00 00                	add    %al,(%rax)
  40415f:	00 e3                	add    %ah,%bl
  404161:	02 00                	add    (%rax),%al
  404163:	00 00                	add    %al,(%rax)
  404165:	00 00                	add    %al,(%rax)
  404167:	00 e3                	add    %ah,%bl
  404169:	02 00                	add    (%rax),%al
  40416b:	00 00                	add    %al,(%rax)
  40416d:	00 00                	add    %al,(%rax)
  40416f:	00 e3                	add    %ah,%bl
  404171:	02 00                	add    (%rax),%al
  404173:	00 00                	add    %al,(%rax)
  404175:	00 00                	add    %al,(%rax)
  404177:	00 e3                	add    %ah,%bl
  404179:	02 00                	add    (%rax),%al
  40417b:	00 00                	add    %al,(%rax)
  40417d:	00 00                	add    %al,(%rax)
  40417f:	00 e3                	add    %ah,%bl
  404181:	02 00                	add    (%rax),%al
  404183:	00 00                	add    %al,(%rax)
  404185:	00 00                	add    %al,(%rax)
  404187:	00 e3                	add    %ah,%bl
  404189:	02 00                	add    (%rax),%al
  40418b:	00 00                	add    %al,(%rax)
  40418d:	00 00                	add    %al,(%rax)
  40418f:	00 e3                	add    %ah,%bl
  404191:	02 00                	add    (%rax),%al
  404193:	00 00                	add    %al,(%rax)
  404195:	00 00                	add    %al,(%rax)
  404197:	00 e3                	add    %ah,%bl
  404199:	02 00                	add    (%rax),%al
  40419b:	00 00                	add    %al,(%rax)
  40419d:	00 00                	add    %al,(%rax)
  40419f:	00 e3                	add    %ah,%bl
  4041a1:	02 00                	add    (%rax),%al
  4041a3:	00 00                	add    %al,(%rax)
  4041a5:	00 00                	add    %al,(%rax)
  4041a7:	00 e3                	add    %ah,%bl
  4041a9:	02 00                	add    (%rax),%al
  4041ab:	00 00                	add    %al,(%rax)
  4041ad:	00 00                	add    %al,(%rax)
  4041af:	00 e3                	add    %ah,%bl
  4041b1:	02 00                	add    (%rax),%al
  4041b3:	00 00                	add    %al,(%rax)
  4041b5:	00 00                	add    %al,(%rax)
  4041b7:	00 e3                	add    %ah,%bl
  4041b9:	02 00                	add    (%rax),%al
  4041bb:	00 00                	add    %al,(%rax)
  4041bd:	00 00                	add    %al,(%rax)
  4041bf:	00 e3                	add    %ah,%bl
  4041c1:	02 00                	add    (%rax),%al
  4041c3:	00 00                	add    %al,(%rax)
  4041c5:	00 00                	add    %al,(%rax)
  4041c7:	00 e3                	add    %ah,%bl
  4041c9:	02 00                	add    (%rax),%al
  4041cb:	00 00                	add    %al,(%rax)
  4041cd:	00 00                	add    %al,(%rax)
  4041cf:	00 e3                	add    %ah,%bl
  4041d1:	02 00                	add    (%rax),%al
  4041d3:	00 00                	add    %al,(%rax)
  4041d5:	00 00                	add    %al,(%rax)
  4041d7:	00 e3                	add    %ah,%bl
  4041d9:	02 00                	add    (%rax),%al
  4041db:	00 00                	add    %al,(%rax)
  4041dd:	00 00                	add    %al,(%rax)
  4041df:	00 e3                	add    %ah,%bl
  4041e1:	02 00                	add    (%rax),%al
  4041e3:	00 00                	add    %al,(%rax)
  4041e5:	00 00                	add    %al,(%rax)
  4041e7:	00 e3                	add    %ah,%bl
  4041e9:	02 00                	add    (%rax),%al
  4041eb:	00 00                	add    %al,(%rax)
  4041ed:	00 00                	add    %al,(%rax)
  4041ef:	00 e3                	add    %ah,%bl
  4041f1:	02 00                	add    (%rax),%al
  4041f3:	00 00                	add    %al,(%rax)
  4041f5:	00 00                	add    %al,(%rax)
  4041f7:	00 e3                	add    %ah,%bl
  4041f9:	02 00                	add    (%rax),%al
  4041fb:	00 00                	add    %al,(%rax)
  4041fd:	00 00                	add    %al,(%rax)
  4041ff:	00 ea                	add    %ch,%dl
  404201:	02 00                	add    (%rax),%al
  404203:	00 00                	add    %al,(%rax)
  404205:	00 00                	add    %al,(%rax)
  404207:	00 ea                	add    %ch,%dl
  404209:	02 00                	add    (%rax),%al
  40420b:	00 00                	add    %al,(%rax)
  40420d:	00 00                	add    %al,(%rax)
  40420f:	00 ea                	add    %ch,%dl
  404211:	02 00                	add    (%rax),%al
  404213:	00 00                	add    %al,(%rax)
  404215:	00 00                	add    %al,(%rax)
  404217:	00 ea                	add    %ch,%dl
  404219:	02 00                	add    (%rax),%al
  40421b:	00 00                	add    %al,(%rax)
  40421d:	00 00                	add    %al,(%rax)
  40421f:	00 ea                	add    %ch,%dl
  404221:	02 00                	add    (%rax),%al
  404223:	00 00                	add    %al,(%rax)
  404225:	00 00                	add    %al,(%rax)
  404227:	00 ea                	add    %ch,%dl
  404229:	02 00                	add    (%rax),%al
  40422b:	00 00                	add    %al,(%rax)
  40422d:	00 00                	add    %al,(%rax)
  40422f:	00 ea                	add    %ch,%dl
  404231:	02 00                	add    (%rax),%al
  404233:	00 00                	add    %al,(%rax)
  404235:	00 00                	add    %al,(%rax)
  404237:	00 ea                	add    %ch,%dl
  404239:	02 00                	add    (%rax),%al
  40423b:	00 00                	add    %al,(%rax)
  40423d:	00 00                	add    %al,(%rax)
  40423f:	00 ea                	add    %ch,%dl
  404241:	02 00                	add    (%rax),%al
  404243:	00 00                	add    %al,(%rax)
  404245:	00 00                	add    %al,(%rax)
  404247:	00 ea                	add    %ch,%dl
  404249:	02 00                	add    (%rax),%al
  40424b:	00 00                	add    %al,(%rax)
  40424d:	00 00                	add    %al,(%rax)
  40424f:	00 ea                	add    %ch,%dl
  404251:	02 00                	add    (%rax),%al
  404253:	00 00                	add    %al,(%rax)
  404255:	00 00                	add    %al,(%rax)
  404257:	00 ea                	add    %ch,%dl
  404259:	02 00                	add    (%rax),%al
  40425b:	00 00                	add    %al,(%rax)
  40425d:	00 00                	add    %al,(%rax)
  40425f:	00 ea                	add    %ch,%dl
  404261:	02 00                	add    (%rax),%al
  404263:	00 00                	add    %al,(%rax)
  404265:	00 00                	add    %al,(%rax)
  404267:	00 ea                	add    %ch,%dl
  404269:	02 00                	add    (%rax),%al
  40426b:	00 00                	add    %al,(%rax)
  40426d:	00 00                	add    %al,(%rax)
  40426f:	00 ea                	add    %ch,%dl
  404271:	02 00                	add    (%rax),%al
  404273:	00 00                	add    %al,(%rax)
  404275:	00 00                	add    %al,(%rax)
  404277:	00 ea                	add    %ch,%dl
  404279:	02 00                	add    (%rax),%al
  40427b:	00 00                	add    %al,(%rax)
  40427d:	00 00                	add    %al,(%rax)
  40427f:	00 ea                	add    %ch,%dl
  404281:	02 00                	add    (%rax),%al
  404283:	00 00                	add    %al,(%rax)
  404285:	00 00                	add    %al,(%rax)
  404287:	00 ea                	add    %ch,%dl
  404289:	02 00                	add    (%rax),%al
  40428b:	00 00                	add    %al,(%rax)
  40428d:	00 00                	add    %al,(%rax)
  40428f:	00 ea                	add    %ch,%dl
  404291:	02 00                	add    (%rax),%al
  404293:	00 00                	add    %al,(%rax)
  404295:	00 00                	add    %al,(%rax)
  404297:	00 ea                	add    %ch,%dl
  404299:	02 00                	add    (%rax),%al
  40429b:	00 00                	add    %al,(%rax)
  40429d:	00 00                	add    %al,(%rax)
  40429f:	00 ea                	add    %ch,%dl
  4042a1:	02 00                	add    (%rax),%al
  4042a3:	00 00                	add    %al,(%rax)
  4042a5:	00 00                	add    %al,(%rax)
  4042a7:	00 ea                	add    %ch,%dl
  4042a9:	02 00                	add    (%rax),%al
  4042ab:	00 00                	add    %al,(%rax)
  4042ad:	00 00                	add    %al,(%rax)
  4042af:	00 ea                	add    %ch,%dl
  4042b1:	02 00                	add    (%rax),%al
  4042b3:	00 00                	add    %al,(%rax)
  4042b5:	00 00                	add    %al,(%rax)
  4042b7:	00 ea                	add    %ch,%dl
  4042b9:	02 00                	add    (%rax),%al
  4042bb:	00 00                	add    %al,(%rax)
  4042bd:	00 00                	add    %al,(%rax)
  4042bf:	00 ea                	add    %ch,%dl
  4042c1:	02 00                	add    (%rax),%al
  4042c3:	00 00                	add    %al,(%rax)
  4042c5:	00 00                	add    %al,(%rax)
  4042c7:	00 ea                	add    %ch,%dl
  4042c9:	02 00                	add    (%rax),%al
  4042cb:	00 00                	add    %al,(%rax)
  4042cd:	00 00                	add    %al,(%rax)
  4042cf:	00 ea                	add    %ch,%dl
  4042d1:	02 00                	add    (%rax),%al
  4042d3:	00 00                	add    %al,(%rax)
  4042d5:	00 00                	add    %al,(%rax)
  4042d7:	00 ea                	add    %ch,%dl
  4042d9:	02 00                	add    (%rax),%al
  4042db:	00 00                	add    %al,(%rax)
  4042dd:	00 00                	add    %al,(%rax)
  4042df:	00 ea                	add    %ch,%dl
  4042e1:	02 00                	add    (%rax),%al
  4042e3:	00 00                	add    %al,(%rax)
  4042e5:	00 00                	add    %al,(%rax)
  4042e7:	00 ea                	add    %ch,%dl
  4042e9:	02 00                	add    (%rax),%al
  4042eb:	00 00                	add    %al,(%rax)
  4042ed:	00 00                	add    %al,(%rax)
  4042ef:	00 ea                	add    %ch,%dl
  4042f1:	02 00                	add    (%rax),%al
  4042f3:	00 00                	add    %al,(%rax)
  4042f5:	00 00                	add    %al,(%rax)
  4042f7:	00 ea                	add    %ch,%dl
  4042f9:	02 00                	add    (%rax),%al
  4042fb:	00 00                	add    %al,(%rax)
  4042fd:	00 00                	add    %al,(%rax)
  4042ff:	00 ea                	add    %ch,%dl
  404301:	02 00                	add    (%rax),%al
  404303:	00 00                	add    %al,(%rax)
  404305:	00 00                	add    %al,(%rax)
  404307:	00 ea                	add    %ch,%dl
  404309:	02 00                	add    (%rax),%al
  40430b:	00 00                	add    %al,(%rax)
  40430d:	00 00                	add    %al,(%rax)
  40430f:	00 ea                	add    %ch,%dl
  404311:	02 00                	add    (%rax),%al
  404313:	00 00                	add    %al,(%rax)
  404315:	00 00                	add    %al,(%rax)
  404317:	00 ea                	add    %ch,%dl
  404319:	02 00                	add    (%rax),%al
  40431b:	00 00                	add    %al,(%rax)
  40431d:	00 00                	add    %al,(%rax)
  40431f:	00 ea                	add    %ch,%dl
  404321:	02 00                	add    (%rax),%al
  404323:	00 00                	add    %al,(%rax)
  404325:	00 00                	add    %al,(%rax)
  404327:	00 ea                	add    %ch,%dl
  404329:	02 00                	add    (%rax),%al
  40432b:	00 00                	add    %al,(%rax)
  40432d:	00 00                	add    %al,(%rax)
  40432f:	00 ea                	add    %ch,%dl
  404331:	02 00                	add    (%rax),%al
  404333:	00 00                	add    %al,(%rax)
  404335:	00 00                	add    %al,(%rax)
  404337:	00 ea                	add    %ch,%dl
  404339:	02 00                	add    (%rax),%al
  40433b:	00 00                	add    %al,(%rax)
  40433d:	00 00                	add    %al,(%rax)
  40433f:	00 ea                	add    %ch,%dl
  404341:	02 00                	add    (%rax),%al
  404343:	00 00                	add    %al,(%rax)
  404345:	00 00                	add    %al,(%rax)
  404347:	00 ea                	add    %ch,%dl
  404349:	02 00                	add    (%rax),%al
  40434b:	00 00                	add    %al,(%rax)
  40434d:	00 00                	add    %al,(%rax)
  40434f:	00 ea                	add    %ch,%dl
  404351:	02 00                	add    (%rax),%al
  404353:	00 00                	add    %al,(%rax)
  404355:	00 00                	add    %al,(%rax)
  404357:	00 ea                	add    %ch,%dl
  404359:	02 00                	add    (%rax),%al
  40435b:	00 00                	add    %al,(%rax)
  40435d:	00 00                	add    %al,(%rax)
  40435f:	00 ea                	add    %ch,%dl
  404361:	02 00                	add    (%rax),%al
  404363:	00 00                	add    %al,(%rax)
  404365:	00 00                	add    %al,(%rax)
  404367:	00 ea                	add    %ch,%dl
  404369:	02 00                	add    (%rax),%al
  40436b:	00 00                	add    %al,(%rax)
  40436d:	00 00                	add    %al,(%rax)
  40436f:	00 ea                	add    %ch,%dl
  404371:	02 00                	add    (%rax),%al
  404373:	00 00                	add    %al,(%rax)
  404375:	00 00                	add    %al,(%rax)
  404377:	00 ea                	add    %ch,%dl
  404379:	02 00                	add    (%rax),%al
  40437b:	00 00                	add    %al,(%rax)
  40437d:	00 00                	add    %al,(%rax)
  40437f:	00 ea                	add    %ch,%dl
  404381:	02 00                	add    (%rax),%al
  404383:	00 00                	add    %al,(%rax)
  404385:	00 00                	add    %al,(%rax)
  404387:	00 ea                	add    %ch,%dl
  404389:	02 00                	add    (%rax),%al
  40438b:	00 00                	add    %al,(%rax)
  40438d:	00 00                	add    %al,(%rax)
  40438f:	00 ea                	add    %ch,%dl
  404391:	02 00                	add    (%rax),%al
  404393:	00 00                	add    %al,(%rax)
  404395:	00 00                	add    %al,(%rax)
  404397:	00 ea                	add    %ch,%dl
  404399:	02 00                	add    (%rax),%al
  40439b:	00 00                	add    %al,(%rax)
  40439d:	00 00                	add    %al,(%rax)
  40439f:	00 ea                	add    %ch,%dl
  4043a1:	02 00                	add    (%rax),%al
  4043a3:	00 00                	add    %al,(%rax)
  4043a5:	00 00                	add    %al,(%rax)
  4043a7:	00 ea                	add    %ch,%dl
  4043a9:	02 00                	add    (%rax),%al
  4043ab:	00 00                	add    %al,(%rax)
  4043ad:	00 00                	add    %al,(%rax)
  4043af:	00 ea                	add    %ch,%dl
  4043b1:	02 00                	add    (%rax),%al
  4043b3:	00 00                	add    %al,(%rax)
  4043b5:	00 00                	add    %al,(%rax)
  4043b7:	00 ea                	add    %ch,%dl
  4043b9:	02 00                	add    (%rax),%al
  4043bb:	00 00                	add    %al,(%rax)
  4043bd:	00 00                	add    %al,(%rax)
  4043bf:	00 ea                	add    %ch,%dl
  4043c1:	02 00                	add    (%rax),%al
  4043c3:	00 00                	add    %al,(%rax)
  4043c5:	00 00                	add    %al,(%rax)
  4043c7:	00 ea                	add    %ch,%dl
  4043c9:	02 00                	add    (%rax),%al
  4043cb:	00 00                	add    %al,(%rax)
  4043cd:	00 00                	add    %al,(%rax)
  4043cf:	00 ea                	add    %ch,%dl
  4043d1:	02 00                	add    (%rax),%al
  4043d3:	00 00                	add    %al,(%rax)
  4043d5:	00 00                	add    %al,(%rax)
  4043d7:	00 ea                	add    %ch,%dl
  4043d9:	02 00                	add    (%rax),%al
  4043db:	00 00                	add    %al,(%rax)
  4043dd:	00 00                	add    %al,(%rax)
  4043df:	00 ea                	add    %ch,%dl
  4043e1:	02 00                	add    (%rax),%al
  4043e3:	00 00                	add    %al,(%rax)
  4043e5:	00 00                	add    %al,(%rax)
  4043e7:	00 ea                	add    %ch,%dl
  4043e9:	02 00                	add    (%rax),%al
  4043eb:	00 00                	add    %al,(%rax)
  4043ed:	00 00                	add    %al,(%rax)
  4043ef:	00 ea                	add    %ch,%dl
  4043f1:	02 00                	add    (%rax),%al
  4043f3:	00 00                	add    %al,(%rax)
  4043f5:	00 00                	add    %al,(%rax)
  4043f7:	00 ea                	add    %ch,%dl
  4043f9:	02 00                	add    (%rax),%al
  4043fb:	00 00                	add    %al,(%rax)
  4043fd:	00 00                	add    %al,(%rax)
  4043ff:	00 f1                	add    %dh,%cl
  404401:	02 00                	add    (%rax),%al
  404403:	00 00                	add    %al,(%rax)
  404405:	00 00                	add    %al,(%rax)
  404407:	00 f1                	add    %dh,%cl
  404409:	02 00                	add    (%rax),%al
  40440b:	00 00                	add    %al,(%rax)
  40440d:	00 00                	add    %al,(%rax)
  40440f:	00 f1                	add    %dh,%cl
  404411:	02 00                	add    (%rax),%al
  404413:	00 00                	add    %al,(%rax)
  404415:	00 00                	add    %al,(%rax)
  404417:	00 f1                	add    %dh,%cl
  404419:	02 00                	add    (%rax),%al
  40441b:	00 00                	add    %al,(%rax)
  40441d:	00 00                	add    %al,(%rax)
  40441f:	00 f1                	add    %dh,%cl
  404421:	02 00                	add    (%rax),%al
  404423:	00 00                	add    %al,(%rax)
  404425:	00 00                	add    %al,(%rax)
  404427:	00 f1                	add    %dh,%cl
  404429:	02 00                	add    (%rax),%al
  40442b:	00 00                	add    %al,(%rax)
  40442d:	00 00                	add    %al,(%rax)
  40442f:	00 f1                	add    %dh,%cl
  404431:	02 00                	add    (%rax),%al
  404433:	00 00                	add    %al,(%rax)
  404435:	00 00                	add    %al,(%rax)
  404437:	00 f1                	add    %dh,%cl
  404439:	02 00                	add    (%rax),%al
  40443b:	00 00                	add    %al,(%rax)
  40443d:	00 00                	add    %al,(%rax)
  40443f:	00 f1                	add    %dh,%cl
  404441:	02 00                	add    (%rax),%al
  404443:	00 00                	add    %al,(%rax)
  404445:	00 00                	add    %al,(%rax)
  404447:	00 f1                	add    %dh,%cl
  404449:	02 00                	add    (%rax),%al
  40444b:	00 00                	add    %al,(%rax)
  40444d:	00 00                	add    %al,(%rax)
  40444f:	00 f1                	add    %dh,%cl
  404451:	02 00                	add    (%rax),%al
  404453:	00 00                	add    %al,(%rax)
  404455:	00 00                	add    %al,(%rax)
  404457:	00 f1                	add    %dh,%cl
  404459:	02 00                	add    (%rax),%al
  40445b:	00 00                	add    %al,(%rax)
  40445d:	00 00                	add    %al,(%rax)
  40445f:	00 f1                	add    %dh,%cl
  404461:	02 00                	add    (%rax),%al
  404463:	00 00                	add    %al,(%rax)
  404465:	00 00                	add    %al,(%rax)
  404467:	00 f1                	add    %dh,%cl
  404469:	02 00                	add    (%rax),%al
  40446b:	00 00                	add    %al,(%rax)
  40446d:	00 00                	add    %al,(%rax)
  40446f:	00 f1                	add    %dh,%cl
  404471:	02 00                	add    (%rax),%al
  404473:	00 00                	add    %al,(%rax)
  404475:	00 00                	add    %al,(%rax)
  404477:	00 f1                	add    %dh,%cl
  404479:	02 00                	add    (%rax),%al
  40447b:	00 00                	add    %al,(%rax)
  40447d:	00 00                	add    %al,(%rax)
  40447f:	00 f1                	add    %dh,%cl
  404481:	02 00                	add    (%rax),%al
  404483:	00 00                	add    %al,(%rax)
  404485:	00 00                	add    %al,(%rax)
  404487:	00 f1                	add    %dh,%cl
  404489:	02 00                	add    (%rax),%al
  40448b:	00 00                	add    %al,(%rax)
  40448d:	00 00                	add    %al,(%rax)
  40448f:	00 f1                	add    %dh,%cl
  404491:	02 00                	add    (%rax),%al
  404493:	00 00                	add    %al,(%rax)
  404495:	00 00                	add    %al,(%rax)
  404497:	00 f1                	add    %dh,%cl
  404499:	02 00                	add    (%rax),%al
  40449b:	00 00                	add    %al,(%rax)
  40449d:	00 00                	add    %al,(%rax)
  40449f:	00 f1                	add    %dh,%cl
  4044a1:	02 00                	add    (%rax),%al
  4044a3:	00 00                	add    %al,(%rax)
  4044a5:	00 00                	add    %al,(%rax)
  4044a7:	00 f1                	add    %dh,%cl
  4044a9:	02 00                	add    (%rax),%al
  4044ab:	00 00                	add    %al,(%rax)
  4044ad:	00 00                	add    %al,(%rax)
  4044af:	00 f1                	add    %dh,%cl
  4044b1:	02 00                	add    (%rax),%al
  4044b3:	00 00                	add    %al,(%rax)
  4044b5:	00 00                	add    %al,(%rax)
  4044b7:	00 f1                	add    %dh,%cl
  4044b9:	02 00                	add    (%rax),%al
  4044bb:	00 00                	add    %al,(%rax)
  4044bd:	00 00                	add    %al,(%rax)
  4044bf:	00 f1                	add    %dh,%cl
  4044c1:	02 00                	add    (%rax),%al
  4044c3:	00 00                	add    %al,(%rax)
  4044c5:	00 00                	add    %al,(%rax)
  4044c7:	00 f1                	add    %dh,%cl
  4044c9:	02 00                	add    (%rax),%al
  4044cb:	00 00                	add    %al,(%rax)
  4044cd:	00 00                	add    %al,(%rax)
  4044cf:	00 f1                	add    %dh,%cl
  4044d1:	02 00                	add    (%rax),%al
  4044d3:	00 00                	add    %al,(%rax)
  4044d5:	00 00                	add    %al,(%rax)
  4044d7:	00 f1                	add    %dh,%cl
  4044d9:	02 00                	add    (%rax),%al
  4044db:	00 00                	add    %al,(%rax)
  4044dd:	00 00                	add    %al,(%rax)
  4044df:	00 f1                	add    %dh,%cl
  4044e1:	02 00                	add    (%rax),%al
  4044e3:	00 00                	add    %al,(%rax)
  4044e5:	00 00                	add    %al,(%rax)
  4044e7:	00 f1                	add    %dh,%cl
  4044e9:	02 00                	add    (%rax),%al
  4044eb:	00 00                	add    %al,(%rax)
  4044ed:	00 00                	add    %al,(%rax)
  4044ef:	00 f1                	add    %dh,%cl
  4044f1:	02 00                	add    (%rax),%al
  4044f3:	00 00                	add    %al,(%rax)
  4044f5:	00 00                	add    %al,(%rax)
  4044f7:	00 f1                	add    %dh,%cl
  4044f9:	02 00                	add    (%rax),%al
  4044fb:	00 00                	add    %al,(%rax)
  4044fd:	00 00                	add    %al,(%rax)
  4044ff:	00 f1                	add    %dh,%cl
  404501:	02 00                	add    (%rax),%al
  404503:	00 00                	add    %al,(%rax)
  404505:	00 00                	add    %al,(%rax)
  404507:	00 f1                	add    %dh,%cl
  404509:	02 00                	add    (%rax),%al
  40450b:	00 00                	add    %al,(%rax)
  40450d:	00 00                	add    %al,(%rax)
  40450f:	00 f1                	add    %dh,%cl
  404511:	02 00                	add    (%rax),%al
  404513:	00 00                	add    %al,(%rax)
  404515:	00 00                	add    %al,(%rax)
  404517:	00 f1                	add    %dh,%cl
  404519:	02 00                	add    (%rax),%al
  40451b:	00 00                	add    %al,(%rax)
  40451d:	00 00                	add    %al,(%rax)
  40451f:	00 f1                	add    %dh,%cl
  404521:	02 00                	add    (%rax),%al
  404523:	00 00                	add    %al,(%rax)
  404525:	00 00                	add    %al,(%rax)
  404527:	00 f1                	add    %dh,%cl
  404529:	02 00                	add    (%rax),%al
  40452b:	00 00                	add    %al,(%rax)
  40452d:	00 00                	add    %al,(%rax)
  40452f:	00 f1                	add    %dh,%cl
  404531:	02 00                	add    (%rax),%al
  404533:	00 00                	add    %al,(%rax)
  404535:	00 00                	add    %al,(%rax)
  404537:	00 f1                	add    %dh,%cl
  404539:	02 00                	add    (%rax),%al
  40453b:	00 00                	add    %al,(%rax)
  40453d:	00 00                	add    %al,(%rax)
  40453f:	00 f1                	add    %dh,%cl
  404541:	02 00                	add    (%rax),%al
  404543:	00 00                	add    %al,(%rax)
  404545:	00 00                	add    %al,(%rax)
  404547:	00 f1                	add    %dh,%cl
  404549:	02 00                	add    (%rax),%al
  40454b:	00 00                	add    %al,(%rax)
  40454d:	00 00                	add    %al,(%rax)
  40454f:	00 f1                	add    %dh,%cl
  404551:	02 00                	add    (%rax),%al
  404553:	00 00                	add    %al,(%rax)
  404555:	00 00                	add    %al,(%rax)
  404557:	00 f1                	add    %dh,%cl
  404559:	02 00                	add    (%rax),%al
  40455b:	00 00                	add    %al,(%rax)
  40455d:	00 00                	add    %al,(%rax)
  40455f:	00 f1                	add    %dh,%cl
  404561:	02 00                	add    (%rax),%al
  404563:	00 00                	add    %al,(%rax)
  404565:	00 00                	add    %al,(%rax)
  404567:	00 f1                	add    %dh,%cl
  404569:	02 00                	add    (%rax),%al
  40456b:	00 00                	add    %al,(%rax)
  40456d:	00 00                	add    %al,(%rax)
  40456f:	00 f1                	add    %dh,%cl
  404571:	02 00                	add    (%rax),%al
  404573:	00 00                	add    %al,(%rax)
  404575:	00 00                	add    %al,(%rax)
  404577:	00 f1                	add    %dh,%cl
  404579:	02 00                	add    (%rax),%al
  40457b:	00 00                	add    %al,(%rax)
  40457d:	00 00                	add    %al,(%rax)
  40457f:	00 f1                	add    %dh,%cl
  404581:	02 00                	add    (%rax),%al
  404583:	00 00                	add    %al,(%rax)
  404585:	00 00                	add    %al,(%rax)
  404587:	00 f1                	add    %dh,%cl
  404589:	02 00                	add    (%rax),%al
  40458b:	00 00                	add    %al,(%rax)
  40458d:	00 00                	add    %al,(%rax)
  40458f:	00 f1                	add    %dh,%cl
  404591:	02 00                	add    (%rax),%al
  404593:	00 00                	add    %al,(%rax)
  404595:	00 00                	add    %al,(%rax)
  404597:	00 f1                	add    %dh,%cl
  404599:	02 00                	add    (%rax),%al
  40459b:	00 00                	add    %al,(%rax)
  40459d:	00 00                	add    %al,(%rax)
  40459f:	00 f1                	add    %dh,%cl
  4045a1:	02 00                	add    (%rax),%al
  4045a3:	00 00                	add    %al,(%rax)
  4045a5:	00 00                	add    %al,(%rax)
  4045a7:	00 f1                	add    %dh,%cl
  4045a9:	02 00                	add    (%rax),%al
  4045ab:	00 00                	add    %al,(%rax)
  4045ad:	00 00                	add    %al,(%rax)
  4045af:	00 f1                	add    %dh,%cl
  4045b1:	02 00                	add    (%rax),%al
  4045b3:	00 00                	add    %al,(%rax)
  4045b5:	00 00                	add    %al,(%rax)
  4045b7:	00 f1                	add    %dh,%cl
  4045b9:	02 00                	add    (%rax),%al
  4045bb:	00 00                	add    %al,(%rax)
  4045bd:	00 00                	add    %al,(%rax)
  4045bf:	00 f1                	add    %dh,%cl
  4045c1:	02 00                	add    (%rax),%al
  4045c3:	00 00                	add    %al,(%rax)
  4045c5:	00 00                	add    %al,(%rax)
  4045c7:	00 f1                	add    %dh,%cl
  4045c9:	02 00                	add    (%rax),%al
  4045cb:	00 00                	add    %al,(%rax)
  4045cd:	00 00                	add    %al,(%rax)
  4045cf:	00 f1                	add    %dh,%cl
  4045d1:	02 00                	add    (%rax),%al
  4045d3:	00 00                	add    %al,(%rax)
  4045d5:	00 00                	add    %al,(%rax)
  4045d7:	00 f1                	add    %dh,%cl
  4045d9:	02 00                	add    (%rax),%al
  4045db:	00 00                	add    %al,(%rax)
  4045dd:	00 00                	add    %al,(%rax)
  4045df:	00 f1                	add    %dh,%cl
  4045e1:	02 00                	add    (%rax),%al
  4045e3:	00 00                	add    %al,(%rax)
  4045e5:	00 00                	add    %al,(%rax)
  4045e7:	00 f1                	add    %dh,%cl
  4045e9:	02 00                	add    (%rax),%al
  4045eb:	00 00                	add    %al,(%rax)
  4045ed:	00 00                	add    %al,(%rax)
  4045ef:	00 f1                	add    %dh,%cl
  4045f1:	02 00                	add    (%rax),%al
  4045f3:	00 00                	add    %al,(%rax)
  4045f5:	00 00                	add    %al,(%rax)
  4045f7:	00 f1                	add    %dh,%cl
  4045f9:	02 00                	add    (%rax),%al
  4045fb:	00 00                	add    %al,(%rax)
  4045fd:	00 00                	add    %al,(%rax)
  4045ff:	00 f8                	add    %bh,%al
  404601:	02 00                	add    (%rax),%al
  404603:	00 00                	add    %al,(%rax)
  404605:	00 00                	add    %al,(%rax)
  404607:	00 f8                	add    %bh,%al
  404609:	02 00                	add    (%rax),%al
  40460b:	00 00                	add    %al,(%rax)
  40460d:	00 00                	add    %al,(%rax)
  40460f:	00 f8                	add    %bh,%al
  404611:	02 00                	add    (%rax),%al
  404613:	00 00                	add    %al,(%rax)
  404615:	00 00                	add    %al,(%rax)
  404617:	00 f8                	add    %bh,%al
  404619:	02 00                	add    (%rax),%al
  40461b:	00 00                	add    %al,(%rax)
  40461d:	00 00                	add    %al,(%rax)
  40461f:	00 f8                	add    %bh,%al
  404621:	02 00                	add    (%rax),%al
  404623:	00 00                	add    %al,(%rax)
  404625:	00 00                	add    %al,(%rax)
  404627:	00 f8                	add    %bh,%al
  404629:	02 00                	add    (%rax),%al
  40462b:	00 00                	add    %al,(%rax)
  40462d:	00 00                	add    %al,(%rax)
  40462f:	00 f8                	add    %bh,%al
  404631:	02 00                	add    (%rax),%al
  404633:	00 00                	add    %al,(%rax)
  404635:	00 00                	add    %al,(%rax)
  404637:	00 f8                	add    %bh,%al
  404639:	02 00                	add    (%rax),%al
  40463b:	00 00                	add    %al,(%rax)
  40463d:	00 00                	add    %al,(%rax)
  40463f:	00 f8                	add    %bh,%al
  404641:	02 00                	add    (%rax),%al
  404643:	00 00                	add    %al,(%rax)
  404645:	00 00                	add    %al,(%rax)
  404647:	00 f8                	add    %bh,%al
  404649:	02 00                	add    (%rax),%al
  40464b:	00 00                	add    %al,(%rax)
  40464d:	00 00                	add    %al,(%rax)
  40464f:	00 f8                	add    %bh,%al
  404651:	02 00                	add    (%rax),%al
  404653:	00 00                	add    %al,(%rax)
  404655:	00 00                	add    %al,(%rax)
  404657:	00 f8                	add    %bh,%al
  404659:	02 00                	add    (%rax),%al
  40465b:	00 00                	add    %al,(%rax)
  40465d:	00 00                	add    %al,(%rax)
  40465f:	00 f8                	add    %bh,%al
  404661:	02 00                	add    (%rax),%al
  404663:	00 00                	add    %al,(%rax)
  404665:	00 00                	add    %al,(%rax)
  404667:	00 f8                	add    %bh,%al
  404669:	02 00                	add    (%rax),%al
  40466b:	00 00                	add    %al,(%rax)
  40466d:	00 00                	add    %al,(%rax)
  40466f:	00 f8                	add    %bh,%al
  404671:	02 00                	add    (%rax),%al
  404673:	00 00                	add    %al,(%rax)
  404675:	00 00                	add    %al,(%rax)
  404677:	00 f8                	add    %bh,%al
  404679:	02 00                	add    (%rax),%al
  40467b:	00 00                	add    %al,(%rax)
  40467d:	00 00                	add    %al,(%rax)
  40467f:	00 f8                	add    %bh,%al
  404681:	02 00                	add    (%rax),%al
  404683:	00 00                	add    %al,(%rax)
  404685:	00 00                	add    %al,(%rax)
  404687:	00 f8                	add    %bh,%al
  404689:	02 00                	add    (%rax),%al
  40468b:	00 00                	add    %al,(%rax)
  40468d:	00 00                	add    %al,(%rax)
  40468f:	00 f8                	add    %bh,%al
  404691:	02 00                	add    (%rax),%al
  404693:	00 00                	add    %al,(%rax)
  404695:	00 00                	add    %al,(%rax)
  404697:	00 f8                	add    %bh,%al
  404699:	02 00                	add    (%rax),%al
  40469b:	00 00                	add    %al,(%rax)
  40469d:	00 00                	add    %al,(%rax)
  40469f:	00 f8                	add    %bh,%al
  4046a1:	02 00                	add    (%rax),%al
  4046a3:	00 00                	add    %al,(%rax)
  4046a5:	00 00                	add    %al,(%rax)
  4046a7:	00 f8                	add    %bh,%al
  4046a9:	02 00                	add    (%rax),%al
  4046ab:	00 00                	add    %al,(%rax)
  4046ad:	00 00                	add    %al,(%rax)
  4046af:	00 f8                	add    %bh,%al
  4046b1:	02 00                	add    (%rax),%al
  4046b3:	00 00                	add    %al,(%rax)
  4046b5:	00 00                	add    %al,(%rax)
  4046b7:	00 f8                	add    %bh,%al
  4046b9:	02 00                	add    (%rax),%al
  4046bb:	00 00                	add    %al,(%rax)
  4046bd:	00 00                	add    %al,(%rax)
  4046bf:	00 f8                	add    %bh,%al
  4046c1:	02 00                	add    (%rax),%al
  4046c3:	00 00                	add    %al,(%rax)
  4046c5:	00 00                	add    %al,(%rax)
  4046c7:	00 f8                	add    %bh,%al
  4046c9:	02 00                	add    (%rax),%al
  4046cb:	00 00                	add    %al,(%rax)
  4046cd:	00 00                	add    %al,(%rax)
  4046cf:	00 f8                	add    %bh,%al
  4046d1:	02 00                	add    (%rax),%al
  4046d3:	00 00                	add    %al,(%rax)
  4046d5:	00 00                	add    %al,(%rax)
  4046d7:	00 f8                	add    %bh,%al
  4046d9:	02 00                	add    (%rax),%al
  4046db:	00 00                	add    %al,(%rax)
  4046dd:	00 00                	add    %al,(%rax)
  4046df:	00 f8                	add    %bh,%al
  4046e1:	02 00                	add    (%rax),%al
  4046e3:	00 00                	add    %al,(%rax)
  4046e5:	00 00                	add    %al,(%rax)
  4046e7:	00 f8                	add    %bh,%al
  4046e9:	02 00                	add    (%rax),%al
  4046eb:	00 00                	add    %al,(%rax)
  4046ed:	00 00                	add    %al,(%rax)
  4046ef:	00 f8                	add    %bh,%al
  4046f1:	02 00                	add    (%rax),%al
  4046f3:	00 00                	add    %al,(%rax)
  4046f5:	00 00                	add    %al,(%rax)
  4046f7:	00 f8                	add    %bh,%al
  4046f9:	02 00                	add    (%rax),%al
  4046fb:	00 00                	add    %al,(%rax)
  4046fd:	00 00                	add    %al,(%rax)
  4046ff:	00 f8                	add    %bh,%al
  404701:	02 00                	add    (%rax),%al
  404703:	00 00                	add    %al,(%rax)
  404705:	00 00                	add    %al,(%rax)
  404707:	00 f8                	add    %bh,%al
  404709:	02 00                	add    (%rax),%al
  40470b:	00 00                	add    %al,(%rax)
  40470d:	00 00                	add    %al,(%rax)
  40470f:	00 f8                	add    %bh,%al
  404711:	02 00                	add    (%rax),%al
  404713:	00 00                	add    %al,(%rax)
  404715:	00 00                	add    %al,(%rax)
  404717:	00 f8                	add    %bh,%al
  404719:	02 00                	add    (%rax),%al
  40471b:	00 00                	add    %al,(%rax)
  40471d:	00 00                	add    %al,(%rax)
  40471f:	00 f8                	add    %bh,%al
  404721:	02 00                	add    (%rax),%al
  404723:	00 00                	add    %al,(%rax)
  404725:	00 00                	add    %al,(%rax)
  404727:	00 f8                	add    %bh,%al
  404729:	02 00                	add    (%rax),%al
  40472b:	00 00                	add    %al,(%rax)
  40472d:	00 00                	add    %al,(%rax)
  40472f:	00 f8                	add    %bh,%al
  404731:	02 00                	add    (%rax),%al
  404733:	00 00                	add    %al,(%rax)
  404735:	00 00                	add    %al,(%rax)
  404737:	00 f8                	add    %bh,%al
  404739:	02 00                	add    (%rax),%al
  40473b:	00 00                	add    %al,(%rax)
  40473d:	00 00                	add    %al,(%rax)
  40473f:	00 f8                	add    %bh,%al
  404741:	02 00                	add    (%rax),%al
  404743:	00 00                	add    %al,(%rax)
  404745:	00 00                	add    %al,(%rax)
  404747:	00 f8                	add    %bh,%al
  404749:	02 00                	add    (%rax),%al
  40474b:	00 00                	add    %al,(%rax)
  40474d:	00 00                	add    %al,(%rax)
  40474f:	00 f8                	add    %bh,%al
  404751:	02 00                	add    (%rax),%al
  404753:	00 00                	add    %al,(%rax)
  404755:	00 00                	add    %al,(%rax)
  404757:	00 f8                	add    %bh,%al
  404759:	02 00                	add    (%rax),%al
  40475b:	00 00                	add    %al,(%rax)
  40475d:	00 00                	add    %al,(%rax)
  40475f:	00 f8                	add    %bh,%al
  404761:	02 00                	add    (%rax),%al
  404763:	00 00                	add    %al,(%rax)
  404765:	00 00                	add    %al,(%rax)
  404767:	00 f8                	add    %bh,%al
  404769:	02 00                	add    (%rax),%al
  40476b:	00 00                	add    %al,(%rax)
  40476d:	00 00                	add    %al,(%rax)
  40476f:	00 f8                	add    %bh,%al
  404771:	02 00                	add    (%rax),%al
  404773:	00 00                	add    %al,(%rax)
  404775:	00 00                	add    %al,(%rax)
  404777:	00 f8                	add    %bh,%al
  404779:	02 00                	add    (%rax),%al
  40477b:	00 00                	add    %al,(%rax)
  40477d:	00 00                	add    %al,(%rax)
  40477f:	00 f8                	add    %bh,%al
  404781:	02 00                	add    (%rax),%al
  404783:	00 00                	add    %al,(%rax)
  404785:	00 00                	add    %al,(%rax)
  404787:	00 f8                	add    %bh,%al
  404789:	02 00                	add    (%rax),%al
  40478b:	00 00                	add    %al,(%rax)
  40478d:	00 00                	add    %al,(%rax)
  40478f:	00 f8                	add    %bh,%al
  404791:	02 00                	add    (%rax),%al
  404793:	00 00                	add    %al,(%rax)
  404795:	00 00                	add    %al,(%rax)
  404797:	00 f8                	add    %bh,%al
  404799:	02 00                	add    (%rax),%al
  40479b:	00 00                	add    %al,(%rax)
  40479d:	00 00                	add    %al,(%rax)
  40479f:	00 f8                	add    %bh,%al
  4047a1:	02 00                	add    (%rax),%al
  4047a3:	00 00                	add    %al,(%rax)
  4047a5:	00 00                	add    %al,(%rax)
  4047a7:	00 f8                	add    %bh,%al
  4047a9:	02 00                	add    (%rax),%al
  4047ab:	00 00                	add    %al,(%rax)
  4047ad:	00 00                	add    %al,(%rax)
  4047af:	00 f8                	add    %bh,%al
  4047b1:	02 00                	add    (%rax),%al
  4047b3:	00 00                	add    %al,(%rax)
  4047b5:	00 00                	add    %al,(%rax)
  4047b7:	00 f8                	add    %bh,%al
  4047b9:	02 00                	add    (%rax),%al
  4047bb:	00 00                	add    %al,(%rax)
  4047bd:	00 00                	add    %al,(%rax)
  4047bf:	00 f8                	add    %bh,%al
  4047c1:	02 00                	add    (%rax),%al
  4047c3:	00 00                	add    %al,(%rax)
  4047c5:	00 00                	add    %al,(%rax)
  4047c7:	00 f8                	add    %bh,%al
  4047c9:	02 00                	add    (%rax),%al
  4047cb:	00 00                	add    %al,(%rax)
  4047cd:	00 00                	add    %al,(%rax)
  4047cf:	00 f8                	add    %bh,%al
  4047d1:	02 00                	add    (%rax),%al
  4047d3:	00 00                	add    %al,(%rax)
  4047d5:	00 00                	add    %al,(%rax)
  4047d7:	00 f8                	add    %bh,%al
  4047d9:	02 00                	add    (%rax),%al
  4047db:	00 00                	add    %al,(%rax)
  4047dd:	00 00                	add    %al,(%rax)
  4047df:	00 f8                	add    %bh,%al
  4047e1:	02 00                	add    (%rax),%al
  4047e3:	00 00                	add    %al,(%rax)
  4047e5:	00 00                	add    %al,(%rax)
  4047e7:	00 f8                	add    %bh,%al
  4047e9:	02 00                	add    (%rax),%al
  4047eb:	00 00                	add    %al,(%rax)
  4047ed:	00 00                	add    %al,(%rax)
  4047ef:	00 f8                	add    %bh,%al
  4047f1:	02 00                	add    (%rax),%al
  4047f3:	00 00                	add    %al,(%rax)
  4047f5:	00 00                	add    %al,(%rax)
  4047f7:	00 f8                	add    %bh,%al
  4047f9:	02 00                	add    (%rax),%al
  4047fb:	00 00                	add    %al,(%rax)
  4047fd:	00 00                	add    %al,(%rax)
  4047ff:	00 ff                	add    %bh,%bh
  404801:	02 00                	add    (%rax),%al
  404803:	00 00                	add    %al,(%rax)
  404805:	00 00                	add    %al,(%rax)
  404807:	00 ff                	add    %bh,%bh
  404809:	02 00                	add    (%rax),%al
  40480b:	00 00                	add    %al,(%rax)
  40480d:	00 00                	add    %al,(%rax)
  40480f:	00 ff                	add    %bh,%bh
  404811:	02 00                	add    (%rax),%al
  404813:	00 00                	add    %al,(%rax)
  404815:	00 00                	add    %al,(%rax)
  404817:	00 ff                	add    %bh,%bh
  404819:	02 00                	add    (%rax),%al
  40481b:	00 00                	add    %al,(%rax)
  40481d:	00 00                	add    %al,(%rax)
  40481f:	00 ff                	add    %bh,%bh
  404821:	02 00                	add    (%rax),%al
  404823:	00 00                	add    %al,(%rax)
  404825:	00 00                	add    %al,(%rax)
  404827:	00 ff                	add    %bh,%bh
  404829:	02 00                	add    (%rax),%al
  40482b:	00 00                	add    %al,(%rax)
  40482d:	00 00                	add    %al,(%rax)
  40482f:	00 ff                	add    %bh,%bh
  404831:	02 00                	add    (%rax),%al
  404833:	00 00                	add    %al,(%rax)
  404835:	00 00                	add    %al,(%rax)
  404837:	00 ff                	add    %bh,%bh
  404839:	02 00                	add    (%rax),%al
  40483b:	00 00                	add    %al,(%rax)
  40483d:	00 00                	add    %al,(%rax)
  40483f:	00 ff                	add    %bh,%bh
  404841:	02 00                	add    (%rax),%al
  404843:	00 00                	add    %al,(%rax)
  404845:	00 00                	add    %al,(%rax)
  404847:	00 ff                	add    %bh,%bh
  404849:	02 00                	add    (%rax),%al
  40484b:	00 00                	add    %al,(%rax)
  40484d:	00 00                	add    %al,(%rax)
  40484f:	00 ff                	add    %bh,%bh
  404851:	02 00                	add    (%rax),%al
  404853:	00 00                	add    %al,(%rax)
  404855:	00 00                	add    %al,(%rax)
  404857:	00 ff                	add    %bh,%bh
  404859:	02 00                	add    (%rax),%al
  40485b:	00 00                	add    %al,(%rax)
  40485d:	00 00                	add    %al,(%rax)
  40485f:	00 ff                	add    %bh,%bh
  404861:	02 00                	add    (%rax),%al
  404863:	00 00                	add    %al,(%rax)
  404865:	00 00                	add    %al,(%rax)
  404867:	00 ff                	add    %bh,%bh
  404869:	02 00                	add    (%rax),%al
  40486b:	00 00                	add    %al,(%rax)
  40486d:	00 00                	add    %al,(%rax)
  40486f:	00 ff                	add    %bh,%bh
  404871:	02 00                	add    (%rax),%al
  404873:	00 00                	add    %al,(%rax)
  404875:	00 00                	add    %al,(%rax)
  404877:	00 ff                	add    %bh,%bh
  404879:	02 00                	add    (%rax),%al
  40487b:	00 00                	add    %al,(%rax)
  40487d:	00 00                	add    %al,(%rax)
  40487f:	00 ff                	add    %bh,%bh
  404881:	02 00                	add    (%rax),%al
  404883:	00 00                	add    %al,(%rax)
  404885:	00 00                	add    %al,(%rax)
  404887:	00 ff                	add    %bh,%bh
  404889:	02 00                	add    (%rax),%al
  40488b:	00 00                	add    %al,(%rax)
  40488d:	00 00                	add    %al,(%rax)
  40488f:	00 ff                	add    %bh,%bh
  404891:	02 00                	add    (%rax),%al
  404893:	00 00                	add    %al,(%rax)
  404895:	00 00                	add    %al,(%rax)
  404897:	00 ff                	add    %bh,%bh
  404899:	02 00                	add    (%rax),%al
  40489b:	00 00                	add    %al,(%rax)
  40489d:	00 00                	add    %al,(%rax)
  40489f:	00 ff                	add    %bh,%bh
  4048a1:	02 00                	add    (%rax),%al
  4048a3:	00 00                	add    %al,(%rax)
  4048a5:	00 00                	add    %al,(%rax)
  4048a7:	00 ff                	add    %bh,%bh
  4048a9:	02 00                	add    (%rax),%al
  4048ab:	00 00                	add    %al,(%rax)
  4048ad:	00 00                	add    %al,(%rax)
  4048af:	00 ff                	add    %bh,%bh
  4048b1:	02 00                	add    (%rax),%al
  4048b3:	00 00                	add    %al,(%rax)
  4048b5:	00 00                	add    %al,(%rax)
  4048b7:	00 ff                	add    %bh,%bh
  4048b9:	02 00                	add    (%rax),%al
  4048bb:	00 00                	add    %al,(%rax)
  4048bd:	00 00                	add    %al,(%rax)
  4048bf:	00 ff                	add    %bh,%bh
  4048c1:	02 00                	add    (%rax),%al
  4048c3:	00 00                	add    %al,(%rax)
  4048c5:	00 00                	add    %al,(%rax)
  4048c7:	00 ff                	add    %bh,%bh
  4048c9:	02 00                	add    (%rax),%al
  4048cb:	00 00                	add    %al,(%rax)
  4048cd:	00 00                	add    %al,(%rax)
  4048cf:	00 ff                	add    %bh,%bh
  4048d1:	02 00                	add    (%rax),%al
  4048d3:	00 00                	add    %al,(%rax)
  4048d5:	00 00                	add    %al,(%rax)
  4048d7:	00 ff                	add    %bh,%bh
  4048d9:	02 00                	add    (%rax),%al
  4048db:	00 00                	add    %al,(%rax)
  4048dd:	00 00                	add    %al,(%rax)
  4048df:	00 ff                	add    %bh,%bh
  4048e1:	02 00                	add    (%rax),%al
  4048e3:	00 00                	add    %al,(%rax)
  4048e5:	00 00                	add    %al,(%rax)
  4048e7:	00 ff                	add    %bh,%bh
  4048e9:	02 00                	add    (%rax),%al
  4048eb:	00 00                	add    %al,(%rax)
  4048ed:	00 00                	add    %al,(%rax)
  4048ef:	00 ff                	add    %bh,%bh
  4048f1:	02 00                	add    (%rax),%al
  4048f3:	00 00                	add    %al,(%rax)
  4048f5:	00 00                	add    %al,(%rax)
  4048f7:	00 ff                	add    %bh,%bh
  4048f9:	02 00                	add    (%rax),%al
  4048fb:	00 00                	add    %al,(%rax)
  4048fd:	00 00                	add    %al,(%rax)
  4048ff:	00 ff                	add    %bh,%bh
  404901:	02 00                	add    (%rax),%al
  404903:	00 00                	add    %al,(%rax)
  404905:	00 00                	add    %al,(%rax)
  404907:	00 ff                	add    %bh,%bh
  404909:	02 00                	add    (%rax),%al
  40490b:	00 00                	add    %al,(%rax)
  40490d:	00 00                	add    %al,(%rax)
  40490f:	00 ff                	add    %bh,%bh
  404911:	02 00                	add    (%rax),%al
  404913:	00 00                	add    %al,(%rax)
  404915:	00 00                	add    %al,(%rax)
  404917:	00 ff                	add    %bh,%bh
  404919:	02 00                	add    (%rax),%al
  40491b:	00 00                	add    %al,(%rax)
  40491d:	00 00                	add    %al,(%rax)
  40491f:	00 ff                	add    %bh,%bh
  404921:	02 00                	add    (%rax),%al
  404923:	00 00                	add    %al,(%rax)
  404925:	00 00                	add    %al,(%rax)
  404927:	00 ff                	add    %bh,%bh
  404929:	02 00                	add    (%rax),%al
  40492b:	00 00                	add    %al,(%rax)
  40492d:	00 00                	add    %al,(%rax)
  40492f:	00 ff                	add    %bh,%bh
  404931:	02 00                	add    (%rax),%al
  404933:	00 00                	add    %al,(%rax)
  404935:	00 00                	add    %al,(%rax)
  404937:	00 ff                	add    %bh,%bh
  404939:	02 00                	add    (%rax),%al
  40493b:	00 00                	add    %al,(%rax)
  40493d:	00 00                	add    %al,(%rax)
  40493f:	00 ff                	add    %bh,%bh
  404941:	02 00                	add    (%rax),%al
  404943:	00 00                	add    %al,(%rax)
  404945:	00 00                	add    %al,(%rax)
  404947:	00 ff                	add    %bh,%bh
  404949:	02 00                	add    (%rax),%al
  40494b:	00 00                	add    %al,(%rax)
  40494d:	00 00                	add    %al,(%rax)
  40494f:	00 ff                	add    %bh,%bh
  404951:	02 00                	add    (%rax),%al
  404953:	00 00                	add    %al,(%rax)
  404955:	00 00                	add    %al,(%rax)
  404957:	00 ff                	add    %bh,%bh
  404959:	02 00                	add    (%rax),%al
  40495b:	00 00                	add    %al,(%rax)
  40495d:	00 00                	add    %al,(%rax)
  40495f:	00 ff                	add    %bh,%bh
  404961:	02 00                	add    (%rax),%al
  404963:	00 00                	add    %al,(%rax)
  404965:	00 00                	add    %al,(%rax)
  404967:	00 ff                	add    %bh,%bh
  404969:	02 00                	add    (%rax),%al
  40496b:	00 00                	add    %al,(%rax)
  40496d:	00 00                	add    %al,(%rax)
  40496f:	00 ff                	add    %bh,%bh
  404971:	02 00                	add    (%rax),%al
  404973:	00 00                	add    %al,(%rax)
  404975:	00 00                	add    %al,(%rax)
  404977:	00 ff                	add    %bh,%bh
  404979:	02 00                	add    (%rax),%al
  40497b:	00 00                	add    %al,(%rax)
  40497d:	00 00                	add    %al,(%rax)
  40497f:	00 ff                	add    %bh,%bh
  404981:	02 00                	add    (%rax),%al
  404983:	00 00                	add    %al,(%rax)
  404985:	00 00                	add    %al,(%rax)
  404987:	00 ff                	add    %bh,%bh
  404989:	02 00                	add    (%rax),%al
  40498b:	00 00                	add    %al,(%rax)
  40498d:	00 00                	add    %al,(%rax)
  40498f:	00 ff                	add    %bh,%bh
  404991:	02 00                	add    (%rax),%al
  404993:	00 00                	add    %al,(%rax)
  404995:	00 00                	add    %al,(%rax)
  404997:	00 ff                	add    %bh,%bh
  404999:	02 00                	add    (%rax),%al
  40499b:	00 00                	add    %al,(%rax)
  40499d:	00 00                	add    %al,(%rax)
  40499f:	00 ff                	add    %bh,%bh
  4049a1:	02 00                	add    (%rax),%al
  4049a3:	00 00                	add    %al,(%rax)
  4049a5:	00 00                	add    %al,(%rax)
  4049a7:	00 ff                	add    %bh,%bh
  4049a9:	02 00                	add    (%rax),%al
  4049ab:	00 00                	add    %al,(%rax)
  4049ad:	00 00                	add    %al,(%rax)
  4049af:	00 ff                	add    %bh,%bh
  4049b1:	02 00                	add    (%rax),%al
  4049b3:	00 00                	add    %al,(%rax)
  4049b5:	00 00                	add    %al,(%rax)
  4049b7:	00 ff                	add    %bh,%bh
  4049b9:	02 00                	add    (%rax),%al
  4049bb:	00 00                	add    %al,(%rax)
  4049bd:	00 00                	add    %al,(%rax)
  4049bf:	00 ff                	add    %bh,%bh
  4049c1:	02 00                	add    (%rax),%al
  4049c3:	00 00                	add    %al,(%rax)
  4049c5:	00 00                	add    %al,(%rax)
  4049c7:	00 ff                	add    %bh,%bh
  4049c9:	02 00                	add    (%rax),%al
  4049cb:	00 00                	add    %al,(%rax)
  4049cd:	00 00                	add    %al,(%rax)
  4049cf:	00 ff                	add    %bh,%bh
  4049d1:	02 00                	add    (%rax),%al
  4049d3:	00 00                	add    %al,(%rax)
  4049d5:	00 00                	add    %al,(%rax)
  4049d7:	00 ff                	add    %bh,%bh
  4049d9:	02 00                	add    (%rax),%al
  4049db:	00 00                	add    %al,(%rax)
  4049dd:	00 00                	add    %al,(%rax)
  4049df:	00 ff                	add    %bh,%bh
  4049e1:	02 00                	add    (%rax),%al
  4049e3:	00 00                	add    %al,(%rax)
  4049e5:	00 00                	add    %al,(%rax)
  4049e7:	00 ff                	add    %bh,%bh
  4049e9:	02 00                	add    (%rax),%al
  4049eb:	00 00                	add    %al,(%rax)
  4049ed:	00 00                	add    %al,(%rax)
  4049ef:	00 ff                	add    %bh,%bh
  4049f1:	02 00                	add    (%rax),%al
  4049f3:	00 00                	add    %al,(%rax)
  4049f5:	00 00                	add    %al,(%rax)
  4049f7:	00 ff                	add    %bh,%bh
  4049f9:	02 00                	add    (%rax),%al
  4049fb:	00 00                	add    %al,(%rax)
  4049fd:	00 00                	add    %al,(%rax)
  4049ff:	00 06                	add    %al,(%rsi)
  404a01:	03 00                	add    (%rax),%eax
  404a03:	00 00                	add    %al,(%rax)
  404a05:	00 00                	add    %al,(%rax)
  404a07:	00 06                	add    %al,(%rsi)
  404a09:	03 00                	add    (%rax),%eax
  404a0b:	00 00                	add    %al,(%rax)
  404a0d:	00 00                	add    %al,(%rax)
  404a0f:	00 06                	add    %al,(%rsi)
  404a11:	03 00                	add    (%rax),%eax
  404a13:	00 00                	add    %al,(%rax)
  404a15:	00 00                	add    %al,(%rax)
  404a17:	00 06                	add    %al,(%rsi)
  404a19:	03 00                	add    (%rax),%eax
  404a1b:	00 00                	add    %al,(%rax)
  404a1d:	00 00                	add    %al,(%rax)
  404a1f:	00 06                	add    %al,(%rsi)
  404a21:	03 00                	add    (%rax),%eax
  404a23:	00 00                	add    %al,(%rax)
  404a25:	00 00                	add    %al,(%rax)
  404a27:	00 06                	add    %al,(%rsi)
  404a29:	03 00                	add    (%rax),%eax
  404a2b:	00 00                	add    %al,(%rax)
  404a2d:	00 00                	add    %al,(%rax)
  404a2f:	00 06                	add    %al,(%rsi)
  404a31:	03 00                	add    (%rax),%eax
  404a33:	00 00                	add    %al,(%rax)
  404a35:	00 00                	add    %al,(%rax)
  404a37:	00 06                	add    %al,(%rsi)
  404a39:	03 00                	add    (%rax),%eax
  404a3b:	00 00                	add    %al,(%rax)
  404a3d:	00 00                	add    %al,(%rax)
  404a3f:	00 06                	add    %al,(%rsi)
  404a41:	03 00                	add    (%rax),%eax
  404a43:	00 00                	add    %al,(%rax)
  404a45:	00 00                	add    %al,(%rax)
  404a47:	00 06                	add    %al,(%rsi)
  404a49:	03 00                	add    (%rax),%eax
  404a4b:	00 00                	add    %al,(%rax)
  404a4d:	00 00                	add    %al,(%rax)
  404a4f:	00 06                	add    %al,(%rsi)
  404a51:	03 00                	add    (%rax),%eax
  404a53:	00 00                	add    %al,(%rax)
  404a55:	00 00                	add    %al,(%rax)
  404a57:	00 06                	add    %al,(%rsi)
  404a59:	03 00                	add    (%rax),%eax
  404a5b:	00 00                	add    %al,(%rax)
  404a5d:	00 00                	add    %al,(%rax)
  404a5f:	00 06                	add    %al,(%rsi)
  404a61:	03 00                	add    (%rax),%eax
  404a63:	00 00                	add    %al,(%rax)
  404a65:	00 00                	add    %al,(%rax)
  404a67:	00 06                	add    %al,(%rsi)
  404a69:	03 00                	add    (%rax),%eax
  404a6b:	00 00                	add    %al,(%rax)
  404a6d:	00 00                	add    %al,(%rax)
  404a6f:	00 06                	add    %al,(%rsi)
  404a71:	03 00                	add    (%rax),%eax
  404a73:	00 00                	add    %al,(%rax)
  404a75:	00 00                	add    %al,(%rax)
  404a77:	00 06                	add    %al,(%rsi)
  404a79:	03 00                	add    (%rax),%eax
  404a7b:	00 00                	add    %al,(%rax)
  404a7d:	00 00                	add    %al,(%rax)
  404a7f:	00 06                	add    %al,(%rsi)
  404a81:	03 00                	add    (%rax),%eax
  404a83:	00 00                	add    %al,(%rax)
  404a85:	00 00                	add    %al,(%rax)
  404a87:	00 06                	add    %al,(%rsi)
  404a89:	03 00                	add    (%rax),%eax
  404a8b:	00 00                	add    %al,(%rax)
  404a8d:	00 00                	add    %al,(%rax)
  404a8f:	00 06                	add    %al,(%rsi)
  404a91:	03 00                	add    (%rax),%eax
  404a93:	00 00                	add    %al,(%rax)
  404a95:	00 00                	add    %al,(%rax)
  404a97:	00 06                	add    %al,(%rsi)
  404a99:	03 00                	add    (%rax),%eax
  404a9b:	00 00                	add    %al,(%rax)
  404a9d:	00 00                	add    %al,(%rax)
  404a9f:	00 06                	add    %al,(%rsi)
  404aa1:	03 00                	add    (%rax),%eax
  404aa3:	00 00                	add    %al,(%rax)
  404aa5:	00 00                	add    %al,(%rax)
  404aa7:	00 06                	add    %al,(%rsi)
  404aa9:	03 00                	add    (%rax),%eax
  404aab:	00 00                	add    %al,(%rax)
  404aad:	00 00                	add    %al,(%rax)
  404aaf:	00 06                	add    %al,(%rsi)
  404ab1:	03 00                	add    (%rax),%eax
  404ab3:	00 00                	add    %al,(%rax)
  404ab5:	00 00                	add    %al,(%rax)
  404ab7:	00 06                	add    %al,(%rsi)
  404ab9:	03 00                	add    (%rax),%eax
  404abb:	00 00                	add    %al,(%rax)
  404abd:	00 00                	add    %al,(%rax)
  404abf:	00 06                	add    %al,(%rsi)
  404ac1:	03 00                	add    (%rax),%eax
  404ac3:	00 00                	add    %al,(%rax)
  404ac5:	00 00                	add    %al,(%rax)
  404ac7:	00 06                	add    %al,(%rsi)
  404ac9:	03 00                	add    (%rax),%eax
  404acb:	00 00                	add    %al,(%rax)
  404acd:	00 00                	add    %al,(%rax)
  404acf:	00 06                	add    %al,(%rsi)
  404ad1:	03 00                	add    (%rax),%eax
  404ad3:	00 00                	add    %al,(%rax)
  404ad5:	00 00                	add    %al,(%rax)
  404ad7:	00 06                	add    %al,(%rsi)
  404ad9:	03 00                	add    (%rax),%eax
  404adb:	00 00                	add    %al,(%rax)
  404add:	00 00                	add    %al,(%rax)
  404adf:	00 06                	add    %al,(%rsi)
  404ae1:	03 00                	add    (%rax),%eax
  404ae3:	00 00                	add    %al,(%rax)
  404ae5:	00 00                	add    %al,(%rax)
  404ae7:	00 06                	add    %al,(%rsi)
  404ae9:	03 00                	add    (%rax),%eax
  404aeb:	00 00                	add    %al,(%rax)
  404aed:	00 00                	add    %al,(%rax)
  404aef:	00 06                	add    %al,(%rsi)
  404af1:	03 00                	add    (%rax),%eax
  404af3:	00 00                	add    %al,(%rax)
  404af5:	00 00                	add    %al,(%rax)
  404af7:	00 06                	add    %al,(%rsi)
  404af9:	03 00                	add    (%rax),%eax
  404afb:	00 00                	add    %al,(%rax)
  404afd:	00 00                	add    %al,(%rax)
  404aff:	00 06                	add    %al,(%rsi)
  404b01:	03 00                	add    (%rax),%eax
  404b03:	00 00                	add    %al,(%rax)
  404b05:	00 00                	add    %al,(%rax)
  404b07:	00 06                	add    %al,(%rsi)
  404b09:	03 00                	add    (%rax),%eax
  404b0b:	00 00                	add    %al,(%rax)
  404b0d:	00 00                	add    %al,(%rax)
  404b0f:	00 06                	add    %al,(%rsi)
  404b11:	03 00                	add    (%rax),%eax
  404b13:	00 00                	add    %al,(%rax)
  404b15:	00 00                	add    %al,(%rax)
  404b17:	00 06                	add    %al,(%rsi)
  404b19:	03 00                	add    (%rax),%eax
  404b1b:	00 00                	add    %al,(%rax)
  404b1d:	00 00                	add    %al,(%rax)
  404b1f:	00 06                	add    %al,(%rsi)
  404b21:	03 00                	add    (%rax),%eax
  404b23:	00 00                	add    %al,(%rax)
  404b25:	00 00                	add    %al,(%rax)
  404b27:	00 06                	add    %al,(%rsi)
  404b29:	03 00                	add    (%rax),%eax
  404b2b:	00 00                	add    %al,(%rax)
  404b2d:	00 00                	add    %al,(%rax)
  404b2f:	00 06                	add    %al,(%rsi)
  404b31:	03 00                	add    (%rax),%eax
  404b33:	00 00                	add    %al,(%rax)
  404b35:	00 00                	add    %al,(%rax)
  404b37:	00 06                	add    %al,(%rsi)
  404b39:	03 00                	add    (%rax),%eax
  404b3b:	00 00                	add    %al,(%rax)
  404b3d:	00 00                	add    %al,(%rax)
  404b3f:	00 06                	add    %al,(%rsi)
  404b41:	03 00                	add    (%rax),%eax
  404b43:	00 00                	add    %al,(%rax)
  404b45:	00 00                	add    %al,(%rax)
  404b47:	00 06                	add    %al,(%rsi)
  404b49:	03 00                	add    (%rax),%eax
  404b4b:	00 00                	add    %al,(%rax)
  404b4d:	00 00                	add    %al,(%rax)
  404b4f:	00 06                	add    %al,(%rsi)
  404b51:	03 00                	add    (%rax),%eax
  404b53:	00 00                	add    %al,(%rax)
  404b55:	00 00                	add    %al,(%rax)
  404b57:	00 06                	add    %al,(%rsi)
  404b59:	03 00                	add    (%rax),%eax
  404b5b:	00 00                	add    %al,(%rax)
  404b5d:	00 00                	add    %al,(%rax)
  404b5f:	00 06                	add    %al,(%rsi)
  404b61:	03 00                	add    (%rax),%eax
  404b63:	00 00                	add    %al,(%rax)
  404b65:	00 00                	add    %al,(%rax)
  404b67:	00 06                	add    %al,(%rsi)
  404b69:	03 00                	add    (%rax),%eax
  404b6b:	00 00                	add    %al,(%rax)
  404b6d:	00 00                	add    %al,(%rax)
  404b6f:	00 06                	add    %al,(%rsi)
  404b71:	03 00                	add    (%rax),%eax
  404b73:	00 00                	add    %al,(%rax)
  404b75:	00 00                	add    %al,(%rax)
  404b77:	00 06                	add    %al,(%rsi)
  404b79:	03 00                	add    (%rax),%eax
  404b7b:	00 00                	add    %al,(%rax)
  404b7d:	00 00                	add    %al,(%rax)
  404b7f:	00 06                	add    %al,(%rsi)
  404b81:	03 00                	add    (%rax),%eax
  404b83:	00 00                	add    %al,(%rax)
  404b85:	00 00                	add    %al,(%rax)
  404b87:	00 06                	add    %al,(%rsi)
  404b89:	03 00                	add    (%rax),%eax
  404b8b:	00 00                	add    %al,(%rax)
  404b8d:	00 00                	add    %al,(%rax)
  404b8f:	00 06                	add    %al,(%rsi)
  404b91:	03 00                	add    (%rax),%eax
  404b93:	00 00                	add    %al,(%rax)
  404b95:	00 00                	add    %al,(%rax)
  404b97:	00 06                	add    %al,(%rsi)
  404b99:	03 00                	add    (%rax),%eax
  404b9b:	00 00                	add    %al,(%rax)
  404b9d:	00 00                	add    %al,(%rax)
  404b9f:	00 06                	add    %al,(%rsi)
  404ba1:	03 00                	add    (%rax),%eax
  404ba3:	00 00                	add    %al,(%rax)
  404ba5:	00 00                	add    %al,(%rax)
  404ba7:	00 06                	add    %al,(%rsi)
  404ba9:	03 00                	add    (%rax),%eax
  404bab:	00 00                	add    %al,(%rax)
  404bad:	00 00                	add    %al,(%rax)
  404baf:	00 06                	add    %al,(%rsi)
  404bb1:	03 00                	add    (%rax),%eax
  404bb3:	00 00                	add    %al,(%rax)
  404bb5:	00 00                	add    %al,(%rax)
  404bb7:	00 06                	add    %al,(%rsi)
  404bb9:	03 00                	add    (%rax),%eax
  404bbb:	00 00                	add    %al,(%rax)
  404bbd:	00 00                	add    %al,(%rax)
  404bbf:	00 06                	add    %al,(%rsi)
  404bc1:	03 00                	add    (%rax),%eax
  404bc3:	00 00                	add    %al,(%rax)
  404bc5:	00 00                	add    %al,(%rax)
  404bc7:	00 06                	add    %al,(%rsi)
  404bc9:	03 00                	add    (%rax),%eax
  404bcb:	00 00                	add    %al,(%rax)
  404bcd:	00 00                	add    %al,(%rax)
  404bcf:	00 06                	add    %al,(%rsi)
  404bd1:	03 00                	add    (%rax),%eax
  404bd3:	00 00                	add    %al,(%rax)
  404bd5:	00 00                	add    %al,(%rax)
  404bd7:	00 06                	add    %al,(%rsi)
  404bd9:	03 00                	add    (%rax),%eax
  404bdb:	00 00                	add    %al,(%rax)
  404bdd:	00 00                	add    %al,(%rax)
  404bdf:	00 06                	add    %al,(%rsi)
  404be1:	03 00                	add    (%rax),%eax
  404be3:	00 00                	add    %al,(%rax)
  404be5:	00 00                	add    %al,(%rax)
  404be7:	00 06                	add    %al,(%rsi)
  404be9:	03 00                	add    (%rax),%eax
  404beb:	00 00                	add    %al,(%rax)
  404bed:	00 00                	add    %al,(%rax)
  404bef:	00 06                	add    %al,(%rsi)
  404bf1:	03 00                	add    (%rax),%eax
  404bf3:	00 00                	add    %al,(%rax)
  404bf5:	00 00                	add    %al,(%rax)
  404bf7:	00 06                	add    %al,(%rsi)
  404bf9:	03 00                	add    (%rax),%eax
  404bfb:	00 00                	add    %al,(%rax)
  404bfd:	00 00                	add    %al,(%rax)
  404bff:	00 0d 03 00 00 00    	add    %cl,0x3(%rip)        # 404c08 <__intel_mic_avx512f_memset+0x12c8>
  404c05:	00 00                	add    %al,(%rax)
  404c07:	00 0d 03 00 00 00    	add    %cl,0x3(%rip)        # 404c10 <__intel_mic_avx512f_memset+0x12d0>
  404c0d:	00 00                	add    %al,(%rax)
  404c0f:	00 0d 03 00 00 00    	add    %cl,0x3(%rip)        # 404c18 <__intel_mic_avx512f_memset+0x12d8>
  404c15:	00 00                	add    %al,(%rax)
  404c17:	00 0d 03 00 00 00    	add    %cl,0x3(%rip)        # 404c20 <__intel_mic_avx512f_memset+0x12e0>
  404c1d:	00 00                	add    %al,(%rax)
  404c1f:	00 0d 03 00 00 00    	add    %cl,0x3(%rip)        # 404c28 <__intel_mic_avx512f_memset+0x12e8>
  404c25:	00 00                	add    %al,(%rax)
  404c27:	00 0d 03 00 00 00    	add    %cl,0x3(%rip)        # 404c30 <__intel_mic_avx512f_memset+0x12f0>
  404c2d:	00 00                	add    %al,(%rax)
  404c2f:	00 0d 03 00 00 00    	add    %cl,0x3(%rip)        # 404c38 <__intel_mic_avx512f_memset+0x12f8>
  404c35:	00 00                	add    %al,(%rax)
  404c37:	00 0d 03 00 00 00    	add    %cl,0x3(%rip)        # 404c40 <__intel_mic_avx512f_memset+0x1300>
  404c3d:	00 00                	add    %al,(%rax)
  404c3f:	00 0d 03 00 00 00    	add    %cl,0x3(%rip)        # 404c48 <__intel_mic_avx512f_memset+0x1308>
  404c45:	00 00                	add    %al,(%rax)
  404c47:	00 0d 03 00 00 00    	add    %cl,0x3(%rip)        # 404c50 <__intel_mic_avx512f_memset+0x1310>
  404c4d:	00 00                	add    %al,(%rax)
  404c4f:	00 0d 03 00 00 00    	add    %cl,0x3(%rip)        # 404c58 <__intel_mic_avx512f_memset+0x1318>
  404c55:	00 00                	add    %al,(%rax)
  404c57:	00 0d 03 00 00 00    	add    %cl,0x3(%rip)        # 404c60 <__intel_mic_avx512f_memset+0x1320>
  404c5d:	00 00                	add    %al,(%rax)
  404c5f:	00 0d 03 00 00 00    	add    %cl,0x3(%rip)        # 404c68 <__intel_mic_avx512f_memset+0x1328>
  404c65:	00 00                	add    %al,(%rax)
  404c67:	00 0d 03 00 00 00    	add    %cl,0x3(%rip)        # 404c70 <__intel_mic_avx512f_memset+0x1330>
  404c6d:	00 00                	add    %al,(%rax)
  404c6f:	00 0d 03 00 00 00    	add    %cl,0x3(%rip)        # 404c78 <__intel_mic_avx512f_memset+0x1338>
  404c75:	00 00                	add    %al,(%rax)
  404c77:	00 0d 03 00 00 00    	add    %cl,0x3(%rip)        # 404c80 <__intel_mic_avx512f_memset+0x1340>
  404c7d:	00 00                	add    %al,(%rax)
  404c7f:	00 0d 03 00 00 00    	add    %cl,0x3(%rip)        # 404c88 <__intel_mic_avx512f_memset+0x1348>
  404c85:	00 00                	add    %al,(%rax)
  404c87:	00 0d 03 00 00 00    	add    %cl,0x3(%rip)        # 404c90 <__intel_mic_avx512f_memset+0x1350>
  404c8d:	00 00                	add    %al,(%rax)
  404c8f:	00 0d 03 00 00 00    	add    %cl,0x3(%rip)        # 404c98 <__intel_mic_avx512f_memset+0x1358>
  404c95:	00 00                	add    %al,(%rax)
  404c97:	00 0d 03 00 00 00    	add    %cl,0x3(%rip)        # 404ca0 <__intel_mic_avx512f_memset+0x1360>
  404c9d:	00 00                	add    %al,(%rax)
  404c9f:	00 0d 03 00 00 00    	add    %cl,0x3(%rip)        # 404ca8 <__intel_mic_avx512f_memset+0x1368>
  404ca5:	00 00                	add    %al,(%rax)
  404ca7:	00 0d 03 00 00 00    	add    %cl,0x3(%rip)        # 404cb0 <__intel_mic_avx512f_memset+0x1370>
  404cad:	00 00                	add    %al,(%rax)
  404caf:	00 0d 03 00 00 00    	add    %cl,0x3(%rip)        # 404cb8 <__intel_mic_avx512f_memset+0x1378>
  404cb5:	00 00                	add    %al,(%rax)
  404cb7:	00 0d 03 00 00 00    	add    %cl,0x3(%rip)        # 404cc0 <__intel_mic_avx512f_memset+0x1380>
  404cbd:	00 00                	add    %al,(%rax)
  404cbf:	00 0d 03 00 00 00    	add    %cl,0x3(%rip)        # 404cc8 <__intel_mic_avx512f_memset+0x1388>
  404cc5:	00 00                	add    %al,(%rax)
  404cc7:	00 0d 03 00 00 00    	add    %cl,0x3(%rip)        # 404cd0 <__intel_mic_avx512f_memset+0x1390>
  404ccd:	00 00                	add    %al,(%rax)
  404ccf:	00 0d 03 00 00 00    	add    %cl,0x3(%rip)        # 404cd8 <__intel_mic_avx512f_memset+0x1398>
  404cd5:	00 00                	add    %al,(%rax)
  404cd7:	00 0d 03 00 00 00    	add    %cl,0x3(%rip)        # 404ce0 <__intel_mic_avx512f_memset+0x13a0>
  404cdd:	00 00                	add    %al,(%rax)
  404cdf:	00 0d 03 00 00 00    	add    %cl,0x3(%rip)        # 404ce8 <__intel_mic_avx512f_memset+0x13a8>
  404ce5:	00 00                	add    %al,(%rax)
  404ce7:	00 0d 03 00 00 00    	add    %cl,0x3(%rip)        # 404cf0 <__intel_mic_avx512f_memset+0x13b0>
  404ced:	00 00                	add    %al,(%rax)
  404cef:	00 0d 03 00 00 00    	add    %cl,0x3(%rip)        # 404cf8 <__intel_mic_avx512f_memset+0x13b8>
  404cf5:	00 00                	add    %al,(%rax)
  404cf7:	00 0d 03 00 00 00    	add    %cl,0x3(%rip)        # 404d00 <__intel_mic_avx512f_memset+0x13c0>
  404cfd:	00 00                	add    %al,(%rax)
  404cff:	00 0d 03 00 00 00    	add    %cl,0x3(%rip)        # 404d08 <__intel_mic_avx512f_memset+0x13c8>
  404d05:	00 00                	add    %al,(%rax)
  404d07:	00 0d 03 00 00 00    	add    %cl,0x3(%rip)        # 404d10 <__intel_mic_avx512f_memset+0x13d0>
  404d0d:	00 00                	add    %al,(%rax)
  404d0f:	00 0d 03 00 00 00    	add    %cl,0x3(%rip)        # 404d18 <__intel_mic_avx512f_memset+0x13d8>
  404d15:	00 00                	add    %al,(%rax)
  404d17:	00 0d 03 00 00 00    	add    %cl,0x3(%rip)        # 404d20 <__intel_mic_avx512f_memset+0x13e0>
  404d1d:	00 00                	add    %al,(%rax)
  404d1f:	00 0d 03 00 00 00    	add    %cl,0x3(%rip)        # 404d28 <__intel_mic_avx512f_memset+0x13e8>
  404d25:	00 00                	add    %al,(%rax)
  404d27:	00 0d 03 00 00 00    	add    %cl,0x3(%rip)        # 404d30 <__intel_mic_avx512f_memset+0x13f0>
  404d2d:	00 00                	add    %al,(%rax)
  404d2f:	00 0d 03 00 00 00    	add    %cl,0x3(%rip)        # 404d38 <__intel_mic_avx512f_memset+0x13f8>
  404d35:	00 00                	add    %al,(%rax)
  404d37:	00 0d 03 00 00 00    	add    %cl,0x3(%rip)        # 404d40 <__intel_mic_avx512f_memset+0x1400>
  404d3d:	00 00                	add    %al,(%rax)
  404d3f:	00 0d 03 00 00 00    	add    %cl,0x3(%rip)        # 404d48 <__intel_mic_avx512f_memset+0x1408>
  404d45:	00 00                	add    %al,(%rax)
  404d47:	00 0d 03 00 00 00    	add    %cl,0x3(%rip)        # 404d50 <__intel_mic_avx512f_memset+0x1410>
  404d4d:	00 00                	add    %al,(%rax)
  404d4f:	00 0d 03 00 00 00    	add    %cl,0x3(%rip)        # 404d58 <__intel_mic_avx512f_memset+0x1418>
  404d55:	00 00                	add    %al,(%rax)
  404d57:	00 0d 03 00 00 00    	add    %cl,0x3(%rip)        # 404d60 <__intel_mic_avx512f_memset+0x1420>
  404d5d:	00 00                	add    %al,(%rax)
  404d5f:	00 0d 03 00 00 00    	add    %cl,0x3(%rip)        # 404d68 <__intel_mic_avx512f_memset+0x1428>
  404d65:	00 00                	add    %al,(%rax)
  404d67:	00 0d 03 00 00 00    	add    %cl,0x3(%rip)        # 404d70 <__intel_mic_avx512f_memset+0x1430>
  404d6d:	00 00                	add    %al,(%rax)
  404d6f:	00 0d 03 00 00 00    	add    %cl,0x3(%rip)        # 404d78 <__intel_mic_avx512f_memset+0x1438>
  404d75:	00 00                	add    %al,(%rax)
  404d77:	00 0d 03 00 00 00    	add    %cl,0x3(%rip)        # 404d80 <__intel_mic_avx512f_memset+0x1440>
  404d7d:	00 00                	add    %al,(%rax)
  404d7f:	00 0d 03 00 00 00    	add    %cl,0x3(%rip)        # 404d88 <__intel_mic_avx512f_memset+0x1448>
  404d85:	00 00                	add    %al,(%rax)
  404d87:	00 0d 03 00 00 00    	add    %cl,0x3(%rip)        # 404d90 <__intel_mic_avx512f_memset+0x1450>
  404d8d:	00 00                	add    %al,(%rax)
  404d8f:	00 0d 03 00 00 00    	add    %cl,0x3(%rip)        # 404d98 <__intel_mic_avx512f_memset+0x1458>
  404d95:	00 00                	add    %al,(%rax)
  404d97:	00 0d 03 00 00 00    	add    %cl,0x3(%rip)        # 404da0 <__intel_mic_avx512f_memset+0x1460>
  404d9d:	00 00                	add    %al,(%rax)
  404d9f:	00 0d 03 00 00 00    	add    %cl,0x3(%rip)        # 404da8 <__intel_mic_avx512f_memset+0x1468>
  404da5:	00 00                	add    %al,(%rax)
  404da7:	00 0d 03 00 00 00    	add    %cl,0x3(%rip)        # 404db0 <__intel_mic_avx512f_memset+0x1470>
  404dad:	00 00                	add    %al,(%rax)
  404daf:	00 0d 03 00 00 00    	add    %cl,0x3(%rip)        # 404db8 <__intel_mic_avx512f_memset+0x1478>
  404db5:	00 00                	add    %al,(%rax)
  404db7:	00 0d 03 00 00 00    	add    %cl,0x3(%rip)        # 404dc0 <__intel_mic_avx512f_memset+0x1480>
  404dbd:	00 00                	add    %al,(%rax)
  404dbf:	00 0d 03 00 00 00    	add    %cl,0x3(%rip)        # 404dc8 <__intel_mic_avx512f_memset+0x1488>
  404dc5:	00 00                	add    %al,(%rax)
  404dc7:	00 0d 03 00 00 00    	add    %cl,0x3(%rip)        # 404dd0 <__intel_mic_avx512f_memset+0x1490>
  404dcd:	00 00                	add    %al,(%rax)
  404dcf:	00 0d 03 00 00 00    	add    %cl,0x3(%rip)        # 404dd8 <__intel_mic_avx512f_memset+0x1498>
  404dd5:	00 00                	add    %al,(%rax)
  404dd7:	00 0d 03 00 00 00    	add    %cl,0x3(%rip)        # 404de0 <__intel_mic_avx512f_memset+0x14a0>
  404ddd:	00 00                	add    %al,(%rax)
  404ddf:	00 0d 03 00 00 00    	add    %cl,0x3(%rip)        # 404de8 <__intel_mic_avx512f_memset+0x14a8>
  404de5:	00 00                	add    %al,(%rax)
  404de7:	00 0d 03 00 00 00    	add    %cl,0x3(%rip)        # 404df0 <__intel_mic_avx512f_memset+0x14b0>
  404ded:	00 00                	add    %al,(%rax)
  404def:	00 0d 03 00 00 00    	add    %cl,0x3(%rip)        # 404df8 <__intel_mic_avx512f_memset+0x14b8>
  404df5:	00 00                	add    %al,(%rax)
  404df7:	00 0d 03 00 00 00    	add    %cl,0x3(%rip)        # 404e00 <__intel_mic_avx512f_memset+0x14c0>
  404dfd:	00 00                	add    %al,(%rax)
  404dff:	00 c0                	add    %al,%al
  404e01:	12 00                	adc    (%rax),%al
