
results_heavy/bin/icx_Restrict_-O2_1024:     file format elf64-x86-64


Disassembly of section .init:

0000000000401000 <_init>:
  401000:	48 83 ec 08          	sub    $0x8,%rsp
  401004:	48 8b 05 ad bf 00 00 	mov    0xbfad(%rip),%rax        # 40cfb8 <__gmon_start__@Base>
  40100b:	48 85 c0             	test   %rax,%rax
  40100e:	74 02                	je     401012 <_init+0x12>
  401010:	ff d0                	call   *%rax
  401012:	48 83 c4 08          	add    $0x8,%rsp
  401016:	c3                   	ret

Disassembly of section .plt:

0000000000401020 <__strncpy_chk@plt-0x10>:
  401020:	ff 35 ca bf 00 00    	push   0xbfca(%rip)        # 40cff0 <_GLOBAL_OFFSET_TABLE_+0x8>
  401026:	ff 25 cc bf 00 00    	jmp    *0xbfcc(%rip)        # 40cff8 <_GLOBAL_OFFSET_TABLE_+0x10>
  40102c:	0f 1f 40 00          	nopl   0x0(%rax)

0000000000401030 <__strncpy_chk@plt>:
  401030:	ff 25 ca bf 00 00    	jmp    *0xbfca(%rip)        # 40d000 <__strncpy_chk@GLIBC_2.3.4>
  401036:	68 00 00 00 00       	push   $0x0
  40103b:	e9 e0 ff ff ff       	jmp    401020 <_init+0x20>

0000000000401040 <clock_gettime@plt>:
  401040:	ff 25 c2 bf 00 00    	jmp    *0xbfc2(%rip)        # 40d008 <clock_gettime@GLIBC_2.17>
  401046:	68 01 00 00 00       	push   $0x1
  40104b:	e9 d0 ff ff ff       	jmp    401020 <_init+0x20>

0000000000401050 <__fprintf_chk@plt>:
  401050:	ff 25 ba bf 00 00    	jmp    *0xbfba(%rip)        # 40d010 <__fprintf_chk@GLIBC_2.3.4>
  401056:	68 02 00 00 00       	push   $0x2
  40105b:	e9 c0 ff ff ff       	jmp    401020 <_init+0x20>

0000000000401060 <exit@plt>:
  401060:	ff 25 b2 bf 00 00    	jmp    *0xbfb2(%rip)        # 40d018 <exit@GLIBC_2.2.5>
  401066:	68 03 00 00 00       	push   $0x3
  40106b:	e9 b0 ff ff ff       	jmp    401020 <_init+0x20>

0000000000401070 <__printf_chk@plt>:
  401070:	ff 25 aa bf 00 00    	jmp    *0xbfaa(%rip)        # 40d020 <__printf_chk@GLIBC_2.3.4>
  401076:	68 04 00 00 00       	push   $0x4
  40107b:	e9 a0 ff ff ff       	jmp    401020 <_init+0x20>

0000000000401080 <malloc@plt>:
  401080:	ff 25 a2 bf 00 00    	jmp    *0xbfa2(%rip)        # 40d028 <malloc@GLIBC_2.2.5>
  401086:	68 05 00 00 00       	push   $0x5
  40108b:	e9 90 ff ff ff       	jmp    401020 <_init+0x20>

0000000000401090 <fopen@plt>:
  401090:	ff 25 9a bf 00 00    	jmp    *0xbf9a(%rip)        # 40d030 <fopen@GLIBC_2.2.5>
  401096:	68 06 00 00 00       	push   $0x6
  40109b:	e9 80 ff ff ff       	jmp    401020 <_init+0x20>

00000000004010a0 <catgets@plt>:
  4010a0:	ff 25 92 bf 00 00    	jmp    *0xbf92(%rip)        # 40d038 <catgets@GLIBC_2.2.5>
  4010a6:	68 07 00 00 00       	push   $0x7
  4010ab:	e9 70 ff ff ff       	jmp    401020 <_init+0x20>

00000000004010b0 <__vsnprintf_chk@plt>:
  4010b0:	ff 25 8a bf 00 00    	jmp    *0xbf8a(%rip)        # 40d040 <__vsnprintf_chk@GLIBC_2.3.4>
  4010b6:	68 08 00 00 00       	push   $0x8
  4010bb:	e9 60 ff ff ff       	jmp    401020 <_init+0x20>

00000000004010c0 <fputc@plt>:
  4010c0:	ff 25 82 bf 00 00    	jmp    *0xbf82(%rip)        # 40d048 <fputc@GLIBC_2.2.5>
  4010c6:	68 09 00 00 00       	push   $0x9
  4010cb:	e9 50 ff ff ff       	jmp    401020 <_init+0x20>

00000000004010d0 <free@plt>:
  4010d0:	ff 25 7a bf 00 00    	jmp    *0xbf7a(%rip)        # 40d050 <free@GLIBC_2.2.5>
  4010d6:	68 0a 00 00 00       	push   $0xa
  4010db:	e9 40 ff ff ff       	jmp    401020 <_init+0x20>

00000000004010e0 <strlen@plt>:
  4010e0:	ff 25 72 bf 00 00    	jmp    *0xbf72(%rip)        # 40d058 <strlen@GLIBC_2.2.5>
  4010e6:	68 0b 00 00 00       	push   $0xb
  4010eb:	e9 30 ff ff ff       	jmp    401020 <_init+0x20>

00000000004010f0 <strchr@plt>:
  4010f0:	ff 25 6a bf 00 00    	jmp    *0xbf6a(%rip)        # 40d060 <strchr@GLIBC_2.2.5>
  4010f6:	68 0c 00 00 00       	push   $0xc
  4010fb:	e9 20 ff ff ff       	jmp    401020 <_init+0x20>

0000000000401100 <setenv@plt>:
  401100:	ff 25 62 bf 00 00    	jmp    *0xbf62(%rip)        # 40d068 <setenv@GLIBC_2.2.5>
  401106:	68 0d 00 00 00       	push   $0xd
  40110b:	e9 10 ff ff ff       	jmp    401020 <_init+0x20>

0000000000401110 <catopen@plt>:
  401110:	ff 25 5a bf 00 00    	jmp    *0xbf5a(%rip)        # 40d070 <catopen@GLIBC_2.2.5>
  401116:	68 0e 00 00 00       	push   $0xe
  40111b:	e9 00 ff ff ff       	jmp    401020 <_init+0x20>

0000000000401120 <getenv@plt>:
  401120:	ff 25 52 bf 00 00    	jmp    *0xbf52(%rip)        # 40d078 <getenv@GLIBC_2.2.5>
  401126:	68 0f 00 00 00       	push   $0xf
  40112b:	e9 f0 fe ff ff       	jmp    401020 <_init+0x20>

0000000000401130 <__stack_chk_fail@plt>:
  401130:	ff 25 4a bf 00 00    	jmp    *0xbf4a(%rip)        # 40d080 <__stack_chk_fail@GLIBC_2.4>
  401136:	68 10 00 00 00       	push   $0x10
  40113b:	e9 e0 fe ff ff       	jmp    401020 <_init+0x20>

0000000000401140 <fclose@plt>:
  401140:	ff 25 42 bf 00 00    	jmp    *0xbf42(%rip)        # 40d088 <fclose@GLIBC_2.2.5>
  401146:	68 11 00 00 00       	push   $0x11
  40114b:	e9 d0 fe ff ff       	jmp    401020 <_init+0x20>

0000000000401150 <fprintf@plt>:
  401150:	ff 25 3a bf 00 00    	jmp    *0xbf3a(%rip)        # 40d090 <fprintf@GLIBC_2.2.5>
  401156:	68 12 00 00 00       	push   $0x12
  40115b:	e9 c0 fe ff ff       	jmp    401020 <_init+0x20>

0000000000401160 <__strncat_chk@plt>:
  401160:	ff 25 32 bf 00 00    	jmp    *0xbf32(%rip)        # 40d098 <__strncat_chk@GLIBC_2.3.4>
  401166:	68 13 00 00 00       	push   $0x13
  40116b:	e9 b0 fe ff ff       	jmp    401020 <_init+0x20>

Disassembly of section .plt.got:

0000000000401170 <memset@plt>:
  401170:	ff 25 3a be 00 00    	jmp    *0xbe3a(%rip)        # 40cfb0 <memset@GLIBC_2.2.5>
  401176:	66 90                	xchg   %ax,%ax

0000000000401178 <__cxa_finalize@plt>:
  401178:	ff 25 52 be 00 00    	jmp    *0xbe52(%rip)        # 40cfd0 <__cxa_finalize@GLIBC_2.2.5>
  40117e:	66 90                	xchg   %ax,%ax

Disassembly of section .text:

0000000000401180 <_GLOBAL__sub_I_fast_mem_ops.c>:
  401180:	f3 0f 1e fa          	endbr64
  401184:	55                   	push   %rbp
  401185:	48 89 e5             	mov    %rsp,%rbp
  401188:	41 56                	push   %r14
  40118a:	53                   	push   %rbx
  40118b:	48 83 ec 20          	sub    $0x20,%rsp
  40118f:	83 3d 76 c6 00 00 00 	cmpl   $0x0,0xc676(%rip)        # 40d80c <_ZL18__libirc_cache_tbl+0xc>
  401196:	0f 84 05 01 00 00    	je     4012a1 <_GLOBAL__sub_I_fast_mem_ops.c+0x121>
  40119c:	83 3d 5d c6 00 00 00 	cmpl   $0x0,0xc65d(%rip)        # 40d800 <_ZL18__libirc_cache_tbl>
  4011a3:	0f 84 0a 01 00 00    	je     4012b3 <_GLOBAL__sub_I_fast_mem_ops.c+0x133>
  4011a9:	83 3d 54 c6 00 00 00 	cmpl   $0x0,0xc654(%rip)        # 40d804 <_ZL18__libirc_cache_tbl+0x4>
  4011b0:	0f 84 21 02 00 00    	je     4013d7 <_GLOBAL__sub_I_fast_mem_ops.c+0x257>
  4011b6:	53                   	push   %rbx
  4011b7:	b8 01 00 00 00       	mov    $0x1,%eax
  4011bc:	0f a2                	cpuid
  4011be:	89 5d d0             	mov    %ebx,-0x30(%rbp)
  4011c1:	89 55 e0             	mov    %edx,-0x20(%rbp)
  4011c4:	89 45 ec             	mov    %eax,-0x14(%rbp)
  4011c7:	5b                   	pop    %rbx
  4011c8:	8b 45 e0             	mov    -0x20(%rbp),%eax
  4011cb:	89 c1                	mov    %eax,%ecx
  4011cd:	c1 e9 17             	shr    $0x17,%ecx
  4011d0:	83 e1 01             	and    $0x1,%ecx
  4011d3:	a9 00 00 00 04       	test   $0x4000000,%eax
  4011d8:	41 be 02 00 00 00    	mov    $0x2,%r14d
  4011de:	44 0f 44 f1          	cmove  %ecx,%r14d
  4011e2:	8b 05 28 c6 00 00    	mov    0xc628(%rip),%eax        # 40d810 <_ZL18__libirc_cache_tbl+0x10>
  4011e8:	85 c0                	test   %eax,%eax
  4011ea:	0f 84 f8 01 00 00    	je     4013e8 <_GLOBAL__sub_I_fast_mem_ops.c+0x268>
  4011f0:	8b 0d 32 c6 00 00    	mov    0xc632(%rip),%ecx        # 40d828 <_ZL18__libirc_cache_tbl+0x28>
  4011f6:	0f af 0d 27 c6 00 00 	imul   0xc627(%rip),%ecx        # 40d824 <_ZL18__libirc_cache_tbl+0x24>
  4011fd:	8b 15 1d c6 00 00    	mov    0xc61d(%rip),%edx        # 40d820 <_ZL18__libirc_cache_tbl+0x20>
  401203:	8b 35 0f c6 00 00    	mov    0xc60f(%rip),%esi        # 40d818 <_ZL18__libirc_cache_tbl+0x18>
  401209:	0f af 35 04 c6 00 00 	imul   0xc604(%rip),%esi        # 40d814 <_ZL18__libirc_cache_tbl+0x14>
  401210:	39 d0                	cmp    %edx,%eax
  401212:	0f 47 d0             	cmova  %eax,%edx
  401215:	0f 42 f1             	cmovb  %ecx,%esi
  401218:	8b 0d 1a c6 00 00    	mov    0xc61a(%rip),%ecx        # 40d838 <_ZL18__libirc_cache_tbl+0x38>
  40121e:	0f af 0d 0f c6 00 00 	imul   0xc60f(%rip),%ecx        # 40d834 <_ZL18__libirc_cache_tbl+0x34>
  401225:	8b 3d 05 c6 00 00    	mov    0xc605(%rip),%edi        # 40d830 <_ZL18__libirc_cache_tbl+0x30>
  40122b:	39 fa                	cmp    %edi,%edx
  40122d:	0f 43 ce             	cmovae %esi,%ecx
  401230:	0f 46 d7             	cmovbe %edi,%edx
  401233:	48 89 d6             	mov    %rdx,%rsi
  401236:	48 c1 e6 0a          	shl    $0xa,%rsi
  40123a:	48 89 35 6f be 00 00 	mov    %rsi,0xbe6f(%rip)        # 40d0b0 <__libirc_largest_cache_size>
  401241:	48 c1 e2 09          	shl    $0x9,%rdx
  401245:	48 89 15 6c be 00 00 	mov    %rdx,0xbe6c(%rip)        # 40d0b8 <__libirc_largest_cache_size_half>
  40124c:	c1 e0 0a             	shl    $0xa,%eax
  40124f:	48 89 05 6a be 00 00 	mov    %rax,0xbe6a(%rip)        # 40d0c0 <__libirc_data_cache_size>
  401256:	48 89 c2             	mov    %rax,%rdx
  401259:	48 d1 ea             	shr    %rdx
  40125c:	48 89 15 65 be 00 00 	mov    %rdx,0xbe65(%rip)        # 40d0c8 <__libirc_data_cache_size_half>
  401263:	48 89 c2             	mov    %rax,%rdx
  401266:	48 c1 ea 02          	shr    $0x2,%rdx
  40126a:	48 89 15 5f be 00 00 	mov    %rdx,0xbe5f(%rip)        # 40d0d0 <__libirc_largest_cache_size_quoter>
  401271:	48 89 0d d0 c5 00 00 	mov    %rcx,0xc5d0(%rip)        # 40d848 <__libirc_largest_cachelinesize>
  401278:	48 c7 05 55 be 00 00 	movq   $0x2000,0xbe55(%rip)        # 40d0d8 <__libirc_copy_loop_threshold>
  40127f:	00 20 00 00 
  401283:	48 01 c0             	add    %rax,%rax
  401286:	48 8d 04 40          	lea    (%rax,%rax,2),%rax
  40128a:	48 89 05 4f be 00 00 	mov    %rax,0xbe4f(%rip)        # 40d0e0 <__libirc_rep_move_threshold>
  401291:	48 c7 05 4c be 00 00 	movq   $0x800,0xbe4c(%rip)        # 40d0e8 <__libirc_set_loop_threshold>
  401298:	00 08 00 00 
  40129c:	e9 5d 01 00 00       	jmp    4013fe <_GLOBAL__sub_I_fast_mem_ops.c+0x27e>
  4012a1:	e8 5a 73 00 00       	call   408600 <_ZL23__libirc_init_cache_tblv>
  4012a6:	83 3d 53 c5 00 00 00 	cmpl   $0x0,0xc553(%rip)        # 40d800 <_ZL18__libirc_cache_tbl>
  4012ad:	0f 85 f6 fe ff ff    	jne    4011a9 <_GLOBAL__sub_I_fast_mem_ops.c+0x29>
  4012b3:	c7 45 ec 00 00 00 00 	movl   $0x0,-0x14(%rbp)
  4012ba:	48 8d 75 d0          	lea    -0x30(%rbp),%rsi
  4012be:	48 89 75 e0          	mov    %rsi,-0x20(%rbp)
  4012c2:	50                   	push   %rax
  4012c3:	53                   	push   %rbx
  4012c4:	51                   	push   %rcx
  4012c5:	52                   	push   %rdx
  4012c6:	4c 8b 45 e0          	mov    -0x20(%rbp),%r8
  4012ca:	8b 45 ec             	mov    -0x14(%rbp),%eax
  4012cd:	0f a2                	cpuid
  4012cf:	41 89 00             	mov    %eax,(%r8)
  4012d2:	41 89 58 04          	mov    %ebx,0x4(%r8)
  4012d6:	41 89 48 08          	mov    %ecx,0x8(%r8)
  4012da:	41 89 50 0c          	mov    %edx,0xc(%r8)
  4012de:	5a                   	pop    %rdx
  4012df:	59                   	pop    %rcx
  4012e0:	5b                   	pop    %rbx
  4012e1:	58                   	pop    %rax
  4012e2:	45 31 f6             	xor    %r14d,%r14d
  4012e5:	81 7d d4 41 75 74 68 	cmpl   $0x68747541,-0x2c(%rbp)
  4012ec:	0f 85 0c 01 00 00    	jne    4013fe <_GLOBAL__sub_I_fast_mem_ops.c+0x27e>
  4012f2:	81 7d dc 65 6e 74 69 	cmpl   $0x69746e65,-0x24(%rbp)
  4012f9:	0f 85 ff 00 00 00    	jne    4013fe <_GLOBAL__sub_I_fast_mem_ops.c+0x27e>
  4012ff:	81 7d d8 63 41 4d 44 	cmpl   $0x444d4163,-0x28(%rbp)
  401306:	0f 85 f2 00 00 00    	jne    4013fe <_GLOBAL__sub_I_fast_mem_ops.c+0x27e>
  40130c:	c7 45 ec 01 00 00 00 	movl   $0x1,-0x14(%rbp)
  401313:	48 89 75 e0          	mov    %rsi,-0x20(%rbp)
  401317:	50                   	push   %rax
  401318:	53                   	push   %rbx
  401319:	51                   	push   %rcx
  40131a:	52                   	push   %rdx
  40131b:	4c 8b 45 e0          	mov    -0x20(%rbp),%r8
  40131f:	8b 45 ec             	mov    -0x14(%rbp),%eax
  401322:	0f a2                	cpuid
  401324:	41 89 00             	mov    %eax,(%r8)
  401327:	41 89 58 04          	mov    %ebx,0x4(%r8)
  40132b:	41 89 48 08          	mov    %ecx,0x8(%r8)
  40132f:	41 89 50 0c          	mov    %edx,0xc(%r8)
  401333:	5a                   	pop    %rdx
  401334:	59                   	pop    %rcx
  401335:	5b                   	pop    %rbx
  401336:	58                   	pop    %rax
  401337:	44 8b 75 dc          	mov    -0x24(%rbp),%r14d
  40133b:	41 c1 ee 17          	shr    $0x17,%r14d
  40133f:	41 83 e6 01          	and    $0x1,%r14d
  401343:	c7 45 ec 00 00 00 80 	movl   $0x80000000,-0x14(%rbp)
  40134a:	48 89 75 e0          	mov    %rsi,-0x20(%rbp)
  40134e:	50                   	push   %rax
  40134f:	53                   	push   %rbx
  401350:	51                   	push   %rcx
  401351:	52                   	push   %rdx
  401352:	4c 8b 45 e0          	mov    -0x20(%rbp),%r8
  401356:	8b 45 ec             	mov    -0x14(%rbp),%eax
  401359:	0f a2                	cpuid
  40135b:	41 89 00             	mov    %eax,(%r8)
  40135e:	41 89 58 04          	mov    %ebx,0x4(%r8)
  401362:	41 89 48 08          	mov    %ecx,0x8(%r8)
  401366:	41 89 50 0c          	mov    %edx,0xc(%r8)
  40136a:	5a                   	pop    %rdx
  40136b:	59                   	pop    %rcx
  40136c:	5b                   	pop    %rbx
  40136d:	58                   	pop    %rax
  40136e:	81 7d d0 06 00 00 80 	cmpl   $0x80000006,-0x30(%rbp)
  401375:	0f 82 83 00 00 00    	jb     4013fe <_GLOBAL__sub_I_fast_mem_ops.c+0x27e>
  40137b:	c7 45 ec 06 00 00 80 	movl   $0x80000006,-0x14(%rbp)
  401382:	48 89 75 e0          	mov    %rsi,-0x20(%rbp)
  401386:	50                   	push   %rax
  401387:	53                   	push   %rbx
  401388:	51                   	push   %rcx
  401389:	52                   	push   %rdx
  40138a:	4c 8b 45 e0          	mov    -0x20(%rbp),%r8
  40138e:	8b 45 ec             	mov    -0x14(%rbp),%eax
  401391:	0f a2                	cpuid
  401393:	41 89 00             	mov    %eax,(%r8)
  401396:	41 89 58 04          	mov    %ebx,0x4(%r8)
  40139a:	41 89 48 08          	mov    %ecx,0x8(%r8)
  40139e:	41 89 50 0c          	mov    %edx,0xc(%r8)
  4013a2:	5a                   	pop    %rdx
  4013a3:	59                   	pop    %rcx
  4013a4:	5b                   	pop    %rbx
  4013a5:	58                   	pop    %rax
  4013a6:	8b 45 d8             	mov    -0x28(%rbp),%eax
  4013a9:	48 c1 e8 06          	shr    $0x6,%rax
  4013ad:	25 00 fc ff 03       	and    $0x3fffc00,%eax
  4013b2:	48 89 05 f7 bc 00 00 	mov    %rax,0xbcf7(%rip)        # 40d0b0 <__libirc_largest_cache_size>
  4013b9:	48 d1 e8             	shr    %rax
  4013bc:	48 89 05 f5 bc 00 00 	mov    %rax,0xbcf5(%rip)        # 40d0b8 <__libirc_largest_cache_size_half>
  4013c3:	48 8b 05 f6 bc 00 00 	mov    0xbcf6(%rip),%rax        # 40d0c0 <__libirc_data_cache_size>
  4013ca:	48 c1 e8 02          	shr    $0x2,%rax
  4013ce:	48 89 05 fb bc 00 00 	mov    %rax,0xbcfb(%rip)        # 40d0d0 <__libirc_largest_cache_size_quoter>
  4013d5:	eb 27                	jmp    4013fe <_GLOBAL__sub_I_fast_mem_ops.c+0x27e>
  4013d7:	45 31 f6             	xor    %r14d,%r14d
  4013da:	8b 05 30 c4 00 00    	mov    0xc430(%rip),%eax        # 40d810 <_ZL18__libirc_cache_tbl+0x10>
  4013e0:	85 c0                	test   %eax,%eax
  4013e2:	0f 85 08 fe ff ff    	jne    4011f0 <_GLOBAL__sub_I_fast_mem_ops.c+0x70>
  4013e8:	48 8d 3d 51 98 00 00 	lea    0x9851(%rip),%rdi        # 40ac40 <_ZL16cpuid2_cache_tbl+0x800>
  4013ef:	e8 2c fd ff ff       	call   401120 <getenv@plt>
  4013f4:	48 85 c0             	test   %rax,%rax
  4013f7:	74 05                	je     4013fe <_GLOBAL__sub_I_fast_mem_ops.c+0x27e>
  4013f9:	80 38 00             	cmpb   $0x0,(%rax)
  4013fc:	75 17                	jne    401415 <_GLOBAL__sub_I_fast_mem_ops.c+0x295>
  4013fe:	44 89 35 3b c4 00 00 	mov    %r14d,0xc43b(%rip)        # 40d840 <__libirc_mem_ops_method>
  401405:	44 89 35 44 c4 00 00 	mov    %r14d,0xc444(%rip)        # 40d850 <_ZL12__libirc_tmp>
  40140c:	48 83 c4 20          	add    $0x20,%rsp
  401410:	5b                   	pop    %rbx
  401411:	41 5e                	pop    %r14
  401413:	5d                   	pop    %rbp
  401414:	c3                   	ret
  401415:	bf 01 00 00 00       	mov    $0x1,%edi
  40141a:	31 f6                	xor    %esi,%esi
  40141c:	31 d2                	xor    %edx,%edx
  40141e:	31 c0                	xor    %eax,%eax
  401420:	e8 0b 7b 00 00       	call   408f30 <__libirc_print>
  401425:	bf 01 00 00 00       	mov    $0x1,%edi
  40142a:	be 3d 00 00 00       	mov    $0x3d,%esi
  40142f:	31 d2                	xor    %edx,%edx
  401431:	31 c0                	xor    %eax,%eax
  401433:	e8 f8 7a 00 00       	call   408f30 <__libirc_print>
  401438:	bf 01 00 00 00       	mov    $0x1,%edi
  40143d:	31 f6                	xor    %esi,%esi
  40143f:	31 d2                	xor    %edx,%edx
  401441:	31 c0                	xor    %eax,%eax
  401443:	e8 e8 7a 00 00       	call   408f30 <__libirc_print>
  401448:	bf 01 00 00 00       	mov    $0x1,%edi
  40144d:	e8 0e fc ff ff       	call   401060 <exit@plt>
  401452:	66 2e 0f 1f 84 00 00 	cs nopw 0x0(%rax,%rax,1)
  401459:	00 00 00 
  40145c:	0f 1f 40 00          	nopl   0x0(%rax)

0000000000401460 <_start>:
  401460:	31 ed                	xor    %ebp,%ebp
  401462:	49 89 d1             	mov    %rdx,%r9
  401465:	5e                   	pop    %rsi
  401466:	48 89 e2             	mov    %rsp,%rdx
  401469:	48 83 e4 f0          	and    $0xfffffffffffffff0,%rsp
  40146d:	50                   	push   %rax
  40146e:	54                   	push   %rsp
  40146f:	45 31 c0             	xor    %r8d,%r8d
  401472:	31 c9                	xor    %ecx,%ecx
  401474:	48 c7 c7 50 15 40 00 	mov    $0x401550,%rdi
  40147b:	ff 15 5f bb 00 00    	call   *0xbb5f(%rip)        # 40cfe0 <__libc_start_main@GLIBC_2.34>
  401481:	f4                   	hlt
  401482:	66 2e 0f 1f 84 00 00 	cs nopw 0x0(%rax,%rax,1)
  401489:	00 00 00 
  40148c:	0f 1f 40 00          	nopl   0x0(%rax)

0000000000401490 <deregister_tm_clones>:
  401490:	48 8d 3d 59 bc 00 00 	lea    0xbc59(%rip),%rdi        # 40d0f0 <__TMC_END__>
  401497:	48 8d 05 52 bc 00 00 	lea    0xbc52(%rip),%rax        # 40d0f0 <__TMC_END__>
  40149e:	48 39 f8             	cmp    %rdi,%rax
  4014a1:	74 15                	je     4014b8 <deregister_tm_clones+0x28>
  4014a3:	48 8b 05 16 bb 00 00 	mov    0xbb16(%rip),%rax        # 40cfc0 <_ITM_deregisterTMCloneTable@Base>
  4014aa:	48 85 c0             	test   %rax,%rax
  4014ad:	74 09                	je     4014b8 <deregister_tm_clones+0x28>
  4014af:	ff e0                	jmp    *%rax
  4014b1:	0f 1f 80 00 00 00 00 	nopl   0x0(%rax)
  4014b8:	c3                   	ret
  4014b9:	0f 1f 80 00 00 00 00 	nopl   0x0(%rax)

00000000004014c0 <register_tm_clones>:
  4014c0:	48 8d 3d 29 bc 00 00 	lea    0xbc29(%rip),%rdi        # 40d0f0 <__TMC_END__>
  4014c7:	48 8d 35 22 bc 00 00 	lea    0xbc22(%rip),%rsi        # 40d0f0 <__TMC_END__>
  4014ce:	48 29 fe             	sub    %rdi,%rsi
  4014d1:	48 89 f0             	mov    %rsi,%rax
  4014d4:	48 c1 ee 3f          	shr    $0x3f,%rsi
  4014d8:	48 c1 f8 03          	sar    $0x3,%rax
  4014dc:	48 01 c6             	add    %rax,%rsi
  4014df:	48 d1 fe             	sar    %rsi
  4014e2:	74 14                	je     4014f8 <register_tm_clones+0x38>
  4014e4:	48 8b 05 dd ba 00 00 	mov    0xbadd(%rip),%rax        # 40cfc8 <_ITM_registerTMCloneTable@Base>
  4014eb:	48 85 c0             	test   %rax,%rax
  4014ee:	74 08                	je     4014f8 <register_tm_clones+0x38>
  4014f0:	ff e0                	jmp    *%rax
  4014f2:	66 0f 1f 44 00 00    	nopw   0x0(%rax,%rax,1)
  4014f8:	c3                   	ret
  4014f9:	0f 1f 80 00 00 00 00 	nopl   0x0(%rax)

0000000000401500 <__do_global_dtors_aux>:
  401500:	f3 0f 1e fa          	endbr64
  401504:	80 3d fd bb 00 00 00 	cmpb   $0x0,0xbbfd(%rip)        # 40d108 <completed.0>
  40150b:	75 2b                	jne    401538 <__do_global_dtors_aux+0x38>
  40150d:	55                   	push   %rbp
  40150e:	48 83 3d ba ba 00 00 	cmpq   $0x0,0xbaba(%rip)        # 40cfd0 <__cxa_finalize@GLIBC_2.2.5>
  401515:	00 
  401516:	48 89 e5             	mov    %rsp,%rbp
  401519:	74 0c                	je     401527 <__do_global_dtors_aux+0x27>
  40151b:	48 8b 3d 86 bb 00 00 	mov    0xbb86(%rip),%rdi        # 40d0a8 <__dso_handle>
  401522:	e8 51 fc ff ff       	call   401178 <__cxa_finalize@plt>
  401527:	e8 64 ff ff ff       	call   401490 <deregister_tm_clones>
  40152c:	c6 05 d5 bb 00 00 01 	movb   $0x1,0xbbd5(%rip)        # 40d108 <completed.0>
  401533:	5d                   	pop    %rbp
  401534:	c3                   	ret
  401535:	0f 1f 00             	nopl   (%rax)
  401538:	c3                   	ret
  401539:	0f 1f 80 00 00 00 00 	nopl   0x0(%rax)

0000000000401540 <frame_dummy>:
  401540:	f3 0f 1e fa          	endbr64
  401544:	e9 77 ff ff ff       	jmp    4014c0 <register_tm_clones>
  401549:	0f 1f 80 00 00 00 00 	nopl   0x0(%rax)

0000000000401550 <main>:
  401550:	55                   	push   %rbp
  401551:	41 57                	push   %r15
  401553:	41 56                	push   %r14
  401555:	41 55                	push   %r13
  401557:	41 54                	push   %r12
  401559:	53                   	push   %rbx
  40155a:	48 81 ec 88 04 00 00 	sub    $0x488,%rsp
  401561:	48 be ee 9f 9d 10 00 	movabs $0x100000109d9fee,%rsi
  401568:	00 10 00 
  40156b:	bf 03 00 00 00       	mov    $0x3,%edi
  401570:	e8 3b 1b 00 00       	call   4030b0 <__intel_new_feature_proc_init>
  401575:	bf 00 00 80 00       	mov    $0x800000,%edi
  40157a:	e8 01 fb ff ff       	call   401080 <malloc@plt>
  40157f:	48 89 c3             	mov    %rax,%rbx
  401582:	bf 00 00 80 00       	mov    $0x800000,%edi
  401587:	e8 f4 fa ff ff       	call   401080 <malloc@plt>
  40158c:	49 89 c6             	mov    %rax,%r14
  40158f:	bf 00 00 80 00       	mov    $0x800000,%edi
  401594:	e8 e7 fa ff ff       	call   401080 <malloc@plt>
  401599:	b9 01 00 00 00       	mov    $0x1,%ecx
  40159e:	48 85 db             	test   %rbx,%rbx
  4015a1:	74 0a                	je     4015ad <main+0x5d>
  4015a3:	4d 85 f6             	test   %r14,%r14
  4015a6:	74 05                	je     4015ad <main+0x5d>
  4015a8:	48 85 c0             	test   %rax,%rax
  4015ab:	75 14                	jne    4015c1 <main+0x71>
  4015ad:	89 c8                	mov    %ecx,%eax
  4015af:	48 81 c4 88 04 00 00 	add    $0x488,%rsp
  4015b6:	5b                   	pop    %rbx
  4015b7:	41 5c                	pop    %r12
  4015b9:	41 5d                	pop    %r13
  4015bb:	41 5e                	pop    %r14
  4015bd:	41 5f                	pop    %r15
  4015bf:	5d                   	pop    %rbp
  4015c0:	c3                   	ret
  4015c1:	ba 00 00 80 00       	mov    $0x800000,%edx
  4015c6:	48 89 44 24 08       	mov    %rax,0x8(%rsp)
  4015cb:	48 89 c7             	mov    %rax,%rdi
  4015ce:	31 f6                	xor    %esi,%esi
  4015d0:	e8 bb 16 00 00       	call   402c90 <_intel_fast_memset>
  4015d5:	48 c7 c0 fc ff ff ff 	mov    $0xfffffffffffffffc,%rax
  4015dc:	c4 e2 7d 19 05 23 8a 	vbroadcastsd 0x8a23(%rip),%ymm0        # 40a008 <_IO_stdin_used+0x8>
  4015e3:	00 00 
  4015e5:	c4 e2 7d 19 0d 22 8a 	vbroadcastsd 0x8a22(%rip),%ymm1        # 40a010 <_IO_stdin_used+0x10>
  4015ec:	00 00 
  4015ee:	66 90                	xchg   %ax,%ax
  4015f0:	c5 fd 11 44 c3 20    	vmovupd %ymm0,0x20(%rbx,%rax,8)
  4015f6:	c4 c1 7d 11 4c c6 20 	vmovupd %ymm1,0x20(%r14,%rax,8)
  4015fd:	c5 fd 11 44 c3 40    	vmovupd %ymm0,0x40(%rbx,%rax,8)
  401603:	c4 c1 7d 11 4c c6 40 	vmovupd %ymm1,0x40(%r14,%rax,8)
  40160a:	c5 fd 11 44 c3 60    	vmovupd %ymm0,0x60(%rbx,%rax,8)
  401610:	c4 c1 7d 11 4c c6 60 	vmovupd %ymm1,0x60(%r14,%rax,8)
  401617:	c5 fd 11 84 c3 80 00 	vmovupd %ymm0,0x80(%rbx,%rax,8)
  40161e:	00 00 
  401620:	c4 c1 7d 11 8c c6 80 	vmovupd %ymm1,0x80(%r14,%rax,8)
  401627:	00 00 00 
  40162a:	c5 fd 11 84 c3 a0 00 	vmovupd %ymm0,0xa0(%rbx,%rax,8)
  401631:	00 00 
  401633:	c4 c1 7d 11 8c c6 a0 	vmovupd %ymm1,0xa0(%r14,%rax,8)
  40163a:	00 00 00 
  40163d:	c5 fd 11 84 c3 c0 00 	vmovupd %ymm0,0xc0(%rbx,%rax,8)
  401644:	00 00 
  401646:	c4 c1 7d 11 8c c6 c0 	vmovupd %ymm1,0xc0(%r14,%rax,8)
  40164d:	00 00 00 
  401650:	c5 fd 11 84 c3 e0 00 	vmovupd %ymm0,0xe0(%rbx,%rax,8)
  401657:	00 00 
  401659:	c4 c1 7d 11 8c c6 e0 	vmovupd %ymm1,0xe0(%r14,%rax,8)
  401660:	00 00 00 
  401663:	c5 fd 11 84 c3 00 01 	vmovupd %ymm0,0x100(%rbx,%rax,8)
  40166a:	00 00 
  40166c:	c4 c1 7d 11 8c c6 00 	vmovupd %ymm1,0x100(%r14,%rax,8)
  401673:	01 00 00 
  401676:	48 83 c0 20          	add    $0x20,%rax
  40167a:	48 3d fc ff 0f 00    	cmp    $0xffffc,%rax
  401680:	0f 82 6a ff ff ff    	jb     4015f0 <main+0xa0>
  401686:	48 8d b4 24 70 04 00 	lea    0x470(%rsp),%rsi
  40168d:	00 
  40168e:	bf 01 00 00 00       	mov    $0x1,%edi
  401693:	c5 f8 77             	vzeroupper
  401696:	e8 a5 f9 ff ff       	call   401040 <clock_gettime@plt>
  40169b:	48 8b 44 24 08       	mov    0x8(%rsp),%rax
  4016a0:	48 05 00 60 00 00    	add    $0x6000,%rax
  4016a6:	4c 89 b4 24 68 02 00 	mov    %r14,0x268(%rsp)
  4016ad:	00 
  4016ae:	49 81 c6 00 60 00 00 	add    $0x6000,%r14
  4016b5:	4c 89 74 24 10       	mov    %r14,0x10(%rsp)
  4016ba:	31 c9                	xor    %ecx,%ecx
  4016bc:	0f 1f 40 00          	nopl   0x0(%rax)
  4016c0:	48 89 4c 24 20       	mov    %rcx,0x20(%rsp)
  4016c5:	48 89 ce             	mov    %rcx,%rsi
  4016c8:	48 c1 e6 10          	shl    $0x10,%rsi
  4016cc:	48 8b 4c 24 10       	mov    0x10(%rsp),%rcx
  4016d1:	45 31 c0             	xor    %r8d,%r8d
  4016d4:	66 66 66 2e 0f 1f 84 	data16 data16 cs nopw 0x0(%rax,%rax,1)
  4016db:	00 00 00 00 00 
  4016e0:	4d 89 c1             	mov    %r8,%r9
  4016e3:	49 c1 e1 06          	shl    $0x6,%r9
  4016e7:	49 01 f1             	add    %rsi,%r9
  4016ea:	48 89 cf             	mov    %rcx,%rdi
  4016ed:	49 89 c3             	mov    %rax,%r11
  4016f0:	45 31 ff             	xor    %r15d,%r15d
  4016f3:	66 66 66 66 2e 0f 1f 	data16 data16 data16 cs nopw 0x0(%rax,%rax,1)
  4016fa:	84 00 00 00 00 00 
  401700:	4d 89 dc             	mov    %r11,%r12
  401703:	45 31 ed             	xor    %r13d,%r13d
  401706:	66 2e 0f 1f 84 00 00 	cs nopw 0x0(%rax,%rax,1)
  40170d:	00 00 00 
  401710:	4c 89 ed             	mov    %r13,%rbp
  401713:	48 c1 e5 0c          	shl    $0xc,%rbp
  401717:	4c 01 cd             	add    %r9,%rbp
  40171a:	49 89 fa             	mov    %rdi,%r10
  40171d:	45 31 f6             	xor    %r14d,%r14d
  401720:	4a 8d 54 b5 00       	lea    0x0(%rbp,%r14,4),%rdx
  401725:	c4 e2 7d 19 04 d3    	vbroadcastsd (%rbx,%rdx,8),%ymm0
  40172b:	c5 fc 11 84 24 40 02 	vmovups %ymm0,0x240(%rsp)
  401732:	00 00 
  401734:	c4 e2 7d 19 84 d3 00 	vbroadcastsd 0x2000(%rbx,%rdx,8),%ymm0
  40173b:	20 00 00 
  40173e:	c5 fc 11 84 24 20 02 	vmovups %ymm0,0x220(%rsp)
  401745:	00 00 
  401747:	c4 e2 7d 19 84 d3 00 	vbroadcastsd 0x4000(%rbx,%rdx,8),%ymm0
  40174e:	40 00 00 
  401751:	c5 fc 11 44 24 50    	vmovups %ymm0,0x50(%rsp)
  401757:	c4 e2 7d 19 84 d3 00 	vbroadcastsd 0x6000(%rbx,%rdx,8),%ymm0
  40175e:	60 00 00 
  401761:	c5 fc 11 44 24 30    	vmovups %ymm0,0x30(%rsp)
  401767:	c4 e2 7d 19 44 d3 08 	vbroadcastsd 0x8(%rbx,%rdx,8),%ymm0
  40176e:	c5 fc 11 84 24 00 02 	vmovups %ymm0,0x200(%rsp)
  401775:	00 00 
  401777:	c4 e2 7d 19 ac d3 08 	vbroadcastsd 0x2008(%rbx,%rdx,8),%ymm5
  40177e:	20 00 00 
  401781:	c4 e2 7d 19 b4 d3 08 	vbroadcastsd 0x4008(%rbx,%rdx,8),%ymm6
  401788:	40 00 00 
  40178b:	c4 e2 7d 19 bc d3 08 	vbroadcastsd 0x6008(%rbx,%rdx,8),%ymm7
  401792:	60 00 00 
  401795:	c4 62 7d 19 44 d3 10 	vbroadcastsd 0x10(%rbx,%rdx,8),%ymm8
  40179c:	c4 62 7d 19 8c d3 10 	vbroadcastsd 0x2010(%rbx,%rdx,8),%ymm9
  4017a3:	20 00 00 
  4017a6:	c4 62 7d 19 94 d3 10 	vbroadcastsd 0x4010(%rbx,%rdx,8),%ymm10
  4017ad:	40 00 00 
  4017b0:	c4 62 7d 19 9c d3 10 	vbroadcastsd 0x6010(%rbx,%rdx,8),%ymm11
  4017b7:	60 00 00 
  4017ba:	c4 62 7d 19 64 d3 18 	vbroadcastsd 0x18(%rbx,%rdx,8),%ymm12
  4017c1:	c4 62 7d 19 ac d3 18 	vbroadcastsd 0x2018(%rbx,%rdx,8),%ymm13
  4017c8:	20 00 00 
  4017cb:	c4 62 7d 19 b4 d3 18 	vbroadcastsd 0x4018(%rbx,%rdx,8),%ymm14
  4017d2:	40 00 00 
  4017d5:	c4 62 7d 19 bc d3 18 	vbroadcastsd 0x6018(%rbx,%rdx,8),%ymm15
  4017dc:	60 00 00 
  4017df:	48 c7 c2 fc ff ff ff 	mov    $0xfffffffffffffffc,%rdx
  4017e6:	66 2e 0f 1f 84 00 00 	cs nopw 0x0(%rax,%rax,1)
  4017ed:	00 00 00 
  4017f0:	c4 c1 7d 10 84 d2 20 	vmovupd -0x5fe0(%r10,%rdx,8),%ymm0
  4017f7:	a0 ff ff 
  4017fa:	c4 c1 7d 10 8c d4 20 	vmovupd -0x5fe0(%r12,%rdx,8),%ymm1
  401801:	a0 ff ff 
  401804:	c4 e2 fd b8 8c 24 40 	vfmadd231pd 0x240(%rsp),%ymm0,%ymm1
  40180b:	02 00 00 
  40180e:	c4 c1 7d 10 94 d4 20 	vmovupd -0x3fe0(%r12,%rdx,8),%ymm2
  401815:	c0 ff ff 
  401818:	c4 e2 fd b8 94 24 20 	vfmadd231pd 0x220(%rsp),%ymm0,%ymm2
  40181f:	02 00 00 
  401822:	c4 c1 7d 10 9c d4 20 	vmovupd -0x1fe0(%r12,%rdx,8),%ymm3
  401829:	e0 ff ff 
  40182c:	c4 e2 fd b8 5c 24 50 	vfmadd231pd 0x50(%rsp),%ymm0,%ymm3
  401833:	c5 fd 10 64 24 30    	vmovupd 0x30(%rsp),%ymm4
  401839:	c4 c2 dd a8 44 d4 20 	vfmadd213pd 0x20(%r12,%rdx,8),%ymm4,%ymm0
  401840:	c4 c1 7d 10 a4 d2 20 	vmovupd -0x3fe0(%r10,%rdx,8),%ymm4
  401847:	c0 ff ff 
  40184a:	c4 e2 dd b8 8c 24 00 	vfmadd231pd 0x200(%rsp),%ymm4,%ymm1
  401851:	02 00 00 
  401854:	c4 e2 dd b8 d5       	vfmadd231pd %ymm5,%ymm4,%ymm2
  401859:	c4 e2 dd b8 de       	vfmadd231pd %ymm6,%ymm4,%ymm3
  40185e:	c4 e2 c5 b8 c4       	vfmadd231pd %ymm4,%ymm7,%ymm0
  401863:	c4 c1 7d 10 a4 d2 20 	vmovupd -0x1fe0(%r10,%rdx,8),%ymm4
  40186a:	e0 ff ff 
  40186d:	c4 c2 dd b8 c8       	vfmadd231pd %ymm8,%ymm4,%ymm1
  401872:	c4 c2 dd b8 d1       	vfmadd231pd %ymm9,%ymm4,%ymm2
  401877:	c4 c2 dd b8 da       	vfmadd231pd %ymm10,%ymm4,%ymm3
  40187c:	c4 e2 a5 b8 c4       	vfmadd231pd %ymm4,%ymm11,%ymm0
  401881:	c4 c1 7d 10 64 d2 20 	vmovupd 0x20(%r10,%rdx,8),%ymm4
  401888:	c4 c2 dd b8 cc       	vfmadd231pd %ymm12,%ymm4,%ymm1
  40188d:	c4 c1 7d 11 8c d4 20 	vmovupd %ymm1,-0x5fe0(%r12,%rdx,8)
  401894:	a0 ff ff 
  401897:	c4 c2 dd b8 d5       	vfmadd231pd %ymm13,%ymm4,%ymm2
  40189c:	c4 c1 7d 11 94 d4 20 	vmovupd %ymm2,-0x3fe0(%r12,%rdx,8)
  4018a3:	c0 ff ff 
  4018a6:	c4 c2 dd b8 de       	vfmadd231pd %ymm14,%ymm4,%ymm3
  4018ab:	c4 c1 7d 11 9c d4 20 	vmovupd %ymm3,-0x1fe0(%r12,%rdx,8)
  4018b2:	e0 ff ff 
  4018b5:	c4 e2 85 b8 c4       	vfmadd231pd %ymm4,%ymm15,%ymm0
  4018ba:	c4 c1 7d 11 44 d4 20 	vmovupd %ymm0,0x20(%r12,%rdx,8)
  4018c1:	48 83 c2 04          	add    $0x4,%rdx
  4018c5:	48 83 fa 3c          	cmp    $0x3c,%rdx
  4018c9:	0f 82 21 ff ff ff    	jb     4017f0 <main+0x2a0>
  4018cf:	49 8d 56 01          	lea    0x1(%r14),%rdx
  4018d3:	49 81 c2 00 80 00 00 	add    $0x8000,%r10
  4018da:	49 83 fe 0f          	cmp    $0xf,%r14
  4018de:	49 89 d6             	mov    %rdx,%r14
  4018e1:	0f 85 39 fe ff ff    	jne    401720 <main+0x1d0>
  4018e7:	49 8d 55 01          	lea    0x1(%r13),%rdx
  4018eb:	49 81 c4 00 80 00 00 	add    $0x8000,%r12
  4018f2:	49 83 fd 0f          	cmp    $0xf,%r13
  4018f6:	49 89 d5             	mov    %rdx,%r13
  4018f9:	0f 85 11 fe ff ff    	jne    401710 <main+0x1c0>
  4018ff:	49 8d 57 01          	lea    0x1(%r15),%rdx
  401903:	49 81 c3 00 02 00 00 	add    $0x200,%r11
  40190a:	48 81 c7 00 02 00 00 	add    $0x200,%rdi
  401911:	49 83 ff 0f          	cmp    $0xf,%r15
  401915:	49 89 d7             	mov    %rdx,%r15
  401918:	0f 85 e2 fd ff ff    	jne    401700 <main+0x1b0>
  40191e:	49 8d 50 01          	lea    0x1(%r8),%rdx
  401922:	48 81 c1 00 00 08 00 	add    $0x80000,%rcx
  401929:	49 83 f8 0f          	cmp    $0xf,%r8
  40192d:	49 89 d0             	mov    %rdx,%r8
  401930:	0f 85 aa fd ff ff    	jne    4016e0 <main+0x190>
  401936:	48 8b 54 24 20       	mov    0x20(%rsp),%rdx
  40193b:	48 8d 4a 01          	lea    0x1(%rdx),%rcx
  40193f:	48 05 00 00 08 00    	add    $0x80000,%rax
  401945:	48 83 fa 0f          	cmp    $0xf,%rdx
  401949:	0f 85 71 fd ff ff    	jne    4016c0 <main+0x170>
  40194f:	48 8d b4 24 60 04 00 	lea    0x460(%rsp),%rsi
  401956:	00 
  401957:	bf 01 00 00 00       	mov    $0x1,%edi
  40195c:	c5 f8 77             	vzeroupper
  40195f:	e8 dc f6 ff ff       	call   401040 <clock_gettime@plt>
  401964:	48 8b 3d 95 b7 00 00 	mov    0xb795(%rip),%rdi        # 40d100 <stderr@GLIBC_2.2.5>
  40196b:	c5 fa 6f 84 24 60 04 	vmovdqu 0x460(%rsp),%xmm0
  401972:	00 00 
  401974:	c5 f9 fb 84 24 70 04 	vpsubq 0x470(%rsp),%xmm0,%xmm0
  40197b:	00 00 
  40197d:	c4 e3 f9 16 c0 01    	vpextrq $0x1,%xmm0,%rax
  401983:	48 8d 88 00 ca 9a 3b 	lea    0x3b9aca00(%rax),%rcx
  40198a:	48 89 c2             	mov    %rax,%rdx
  40198d:	48 c1 fa 3f          	sar    $0x3f,%rdx
  401991:	c4 e1 f9 7e c6       	vmovq  %xmm0,%rsi
  401996:	48 01 d6             	add    %rdx,%rsi
  401999:	48 85 c0             	test   %rax,%rax
  40199c:	48 0f 49 c8          	cmovns %rax,%rcx
  4019a0:	c5 d0 57 ed          	vxorps %xmm5,%xmm5,%xmm5
  4019a4:	c4 e1 d3 2a ce       	vcvtsi2sd %rsi,%xmm5,%xmm1
  4019a9:	c5 d0 57 ed          	vxorps %xmm5,%xmm5,%xmm5
  4019ad:	c4 e1 d3 2a c1       	vcvtsi2sd %rcx,%xmm5,%xmm0
  4019b2:	c4 e2 f1 99 05 5d 86 	vfmadd132sd 0x865d(%rip),%xmm1,%xmm0        # 40a018 <_IO_stdin_used+0x18>
  4019b9:	00 00 
  4019bb:	be 20 a0 40 00       	mov    $0x40a020,%esi
  4019c0:	b0 01                	mov    $0x1,%al
  4019c2:	e8 89 f7 ff ff       	call   401150 <fprintf@plt>
  4019c7:	bf 2e a0 40 00       	mov    $0x40a02e,%edi
  4019cc:	be dd a1 40 00       	mov    $0x40a1dd,%esi
  4019d1:	e8 ba f6 ff ff       	call   401090 <fopen@plt>
  4019d6:	48 85 c0             	test   %rax,%rax
  4019d9:	0f 84 61 12 00 00    	je     402c40 <main+0x16f0>
  4019df:	4c 8b 64 24 08       	mov    0x8(%rsp),%r12
  4019e4:	c4 c1 7b 10 04 24    	vmovsd (%r12),%xmm0
  4019ea:	c5 f8 11 84 24 40 02 	vmovups %xmm0,0x240(%rsp)
  4019f1:	00 00 
  4019f3:	be 3a a0 40 00       	mov    $0x40a03a,%esi
  4019f8:	49 89 c7             	mov    %rax,%r15
  4019fb:	48 89 c7             	mov    %rax,%rdi
  4019fe:	b0 01                	mov    $0x1,%al
  401a00:	e8 4b f7 ff ff       	call   401150 <fprintf@plt>
  401a05:	c4 c1 7b 10 44 24 08 	vmovsd 0x8(%r12),%xmm0
  401a0c:	c5 f8 11 84 24 20 02 	vmovups %xmm0,0x220(%rsp)
  401a13:	00 00 
  401a15:	be 3a a0 40 00       	mov    $0x40a03a,%esi
  401a1a:	4c 89 ff             	mov    %r15,%rdi
  401a1d:	b0 01                	mov    $0x1,%al
  401a1f:	e8 2c f7 ff ff       	call   401150 <fprintf@plt>
  401a24:	c4 c1 7b 10 44 24 10 	vmovsd 0x10(%r12),%xmm0
  401a2b:	c5 f8 11 44 24 50    	vmovups %xmm0,0x50(%rsp)
  401a31:	be 3a a0 40 00       	mov    $0x40a03a,%esi
  401a36:	4c 89 ff             	mov    %r15,%rdi
  401a39:	b0 01                	mov    $0x1,%al
  401a3b:	e8 10 f7 ff ff       	call   401150 <fprintf@plt>
  401a40:	c4 c1 7b 10 44 24 18 	vmovsd 0x18(%r12),%xmm0
  401a47:	c5 f8 11 44 24 30    	vmovups %xmm0,0x30(%rsp)
  401a4d:	be 3a a0 40 00       	mov    $0x40a03a,%esi
  401a52:	4c 89 ff             	mov    %r15,%rdi
  401a55:	b0 01                	mov    $0x1,%al
  401a57:	e8 f4 f6 ff ff       	call   401150 <fprintf@plt>
  401a5c:	c4 c1 7b 10 44 24 20 	vmovsd 0x20(%r12),%xmm0
  401a63:	c5 f8 11 84 24 f0 01 	vmovups %xmm0,0x1f0(%rsp)
  401a6a:	00 00 
  401a6c:	be 3a a0 40 00       	mov    $0x40a03a,%esi
  401a71:	4c 89 ff             	mov    %r15,%rdi
  401a74:	b0 01                	mov    $0x1,%al
  401a76:	e8 d5 f6 ff ff       	call   401150 <fprintf@plt>
  401a7b:	c4 c1 7b 10 44 24 28 	vmovsd 0x28(%r12),%xmm0
  401a82:	c5 f8 11 84 24 d0 01 	vmovups %xmm0,0x1d0(%rsp)
  401a89:	00 00 
  401a8b:	be 3a a0 40 00       	mov    $0x40a03a,%esi
  401a90:	4c 89 ff             	mov    %r15,%rdi
  401a93:	b0 01                	mov    $0x1,%al
  401a95:	e8 b6 f6 ff ff       	call   401150 <fprintf@plt>
  401a9a:	c4 c1 7b 10 44 24 30 	vmovsd 0x30(%r12),%xmm0
  401aa1:	c5 f8 11 84 24 c0 01 	vmovups %xmm0,0x1c0(%rsp)
  401aa8:	00 00 
  401aaa:	be 3a a0 40 00       	mov    $0x40a03a,%esi
  401aaf:	4c 89 ff             	mov    %r15,%rdi
  401ab2:	b0 01                	mov    $0x1,%al
  401ab4:	e8 97 f6 ff ff       	call   401150 <fprintf@plt>
  401ab9:	c4 c1 7b 10 44 24 38 	vmovsd 0x38(%r12),%xmm0
  401ac0:	c5 f8 11 84 24 b0 01 	vmovups %xmm0,0x1b0(%rsp)
  401ac7:	00 00 
  401ac9:	be 3a a0 40 00       	mov    $0x40a03a,%esi
  401ace:	4c 89 ff             	mov    %r15,%rdi
  401ad1:	b0 01                	mov    $0x1,%al
  401ad3:	e8 78 f6 ff ff       	call   401150 <fprintf@plt>
  401ad8:	c4 c1 7b 10 44 24 40 	vmovsd 0x40(%r12),%xmm0
  401adf:	c5 f8 11 84 24 00 02 	vmovups %xmm0,0x200(%rsp)
  401ae6:	00 00 
  401ae8:	be 3a a0 40 00       	mov    $0x40a03a,%esi
  401aed:	4c 89 ff             	mov    %r15,%rdi
  401af0:	b0 01                	mov    $0x1,%al
  401af2:	e8 59 f6 ff ff       	call   401150 <fprintf@plt>
  401af7:	c4 c1 7b 10 44 24 48 	vmovsd 0x48(%r12),%xmm0
  401afe:	c5 f8 11 44 24 20    	vmovups %xmm0,0x20(%rsp)
  401b04:	be 3a a0 40 00       	mov    $0x40a03a,%esi
  401b09:	4c 89 ff             	mov    %r15,%rdi
  401b0c:	b0 01                	mov    $0x1,%al
  401b0e:	e8 3d f6 ff ff       	call   401150 <fprintf@plt>
  401b13:	bf 0a 00 00 00       	mov    $0xa,%edi
  401b18:	4c 89 fe             	mov    %r15,%rsi
  401b1b:	e8 a0 f5 ff ff       	call   4010c0 <fputc@plt>
  401b20:	c4 c1 7b 10 84 24 00 	vmovsd 0x2000(%r12),%xmm0
  401b27:	20 00 00 
  401b2a:	c5 f8 11 44 24 10    	vmovups %xmm0,0x10(%rsp)
  401b30:	be 3a a0 40 00       	mov    $0x40a03a,%esi
  401b35:	4c 89 ff             	mov    %r15,%rdi
  401b38:	b0 01                	mov    $0x1,%al
  401b3a:	e8 11 f6 ff ff       	call   401150 <fprintf@plt>
  401b3f:	c4 c1 7b 10 84 24 08 	vmovsd 0x2008(%r12),%xmm0
  401b46:	20 00 00 
  401b49:	c5 f8 11 84 24 e0 01 	vmovups %xmm0,0x1e0(%rsp)
  401b50:	00 00 
  401b52:	be 3a a0 40 00       	mov    $0x40a03a,%esi
  401b57:	4c 89 ff             	mov    %r15,%rdi
  401b5a:	b0 01                	mov    $0x1,%al
  401b5c:	e8 ef f5 ff ff       	call   401150 <fprintf@plt>
  401b61:	c4 c1 7b 10 84 24 10 	vmovsd 0x2010(%r12),%xmm0
  401b68:	20 00 00 
  401b6b:	c5 f8 11 84 24 a0 01 	vmovups %xmm0,0x1a0(%rsp)
  401b72:	00 00 
  401b74:	be 3a a0 40 00       	mov    $0x40a03a,%esi
  401b79:	4c 89 ff             	mov    %r15,%rdi
  401b7c:	b0 01                	mov    $0x1,%al
  401b7e:	e8 cd f5 ff ff       	call   401150 <fprintf@plt>
  401b83:	c4 c1 7b 10 84 24 18 	vmovsd 0x2018(%r12),%xmm0
  401b8a:	20 00 00 
  401b8d:	c5 f8 11 84 24 90 01 	vmovups %xmm0,0x190(%rsp)
  401b94:	00 00 
  401b96:	be 3a a0 40 00       	mov    $0x40a03a,%esi
  401b9b:	4c 89 ff             	mov    %r15,%rdi
  401b9e:	b0 01                	mov    $0x1,%al
  401ba0:	e8 ab f5 ff ff       	call   401150 <fprintf@plt>
  401ba5:	c4 c1 7b 10 84 24 20 	vmovsd 0x2020(%r12),%xmm0
  401bac:	20 00 00 
  401baf:	c5 f8 11 84 24 80 01 	vmovups %xmm0,0x180(%rsp)
  401bb6:	00 00 
  401bb8:	be 3a a0 40 00       	mov    $0x40a03a,%esi
  401bbd:	4c 89 ff             	mov    %r15,%rdi
  401bc0:	b0 01                	mov    $0x1,%al
  401bc2:	e8 89 f5 ff ff       	call   401150 <fprintf@plt>
  401bc7:	c4 c1 7b 10 84 24 28 	vmovsd 0x2028(%r12),%xmm0
  401bce:	20 00 00 
  401bd1:	c5 f8 11 84 24 60 01 	vmovups %xmm0,0x160(%rsp)
  401bd8:	00 00 
  401bda:	be 3a a0 40 00       	mov    $0x40a03a,%esi
  401bdf:	4c 89 ff             	mov    %r15,%rdi
  401be2:	b0 01                	mov    $0x1,%al
  401be4:	e8 67 f5 ff ff       	call   401150 <fprintf@plt>
  401be9:	c4 c1 7b 10 84 24 30 	vmovsd 0x2030(%r12),%xmm0
  401bf0:	20 00 00 
  401bf3:	c5 f8 11 84 24 70 01 	vmovups %xmm0,0x170(%rsp)
  401bfa:	00 00 
  401bfc:	be 3a a0 40 00       	mov    $0x40a03a,%esi
  401c01:	4c 89 ff             	mov    %r15,%rdi
  401c04:	b0 01                	mov    $0x1,%al
  401c06:	e8 45 f5 ff ff       	call   401150 <fprintf@plt>
  401c0b:	c4 c1 7b 10 84 24 38 	vmovsd 0x2038(%r12),%xmm0
  401c12:	20 00 00 
  401c15:	c5 f8 11 84 24 50 01 	vmovups %xmm0,0x150(%rsp)
  401c1c:	00 00 
  401c1e:	be 3a a0 40 00       	mov    $0x40a03a,%esi
  401c23:	4c 89 ff             	mov    %r15,%rdi
  401c26:	b0 01                	mov    $0x1,%al
  401c28:	e8 23 f5 ff ff       	call   401150 <fprintf@plt>
  401c2d:	c4 c1 7b 10 84 24 40 	vmovsd 0x2040(%r12),%xmm0
  401c34:	20 00 00 
  401c37:	c5 f8 11 84 24 40 01 	vmovups %xmm0,0x140(%rsp)
  401c3e:	00 00 
  401c40:	be 3a a0 40 00       	mov    $0x40a03a,%esi
  401c45:	4c 89 ff             	mov    %r15,%rdi
  401c48:	b0 01                	mov    $0x1,%al
  401c4a:	e8 01 f5 ff ff       	call   401150 <fprintf@plt>
  401c4f:	c4 c1 7b 10 84 24 48 	vmovsd 0x2048(%r12),%xmm0
  401c56:	20 00 00 
  401c59:	c5 f8 11 84 24 30 01 	vmovups %xmm0,0x130(%rsp)
  401c60:	00 00 
  401c62:	be 3a a0 40 00       	mov    $0x40a03a,%esi
  401c67:	4c 89 ff             	mov    %r15,%rdi
  401c6a:	b0 01                	mov    $0x1,%al
  401c6c:	e8 df f4 ff ff       	call   401150 <fprintf@plt>
  401c71:	bf 0a 00 00 00       	mov    $0xa,%edi
  401c76:	4c 89 fe             	mov    %r15,%rsi
  401c79:	e8 42 f4 ff ff       	call   4010c0 <fputc@plt>
  401c7e:	c4 c1 7b 10 84 24 00 	vmovsd 0x4000(%r12),%xmm0
  401c85:	40 00 00 
  401c88:	c5 f8 11 84 24 e0 00 	vmovups %xmm0,0xe0(%rsp)
  401c8f:	00 00 
  401c91:	be 3a a0 40 00       	mov    $0x40a03a,%esi
  401c96:	4c 89 ff             	mov    %r15,%rdi
  401c99:	b0 01                	mov    $0x1,%al
  401c9b:	e8 b0 f4 ff ff       	call   401150 <fprintf@plt>
  401ca0:	c4 c1 7b 10 84 24 08 	vmovsd 0x4008(%r12),%xmm0
  401ca7:	40 00 00 
  401caa:	c5 f8 11 84 24 d0 00 	vmovups %xmm0,0xd0(%rsp)
  401cb1:	00 00 
  401cb3:	be 3a a0 40 00       	mov    $0x40a03a,%esi
  401cb8:	4c 89 ff             	mov    %r15,%rdi
  401cbb:	b0 01                	mov    $0x1,%al
  401cbd:	e8 8e f4 ff ff       	call   401150 <fprintf@plt>
  401cc2:	c4 c1 7b 10 84 24 10 	vmovsd 0x4010(%r12),%xmm0
  401cc9:	40 00 00 
  401ccc:	c5 f8 11 84 24 c0 00 	vmovups %xmm0,0xc0(%rsp)
  401cd3:	00 00 
  401cd5:	be 3a a0 40 00       	mov    $0x40a03a,%esi
  401cda:	4c 89 ff             	mov    %r15,%rdi
  401cdd:	b0 01                	mov    $0x1,%al
  401cdf:	e8 6c f4 ff ff       	call   401150 <fprintf@plt>
  401ce4:	c4 c1 7b 10 84 24 18 	vmovsd 0x4018(%r12),%xmm0
  401ceb:	40 00 00 
  401cee:	c5 f8 11 84 24 b0 00 	vmovups %xmm0,0xb0(%rsp)
  401cf5:	00 00 
  401cf7:	be 3a a0 40 00       	mov    $0x40a03a,%esi
  401cfc:	4c 89 ff             	mov    %r15,%rdi
  401cff:	b0 01                	mov    $0x1,%al
  401d01:	e8 4a f4 ff ff       	call   401150 <fprintf@plt>
  401d06:	c4 c1 7b 10 84 24 20 	vmovsd 0x4020(%r12),%xmm0
  401d0d:	40 00 00 
  401d10:	c5 f8 11 84 24 20 01 	vmovups %xmm0,0x120(%rsp)
  401d17:	00 00 
  401d19:	be 3a a0 40 00       	mov    $0x40a03a,%esi
  401d1e:	4c 89 ff             	mov    %r15,%rdi
  401d21:	b0 01                	mov    $0x1,%al
  401d23:	e8 28 f4 ff ff       	call   401150 <fprintf@plt>
  401d28:	c4 c1 7b 10 84 24 28 	vmovsd 0x4028(%r12),%xmm0
  401d2f:	40 00 00 
  401d32:	c5 f8 11 84 24 10 01 	vmovups %xmm0,0x110(%rsp)
  401d39:	00 00 
  401d3b:	be 3a a0 40 00       	mov    $0x40a03a,%esi
  401d40:	4c 89 ff             	mov    %r15,%rdi
  401d43:	b0 01                	mov    $0x1,%al
  401d45:	e8 06 f4 ff ff       	call   401150 <fprintf@plt>
  401d4a:	c4 c1 7b 10 84 24 30 	vmovsd 0x4030(%r12),%xmm0
  401d51:	40 00 00 
  401d54:	c5 f8 11 84 24 00 01 	vmovups %xmm0,0x100(%rsp)
  401d5b:	00 00 
  401d5d:	be 3a a0 40 00       	mov    $0x40a03a,%esi
  401d62:	4c 89 ff             	mov    %r15,%rdi
  401d65:	b0 01                	mov    $0x1,%al
  401d67:	e8 e4 f3 ff ff       	call   401150 <fprintf@plt>
  401d6c:	c4 c1 7b 10 84 24 38 	vmovsd 0x4038(%r12),%xmm0
  401d73:	40 00 00 
  401d76:	c5 f8 11 84 24 f0 00 	vmovups %xmm0,0xf0(%rsp)
  401d7d:	00 00 
  401d7f:	be 3a a0 40 00       	mov    $0x40a03a,%esi
  401d84:	4c 89 ff             	mov    %r15,%rdi
  401d87:	b0 01                	mov    $0x1,%al
  401d89:	e8 c2 f3 ff ff       	call   401150 <fprintf@plt>
  401d8e:	c4 c1 7b 10 84 24 40 	vmovsd 0x4040(%r12),%xmm0
  401d95:	40 00 00 
  401d98:	c5 f8 11 84 24 a0 00 	vmovups %xmm0,0xa0(%rsp)
  401d9f:	00 00 
  401da1:	be 3a a0 40 00       	mov    $0x40a03a,%esi
  401da6:	4c 89 ff             	mov    %r15,%rdi
  401da9:	b0 01                	mov    $0x1,%al
  401dab:	e8 a0 f3 ff ff       	call   401150 <fprintf@plt>
  401db0:	c4 c1 7b 10 84 24 48 	vmovsd 0x4048(%r12),%xmm0
  401db7:	40 00 00 
  401dba:	c5 f8 11 84 24 80 00 	vmovups %xmm0,0x80(%rsp)
  401dc1:	00 00 
  401dc3:	be 3a a0 40 00       	mov    $0x40a03a,%esi
  401dc8:	4c 89 ff             	mov    %r15,%rdi
  401dcb:	b0 01                	mov    $0x1,%al
  401dcd:	e8 7e f3 ff ff       	call   401150 <fprintf@plt>
  401dd2:	bf 0a 00 00 00       	mov    $0xa,%edi
  401dd7:	4c 89 fe             	mov    %r15,%rsi
  401dda:	e8 e1 f2 ff ff       	call   4010c0 <fputc@plt>
  401ddf:	c4 c1 7b 10 84 24 00 	vmovsd 0x6000(%r12),%xmm0
  401de6:	60 00 00 
  401de9:	c5 f8 11 84 24 40 04 	vmovups %xmm0,0x440(%rsp)
  401df0:	00 00 
  401df2:	be 3a a0 40 00       	mov    $0x40a03a,%esi
  401df7:	4c 89 ff             	mov    %r15,%rdi
  401dfa:	b0 01                	mov    $0x1,%al
  401dfc:	e8 4f f3 ff ff       	call   401150 <fprintf@plt>
  401e01:	c4 c1 7b 10 84 24 08 	vmovsd 0x6008(%r12),%xmm0
  401e08:	60 00 00 
  401e0b:	c5 f8 11 84 24 20 04 	vmovups %xmm0,0x420(%rsp)
  401e12:	00 00 
  401e14:	be 3a a0 40 00       	mov    $0x40a03a,%esi
  401e19:	4c 89 ff             	mov    %r15,%rdi
  401e1c:	b0 01                	mov    $0x1,%al
  401e1e:	e8 2d f3 ff ff       	call   401150 <fprintf@plt>
  401e23:	c4 c1 7b 10 84 24 10 	vmovsd 0x6010(%r12),%xmm0
  401e2a:	60 00 00 
  401e2d:	c5 f8 11 84 24 90 00 	vmovups %xmm0,0x90(%rsp)
  401e34:	00 00 
  401e36:	be 3a a0 40 00       	mov    $0x40a03a,%esi
  401e3b:	4c 89 ff             	mov    %r15,%rdi
  401e3e:	b0 01                	mov    $0x1,%al
  401e40:	e8 0b f3 ff ff       	call   401150 <fprintf@plt>
  401e45:	c4 c1 7b 10 84 24 18 	vmovsd 0x6018(%r12),%xmm0
  401e4c:	60 00 00 
  401e4f:	c5 f8 11 44 24 70    	vmovups %xmm0,0x70(%rsp)
  401e55:	be 3a a0 40 00       	mov    $0x40a03a,%esi
  401e5a:	4c 89 ff             	mov    %r15,%rdi
  401e5d:	b0 01                	mov    $0x1,%al
  401e5f:	e8 ec f2 ff ff       	call   401150 <fprintf@plt>
  401e64:	c4 c1 7b 10 84 24 20 	vmovsd 0x6020(%r12),%xmm0
  401e6b:	60 00 00 
  401e6e:	c5 f8 11 84 24 50 04 	vmovups %xmm0,0x450(%rsp)
  401e75:	00 00 
  401e77:	be 3a a0 40 00       	mov    $0x40a03a,%esi
  401e7c:	4c 89 ff             	mov    %r15,%rdi
  401e7f:	b0 01                	mov    $0x1,%al
  401e81:	e8 ca f2 ff ff       	call   401150 <fprintf@plt>
  401e86:	c4 c1 7b 10 84 24 28 	vmovsd 0x6028(%r12),%xmm0
  401e8d:	60 00 00 
  401e90:	c5 f8 11 84 24 30 04 	vmovups %xmm0,0x430(%rsp)
  401e97:	00 00 
  401e99:	be 3a a0 40 00       	mov    $0x40a03a,%esi
  401e9e:	4c 89 ff             	mov    %r15,%rdi
  401ea1:	b0 01                	mov    $0x1,%al
  401ea3:	e8 a8 f2 ff ff       	call   401150 <fprintf@plt>
  401ea8:	c4 c1 7b 10 84 24 30 	vmovsd 0x6030(%r12),%xmm0
  401eaf:	60 00 00 
  401eb2:	c5 f8 11 84 24 e0 03 	vmovups %xmm0,0x3e0(%rsp)
  401eb9:	00 00 
  401ebb:	be 3a a0 40 00       	mov    $0x40a03a,%esi
  401ec0:	4c 89 ff             	mov    %r15,%rdi
  401ec3:	b0 01                	mov    $0x1,%al
  401ec5:	e8 86 f2 ff ff       	call   401150 <fprintf@plt>
  401eca:	c4 c1 7b 10 84 24 38 	vmovsd 0x6038(%r12),%xmm0
  401ed1:	60 00 00 
  401ed4:	c5 f8 11 84 24 c0 03 	vmovups %xmm0,0x3c0(%rsp)
  401edb:	00 00 
  401edd:	be 3a a0 40 00       	mov    $0x40a03a,%esi
  401ee2:	4c 89 ff             	mov    %r15,%rdi
  401ee5:	b0 01                	mov    $0x1,%al
  401ee7:	e8 64 f2 ff ff       	call   401150 <fprintf@plt>
  401eec:	c4 c1 7b 10 84 24 40 	vmovsd 0x6040(%r12),%xmm0
  401ef3:	60 00 00 
  401ef6:	c5 f8 11 84 24 b0 03 	vmovups %xmm0,0x3b0(%rsp)
  401efd:	00 00 
  401eff:	be 3a a0 40 00       	mov    $0x40a03a,%esi
  401f04:	4c 89 ff             	mov    %r15,%rdi
  401f07:	b0 01                	mov    $0x1,%al
  401f09:	e8 42 f2 ff ff       	call   401150 <fprintf@plt>
  401f0e:	c4 c1 7b 10 84 24 48 	vmovsd 0x6048(%r12),%xmm0
  401f15:	60 00 00 
  401f18:	c5 f8 11 84 24 a0 03 	vmovups %xmm0,0x3a0(%rsp)
  401f1f:	00 00 
  401f21:	be 3a a0 40 00       	mov    $0x40a03a,%esi
  401f26:	4c 89 ff             	mov    %r15,%rdi
  401f29:	b0 01                	mov    $0x1,%al
  401f2b:	e8 20 f2 ff ff       	call   401150 <fprintf@plt>
  401f30:	bf 0a 00 00 00       	mov    $0xa,%edi
  401f35:	4c 89 fe             	mov    %r15,%rsi
  401f38:	e8 83 f1 ff ff       	call   4010c0 <fputc@plt>
  401f3d:	c4 c1 7b 10 84 24 00 	vmovsd 0x8000(%r12),%xmm0
  401f44:	80 00 00 
  401f47:	c5 f8 11 84 24 10 04 	vmovups %xmm0,0x410(%rsp)
  401f4e:	00 00 
  401f50:	be 3a a0 40 00       	mov    $0x40a03a,%esi
  401f55:	4c 89 ff             	mov    %r15,%rdi
  401f58:	b0 01                	mov    $0x1,%al
  401f5a:	e8 f1 f1 ff ff       	call   401150 <fprintf@plt>
  401f5f:	c4 c1 7b 10 84 24 08 	vmovsd 0x8008(%r12),%xmm0
  401f66:	80 00 00 
  401f69:	c5 f8 11 84 24 00 04 	vmovups %xmm0,0x400(%rsp)
  401f70:	00 00 
  401f72:	be 3a a0 40 00       	mov    $0x40a03a,%esi
  401f77:	4c 89 ff             	mov    %r15,%rdi
  401f7a:	b0 01                	mov    $0x1,%al
  401f7c:	e8 cf f1 ff ff       	call   401150 <fprintf@plt>
  401f81:	c4 c1 7b 10 84 24 10 	vmovsd 0x8010(%r12),%xmm0
  401f88:	80 00 00 
  401f8b:	c5 f8 11 84 24 f0 03 	vmovups %xmm0,0x3f0(%rsp)
  401f92:	00 00 
  401f94:	be 3a a0 40 00       	mov    $0x40a03a,%esi
  401f99:	4c 89 ff             	mov    %r15,%rdi
  401f9c:	b0 01                	mov    $0x1,%al
  401f9e:	e8 ad f1 ff ff       	call   401150 <fprintf@plt>
  401fa3:	c4 c1 7b 10 84 24 18 	vmovsd 0x8018(%r12),%xmm0
  401faa:	80 00 00 
  401fad:	c5 f8 11 84 24 d0 03 	vmovups %xmm0,0x3d0(%rsp)
  401fb4:	00 00 
  401fb6:	be 3a a0 40 00       	mov    $0x40a03a,%esi
  401fbb:	4c 89 ff             	mov    %r15,%rdi
  401fbe:	b0 01                	mov    $0x1,%al
  401fc0:	e8 8b f1 ff ff       	call   401150 <fprintf@plt>
  401fc5:	c4 c1 7b 10 84 24 20 	vmovsd 0x8020(%r12),%xmm0
  401fcc:	80 00 00 
  401fcf:	c5 f8 11 84 24 90 03 	vmovups %xmm0,0x390(%rsp)
  401fd6:	00 00 
  401fd8:	be 3a a0 40 00       	mov    $0x40a03a,%esi
  401fdd:	4c 89 ff             	mov    %r15,%rdi
  401fe0:	b0 01                	mov    $0x1,%al
  401fe2:	e8 69 f1 ff ff       	call   401150 <fprintf@plt>
  401fe7:	c4 c1 7b 10 84 24 28 	vmovsd 0x8028(%r12),%xmm0
  401fee:	80 00 00 
  401ff1:	c5 f8 11 84 24 80 03 	vmovups %xmm0,0x380(%rsp)
  401ff8:	00 00 
  401ffa:	be 3a a0 40 00       	mov    $0x40a03a,%esi
  401fff:	4c 89 ff             	mov    %r15,%rdi
  402002:	b0 01                	mov    $0x1,%al
  402004:	e8 47 f1 ff ff       	call   401150 <fprintf@plt>
  402009:	c4 c1 7b 10 84 24 30 	vmovsd 0x8030(%r12),%xmm0
  402010:	80 00 00 
  402013:	c5 f8 11 84 24 70 03 	vmovups %xmm0,0x370(%rsp)
  40201a:	00 00 
  40201c:	be 3a a0 40 00       	mov    $0x40a03a,%esi
  402021:	4c 89 ff             	mov    %r15,%rdi
  402024:	b0 01                	mov    $0x1,%al
  402026:	e8 25 f1 ff ff       	call   401150 <fprintf@plt>
  40202b:	c4 c1 7b 10 84 24 38 	vmovsd 0x8038(%r12),%xmm0
  402032:	80 00 00 
  402035:	c5 f8 11 84 24 50 03 	vmovups %xmm0,0x350(%rsp)
  40203c:	00 00 
  40203e:	be 3a a0 40 00       	mov    $0x40a03a,%esi
  402043:	4c 89 ff             	mov    %r15,%rdi
  402046:	b0 01                	mov    $0x1,%al
  402048:	e8 03 f1 ff ff       	call   401150 <fprintf@plt>
  40204d:	c4 c1 7b 10 84 24 40 	vmovsd 0x8040(%r12),%xmm0
  402054:	80 00 00 
  402057:	c5 f8 11 84 24 60 03 	vmovups %xmm0,0x360(%rsp)
  40205e:	00 00 
  402060:	be 3a a0 40 00       	mov    $0x40a03a,%esi
  402065:	4c 89 ff             	mov    %r15,%rdi
  402068:	b0 01                	mov    $0x1,%al
  40206a:	e8 e1 f0 ff ff       	call   401150 <fprintf@plt>
  40206f:	c4 c1 7b 10 84 24 48 	vmovsd 0x8048(%r12),%xmm0
  402076:	80 00 00 
  402079:	c5 f8 11 84 24 40 03 	vmovups %xmm0,0x340(%rsp)
  402080:	00 00 
  402082:	be 3a a0 40 00       	mov    $0x40a03a,%esi
  402087:	4c 89 ff             	mov    %r15,%rdi
  40208a:	b0 01                	mov    $0x1,%al
  40208c:	e8 bf f0 ff ff       	call   401150 <fprintf@plt>
  402091:	bf 0a 00 00 00       	mov    $0xa,%edi
  402096:	4c 89 fe             	mov    %r15,%rsi
  402099:	e8 22 f0 ff ff       	call   4010c0 <fputc@plt>
  40209e:	c4 c1 7b 10 84 24 00 	vmovsd 0xa000(%r12),%xmm0
  4020a5:	a0 00 00 
  4020a8:	c5 f8 11 84 24 30 03 	vmovups %xmm0,0x330(%rsp)
  4020af:	00 00 
  4020b1:	be 3a a0 40 00       	mov    $0x40a03a,%esi
  4020b6:	4c 89 ff             	mov    %r15,%rdi
  4020b9:	b0 01                	mov    $0x1,%al
  4020bb:	e8 90 f0 ff ff       	call   401150 <fprintf@plt>
  4020c0:	c4 c1 7b 10 84 24 08 	vmovsd 0xa008(%r12),%xmm0
  4020c7:	a0 00 00 
  4020ca:	c5 f8 11 84 24 20 03 	vmovups %xmm0,0x320(%rsp)
  4020d1:	00 00 
  4020d3:	be 3a a0 40 00       	mov    $0x40a03a,%esi
  4020d8:	4c 89 ff             	mov    %r15,%rdi
  4020db:	b0 01                	mov    $0x1,%al
  4020dd:	e8 6e f0 ff ff       	call   401150 <fprintf@plt>
  4020e2:	c4 c1 7b 10 84 24 10 	vmovsd 0xa010(%r12),%xmm0
  4020e9:	a0 00 00 
  4020ec:	c5 f8 11 84 24 d0 02 	vmovups %xmm0,0x2d0(%rsp)
  4020f3:	00 00 
  4020f5:	be 3a a0 40 00       	mov    $0x40a03a,%esi
  4020fa:	4c 89 ff             	mov    %r15,%rdi
  4020fd:	b0 01                	mov    $0x1,%al
  4020ff:	e8 4c f0 ff ff       	call   401150 <fprintf@plt>
  402104:	c4 c1 7b 10 84 24 18 	vmovsd 0xa018(%r12),%xmm0
  40210b:	a0 00 00 
  40210e:	c5 f8 11 84 24 c0 02 	vmovups %xmm0,0x2c0(%rsp)
  402115:	00 00 
  402117:	be 3a a0 40 00       	mov    $0x40a03a,%esi
  40211c:	4c 89 ff             	mov    %r15,%rdi
  40211f:	b0 01                	mov    $0x1,%al
  402121:	e8 2a f0 ff ff       	call   401150 <fprintf@plt>
  402126:	c4 c1 7b 10 84 24 20 	vmovsd 0xa020(%r12),%xmm0
  40212d:	a0 00 00 
  402130:	c5 f8 11 84 24 b0 02 	vmovups %xmm0,0x2b0(%rsp)
  402137:	00 00 
  402139:	be 3a a0 40 00       	mov    $0x40a03a,%esi
  40213e:	4c 89 ff             	mov    %r15,%rdi
  402141:	b0 01                	mov    $0x1,%al
  402143:	e8 08 f0 ff ff       	call   401150 <fprintf@plt>
  402148:	c4 c1 7b 10 84 24 28 	vmovsd 0xa028(%r12),%xmm0
  40214f:	a0 00 00 
  402152:	c5 f8 11 84 24 a0 02 	vmovups %xmm0,0x2a0(%rsp)
  402159:	00 00 
  40215b:	be 3a a0 40 00       	mov    $0x40a03a,%esi
  402160:	4c 89 ff             	mov    %r15,%rdi
  402163:	b0 01                	mov    $0x1,%al
  402165:	e8 e6 ef ff ff       	call   401150 <fprintf@plt>
  40216a:	c4 c1 7b 10 84 24 30 	vmovsd 0xa030(%r12),%xmm0
  402171:	a0 00 00 
  402174:	c5 f8 11 84 24 10 03 	vmovups %xmm0,0x310(%rsp)
  40217b:	00 00 
  40217d:	be 3a a0 40 00       	mov    $0x40a03a,%esi
  402182:	4c 89 ff             	mov    %r15,%rdi
  402185:	b0 01                	mov    $0x1,%al
  402187:	e8 c4 ef ff ff       	call   401150 <fprintf@plt>
  40218c:	c4 c1 7b 10 84 24 38 	vmovsd 0xa038(%r12),%xmm0
  402193:	a0 00 00 
  402196:	c5 f8 11 84 24 00 03 	vmovups %xmm0,0x300(%rsp)
  40219d:	00 00 
  40219f:	be 3a a0 40 00       	mov    $0x40a03a,%esi
  4021a4:	4c 89 ff             	mov    %r15,%rdi
  4021a7:	b0 01                	mov    $0x1,%al
  4021a9:	e8 a2 ef ff ff       	call   401150 <fprintf@plt>
  4021ae:	c4 c1 7b 10 84 24 40 	vmovsd 0xa040(%r12),%xmm0
  4021b5:	a0 00 00 
  4021b8:	c5 f8 11 84 24 f0 02 	vmovups %xmm0,0x2f0(%rsp)
  4021bf:	00 00 
  4021c1:	be 3a a0 40 00       	mov    $0x40a03a,%esi
  4021c6:	4c 89 ff             	mov    %r15,%rdi
  4021c9:	b0 01                	mov    $0x1,%al
  4021cb:	e8 80 ef ff ff       	call   401150 <fprintf@plt>
  4021d0:	c4 c1 7b 10 84 24 48 	vmovsd 0xa048(%r12),%xmm0
  4021d7:	a0 00 00 
  4021da:	c5 f8 11 84 24 e0 02 	vmovups %xmm0,0x2e0(%rsp)
  4021e1:	00 00 
  4021e3:	be 3a a0 40 00       	mov    $0x40a03a,%esi
  4021e8:	4c 89 ff             	mov    %r15,%rdi
  4021eb:	b0 01                	mov    $0x1,%al
  4021ed:	e8 5e ef ff ff       	call   401150 <fprintf@plt>
  4021f2:	bf 0a 00 00 00       	mov    $0xa,%edi
  4021f7:	4c 89 fe             	mov    %r15,%rsi
  4021fa:	e8 c1 ee ff ff       	call   4010c0 <fputc@plt>
  4021ff:	c4 c1 7b 10 84 24 00 	vmovsd 0xc000(%r12),%xmm0
  402206:	c0 00 00 
  402209:	c5 f8 11 84 24 90 02 	vmovups %xmm0,0x290(%rsp)
  402210:	00 00 
  402212:	be 3a a0 40 00       	mov    $0x40a03a,%esi
  402217:	4c 89 ff             	mov    %r15,%rdi
  40221a:	b0 01                	mov    $0x1,%al
  40221c:	e8 2f ef ff ff       	call   401150 <fprintf@plt>
  402221:	c4 c1 7b 10 84 24 08 	vmovsd 0xc008(%r12),%xmm0
  402228:	c0 00 00 
  40222b:	c5 f8 11 84 24 80 02 	vmovups %xmm0,0x280(%rsp)
  402232:	00 00 
  402234:	be 3a a0 40 00       	mov    $0x40a03a,%esi
  402239:	4c 89 ff             	mov    %r15,%rdi
  40223c:	b0 01                	mov    $0x1,%al
  40223e:	e8 0d ef ff ff       	call   401150 <fprintf@plt>
  402243:	c4 c1 7b 10 84 24 10 	vmovsd 0xc010(%r12),%xmm0
  40224a:	c0 00 00 
  40224d:	c5 f8 11 84 24 70 02 	vmovups %xmm0,0x270(%rsp)
  402254:	00 00 
  402256:	be 3a a0 40 00       	mov    $0x40a03a,%esi
  40225b:	4c 89 ff             	mov    %r15,%rdi
  40225e:	b0 01                	mov    $0x1,%al
  402260:	e8 eb ee ff ff       	call   401150 <fprintf@plt>
  402265:	c5 f9 10 84 24 e0 00 	vmovupd 0xe0(%rsp),%xmm0
  40226c:	00 00 
  40226e:	c5 f9 6c 84 24 d0 00 	vpunpcklqdq 0xd0(%rsp),%xmm0,%xmm0
  402275:	00 00 
  402277:	c5 f9 10 8c 24 c0 00 	vmovupd 0xc0(%rsp),%xmm1
  40227e:	00 00 
  402280:	c5 f1 6c 8c 24 b0 00 	vpunpcklqdq 0xb0(%rsp),%xmm1,%xmm1
  402287:	00 00 
  402289:	c4 e3 7d 18 c1 01    	vinsertf128 $0x1,%xmm1,%ymm0,%ymm0
  40228f:	c5 f9 10 8c 24 d0 02 	vmovupd 0x2d0(%rsp),%xmm1
  402296:	00 00 
  402298:	c5 f1 6c 8c 24 c0 02 	vpunpcklqdq 0x2c0(%rsp),%xmm1,%xmm1
  40229f:	00 00 
  4022a1:	c5 f9 10 94 24 b0 02 	vmovupd 0x2b0(%rsp),%xmm2
  4022a8:	00 00 
  4022aa:	c5 e9 6c 94 24 a0 02 	vpunpcklqdq 0x2a0(%rsp),%xmm2,%xmm2
  4022b1:	00 00 
  4022b3:	c4 e3 75 18 ca 01    	vinsertf128 $0x1,%xmm2,%ymm1,%ymm1
  4022b9:	c5 fd 58 c1          	vaddpd %ymm1,%ymm0,%ymm0
  4022bd:	c5 f9 10 8c 24 f0 01 	vmovupd 0x1f0(%rsp),%xmm1
  4022c4:	00 00 
  4022c6:	c5 f1 6c 8c 24 d0 01 	vpunpcklqdq 0x1d0(%rsp),%xmm1,%xmm1
  4022cd:	00 00 
  4022cf:	c5 f9 10 94 24 c0 01 	vmovupd 0x1c0(%rsp),%xmm2
  4022d6:	00 00 
  4022d8:	c5 e9 6c 94 24 b0 01 	vpunpcklqdq 0x1b0(%rsp),%xmm2,%xmm2
  4022df:	00 00 
  4022e1:	c4 e3 75 18 ca 01    	vinsertf128 $0x1,%xmm2,%ymm1,%ymm1
  4022e7:	c5 f9 10 94 24 e0 03 	vmovupd 0x3e0(%rsp),%xmm2
  4022ee:	00 00 
  4022f0:	c5 e9 6c 94 24 c0 03 	vpunpcklqdq 0x3c0(%rsp),%xmm2,%xmm2
  4022f7:	00 00 
  4022f9:	c5 f9 10 9c 24 b0 03 	vmovupd 0x3b0(%rsp),%xmm3
  402300:	00 00 
  402302:	c5 e1 6c 9c 24 a0 03 	vpunpcklqdq 0x3a0(%rsp),%xmm3,%xmm3
  402309:	00 00 
  40230b:	c4 e3 6d 18 d3 01    	vinsertf128 $0x1,%xmm3,%ymm2,%ymm2
  402311:	c5 f5 58 ca          	vaddpd %ymm2,%ymm1,%ymm1
  402315:	c5 f5 58 c8          	vaddpd %ymm0,%ymm1,%ymm1
  402319:	c5 f9 10 84 24 a0 00 	vmovupd 0xa0(%rsp),%xmm0
  402320:	00 00 
  402322:	c5 f9 6c 84 24 80 00 	vpunpcklqdq 0x80(%rsp),%xmm0,%xmm0
  402329:	00 00 
  40232b:	c5 f9 10 94 24 40 04 	vmovupd 0x440(%rsp),%xmm2
  402332:	00 00 
  402334:	c5 e9 6c 94 24 20 04 	vpunpcklqdq 0x420(%rsp),%xmm2,%xmm2
  40233b:	00 00 
  40233d:	c4 e3 7d 18 d2 01    	vinsertf128 $0x1,%xmm2,%ymm0,%ymm2
  402343:	c5 f9 10 84 24 90 02 	vmovupd 0x290(%rsp),%xmm0
  40234a:	00 00 
  40234c:	c5 f9 6c 9c 24 80 02 	vpunpcklqdq 0x280(%rsp),%xmm0,%xmm3
  402353:	00 00 
  402355:	c4 c1 7b 10 84 24 18 	vmovsd 0xc018(%r12),%xmm0
  40235c:	c0 00 00 
  40235f:	c5 f9 10 a4 24 70 02 	vmovupd 0x270(%rsp),%xmm4
  402366:	00 00 
  402368:	c5 d9 6c e0          	vpunpcklqdq %xmm0,%xmm4,%xmm4
  40236c:	c4 e3 65 18 dc 01    	vinsertf128 $0x1,%xmm4,%ymm3,%ymm3
  402372:	c5 ed 58 d3          	vaddpd %ymm3,%ymm2,%ymm2
  402376:	c5 f9 10 9c 24 a0 01 	vmovupd 0x1a0(%rsp),%xmm3
  40237d:	00 00 
  40237f:	c5 e1 6c 9c 24 90 01 	vpunpcklqdq 0x190(%rsp),%xmm3,%xmm3
  402386:	00 00 
  402388:	c5 f9 10 a4 24 80 01 	vmovupd 0x180(%rsp),%xmm4
  40238f:	00 00 
  402391:	c5 d9 6c a4 24 60 01 	vpunpcklqdq 0x160(%rsp),%xmm4,%xmm4
  402398:	00 00 
  40239a:	c4 e3 65 18 dc 01    	vinsertf128 $0x1,%xmm4,%ymm3,%ymm3
  4023a0:	c5 f9 10 a4 24 90 03 	vmovupd 0x390(%rsp),%xmm4
  4023a7:	00 00 
  4023a9:	c5 d9 6c a4 24 80 03 	vpunpcklqdq 0x380(%rsp),%xmm4,%xmm4
  4023b0:	00 00 
  4023b2:	c5 f9 10 ac 24 70 03 	vmovupd 0x370(%rsp),%xmm5
  4023b9:	00 00 
  4023bb:	c5 d1 6c ac 24 50 03 	vpunpcklqdq 0x350(%rsp),%xmm5,%xmm5
  4023c2:	00 00 
  4023c4:	c4 e3 5d 18 e5 01    	vinsertf128 $0x1,%xmm5,%ymm4,%ymm4
  4023ca:	c5 e5 58 dc          	vaddpd %ymm4,%ymm3,%ymm3
  4023ce:	c5 e5 58 d2          	vaddpd %ymm2,%ymm3,%ymm2
  4023d2:	c5 f5 58 ca          	vaddpd %ymm2,%ymm1,%ymm1
  4023d6:	c5 f9 10 94 24 70 01 	vmovupd 0x170(%rsp),%xmm2
  4023dd:	00 00 
  4023df:	c5 e9 6c 94 24 50 01 	vpunpcklqdq 0x150(%rsp),%xmm2,%xmm2
  4023e6:	00 00 
  4023e8:	c5 f9 10 9c 24 40 01 	vmovupd 0x140(%rsp),%xmm3
  4023ef:	00 00 
  4023f1:	c5 e1 6c 9c 24 30 01 	vpunpcklqdq 0x130(%rsp),%xmm3,%xmm3
  4023f8:	00 00 
  4023fa:	c4 e3 6d 18 d3 01    	vinsertf128 $0x1,%xmm3,%ymm2,%ymm2
  402400:	c5 f9 10 9c 24 60 03 	vmovupd 0x360(%rsp),%xmm3
  402407:	00 00 
  402409:	c5 e1 6c 9c 24 40 03 	vpunpcklqdq 0x340(%rsp),%xmm3,%xmm3
  402410:	00 00 
  402412:	c5 f9 10 a4 24 30 03 	vmovupd 0x330(%rsp),%xmm4
  402419:	00 00 
  40241b:	c5 d9 6c a4 24 20 03 	vpunpcklqdq 0x320(%rsp),%xmm4,%xmm4
  402422:	00 00 
  402424:	c4 e3 65 18 dc 01    	vinsertf128 $0x1,%xmm4,%ymm3,%ymm3
  40242a:	c5 ed 58 d3          	vaddpd %ymm3,%ymm2,%ymm2
  40242e:	c5 f9 10 9c 24 40 02 	vmovupd 0x240(%rsp),%xmm3
  402435:	00 00 
  402437:	c5 e1 6c 9c 24 20 02 	vpunpcklqdq 0x220(%rsp),%xmm3,%xmm3
  40243e:	00 00 
  402440:	c5 f9 10 64 24 50    	vmovupd 0x50(%rsp),%xmm4
  402446:	c5 d9 6c 64 24 30    	vpunpcklqdq 0x30(%rsp),%xmm4,%xmm4
  40244c:	c4 e3 65 18 dc 01    	vinsertf128 $0x1,%xmm4,%ymm3,%ymm3
  402452:	c5 f9 10 a4 24 90 00 	vmovupd 0x90(%rsp),%xmm4
  402459:	00 00 
  40245b:	c5 d9 6c 64 24 70    	vpunpcklqdq 0x70(%rsp),%xmm4,%xmm4
  402461:	c5 f9 10 ac 24 50 04 	vmovupd 0x450(%rsp),%xmm5
  402468:	00 00 
  40246a:	c5 d1 6c ac 24 30 04 	vpunpcklqdq 0x430(%rsp),%xmm5,%xmm5
  402471:	00 00 
  402473:	c4 e3 5d 18 e5 01    	vinsertf128 $0x1,%xmm5,%ymm4,%ymm4
  402479:	c5 e5 58 dc          	vaddpd %ymm4,%ymm3,%ymm3
  40247d:	c5 e5 58 d2          	vaddpd %ymm2,%ymm3,%ymm2
  402481:	c5 f9 10 9c 24 20 01 	vmovupd 0x120(%rsp),%xmm3
  402488:	00 00 
  40248a:	c5 e1 6c 9c 24 10 01 	vpunpcklqdq 0x110(%rsp),%xmm3,%xmm3
  402491:	00 00 
  402493:	c5 f9 10 a4 24 00 01 	vmovupd 0x100(%rsp),%xmm4
  40249a:	00 00 
  40249c:	c5 d9 6c a4 24 f0 00 	vpunpcklqdq 0xf0(%rsp),%xmm4,%xmm4
  4024a3:	00 00 
  4024a5:	c4 e3 65 18 dc 01    	vinsertf128 $0x1,%xmm4,%ymm3,%ymm3
  4024ab:	c5 f9 10 a4 24 10 03 	vmovupd 0x310(%rsp),%xmm4
  4024b2:	00 00 
  4024b4:	c5 d9 6c a4 24 00 03 	vpunpcklqdq 0x300(%rsp),%xmm4,%xmm4
  4024bb:	00 00 
  4024bd:	c5 f9 10 ac 24 f0 02 	vmovupd 0x2f0(%rsp),%xmm5
  4024c4:	00 00 
  4024c6:	c5 d1 6c ac 24 e0 02 	vpunpcklqdq 0x2e0(%rsp),%xmm5,%xmm5
  4024cd:	00 00 
  4024cf:	c4 e3 5d 18 e5 01    	vinsertf128 $0x1,%xmm5,%ymm4,%ymm4
  4024d5:	c5 e5 58 dc          	vaddpd %ymm4,%ymm3,%ymm3
  4024d9:	c5 f9 10 a4 24 00 02 	vmovupd 0x200(%rsp),%xmm4
  4024e0:	00 00 
  4024e2:	c5 d9 6c 64 24 20    	vpunpcklqdq 0x20(%rsp),%xmm4,%xmm4
  4024e8:	c5 f9 10 6c 24 10    	vmovupd 0x10(%rsp),%xmm5
  4024ee:	c5 d1 6c ac 24 e0 01 	vpunpcklqdq 0x1e0(%rsp),%xmm5,%xmm5
  4024f5:	00 00 
  4024f7:	c4 e3 5d 18 e5 01    	vinsertf128 $0x1,%xmm5,%ymm4,%ymm4
  4024fd:	c5 f9 10 ac 24 10 04 	vmovupd 0x410(%rsp),%xmm5
  402504:	00 00 
  402506:	c5 d1 6c ac 24 00 04 	vpunpcklqdq 0x400(%rsp),%xmm5,%xmm5
  40250d:	00 00 
  40250f:	c5 f9 10 b4 24 f0 03 	vmovupd 0x3f0(%rsp),%xmm6
  402516:	00 00 
  402518:	c5 c9 6c b4 24 d0 03 	vpunpcklqdq 0x3d0(%rsp),%xmm6,%xmm6
  40251f:	00 00 
  402521:	c4 e3 55 18 ee 01    	vinsertf128 $0x1,%xmm6,%ymm5,%ymm5
  402527:	c5 dd 58 e5          	vaddpd %ymm5,%ymm4,%ymm4
  40252b:	c5 dd 58 db          	vaddpd %ymm3,%ymm4,%ymm3
  40252f:	c5 ed 58 d3          	vaddpd %ymm3,%ymm2,%ymm2
  402533:	c5 ed 58 c9          	vaddpd %ymm1,%ymm2,%ymm1
  402537:	c5 fd 11 8c 24 40 02 	vmovupd %ymm1,0x240(%rsp)
  40253e:	00 00 
  402540:	be 3a a0 40 00       	mov    $0x40a03a,%esi
  402545:	4c 89 ff             	mov    %r15,%rdi
  402548:	b0 01                	mov    $0x1,%al
  40254a:	c5 f8 77             	vzeroupper
  40254d:	e8 fe eb ff ff       	call   401150 <fprintf@plt>
  402552:	c4 c1 7b 10 84 24 20 	vmovsd 0xc020(%r12),%xmm0
  402559:	c0 00 00 
  40255c:	c5 f8 11 84 24 20 02 	vmovups %xmm0,0x220(%rsp)
  402563:	00 00 
  402565:	be 3a a0 40 00       	mov    $0x40a03a,%esi
  40256a:	4c 89 ff             	mov    %r15,%rdi
  40256d:	b0 01                	mov    $0x1,%al
  40256f:	e8 dc eb ff ff       	call   401150 <fprintf@plt>
  402574:	c4 c1 7b 10 84 24 28 	vmovsd 0xc028(%r12),%xmm0
  40257b:	c0 00 00 
  40257e:	c5 f8 11 44 24 50    	vmovups %xmm0,0x50(%rsp)
  402584:	be 3a a0 40 00       	mov    $0x40a03a,%esi
  402589:	4c 89 ff             	mov    %r15,%rdi
  40258c:	b0 01                	mov    $0x1,%al
  40258e:	e8 bd eb ff ff       	call   401150 <fprintf@plt>
  402593:	c4 c1 7b 10 84 24 30 	vmovsd 0xc030(%r12),%xmm0
  40259a:	c0 00 00 
  40259d:	c5 f8 11 84 24 00 02 	vmovups %xmm0,0x200(%rsp)
  4025a4:	00 00 
  4025a6:	be 3a a0 40 00       	mov    $0x40a03a,%esi
  4025ab:	4c 89 ff             	mov    %r15,%rdi
  4025ae:	b0 01                	mov    $0x1,%al
  4025b0:	e8 9b eb ff ff       	call   401150 <fprintf@plt>
  4025b5:	c4 c1 7b 10 84 24 38 	vmovsd 0xc038(%r12),%xmm0
  4025bc:	c0 00 00 
  4025bf:	c5 f8 11 44 24 10    	vmovups %xmm0,0x10(%rsp)
  4025c5:	be 3a a0 40 00       	mov    $0x40a03a,%esi
  4025ca:	4c 89 ff             	mov    %r15,%rdi
  4025cd:	b0 01                	mov    $0x1,%al
  4025cf:	e8 7c eb ff ff       	call   401150 <fprintf@plt>
  4025d4:	c4 c1 7b 10 84 24 40 	vmovsd 0xc040(%r12),%xmm0
  4025db:	c0 00 00 
  4025de:	c5 f8 11 44 24 30    	vmovups %xmm0,0x30(%rsp)
  4025e4:	be 3a a0 40 00       	mov    $0x40a03a,%esi
  4025e9:	4c 89 ff             	mov    %r15,%rdi
  4025ec:	b0 01                	mov    $0x1,%al
  4025ee:	e8 5d eb ff ff       	call   401150 <fprintf@plt>
  4025f3:	c4 c1 7b 10 84 24 48 	vmovsd 0xc048(%r12),%xmm0
  4025fa:	c0 00 00 
  4025fd:	c5 f8 11 44 24 20    	vmovups %xmm0,0x20(%rsp)
  402603:	be 3a a0 40 00       	mov    $0x40a03a,%esi
  402608:	4c 89 ff             	mov    %r15,%rdi
  40260b:	b0 01                	mov    $0x1,%al
  40260d:	e8 3e eb ff ff       	call   401150 <fprintf@plt>
  402612:	bf 0a 00 00 00       	mov    $0xa,%edi
  402617:	4c 89 fe             	mov    %r15,%rsi
  40261a:	e8 a1 ea ff ff       	call   4010c0 <fputc@plt>
  40261f:	c4 c1 7b 10 84 24 00 	vmovsd 0xe000(%r12),%xmm0
  402626:	e0 00 00 
  402629:	c5 f8 11 84 24 f0 01 	vmovups %xmm0,0x1f0(%rsp)
  402630:	00 00 
  402632:	be 3a a0 40 00       	mov    $0x40a03a,%esi
  402637:	4c 89 ff             	mov    %r15,%rdi
  40263a:	b0 01                	mov    $0x1,%al
  40263c:	e8 0f eb ff ff       	call   401150 <fprintf@plt>
  402641:	c4 c1 7b 10 84 24 08 	vmovsd 0xe008(%r12),%xmm0
  402648:	e0 00 00 
  40264b:	c5 f8 11 84 24 e0 01 	vmovups %xmm0,0x1e0(%rsp)
  402652:	00 00 
  402654:	be 3a a0 40 00       	mov    $0x40a03a,%esi
  402659:	4c 89 ff             	mov    %r15,%rdi
  40265c:	b0 01                	mov    $0x1,%al
  40265e:	e8 ed ea ff ff       	call   401150 <fprintf@plt>
  402663:	c4 c1 7b 10 84 24 10 	vmovsd 0xe010(%r12),%xmm0
  40266a:	e0 00 00 
  40266d:	c5 f8 11 84 24 d0 01 	vmovups %xmm0,0x1d0(%rsp)
  402674:	00 00 
  402676:	be 3a a0 40 00       	mov    $0x40a03a,%esi
  40267b:	4c 89 ff             	mov    %r15,%rdi
  40267e:	b0 01                	mov    $0x1,%al
  402680:	e8 cb ea ff ff       	call   401150 <fprintf@plt>
  402685:	c4 c1 7b 10 84 24 18 	vmovsd 0xe018(%r12),%xmm0
  40268c:	e0 00 00 
  40268f:	c5 f8 11 84 24 c0 01 	vmovups %xmm0,0x1c0(%rsp)
  402696:	00 00 
  402698:	be 3a a0 40 00       	mov    $0x40a03a,%esi
  40269d:	4c 89 ff             	mov    %r15,%rdi
  4026a0:	b0 01                	mov    $0x1,%al
  4026a2:	e8 a9 ea ff ff       	call   401150 <fprintf@plt>
  4026a7:	c4 c1 7b 10 84 24 20 	vmovsd 0xe020(%r12),%xmm0
  4026ae:	e0 00 00 
  4026b1:	c5 f8 11 84 24 a0 01 	vmovups %xmm0,0x1a0(%rsp)
  4026b8:	00 00 
  4026ba:	be 3a a0 40 00       	mov    $0x40a03a,%esi
  4026bf:	4c 89 ff             	mov    %r15,%rdi
  4026c2:	b0 01                	mov    $0x1,%al
  4026c4:	e8 87 ea ff ff       	call   401150 <fprintf@plt>
  4026c9:	c4 c1 7b 10 84 24 28 	vmovsd 0xe028(%r12),%xmm0
  4026d0:	e0 00 00 
  4026d3:	c5 f8 11 84 24 80 01 	vmovups %xmm0,0x180(%rsp)
  4026da:	00 00 
  4026dc:	be 3a a0 40 00       	mov    $0x40a03a,%esi
  4026e1:	4c 89 ff             	mov    %r15,%rdi
  4026e4:	b0 01                	mov    $0x1,%al
  4026e6:	e8 65 ea ff ff       	call   401150 <fprintf@plt>
  4026eb:	c4 c1 7b 10 84 24 30 	vmovsd 0xe030(%r12),%xmm0
  4026f2:	e0 00 00 
  4026f5:	c5 f8 11 84 24 b0 01 	vmovups %xmm0,0x1b0(%rsp)
  4026fc:	00 00 
  4026fe:	be 3a a0 40 00       	mov    $0x40a03a,%esi
  402703:	4c 89 ff             	mov    %r15,%rdi
  402706:	b0 01                	mov    $0x1,%al
  402708:	e8 43 ea ff ff       	call   401150 <fprintf@plt>
  40270d:	c4 c1 7b 10 84 24 38 	vmovsd 0xe038(%r12),%xmm0
  402714:	e0 00 00 
  402717:	c5 f8 11 84 24 90 01 	vmovups %xmm0,0x190(%rsp)
  40271e:	00 00 
  402720:	be 3a a0 40 00       	mov    $0x40a03a,%esi
  402725:	4c 89 ff             	mov    %r15,%rdi
  402728:	b0 01                	mov    $0x1,%al
  40272a:	e8 21 ea ff ff       	call   401150 <fprintf@plt>
  40272f:	c4 c1 7b 10 84 24 40 	vmovsd 0xe040(%r12),%xmm0
  402736:	e0 00 00 
  402739:	c5 f8 11 84 24 70 01 	vmovups %xmm0,0x170(%rsp)
  402740:	00 00 
  402742:	be 3a a0 40 00       	mov    $0x40a03a,%esi
  402747:	4c 89 ff             	mov    %r15,%rdi
  40274a:	b0 01                	mov    $0x1,%al
  40274c:	e8 ff e9 ff ff       	call   401150 <fprintf@plt>
  402751:	c4 c1 7b 10 84 24 48 	vmovsd 0xe048(%r12),%xmm0
  402758:	e0 00 00 
  40275b:	c5 f8 11 84 24 60 01 	vmovups %xmm0,0x160(%rsp)
  402762:	00 00 
  402764:	be 3a a0 40 00       	mov    $0x40a03a,%esi
  402769:	4c 89 ff             	mov    %r15,%rdi
  40276c:	b0 01                	mov    $0x1,%al
  40276e:	e8 dd e9 ff ff       	call   401150 <fprintf@plt>
  402773:	bf 0a 00 00 00       	mov    $0xa,%edi
  402778:	4c 89 fe             	mov    %r15,%rsi
  40277b:	e8 40 e9 ff ff       	call   4010c0 <fputc@plt>
  402780:	c4 c1 7b 10 84 24 00 	vmovsd 0x10000(%r12),%xmm0
  402787:	00 01 00 
  40278a:	c5 f8 11 84 24 50 01 	vmovups %xmm0,0x150(%rsp)
  402791:	00 00 
  402793:	be 3a a0 40 00       	mov    $0x40a03a,%esi
  402798:	4c 89 ff             	mov    %r15,%rdi
  40279b:	b0 01                	mov    $0x1,%al
  40279d:	e8 ae e9 ff ff       	call   401150 <fprintf@plt>
  4027a2:	c4 c1 7b 10 84 24 08 	vmovsd 0x10008(%r12),%xmm0
  4027a9:	00 01 00 
  4027ac:	c5 f8 11 84 24 40 01 	vmovups %xmm0,0x140(%rsp)
  4027b3:	00 00 
  4027b5:	be 3a a0 40 00       	mov    $0x40a03a,%esi
  4027ba:	4c 89 ff             	mov    %r15,%rdi
  4027bd:	b0 01                	mov    $0x1,%al
  4027bf:	e8 8c e9 ff ff       	call   401150 <fprintf@plt>
  4027c4:	c4 c1 7b 10 84 24 10 	vmovsd 0x10010(%r12),%xmm0
  4027cb:	00 01 00 
  4027ce:	c5 f8 11 84 24 20 01 	vmovups %xmm0,0x120(%rsp)
  4027d5:	00 00 
  4027d7:	be 3a a0 40 00       	mov    $0x40a03a,%esi
  4027dc:	4c 89 ff             	mov    %r15,%rdi
  4027df:	b0 01                	mov    $0x1,%al
  4027e1:	e8 6a e9 ff ff       	call   401150 <fprintf@plt>
  4027e6:	c4 c1 7b 10 84 24 18 	vmovsd 0x10018(%r12),%xmm0
  4027ed:	00 01 00 
  4027f0:	c5 f8 11 84 24 00 01 	vmovups %xmm0,0x100(%rsp)
  4027f7:	00 00 
  4027f9:	be 3a a0 40 00       	mov    $0x40a03a,%esi
  4027fe:	4c 89 ff             	mov    %r15,%rdi
  402801:	b0 01                	mov    $0x1,%al
  402803:	e8 48 e9 ff ff       	call   401150 <fprintf@plt>
  402808:	c4 c1 7b 10 84 24 20 	vmovsd 0x10020(%r12),%xmm0
  40280f:	00 01 00 
  402812:	c5 f8 11 84 24 30 01 	vmovups %xmm0,0x130(%rsp)
  402819:	00 00 
  40281b:	be 3a a0 40 00       	mov    $0x40a03a,%esi
  402820:	4c 89 ff             	mov    %r15,%rdi
  402823:	b0 01                	mov    $0x1,%al
  402825:	e8 26 e9 ff ff       	call   401150 <fprintf@plt>
  40282a:	c4 c1 7b 10 84 24 28 	vmovsd 0x10028(%r12),%xmm0
  402831:	00 01 00 
  402834:	c5 f8 11 84 24 10 01 	vmovups %xmm0,0x110(%rsp)
  40283b:	00 00 
  40283d:	be 3a a0 40 00       	mov    $0x40a03a,%esi
  402842:	4c 89 ff             	mov    %r15,%rdi
  402845:	b0 01                	mov    $0x1,%al
  402847:	e8 04 e9 ff ff       	call   401150 <fprintf@plt>
  40284c:	c4 c1 7b 10 84 24 30 	vmovsd 0x10030(%r12),%xmm0
  402853:	00 01 00 
  402856:	c5 f8 11 84 24 f0 00 	vmovups %xmm0,0xf0(%rsp)
  40285d:	00 00 
  40285f:	be 3a a0 40 00       	mov    $0x40a03a,%esi
  402864:	4c 89 ff             	mov    %r15,%rdi
  402867:	b0 01                	mov    $0x1,%al
  402869:	e8 e2 e8 ff ff       	call   401150 <fprintf@plt>
  40286e:	c4 c1 7b 10 84 24 38 	vmovsd 0x10038(%r12),%xmm0
  402875:	00 01 00 
  402878:	c5 f8 11 84 24 e0 00 	vmovups %xmm0,0xe0(%rsp)
  40287f:	00 00 
  402881:	be 3a a0 40 00       	mov    $0x40a03a,%esi
  402886:	4c 89 ff             	mov    %r15,%rdi
  402889:	b0 01                	mov    $0x1,%al
  40288b:	e8 c0 e8 ff ff       	call   401150 <fprintf@plt>
  402890:	c4 c1 7b 10 84 24 40 	vmovsd 0x10040(%r12),%xmm0
  402897:	00 01 00 
  40289a:	c5 f8 11 84 24 d0 00 	vmovups %xmm0,0xd0(%rsp)
  4028a1:	00 00 
  4028a3:	be 3a a0 40 00       	mov    $0x40a03a,%esi
  4028a8:	4c 89 ff             	mov    %r15,%rdi
  4028ab:	b0 01                	mov    $0x1,%al
  4028ad:	e8 9e e8 ff ff       	call   401150 <fprintf@plt>
  4028b2:	c4 c1 7b 10 84 24 48 	vmovsd 0x10048(%r12),%xmm0
  4028b9:	00 01 00 
  4028bc:	c5 f8 11 84 24 c0 00 	vmovups %xmm0,0xc0(%rsp)
  4028c3:	00 00 
  4028c5:	be 3a a0 40 00       	mov    $0x40a03a,%esi
  4028ca:	4c 89 ff             	mov    %r15,%rdi
  4028cd:	b0 01                	mov    $0x1,%al
  4028cf:	e8 7c e8 ff ff       	call   401150 <fprintf@plt>
  4028d4:	bf 0a 00 00 00       	mov    $0xa,%edi
  4028d9:	4c 89 fe             	mov    %r15,%rsi
  4028dc:	e8 df e7 ff ff       	call   4010c0 <fputc@plt>
  4028e1:	c4 c1 7b 10 84 24 00 	vmovsd 0x12000(%r12),%xmm0
  4028e8:	20 01 00 
  4028eb:	c5 f8 11 84 24 a0 00 	vmovups %xmm0,0xa0(%rsp)
  4028f2:	00 00 
  4028f4:	be 3a a0 40 00       	mov    $0x40a03a,%esi
  4028f9:	4c 89 ff             	mov    %r15,%rdi
  4028fc:	b0 01                	mov    $0x1,%al
  4028fe:	e8 4d e8 ff ff       	call   401150 <fprintf@plt>
  402903:	c4 c1 7b 10 84 24 08 	vmovsd 0x12008(%r12),%xmm0
  40290a:	20 01 00 
  40290d:	c5 f8 11 84 24 80 00 	vmovups %xmm0,0x80(%rsp)
  402914:	00 00 
  402916:	be 3a a0 40 00       	mov    $0x40a03a,%esi
  40291b:	4c 89 ff             	mov    %r15,%rdi
  40291e:	b0 01                	mov    $0x1,%al
  402920:	e8 2b e8 ff ff       	call   401150 <fprintf@plt>
  402925:	c4 c1 7b 10 84 24 10 	vmovsd 0x12010(%r12),%xmm0
  40292c:	20 01 00 
  40292f:	c5 f8 11 84 24 b0 00 	vmovups %xmm0,0xb0(%rsp)
  402936:	00 00 
  402938:	be 3a a0 40 00       	mov    $0x40a03a,%esi
  40293d:	4c 89 ff             	mov    %r15,%rdi
  402940:	b0 01                	mov    $0x1,%al
  402942:	e8 09 e8 ff ff       	call   401150 <fprintf@plt>
  402947:	c4 c1 7b 10 84 24 18 	vmovsd 0x12018(%r12),%xmm0
  40294e:	20 01 00 
  402951:	c5 f8 11 84 24 90 00 	vmovups %xmm0,0x90(%rsp)
  402958:	00 00 
  40295a:	be 3a a0 40 00       	mov    $0x40a03a,%esi
  40295f:	4c 89 ff             	mov    %r15,%rdi
  402962:	b0 01                	mov    $0x1,%al
  402964:	e8 e7 e7 ff ff       	call   401150 <fprintf@plt>
  402969:	c4 c1 7b 10 84 24 20 	vmovsd 0x12020(%r12),%xmm0
  402970:	20 01 00 
  402973:	c5 f8 11 44 24 70    	vmovups %xmm0,0x70(%rsp)
  402979:	be 3a a0 40 00       	mov    $0x40a03a,%esi
  40297e:	4c 89 ff             	mov    %r15,%rdi
  402981:	b0 01                	mov    $0x1,%al
  402983:	e8 c8 e7 ff ff       	call   401150 <fprintf@plt>
  402988:	c5 f9 10 84 24 d0 01 	vmovupd 0x1d0(%rsp),%xmm0
  40298f:	00 00 
  402991:	c5 f9 6c 84 24 c0 01 	vpunpcklqdq 0x1c0(%rsp),%xmm0,%xmm0
  402998:	00 00 
  40299a:	c5 f9 10 8c 24 a0 01 	vmovupd 0x1a0(%rsp),%xmm1
  4029a1:	00 00 
  4029a3:	c5 f1 6c 8c 24 80 01 	vpunpcklqdq 0x180(%rsp),%xmm1,%xmm1
  4029aa:	00 00 
  4029ac:	c4 e3 7d 18 c1 01    	vinsertf128 $0x1,%xmm1,%ymm0,%ymm0
  4029b2:	c5 f9 10 8c 24 d0 00 	vmovupd 0xd0(%rsp),%xmm1
  4029b9:	00 00 
  4029bb:	c5 f1 6c 8c 24 c0 00 	vpunpcklqdq 0xc0(%rsp),%xmm1,%xmm1
  4029c2:	00 00 
  4029c4:	c5 f9 10 94 24 a0 00 	vmovupd 0xa0(%rsp),%xmm2
  4029cb:	00 00 
  4029cd:	c5 e9 6c 94 24 80 00 	vpunpcklqdq 0x80(%rsp),%xmm2,%xmm2
  4029d4:	00 00 
  4029d6:	c4 e3 75 18 ca 01    	vinsertf128 $0x1,%xmm2,%ymm1,%ymm1
  4029dc:	c5 fd 58 c1          	vaddpd %ymm1,%ymm0,%ymm0
  4029e0:	c5 f9 10 8c 24 20 02 	vmovupd 0x220(%rsp),%xmm1
  4029e7:	00 00 
  4029e9:	c5 f1 6c 4c 24 50    	vpunpcklqdq 0x50(%rsp),%xmm1,%xmm1
  4029ef:	c5 f9 10 94 24 00 02 	vmovupd 0x200(%rsp),%xmm2
  4029f6:	00 00 
  4029f8:	c5 e9 6c 54 24 10    	vpunpcklqdq 0x10(%rsp),%xmm2,%xmm2
  4029fe:	c4 e3 75 18 ca 01    	vinsertf128 $0x1,%xmm2,%ymm1,%ymm1
  402a04:	c5 f9 10 94 24 50 01 	vmovupd 0x150(%rsp),%xmm2
  402a0b:	00 00 
  402a0d:	c5 e9 6c 94 24 40 01 	vpunpcklqdq 0x140(%rsp),%xmm2,%xmm2
  402a14:	00 00 
  402a16:	c5 f9 10 9c 24 20 01 	vmovupd 0x120(%rsp),%xmm3
  402a1d:	00 00 
  402a1f:	c5 e1 6c 9c 24 00 01 	vpunpcklqdq 0x100(%rsp),%xmm3,%xmm3
  402a26:	00 00 
  402a28:	c4 e3 6d 18 d3 01    	vinsertf128 $0x1,%xmm3,%ymm2,%ymm2
  402a2e:	c5 f5 58 ca          	vaddpd %ymm2,%ymm1,%ymm1
  402a32:	c5 f5 58 c8          	vaddpd %ymm0,%ymm1,%ymm1
  402a36:	c5 f9 10 84 24 b0 01 	vmovupd 0x1b0(%rsp),%xmm0
  402a3d:	00 00 
  402a3f:	c5 f9 6c 84 24 90 01 	vpunpcklqdq 0x190(%rsp),%xmm0,%xmm0
  402a46:	00 00 
  402a48:	c5 f9 10 94 24 70 01 	vmovupd 0x170(%rsp),%xmm2
  402a4f:	00 00 
  402a51:	c5 e9 6c 94 24 60 01 	vpunpcklqdq 0x160(%rsp),%xmm2,%xmm2
  402a58:	00 00 
  402a5a:	c4 e3 7d 18 d2 01    	vinsertf128 $0x1,%xmm2,%ymm0,%ymm2
  402a60:	c5 f9 10 84 24 b0 00 	vmovupd 0xb0(%rsp),%xmm0
  402a67:	00 00 
  402a69:	c5 f9 6c 9c 24 90 00 	vpunpcklqdq 0x90(%rsp),%xmm0,%xmm3
  402a70:	00 00 
  402a72:	c4 c1 7b 10 84 24 28 	vmovsd 0x12028(%r12),%xmm0
  402a79:	20 01 00 
  402a7c:	c5 f9 10 64 24 70    	vmovupd 0x70(%rsp),%xmm4
  402a82:	c5 d9 6c e0          	vpunpcklqdq %xmm0,%xmm4,%xmm4
  402a86:	c4 e3 65 18 dc 01    	vinsertf128 $0x1,%xmm4,%ymm3,%ymm3
  402a8c:	c5 ed 58 d3          	vaddpd %ymm3,%ymm2,%ymm2
  402a90:	c5 f9 10 5c 24 30    	vmovupd 0x30(%rsp),%xmm3
  402a96:	c5 e1 6c 5c 24 20    	vpunpcklqdq 0x20(%rsp),%xmm3,%xmm3
  402a9c:	c5 f9 10 a4 24 f0 01 	vmovupd 0x1f0(%rsp),%xmm4
  402aa3:	00 00 
  402aa5:	c5 d9 6c a4 24 e0 01 	vpunpcklqdq 0x1e0(%rsp),%xmm4,%xmm4
  402aac:	00 00 
  402aae:	c4 e3 65 18 dc 01    	vinsertf128 $0x1,%xmm4,%ymm3,%ymm3
  402ab4:	c5 f9 10 a4 24 30 01 	vmovupd 0x130(%rsp),%xmm4
  402abb:	00 00 
  402abd:	c5 d9 6c a4 24 10 01 	vpunpcklqdq 0x110(%rsp),%xmm4,%xmm4
  402ac4:	00 00 
  402ac6:	c5 f9 10 ac 24 f0 00 	vmovupd 0xf0(%rsp),%xmm5
  402acd:	00 00 
  402acf:	c5 d1 6c ac 24 e0 00 	vpunpcklqdq 0xe0(%rsp),%xmm5,%xmm5
  402ad6:	00 00 
  402ad8:	c4 e3 5d 18 e5 01    	vinsertf128 $0x1,%xmm5,%ymm4,%ymm4
  402ade:	c5 e5 58 dc          	vaddpd %ymm4,%ymm3,%ymm3
  402ae2:	c5 e5 58 d2          	vaddpd %ymm2,%ymm3,%ymm2
  402ae6:	c5 f5 58 ca          	vaddpd %ymm2,%ymm1,%ymm1
  402aea:	c5 fd 11 8c 24 20 02 	vmovupd %ymm1,0x220(%rsp)
  402af1:	00 00 
  402af3:	be 3a a0 40 00       	mov    $0x40a03a,%esi
  402af8:	4c 89 ff             	mov    %r15,%rdi
  402afb:	b0 01                	mov    $0x1,%al
  402afd:	c5 f8 77             	vzeroupper
  402b00:	e8 4b e6 ff ff       	call   401150 <fprintf@plt>
  402b05:	c4 c1 7b 10 84 24 30 	vmovsd 0x12030(%r12),%xmm0
  402b0c:	20 01 00 
  402b0f:	c5 f8 11 44 24 50    	vmovups %xmm0,0x50(%rsp)
  402b15:	be 3a a0 40 00       	mov    $0x40a03a,%esi
  402b1a:	4c 89 ff             	mov    %r15,%rdi
  402b1d:	b0 01                	mov    $0x1,%al
  402b1f:	e8 2c e6 ff ff       	call   401150 <fprintf@plt>
  402b24:	c4 c1 7b 10 84 24 38 	vmovsd 0x12038(%r12),%xmm0
  402b2b:	20 01 00 
  402b2e:	c5 f8 11 44 24 30    	vmovups %xmm0,0x30(%rsp)
  402b34:	be 3a a0 40 00       	mov    $0x40a03a,%esi
  402b39:	4c 89 ff             	mov    %r15,%rdi
  402b3c:	b0 01                	mov    $0x1,%al
  402b3e:	e8 0d e6 ff ff       	call   401150 <fprintf@plt>
  402b43:	c4 c2 7d 19 84 24 40 	vbroadcastsd 0x12040(%r12),%ymm0
  402b4a:	20 01 00 
  402b4d:	c5 fc 11 84 24 00 02 	vmovups %ymm0,0x200(%rsp)
  402b54:	00 00 
  402b56:	be 3a a0 40 00       	mov    $0x40a03a,%esi
  402b5b:	4c 89 ff             	mov    %r15,%rdi
  402b5e:	b0 01                	mov    $0x1,%al
  402b60:	c5 f8 77             	vzeroupper
  402b63:	e8 e8 e5 ff ff       	call   401150 <fprintf@plt>
  402b68:	c5 f8 10 44 24 50    	vmovups 0x50(%rsp),%xmm0
  402b6e:	c5 f9 6c 44 24 30    	vpunpcklqdq 0x30(%rsp),%xmm0,%xmm0
  402b74:	c5 f8 11 44 24 50    	vmovups %xmm0,0x50(%rsp)
  402b7a:	c4 c2 7d 19 84 24 48 	vbroadcastsd 0x12048(%r12),%ymm0
  402b81:	20 01 00 
  402b84:	c5 fc 10 8c 24 00 02 	vmovups 0x200(%rsp),%ymm1
  402b8b:	00 00 
  402b8d:	c5 f5 6c c8          	vpunpcklqdq %ymm0,%ymm1,%ymm1
  402b91:	c5 fc 11 4c 24 30    	vmovups %ymm1,0x30(%rsp)
  402b97:	be 3a a0 40 00       	mov    $0x40a03a,%esi
  402b9c:	4c 89 ff             	mov    %r15,%rdi
  402b9f:	b0 01                	mov    $0x1,%al
  402ba1:	c5 f8 77             	vzeroupper
  402ba4:	e8 a7 e5 ff ff       	call   401150 <fprintf@plt>
  402ba9:	c5 fd 10 8c 24 20 02 	vmovupd 0x220(%rsp),%ymm1
  402bb0:	00 00 
  402bb2:	c4 e3 7d 19 c8 01    	vextractf128 $0x1,%ymm1,%xmm0
  402bb8:	c5 f1 58 c0          	vaddpd %xmm0,%xmm1,%xmm0
  402bbc:	c4 e3 79 05 c8 01    	vpermilpd $0x1,%xmm0,%xmm1
  402bc2:	c5 fb 58 c1          	vaddsd %xmm1,%xmm0,%xmm0
  402bc6:	c5 fd 10 94 24 40 02 	vmovupd 0x240(%rsp),%ymm2
  402bcd:	00 00 
  402bcf:	c4 e3 7d 19 d1 01    	vextractf128 $0x1,%ymm2,%xmm1
  402bd5:	c5 e9 58 c9          	vaddpd %xmm1,%xmm2,%xmm1
  402bd9:	c4 e3 79 05 d1 01    	vpermilpd $0x1,%xmm1,%xmm2
  402bdf:	c5 f3 58 ca          	vaddsd %xmm2,%xmm1,%xmm1
  402be3:	c5 fd 10 54 24 30    	vmovupd 0x30(%rsp),%ymm2
  402be9:	c4 e3 7d 19 d2 01    	vextractf128 $0x1,%ymm2,%xmm2
  402bef:	c5 e9 58 54 24 50    	vaddpd 0x50(%rsp),%xmm2,%xmm2
  402bf5:	c4 e3 79 05 da 01    	vpermilpd $0x1,%xmm2,%xmm3
  402bfb:	c5 eb 58 d3          	vaddsd %xmm3,%xmm2,%xmm2
  402bff:	c5 fb 58 c2          	vaddsd %xmm2,%xmm0,%xmm0
  402c03:	c5 fb 58 c1          	vaddsd %xmm1,%xmm0,%xmm0
  402c07:	c5 fb 11 84 24 40 02 	vmovsd %xmm0,0x240(%rsp)
  402c0e:	00 00 
  402c10:	bf 0a 00 00 00       	mov    $0xa,%edi
  402c15:	4c 89 fe             	mov    %r15,%rsi
  402c18:	c5 f8 77             	vzeroupper
  402c1b:	e8 a0 e4 ff ff       	call   4010c0 <fputc@plt>
  402c20:	be 40 a0 40 00       	mov    $0x40a040,%esi
  402c25:	4c 89 ff             	mov    %r15,%rdi
  402c28:	c5 fb 10 84 24 40 02 	vmovsd 0x240(%rsp),%xmm0
  402c2f:	00 00 
  402c31:	b0 01                	mov    $0x1,%al
  402c33:	e8 18 e5 ff ff       	call   401150 <fprintf@plt>
  402c38:	4c 89 ff             	mov    %r15,%rdi
  402c3b:	e8 00 e5 ff ff       	call   401140 <fclose@plt>
  402c40:	48 89 df             	mov    %rbx,%rdi
  402c43:	e8 88 e4 ff ff       	call   4010d0 <free@plt>
  402c48:	48 8b bc 24 68 02 00 	mov    0x268(%rsp),%rdi
  402c4f:	00 
  402c50:	e8 7b e4 ff ff       	call   4010d0 <free@plt>
  402c55:	48 8b 7c 24 08       	mov    0x8(%rsp),%rdi
  402c5a:	e8 71 e4 ff ff       	call   4010d0 <free@plt>
  402c5f:	31 c9                	xor    %ecx,%ecx
  402c61:	e9 47 e9 ff ff       	jmp    4015ad <main+0x5d>
  402c66:	66 90                	xchg   %ax,%ax
  402c68:	0f 1f 84 00 00 00 00 	nopl   0x0(%rax,%rax,1)
  402c6f:	00 

0000000000402c70 <__intel_get_fast_memset_impl.V>:
  402c70:	48 c7 c0 d0 4a 40 00 	mov    $0x404ad0,%rax
  402c77:	c3                   	ret
  402c78:	0f 1f 84 00 00 00 00 	nopl   0x0(%rax,%rax,1)
  402c7f:	00 

0000000000402c80 <__intel_get_fast_memset_impl.Z>:
  402c80:	48 c7 c0 00 32 40 00 	mov    $0x403200,%rax
  402c87:	c3                   	ret
  402c88:	0f 1f 84 00 00 00 00 	nopl   0x0(%rax,%rax,1)
  402c8f:	00 

0000000000402c90 <_intel_fast_memset>:
  402c90:	f3 0f 1e fa          	endbr64
  402c94:	48 8b 05 75 a4 00 00 	mov    0xa475(%rip),%rax        # 40d110 <__real_memset_impl>
  402c9b:	48 85 c0             	test   %rax,%rax
  402c9e:	0f 84 0c 00 00 00    	je     402cb0 <__real_memset_impl_setup>
  402ca4:	ff e0                	jmp    *%rax
  402ca6:	66 2e 0f 1f 84 00 00 	cs nopw 0x0(%rax,%rax,1)
  402cad:	00 00 00 

0000000000402cb0 <__real_memset_impl_setup>:
  402cb0:	55                   	push   %rbp
  402cb1:	41 56                	push   %r14
  402cb3:	53                   	push   %rbx
  402cb4:	48 89 d3             	mov    %rdx,%rbx
  402cb7:	89 f5                	mov    %esi,%ebp
  402cb9:	49 89 fe             	mov    %rdi,%r14
  402cbc:	48 c7 c1 30 d1 40 00 	mov    $0x40d130,%rcx
  402cc3:	48 8b 01             	mov    (%rcx),%rax
  402cc6:	48 85 c0             	test   %rax,%rax
  402cc9:	75 12                	jne    402cdd <__real_memset_impl_setup+0x2d>
  402ccb:	0f 1f 44 00 00       	nopl   0x0(%rax,%rax,1)
  402cd0:	e8 8b 4b 00 00       	call   407860 <__intel_cpu_features_init_x>
  402cd5:	48 8b 01             	mov    (%rcx),%rax
  402cd8:	48 85 c0             	test   %rax,%rax
  402cdb:	74 f3                	je     402cd0 <__real_memset_impl_setup+0x20>
  402cdd:	48 89 c1             	mov    %rax,%rcx
  402ce0:	48 f7 d1             	not    %rcx
  402ce3:	48 ba ec 9f 9d 18 07 	movabs $0x7189d9fec,%rdx
  402cea:	00 00 00 
  402ced:	48 85 d1             	test   %rdx,%rcx
  402cf0:	75 07                	jne    402cf9 <__real_memset_impl_setup+0x49>
  402cf2:	e8 89 ff ff ff       	call   402c80 <__intel_get_fast_memset_impl.Z>
  402cf7:	eb 29                	jmp    402d22 <__real_memset_impl_setup+0x72>
  402cf9:	89 c1                	mov    %eax,%ecx
  402cfb:	f7 d1                	not    %ecx
  402cfd:	f7 c1 ec 9f 9d 00    	test   $0x9d9fec,%ecx
  402d03:	75 07                	jne    402d0c <__real_memset_impl_setup+0x5c>
  402d05:	e8 66 ff ff ff       	call   402c70 <__intel_get_fast_memset_impl.V>
  402d0a:	eb 16                	jmp    402d22 <__real_memset_impl_setup+0x72>
  402d0c:	f7 d0                	not    %eax
  402d0e:	a8 6c                	test   $0x6c,%al
  402d10:	75 09                	jne    402d1b <__real_memset_impl_setup+0x6b>
  402d12:	48 c7 c0 a0 5b 40 00 	mov    $0x405ba0,%rax
  402d19:	eb 07                	jmp    402d22 <__real_memset_impl_setup+0x72>
  402d1b:	48 8b 05 8e a2 00 00 	mov    0xa28e(%rip),%rax        # 40cfb0 <memset@GLIBC_2.2.5>
  402d22:	48 89 05 e7 a3 00 00 	mov    %rax,0xa3e7(%rip)        # 40d110 <__real_memset_impl>
  402d29:	4c 89 f7             	mov    %r14,%rdi
  402d2c:	89 ee                	mov    %ebp,%esi
  402d2e:	48 89 da             	mov    %rbx,%rdx
  402d31:	5b                   	pop    %rbx
  402d32:	41 5e                	pop    %r14
  402d34:	5d                   	pop    %rbp
  402d35:	ff e0                	jmp    *%rax
  402d37:	90                   	nop
  402d38:	0f 1f 84 00 00 00 00 	nopl   0x0(%rax,%rax,1)
  402d3f:	00 

0000000000402d40 <__intel_new_feature_proc_init_n>:
  402d40:	f3 0f 1e fa          	endbr64
  402d44:	55                   	push   %rbp
  402d45:	41 57                	push   %r15
  402d47:	41 56                	push   %r14
  402d49:	41 55                	push   %r13
  402d4b:	41 54                	push   %r12
  402d4d:	53                   	push   %rbx
  402d4e:	48 81 ec 38 04 00 00 	sub    $0x438,%rsp
  402d55:	64 48 8b 04 25 28 00 	mov    %fs:0x28,%rax
  402d5c:	00 00 
  402d5e:	48 89 84 24 30 04 00 	mov    %rax,0x430(%rsp)
  402d65:	00 
  402d66:	0f 57 c0             	xorps  %xmm0,%xmm0
  402d69:	0f 29 44 24 10       	movaps %xmm0,0x10(%rsp)
  402d6e:	48 c7 c1 20 d1 40 00 	mov    $0x40d120,%rcx
  402d75:	48 83 39 00          	cmpq   $0x0,(%rcx)
  402d79:	75 17                	jne    402d92 <__intel_new_feature_proc_init_n+0x52>
  402d7b:	e8 00 40 00 00       	call   406d80 <__intel_cpu_features_init>
  402d80:	85 c0                	test   %eax,%eax
  402d82:	0f 85 0b 02 00 00    	jne    402f93 <__intel_new_feature_proc_init_n+0x253>
  402d88:	48 83 39 00          	cmpq   $0x0,(%rcx)
  402d8c:	0f 84 01 02 00 00    	je     402f93 <__intel_new_feature_proc_init_n+0x253>
  402d92:	83 ff 02             	cmp    $0x2,%edi
  402d95:	7d 38                	jge    402dcf <__intel_new_feature_proc_init_n+0x8f>
  402d97:	48 63 c7             	movslq %edi,%rax
  402d9a:	48 8b 0c c1          	mov    (%rcx,%rax,8),%rcx
  402d9e:	48 f7 d1             	not    %rcx
  402da1:	48 85 ce             	test   %rcx,%rsi
  402da4:	75 48                	jne    402dee <__intel_new_feature_proc_init_n+0xae>
  402da6:	64 48 8b 04 25 28 00 	mov    %fs:0x28,%rax
  402dad:	00 00 
  402daf:	48 3b 84 24 30 04 00 	cmp    0x430(%rsp),%rax
  402db6:	00 
  402db7:	0f 85 e8 02 00 00    	jne    4030a5 <__intel_new_feature_proc_init_n+0x365>
  402dbd:	48 81 c4 38 04 00 00 	add    $0x438,%rsp
  402dc4:	5b                   	pop    %rbx
  402dc5:	41 5c                	pop    %r12
  402dc7:	41 5d                	pop    %r13
  402dc9:	41 5e                	pop    %r14
  402dcb:	41 5f                	pop    %r15
  402dcd:	5d                   	pop    %rbp
  402dce:	c3                   	ret
  402dcf:	bf 01 00 00 00       	mov    $0x1,%edi
  402dd4:	31 f6                	xor    %esi,%esi
  402dd6:	31 d2                	xor    %edx,%edx
  402dd8:	31 c0                	xor    %eax,%eax
  402dda:	e8 51 61 00 00       	call   408f30 <__libirc_print>
  402ddf:	bf 01 00 00 00       	mov    $0x1,%edi
  402de4:	be 3a 00 00 00       	mov    $0x3a,%esi
  402de9:	e9 bf 01 00 00       	jmp    402fad <__intel_new_feature_proc_init_n+0x26d>
  402dee:	48 21 f1             	and    %rsi,%rcx
  402df1:	48 89 4c c4 10       	mov    %rcx,0x10(%rsp,%rax,8)
  402df6:	45 31 ff             	xor    %r15d,%r15d
  402df9:	bf 39 00 00 00       	mov    $0x39,%edi
  402dfe:	31 f6                	xor    %esi,%esi
  402e00:	31 c0                	xor    %eax,%eax
  402e02:	e8 e9 5e 00 00       	call   408cf0 <__libirc_get_msg>
  402e07:	48 89 04 24          	mov    %rax,(%rsp)
  402e0b:	c6 44 24 30 00       	movb   $0x0,0x30(%rsp)
  402e10:	bd 01 00 00 00       	mov    $0x1,%ebp
  402e15:	4c 8d 64 24 10       	lea    0x10(%rsp),%r12
  402e1a:	4c 8d 6c 24 30       	lea    0x30(%rsp),%r13
  402e1f:	31 db                	xor    %ebx,%ebx
  402e21:	eb 31                	jmp    402e54 <__intel_new_feature_proc_init_n+0x114>
  402e23:	b8 ff 03 00 00       	mov    $0x3ff,%eax
  402e28:	44 29 f8             	sub    %r15d,%eax
  402e2b:	48 63 d0             	movslq %eax,%rdx
  402e2e:	b9 00 04 00 00       	mov    $0x400,%ecx
  402e33:	4c 89 ef             	mov    %r13,%rdi
  402e36:	4c 89 f6             	mov    %r14,%rsi
  402e39:	e8 22 e3 ff ff       	call   401160 <__strncat_chk@plt>
  402e3e:	4c 89 ef             	mov    %r13,%rdi
  402e41:	e8 9a e2 ff ff       	call   4010e0 <strlen@plt>
  402e46:	49 89 c7             	mov    %rax,%r15
  402e49:	ff c5                	inc    %ebp
  402e4b:	83 fd 47             	cmp    $0x47,%ebp
  402e4e:	0f 84 26 01 00 00    	je     402f7a <__intel_new_feature_proc_init_n+0x23a>
  402e54:	89 e8                	mov    %ebp,%eax
  402e56:	e8 15 55 00 00       	call   408370 <__libirc_get_feature_bitpos>
  402e5b:	85 c0                	test   %eax,%eax
  402e5d:	78 ea                	js     402e49 <__intel_new_feature_proc_init_n+0x109>
  402e5f:	4c 89 e7             	mov    %r12,%rdi
  402e62:	89 ee                	mov    %ebp,%esi
  402e64:	e8 47 55 00 00       	call   4083b0 <__libirc_get_cpu_feature>
  402e69:	85 c0                	test   %eax,%eax
  402e6b:	74 dc                	je     402e49 <__intel_new_feature_proc_init_n+0x109>
  402e6d:	4c 89 e7             	mov    %r12,%rdi
  402e70:	89 ee                	mov    %ebp,%esi
  402e72:	e8 39 55 00 00       	call   4083b0 <__libirc_get_cpu_feature>
  402e77:	85 c0                	test   %eax,%eax
  402e79:	0f 88 e6 00 00 00    	js     402f65 <__intel_new_feature_proc_init_n+0x225>
  402e7f:	89 ef                	mov    %ebp,%edi
  402e81:	e8 fa 49 00 00       	call   407880 <__libirc_get_feature_name>
  402e86:	48 85 c0             	test   %rax,%rax
  402e89:	0f 84 d6 00 00 00    	je     402f65 <__intel_new_feature_proc_init_n+0x225>
  402e8f:	49 89 c6             	mov    %rax,%r14
  402e92:	80 38 00             	cmpb   $0x0,(%rax)
  402e95:	0f 84 ca 00 00 00    	je     402f65 <__intel_new_feature_proc_init_n+0x225>
  402e9b:	80 7c 24 30 00       	cmpb   $0x0,0x30(%rsp)
  402ea0:	74 81                	je     402e23 <__intel_new_feature_proc_init_n+0xe3>
  402ea2:	48 85 db             	test   %rbx,%rbx
  402ea5:	0f 84 b2 00 00 00    	je     402f5d <__intel_new_feature_proc_init_n+0x21d>
  402eab:	4d 89 ec             	mov    %r13,%r12
  402eae:	48 89 df             	mov    %rbx,%rdi
  402eb1:	e8 2a e2 ff ff       	call   4010e0 <strlen@plt>
  402eb6:	49 89 c5             	mov    %rax,%r13
  402eb9:	48 8d 3d 8f 71 00 00 	lea    0x718f(%rip),%rdi        # 40a04f <_IO_stdin_used+0x4f>
  402ec0:	e8 1b e2 ff ff       	call   4010e0 <strlen@plt>
  402ec5:	48 89 44 24 28       	mov    %rax,0x28(%rsp)
  402eca:	48 89 5c 24 08       	mov    %rbx,0x8(%rsp)
  402ecf:	49 63 df             	movslq %r15d,%rbx
  402ed2:	48 8b 3c 24          	mov    (%rsp),%rdi
  402ed6:	e8 05 e2 ff ff       	call   4010e0 <strlen@plt>
  402edb:	49 89 c7             	mov    %rax,%r15
  402ede:	4c 89 f7             	mov    %r14,%rdi
  402ee1:	e8 fa e1 ff ff       	call   4010e0 <strlen@plt>
  402ee6:	49 01 dd             	add    %rbx,%r13
  402ee9:	4c 03 6c 24 28       	add    0x28(%rsp),%r13
  402eee:	4c 01 f8             	add    %r15,%rax
  402ef1:	4c 01 e8             	add    %r13,%rax
  402ef4:	b9 ff 03 00 00       	mov    $0x3ff,%ecx
  402ef9:	29 d9                	sub    %ebx,%ecx
  402efb:	48 63 d1             	movslq %ecx,%rdx
  402efe:	48 3d ff 03 00 00    	cmp    $0x3ff,%rax
  402f04:	0f 87 dd 00 00 00    	ja     402fe7 <__intel_new_feature_proc_init_n+0x2a7>
  402f0a:	b9 00 04 00 00       	mov    $0x400,%ecx
  402f0f:	4d 89 e5             	mov    %r12,%r13
  402f12:	4c 89 e7             	mov    %r12,%rdi
  402f15:	48 8d 35 33 71 00 00 	lea    0x7133(%rip),%rsi        # 40a04f <_IO_stdin_used+0x4f>
  402f1c:	e8 3f e2 ff ff       	call   401160 <__strncat_chk@plt>
  402f21:	4c 89 e7             	mov    %r12,%rdi
  402f24:	e8 b7 e1 ff ff       	call   4010e0 <strlen@plt>
  402f29:	48 c1 e0 20          	shl    $0x20,%rax
  402f2d:	48 ba 00 00 00 00 ff 	movabs $0x3ff00000000,%rdx
  402f34:	03 00 00 
  402f37:	48 29 c2             	sub    %rax,%rdx
  402f3a:	48 c1 fa 20          	sar    $0x20,%rdx
  402f3e:	b9 00 04 00 00       	mov    $0x400,%ecx
  402f43:	4c 89 e7             	mov    %r12,%rdi
  402f46:	48 8b 74 24 08       	mov    0x8(%rsp),%rsi
  402f4b:	e8 10 e2 ff ff       	call   401160 <__strncat_chk@plt>
  402f50:	4c 89 f3             	mov    %r14,%rbx
  402f53:	4c 8d 64 24 10       	lea    0x10(%rsp),%r12
  402f58:	e9 e1 fe ff ff       	jmp    402e3e <__intel_new_feature_proc_init_n+0xfe>
  402f5d:	4c 89 f3             	mov    %r14,%rbx
  402f60:	e9 e4 fe ff ff       	jmp    402e49 <__intel_new_feature_proc_init_n+0x109>
  402f65:	bf 01 00 00 00       	mov    $0x1,%edi
  402f6a:	31 f6                	xor    %esi,%esi
  402f6c:	31 d2                	xor    %edx,%edx
  402f6e:	31 c0                	xor    %eax,%eax
  402f70:	e8 bb 5f 00 00       	call   408f30 <__libirc_print>
  402f75:	e9 ce 00 00 00       	jmp    403048 <__intel_new_feature_proc_init_n+0x308>
  402f7a:	48 85 db             	test   %rbx,%rbx
  402f7d:	0f 84 ac 00 00 00    	je     40302f <__intel_new_feature_proc_init_n+0x2ef>
  402f83:	49 89 dc             	mov    %rbx,%r12
  402f86:	b8 ff 03 00 00       	mov    $0x3ff,%eax
  402f8b:	44 29 f8             	sub    %r15d,%eax
  402f8e:	48 63 d0             	movslq %eax,%rdx
  402f91:	eb 59                	jmp    402fec <__intel_new_feature_proc_init_n+0x2ac>
  402f93:	bf 01 00 00 00       	mov    $0x1,%edi
  402f98:	31 f6                	xor    %esi,%esi
  402f9a:	31 d2                	xor    %edx,%edx
  402f9c:	31 c0                	xor    %eax,%eax
  402f9e:	e8 8d 5f 00 00       	call   408f30 <__libirc_print>
  402fa3:	bf 01 00 00 00       	mov    $0x1,%edi
  402fa8:	be 3b 00 00 00       	mov    $0x3b,%esi
  402fad:	31 d2                	xor    %edx,%edx
  402faf:	31 c0                	xor    %eax,%eax
  402fb1:	e8 7a 5f 00 00       	call   408f30 <__libirc_print>
  402fb6:	64 48 8b 04 25 28 00 	mov    %fs:0x28,%rax
  402fbd:	00 00 
  402fbf:	48 3b 84 24 30 04 00 	cmp    0x430(%rsp),%rax
  402fc6:	00 
  402fc7:	0f 85 d8 00 00 00    	jne    4030a5 <__intel_new_feature_proc_init_n+0x365>
  402fcd:	bf 01 00 00 00       	mov    $0x1,%edi
  402fd2:	31 f6                	xor    %esi,%esi
  402fd4:	31 d2                	xor    %edx,%edx
  402fd6:	31 c0                	xor    %eax,%eax
  402fd8:	e8 53 5f 00 00       	call   408f30 <__libirc_print>
  402fdd:	bf 01 00 00 00       	mov    $0x1,%edi
  402fe2:	e8 79 e0 ff ff       	call   401060 <exit@plt>
  402fe7:	4c 8b 64 24 08       	mov    0x8(%rsp),%r12
  402fec:	4c 8d 74 24 30       	lea    0x30(%rsp),%r14
  402ff1:	b9 00 04 00 00       	mov    $0x400,%ecx
  402ff6:	4c 89 f7             	mov    %r14,%rdi
  402ff9:	48 8b 34 24          	mov    (%rsp),%rsi
  402ffd:	e8 5e e1 ff ff       	call   401160 <__strncat_chk@plt>
  403002:	4c 89 f7             	mov    %r14,%rdi
  403005:	e8 d6 e0 ff ff       	call   4010e0 <strlen@plt>
  40300a:	48 c1 e0 20          	shl    $0x20,%rax
  40300e:	48 ba 00 00 00 00 ff 	movabs $0x3ff00000000,%rdx
  403015:	03 00 00 
  403018:	48 29 c2             	sub    %rax,%rdx
  40301b:	48 c1 fa 20          	sar    $0x20,%rdx
  40301f:	b9 00 04 00 00       	mov    $0x400,%ecx
  403024:	4c 89 f7             	mov    %r14,%rdi
  403027:	4c 89 e6             	mov    %r12,%rsi
  40302a:	e8 31 e1 ff ff       	call   401160 <__strncat_chk@plt>
  40302f:	0f b6 5c 24 30       	movzbl 0x30(%rsp),%ebx
  403034:	bf 01 00 00 00       	mov    $0x1,%edi
  403039:	31 f6                	xor    %esi,%esi
  40303b:	31 d2                	xor    %edx,%edx
  40303d:	31 c0                	xor    %eax,%eax
  40303f:	e8 ec 5e 00 00       	call   408f30 <__libirc_print>
  403044:	84 db                	test   %bl,%bl
  403046:	75 15                	jne    40305d <__intel_new_feature_proc_init_n+0x31d>
  403048:	bf 01 00 00 00       	mov    $0x1,%edi
  40304d:	be 3a 00 00 00       	mov    $0x3a,%esi
  403052:	31 d2                	xor    %edx,%edx
  403054:	31 c0                	xor    %eax,%eax
  403056:	e8 d5 5e 00 00       	call   408f30 <__libirc_print>
  40305b:	eb 1b                	jmp    403078 <__intel_new_feature_proc_init_n+0x338>
  40305d:	48 8d 4c 24 30       	lea    0x30(%rsp),%rcx
  403062:	bf 01 00 00 00       	mov    $0x1,%edi
  403067:	be 38 00 00 00       	mov    $0x38,%esi
  40306c:	ba 01 00 00 00       	mov    $0x1,%edx
  403071:	31 c0                	xor    %eax,%eax
  403073:	e8 b8 5e 00 00       	call   408f30 <__libirc_print>
  403078:	bf 01 00 00 00       	mov    $0x1,%edi
  40307d:	31 f6                	xor    %esi,%esi
  40307f:	31 d2                	xor    %edx,%edx
  403081:	31 c0                	xor    %eax,%eax
  403083:	e8 a8 5e 00 00       	call   408f30 <__libirc_print>
  403088:	64 48 8b 04 25 28 00 	mov    %fs:0x28,%rax
  40308f:	00 00 
  403091:	48 3b 84 24 30 04 00 	cmp    0x430(%rsp),%rax
  403098:	00 
  403099:	75 0a                	jne    4030a5 <__intel_new_feature_proc_init_n+0x365>
  40309b:	bf 01 00 00 00       	mov    $0x1,%edi
  4030a0:	e8 bb df ff ff       	call   401060 <exit@plt>
  4030a5:	e8 86 e0 ff ff       	call   401130 <__stack_chk_fail@plt>
  4030aa:	66 0f 1f 44 00 00    	nopw   0x0(%rax,%rax,1)

00000000004030b0 <__intel_new_feature_proc_init>:
  4030b0:	f3 0f 1e fa          	endbr64
  4030b4:	53                   	push   %rbx
  4030b5:	89 fb                	mov    %edi,%ebx
  4030b7:	31 ff                	xor    %edi,%edi
  4030b9:	e8 82 fc ff ff       	call   402d40 <__intel_new_feature_proc_init_n>
  4030be:	48 c7 c7 20 d1 40 00 	mov    $0x40d120,%rdi
  4030c5:	be 06 00 00 00       	mov    $0x6,%esi
  4030ca:	e8 e1 52 00 00       	call   4083b0 <__libirc_get_cpu_feature>
  4030cf:	83 f8 01             	cmp    $0x1,%eax
  4030d2:	75 0a                	jne    4030de <__intel_new_feature_proc_init+0x2e>
  4030d4:	31 ff                	xor    %edi,%edi
  4030d6:	89 de                	mov    %ebx,%esi
  4030d8:	5b                   	pop    %rbx
  4030d9:	e9 52 00 00 00       	jmp    403130 <__intel_proc_init_ftzdazule>
  4030de:	85 c0                	test   %eax,%eax
  4030e0:	78 02                	js     4030e4 <__intel_new_feature_proc_init+0x34>
  4030e2:	5b                   	pop    %rbx
  4030e3:	c3                   	ret
  4030e4:	bf 01 00 00 00       	mov    $0x1,%edi
  4030e9:	31 f6                	xor    %esi,%esi
  4030eb:	31 d2                	xor    %edx,%edx
  4030ed:	31 c0                	xor    %eax,%eax
  4030ef:	e8 3c 5e 00 00       	call   408f30 <__libirc_print>
  4030f4:	bf 01 00 00 00       	mov    $0x1,%edi
  4030f9:	be 3a 00 00 00       	mov    $0x3a,%esi
  4030fe:	31 d2                	xor    %edx,%edx
  403100:	31 c0                	xor    %eax,%eax
  403102:	e8 29 5e 00 00       	call   408f30 <__libirc_print>
  403107:	bf 01 00 00 00       	mov    $0x1,%edi
  40310c:	31 f6                	xor    %esi,%esi
  40310e:	31 d2                	xor    %edx,%edx
  403110:	31 c0                	xor    %eax,%eax
  403112:	e8 19 5e 00 00       	call   408f30 <__libirc_print>
  403117:	bf 01 00 00 00       	mov    $0x1,%edi
  40311c:	e8 3f df ff ff       	call   401060 <exit@plt>
  403121:	0f 1f 00             	nopl   (%rax)
  403124:	66 2e 0f 1f 84 00 00 	cs nopw 0x0(%rax,%rax,1)
  40312b:	00 00 00 
  40312e:	66 90                	xchg   %ax,%ax

0000000000403130 <__intel_proc_init_ftzdazule>:
  403130:	f3 0f 1e fa          	endbr64
  403134:	55                   	push   %rbp
  403135:	41 56                	push   %r14
  403137:	53                   	push   %rbx
  403138:	48 81 ec 20 02 00 00 	sub    $0x220,%rsp
  40313f:	89 f3                	mov    %esi,%ebx
  403141:	41 89 f6             	mov    %esi,%r14d
  403144:	41 83 e6 04          	and    $0x4,%r14d
  403148:	89 f5                	mov    %esi,%ebp
  40314a:	83 e5 02             	and    $0x2,%ebp
  40314d:	74 07                	je     403156 <__intel_proc_init_ftzdazule+0x26>
  40314f:	89 f8                	mov    %edi,%eax
  403151:	83 e0 02             	and    $0x2,%eax
  403154:	74 12                	je     403168 <__intel_proc_init_ftzdazule+0x38>
  403156:	31 c0                	xor    %eax,%eax
  403158:	45 85 f6             	test   %r14d,%r14d
  40315b:	74 38                	je     403195 <__intel_proc_init_ftzdazule+0x65>
  40315d:	b8 01 00 00 00       	mov    $0x1,%eax
  403162:	40 f6 c7 04          	test   $0x4,%dil
  403166:	75 2d                	jne    403195 <__intel_proc_init_ftzdazule+0x65>
  403168:	48 8d 7c 24 20       	lea    0x20(%rsp),%rdi
  40316d:	ba 00 02 00 00       	mov    $0x200,%edx
  403172:	31 f6                	xor    %esi,%esi
  403174:	e8 f7 df ff ff       	call   401170 <memset@plt>
  403179:	0f ae 44 24 20       	fxsave 0x20(%rsp)
  40317e:	8b 44 24 3c          	mov    0x3c(%rsp),%eax
  403182:	89 c1                	mov    %eax,%ecx
  403184:	c1 e1 19             	shl    $0x19,%ecx
  403187:	c1 f9 1f             	sar    $0x1f,%ecx
  40318a:	21 cd                	and    %ecx,%ebp
  40318c:	c1 e0 0e             	shl    $0xe,%eax
  40318f:	c1 f8 1f             	sar    $0x1f,%eax
  403192:	44 21 f0             	and    %r14d,%eax
  403195:	f6 c3 01             	test   $0x1,%bl
  403198:	74 17                	je     4031b1 <__intel_proc_init_ftzdazule+0x81>
  40319a:	0f ae 5c 24 1c       	stmxcsr 0x1c(%rsp)
  40319f:	b9 00 80 00 00       	mov    $0x8000,%ecx
  4031a4:	0b 4c 24 1c          	or     0x1c(%rsp),%ecx
  4031a8:	89 4c 24 18          	mov    %ecx,0x18(%rsp)
  4031ac:	0f ae 54 24 18       	ldmxcsr 0x18(%rsp)
  4031b1:	85 ed                	test   %ebp,%ebp
  4031b3:	74 15                	je     4031ca <__intel_proc_init_ftzdazule+0x9a>
  4031b5:	0f ae 5c 24 14       	stmxcsr 0x14(%rsp)
  4031ba:	8b 4c 24 14          	mov    0x14(%rsp),%ecx
  4031be:	83 c9 40             	or     $0x40,%ecx
  4031c1:	89 4c 24 10          	mov    %ecx,0x10(%rsp)
  4031c5:	0f ae 54 24 10       	ldmxcsr 0x10(%rsp)
  4031ca:	85 c0                	test   %eax,%eax
  4031cc:	74 17                	je     4031e5 <__intel_proc_init_ftzdazule+0xb5>
  4031ce:	0f ae 5c 24 0c       	stmxcsr 0xc(%rsp)
  4031d3:	b8 00 00 02 00       	mov    $0x20000,%eax
  4031d8:	0b 44 24 0c          	or     0xc(%rsp),%eax
  4031dc:	89 44 24 08          	mov    %eax,0x8(%rsp)
  4031e0:	0f ae 54 24 08       	ldmxcsr 0x8(%rsp)
  4031e5:	48 81 c4 20 02 00 00 	add    $0x220,%rsp
  4031ec:	5b                   	pop    %rbx
  4031ed:	41 5e                	pop    %r14
  4031ef:	5d                   	pop    %rbp
  4031f0:	c3                   	ret
  4031f1:	0f 1f 00             	nopl   (%rax)
  4031f4:	66 2e 0f 1f 84 00 00 	cs nopw 0x0(%rax,%rax,1)
  4031fb:	00 00 00 
  4031fe:	66 90                	xchg   %ax,%ax

0000000000403200 <__intel_mic_avx512f_memset>:
  403200:	f3 0f 1e fa          	endbr64
  403204:	48 89 f8             	mov    %rdi,%rax
  403207:	48 c7 c1 d0 d0 40 00 	mov    $0x40d0d0,%rcx
  40320e:	49 b8 01 01 01 01 01 	movabs $0x101010101010101,%r8
  403215:	01 01 01 
  403218:	4c 0f b6 ce          	movzbq %sil,%r9
  40321c:	4d 0f af c8          	imul   %r8,%r9
  403220:	48 8d 35 99 14 00 00 	lea    0x1499(%rip),%rsi        # 4046c0 <__intel_mic_avx512f_memset+0x14c0>
  403227:	62 d2 7d 48 7c c1    	vpbroadcastd %r9d,%zmm0
  40322d:	48 81 fa 80 00 00 00 	cmp    $0x80,%rdx
  403234:	7d 0c                	jge    403242 <__intel_mic_avx512f_memset+0x42>
  403236:	49 89 f8             	mov    %rdi,%r8
  403239:	49 01 d0             	add    %rdx,%r8
  40323c:	48 2b 34 d6          	sub    (%rsi,%rdx,8),%rsi
  403240:	ff e6                	jmp    *%rsi
  403242:	48 8d 35 77 02 00 00 	lea    0x277(%rip),%rsi        # 4034c0 <__intel_mic_avx512f_memset+0x2c0>
  403249:	49 89 fa             	mov    %rdi,%r10
  40324c:	49 f7 da             	neg    %r10
  40324f:	49 83 c2 40          	add    $0x40,%r10
  403253:	49 83 e2 3f          	and    $0x3f,%r10
  403257:	74 12                	je     40326b <__intel_mic_avx512f_memset+0x6b>
  403259:	4c 29 d2             	sub    %r10,%rdx
  40325c:	49 89 f8             	mov    %rdi,%r8
  40325f:	4d 01 d0             	add    %r10,%r8
  403262:	4a 2b 34 d6          	sub    (%rsi,%r10,8),%rsi
  403266:	ff e6                	jmp    *%rsi
  403268:	4c 01 d7             	add    %r10,%rdi
  40326b:	48 81 fa 00 02 00 00 	cmp    $0x200,%rdx
  403272:	0f 8c 21 01 00 00    	jl     403399 <__intel_mic_avx512f_memset+0x199>
  403278:	48 3b 11             	cmp    (%rcx),%rdx
  40327b:	73 53                	jae    4032d0 <__intel_mic_avx512f_memset+0xd0>
  40327d:	62 f1 7c 48 29 07    	vmovaps %zmm0,(%rdi)
  403283:	62 f1 7c 48 29 47 01 	vmovaps %zmm0,0x40(%rdi)
  40328a:	62 f1 7c 48 29 47 02 	vmovaps %zmm0,0x80(%rdi)
  403291:	62 f1 7c 48 29 47 03 	vmovaps %zmm0,0xc0(%rdi)
  403298:	48 8d bf 00 02 00 00 	lea    0x200(%rdi),%rdi
  40329f:	48 81 ea 00 02 00 00 	sub    $0x200,%rdx
  4032a6:	62 f1 7c 48 29 47 fc 	vmovaps %zmm0,-0x100(%rdi)
  4032ad:	62 f1 7c 48 29 47 fd 	vmovaps %zmm0,-0xc0(%rdi)
  4032b4:	62 f1 7c 48 29 47 fe 	vmovaps %zmm0,-0x80(%rdi)
  4032bb:	62 f1 7c 48 29 47 ff 	vmovaps %zmm0,-0x40(%rdi)
  4032c2:	48 81 fa 00 02 00 00 	cmp    $0x200,%rdx
  4032c9:	7d b2                	jge    40327d <__intel_mic_avx512f_memset+0x7d>
  4032cb:	e9 c9 00 00 00       	jmp    403399 <__intel_mic_avx512f_memset+0x199>
  4032d0:	62 f1 7d 48 e7 07    	vmovntdq %zmm0,(%rdi)
  4032d6:	62 f1 7d 48 e7 47 01 	vmovntdq %zmm0,0x40(%rdi)
  4032dd:	62 f1 7d 48 e7 47 02 	vmovntdq %zmm0,0x80(%rdi)
  4032e4:	62 f1 7d 48 e7 47 03 	vmovntdq %zmm0,0xc0(%rdi)
  4032eb:	48 8d bf 00 02 00 00 	lea    0x200(%rdi),%rdi
  4032f2:	48 81 ea 00 02 00 00 	sub    $0x200,%rdx
  4032f9:	62 f1 7d 48 e7 47 fc 	vmovntdq %zmm0,-0x100(%rdi)
  403300:	62 f1 7d 48 e7 47 fd 	vmovntdq %zmm0,-0xc0(%rdi)
  403307:	62 f1 7d 48 e7 47 fe 	vmovntdq %zmm0,-0x80(%rdi)
  40330e:	62 f1 7d 48 e7 47 ff 	vmovntdq %zmm0,-0x40(%rdi)
  403315:	48 81 fa 00 02 00 00 	cmp    $0x200,%rdx
  40331c:	7d b2                	jge    4032d0 <__intel_mic_avx512f_memset+0xd0>
  40331e:	0f ae f8             	sfence
  403321:	eb 76                	jmp    403399 <__intel_mic_avx512f_memset+0x199>
  403323:	44 88 0f             	mov    %r9b,(%rdi)
  403326:	e9 3d ff ff ff       	jmp    403268 <__intel_mic_avx512f_memset+0x68>
  40332b:	66 44 89 0f          	mov    %r9w,(%rdi)
  40332f:	e9 34 ff ff ff       	jmp    403268 <__intel_mic_avx512f_memset+0x68>
  403334:	66 44 89 0f          	mov    %r9w,(%rdi)
  403338:	44 88 4f 02          	mov    %r9b,0x2(%rdi)
  40333c:	e9 27 ff ff ff       	jmp    403268 <__intel_mic_avx512f_memset+0x68>
  403341:	44 89 0f             	mov    %r9d,(%rdi)
  403344:	e9 1f ff ff ff       	jmp    403268 <__intel_mic_avx512f_memset+0x68>
  403349:	44 89 0f             	mov    %r9d,(%rdi)
  40334c:	45 89 48 fc          	mov    %r9d,-0x4(%r8)
  403350:	e9 13 ff ff ff       	jmp    403268 <__intel_mic_avx512f_memset+0x68>
  403355:	4c 89 0f             	mov    %r9,(%rdi)
  403358:	e9 0b ff ff ff       	jmp    403268 <__intel_mic_avx512f_memset+0x68>
  40335d:	4c 89 0f             	mov    %r9,(%rdi)
  403360:	4d 89 48 f8          	mov    %r9,-0x8(%r8)
  403364:	e9 ff fe ff ff       	jmp    403268 <__intel_mic_avx512f_memset+0x68>
  403369:	c5 f8 11 07          	vmovups %xmm0,(%rdi)
  40336d:	e9 f6 fe ff ff       	jmp    403268 <__intel_mic_avx512f_memset+0x68>
  403372:	c5 f8 11 07          	vmovups %xmm0,(%rdi)
  403376:	c4 c1 78 11 40 f0    	vmovups %xmm0,-0x10(%r8)
  40337c:	e9 e7 fe ff ff       	jmp    403268 <__intel_mic_avx512f_memset+0x68>
  403381:	c5 fc 11 07          	vmovups %ymm0,(%rdi)
  403385:	e9 de fe ff ff       	jmp    403268 <__intel_mic_avx512f_memset+0x68>
  40338a:	c5 fc 11 07          	vmovups %ymm0,(%rdi)
  40338e:	c4 c1 7c 11 40 e0    	vmovups %ymm0,-0x20(%r8)
  403394:	e9 cf fe ff ff       	jmp    403268 <__intel_mic_avx512f_memset+0x68>
  403399:	49 89 f8             	mov    %rdi,%r8
  40339c:	49 01 d0             	add    %rdx,%r8
  40339f:	48 01 d7             	add    %rdx,%rdi
  4033a2:	48 83 e7 c0          	and    $0xffffffffffffffc0,%rdi
  4033a6:	48 8d 35 13 03 00 00 	lea    0x313(%rip),%rsi        # 4036c0 <__intel_mic_avx512f_memset+0x4c0>
  4033ad:	48 2b 34 d6          	sub    (%rsi,%rdx,8),%rsi
  4033b1:	ff e6                	jmp    *%rsi
  4033b3:	62 f1 7c 48 29 47 f9 	vmovaps %zmm0,-0x1c0(%rdi)
  4033ba:	62 f1 7c 48 29 47 fa 	vmovaps %zmm0,-0x180(%rdi)
  4033c1:	62 f1 7c 48 29 47 fb 	vmovaps %zmm0,-0x140(%rdi)
  4033c8:	62 f1 7c 48 29 47 fc 	vmovaps %zmm0,-0x100(%rdi)
  4033cf:	62 f1 7c 48 29 47 fd 	vmovaps %zmm0,-0xc0(%rdi)
  4033d6:	62 f1 7c 48 29 47 fe 	vmovaps %zmm0,-0x80(%rdi)
  4033dd:	62 f1 7c 48 29 47 ff 	vmovaps %zmm0,-0x40(%rdi)
  4033e4:	4c 89 c2             	mov    %r8,%rdx
  4033e7:	48 83 e2 3f          	and    $0x3f,%rdx
  4033eb:	48 8d 35 ce 02 00 00 	lea    0x2ce(%rip),%rsi        # 4036c0 <__intel_mic_avx512f_memset+0x4c0>
  4033f2:	48 2b 34 d6          	sub    (%rsi,%rdx,8),%rsi
  4033f6:	ff e6                	jmp    *%rsi
  4033f8:	44 88 0f             	mov    %r9b,(%rdi)
  4033fb:	e9 c0 16 00 00       	jmp    404ac0 <__intel_mic_avx512f_memset+0x18c0>
  403400:	e9 bb 16 00 00       	jmp    404ac0 <__intel_mic_avx512f_memset+0x18c0>
  403405:	66 44 89 0f          	mov    %r9w,(%rdi)
  403409:	e9 b2 16 00 00       	jmp    404ac0 <__intel_mic_avx512f_memset+0x18c0>
  40340e:	66 44 89 0f          	mov    %r9w,(%rdi)
  403412:	44 88 4f 02          	mov    %r9b,0x2(%rdi)
  403416:	e9 a5 16 00 00       	jmp    404ac0 <__intel_mic_avx512f_memset+0x18c0>
  40341b:	44 89 0f             	mov    %r9d,(%rdi)
  40341e:	e9 9d 16 00 00       	jmp    404ac0 <__intel_mic_avx512f_memset+0x18c0>
  403423:	44 89 0f             	mov    %r9d,(%rdi)
  403426:	45 89 48 fc          	mov    %r9d,-0x4(%r8)
  40342a:	e9 91 16 00 00       	jmp    404ac0 <__intel_mic_avx512f_memset+0x18c0>
  40342f:	4c 89 0f             	mov    %r9,(%rdi)
  403432:	e9 89 16 00 00       	jmp    404ac0 <__intel_mic_avx512f_memset+0x18c0>
  403437:	4c 89 0f             	mov    %r9,(%rdi)
  40343a:	4d 89 48 f8          	mov    %r9,-0x8(%r8)
  40343e:	e9 7d 16 00 00       	jmp    404ac0 <__intel_mic_avx512f_memset+0x18c0>
  403443:	c5 f8 11 07          	vmovups %xmm0,(%rdi)
  403447:	e9 74 16 00 00       	jmp    404ac0 <__intel_mic_avx512f_memset+0x18c0>
  40344c:	c5 f8 11 07          	vmovups %xmm0,(%rdi)
  403450:	c4 c1 78 11 40 f0    	vmovups %xmm0,-0x10(%r8)
  403456:	e9 65 16 00 00       	jmp    404ac0 <__intel_mic_avx512f_memset+0x18c0>
  40345b:	c5 fc 11 07          	vmovups %ymm0,(%rdi)
  40345f:	e9 5c 16 00 00       	jmp    404ac0 <__intel_mic_avx512f_memset+0x18c0>
  403464:	c5 fc 11 07          	vmovups %ymm0,(%rdi)
  403468:	c4 c1 7c 11 40 e0    	vmovups %ymm0,-0x20(%r8)
  40346e:	e9 4d 16 00 00       	jmp    404ac0 <__intel_mic_avx512f_memset+0x18c0>
  403473:	62 f1 7c 48 11 07    	vmovups %zmm0,(%rdi)
  403479:	e9 42 16 00 00       	jmp    404ac0 <__intel_mic_avx512f_memset+0x18c0>
  40347e:	62 f1 7c 48 11 07    	vmovups %zmm0,(%rdi)
  403484:	62 d1 7c 48 11 40 ff 	vmovups %zmm0,-0x40(%r8)
  40348b:	e9 30 16 00 00       	jmp    404ac0 <__intel_mic_avx512f_memset+0x18c0>
  403490:	66 66 66 66 66 66 2e 	data16 data16 data16 data16 data16 cs nopw 0x0(%rax,%rax,1)
  403497:	0f 1f 84 00 00 00 00 
  40349e:	00 
  40349f:	66 66 66 66 66 66 2e 	data16 data16 data16 data16 data16 cs nopw 0x0(%rax,%rax,1)
  4034a6:	0f 1f 84 00 00 00 00 
  4034ad:	00 
  4034ae:	66 66 66 66 66 66 2e 	data16 data16 data16 data16 data16 cs nopw 0x0(%rax,%rax,1)
  4034b5:	0f 1f 84 00 00 00 00 
  4034bc:	00 
  4034bd:	0f 1f 00             	nopl   (%rax)
  4034c0:	9a                   	(bad)
  4034c1:	01 00                	add    %eax,(%rax)
  4034c3:	00 00                	add    %al,(%rax)
  4034c5:	00 00                	add    %al,(%rax)
  4034c7:	00 9d 01 00 00 00    	add    %bl,0x1(%rbp)
  4034cd:	00 00                	add    %al,(%rax)
  4034cf:	00 95 01 00 00 00    	add    %dl,0x1(%rbp)
  4034d5:	00 00                	add    %al,(%rax)
  4034d7:	00 8c 01 00 00 00 00 	add    %cl,0x0(%rcx,%rax,1)
  4034de:	00 00                	add    %al,(%rax)
  4034e0:	7f 01                	jg     4034e3 <__intel_mic_avx512f_memset+0x2e3>
  4034e2:	00 00                	add    %al,(%rax)
  4034e4:	00 00                	add    %al,(%rax)
  4034e6:	00 00                	add    %al,(%rax)
  4034e8:	77 01                	ja     4034eb <__intel_mic_avx512f_memset+0x2eb>
  4034ea:	00 00                	add    %al,(%rax)
  4034ec:	00 00                	add    %al,(%rax)
  4034ee:	00 00                	add    %al,(%rax)
  4034f0:	77 01                	ja     4034f3 <__intel_mic_avx512f_memset+0x2f3>
  4034f2:	00 00                	add    %al,(%rax)
  4034f4:	00 00                	add    %al,(%rax)
  4034f6:	00 00                	add    %al,(%rax)
  4034f8:	77 01                	ja     4034fb <__intel_mic_avx512f_memset+0x2fb>
  4034fa:	00 00                	add    %al,(%rax)
  4034fc:	00 00                	add    %al,(%rax)
  4034fe:	00 00                	add    %al,(%rax)
  403500:	6b 01 00             	imul   $0x0,(%rcx),%eax
  403503:	00 00                	add    %al,(%rax)
  403505:	00 00                	add    %al,(%rax)
  403507:	00 63 01             	add    %ah,0x1(%rbx)
  40350a:	00 00                	add    %al,(%rax)
  40350c:	00 00                	add    %al,(%rax)
  40350e:	00 00                	add    %al,(%rax)
  403510:	63 01                	movsxd (%rcx),%eax
  403512:	00 00                	add    %al,(%rax)
  403514:	00 00                	add    %al,(%rax)
  403516:	00 00                	add    %al,(%rax)
  403518:	63 01                	movsxd (%rcx),%eax
  40351a:	00 00                	add    %al,(%rax)
  40351c:	00 00                	add    %al,(%rax)
  40351e:	00 00                	add    %al,(%rax)
  403520:	63 01                	movsxd (%rcx),%eax
  403522:	00 00                	add    %al,(%rax)
  403524:	00 00                	add    %al,(%rax)
  403526:	00 00                	add    %al,(%rax)
  403528:	63 01                	movsxd (%rcx),%eax
  40352a:	00 00                	add    %al,(%rax)
  40352c:	00 00                	add    %al,(%rax)
  40352e:	00 00                	add    %al,(%rax)
  403530:	63 01                	movsxd (%rcx),%eax
  403532:	00 00                	add    %al,(%rax)
  403534:	00 00                	add    %al,(%rax)
  403536:	00 00                	add    %al,(%rax)
  403538:	63 01                	movsxd (%rcx),%eax
  40353a:	00 00                	add    %al,(%rax)
  40353c:	00 00                	add    %al,(%rax)
  40353e:	00 00                	add    %al,(%rax)
  403540:	57                   	push   %rdi
  403541:	01 00                	add    %eax,(%rax)
  403543:	00 00                	add    %al,(%rax)
  403545:	00 00                	add    %al,(%rax)
  403547:	00 4e 01             	add    %cl,0x1(%rsi)
  40354a:	00 00                	add    %al,(%rax)
  40354c:	00 00                	add    %al,(%rax)
  40354e:	00 00                	add    %al,(%rax)
  403550:	4e 01 00             	rex.WRX add %r8,(%rax)
  403553:	00 00                	add    %al,(%rax)
  403555:	00 00                	add    %al,(%rax)
  403557:	00 4e 01             	add    %cl,0x1(%rsi)
  40355a:	00 00                	add    %al,(%rax)
  40355c:	00 00                	add    %al,(%rax)
  40355e:	00 00                	add    %al,(%rax)
  403560:	4e 01 00             	rex.WRX add %r8,(%rax)
  403563:	00 00                	add    %al,(%rax)
  403565:	00 00                	add    %al,(%rax)
  403567:	00 4e 01             	add    %cl,0x1(%rsi)
  40356a:	00 00                	add    %al,(%rax)
  40356c:	00 00                	add    %al,(%rax)
  40356e:	00 00                	add    %al,(%rax)
  403570:	4e 01 00             	rex.WRX add %r8,(%rax)
  403573:	00 00                	add    %al,(%rax)
  403575:	00 00                	add    %al,(%rax)
  403577:	00 4e 01             	add    %cl,0x1(%rsi)
  40357a:	00 00                	add    %al,(%rax)
  40357c:	00 00                	add    %al,(%rax)
  40357e:	00 00                	add    %al,(%rax)
  403580:	4e 01 00             	rex.WRX add %r8,(%rax)
  403583:	00 00                	add    %al,(%rax)
  403585:	00 00                	add    %al,(%rax)
  403587:	00 4e 01             	add    %cl,0x1(%rsi)
  40358a:	00 00                	add    %al,(%rax)
  40358c:	00 00                	add    %al,(%rax)
  40358e:	00 00                	add    %al,(%rax)
  403590:	4e 01 00             	rex.WRX add %r8,(%rax)
  403593:	00 00                	add    %al,(%rax)
  403595:	00 00                	add    %al,(%rax)
  403597:	00 4e 01             	add    %cl,0x1(%rsi)
  40359a:	00 00                	add    %al,(%rax)
  40359c:	00 00                	add    %al,(%rax)
  40359e:	00 00                	add    %al,(%rax)
  4035a0:	4e 01 00             	rex.WRX add %r8,(%rax)
  4035a3:	00 00                	add    %al,(%rax)
  4035a5:	00 00                	add    %al,(%rax)
  4035a7:	00 4e 01             	add    %cl,0x1(%rsi)
  4035aa:	00 00                	add    %al,(%rax)
  4035ac:	00 00                	add    %al,(%rax)
  4035ae:	00 00                	add    %al,(%rax)
  4035b0:	4e 01 00             	rex.WRX add %r8,(%rax)
  4035b3:	00 00                	add    %al,(%rax)
  4035b5:	00 00                	add    %al,(%rax)
  4035b7:	00 4e 01             	add    %cl,0x1(%rsi)
  4035ba:	00 00                	add    %al,(%rax)
  4035bc:	00 00                	add    %al,(%rax)
  4035be:	00 00                	add    %al,(%rax)
  4035c0:	3f                   	(bad)
  4035c1:	01 00                	add    %eax,(%rax)
  4035c3:	00 00                	add    %al,(%rax)
  4035c5:	00 00                	add    %al,(%rax)
  4035c7:	00 36                	add    %dh,(%rsi)
  4035c9:	01 00                	add    %eax,(%rax)
  4035cb:	00 00                	add    %al,(%rax)
  4035cd:	00 00                	add    %al,(%rax)
  4035cf:	00 36                	add    %dh,(%rsi)
  4035d1:	01 00                	add    %eax,(%rax)
  4035d3:	00 00                	add    %al,(%rax)
  4035d5:	00 00                	add    %al,(%rax)
  4035d7:	00 36                	add    %dh,(%rsi)
  4035d9:	01 00                	add    %eax,(%rax)
  4035db:	00 00                	add    %al,(%rax)
  4035dd:	00 00                	add    %al,(%rax)
  4035df:	00 36                	add    %dh,(%rsi)
  4035e1:	01 00                	add    %eax,(%rax)
  4035e3:	00 00                	add    %al,(%rax)
  4035e5:	00 00                	add    %al,(%rax)
  4035e7:	00 36                	add    %dh,(%rsi)
  4035e9:	01 00                	add    %eax,(%rax)
  4035eb:	00 00                	add    %al,(%rax)
  4035ed:	00 00                	add    %al,(%rax)
  4035ef:	00 36                	add    %dh,(%rsi)
  4035f1:	01 00                	add    %eax,(%rax)
  4035f3:	00 00                	add    %al,(%rax)
  4035f5:	00 00                	add    %al,(%rax)
  4035f7:	00 36                	add    %dh,(%rsi)
  4035f9:	01 00                	add    %eax,(%rax)
  4035fb:	00 00                	add    %al,(%rax)
  4035fd:	00 00                	add    %al,(%rax)
  4035ff:	00 36                	add    %dh,(%rsi)
  403601:	01 00                	add    %eax,(%rax)
  403603:	00 00                	add    %al,(%rax)
  403605:	00 00                	add    %al,(%rax)
  403607:	00 36                	add    %dh,(%rsi)
  403609:	01 00                	add    %eax,(%rax)
  40360b:	00 00                	add    %al,(%rax)
  40360d:	00 00                	add    %al,(%rax)
  40360f:	00 36                	add    %dh,(%rsi)
  403611:	01 00                	add    %eax,(%rax)
  403613:	00 00                	add    %al,(%rax)
  403615:	00 00                	add    %al,(%rax)
  403617:	00 36                	add    %dh,(%rsi)
  403619:	01 00                	add    %eax,(%rax)
  40361b:	00 00                	add    %al,(%rax)
  40361d:	00 00                	add    %al,(%rax)
  40361f:	00 36                	add    %dh,(%rsi)
  403621:	01 00                	add    %eax,(%rax)
  403623:	00 00                	add    %al,(%rax)
  403625:	00 00                	add    %al,(%rax)
  403627:	00 36                	add    %dh,(%rsi)
  403629:	01 00                	add    %eax,(%rax)
  40362b:	00 00                	add    %al,(%rax)
  40362d:	00 00                	add    %al,(%rax)
  40362f:	00 36                	add    %dh,(%rsi)
  403631:	01 00                	add    %eax,(%rax)
  403633:	00 00                	add    %al,(%rax)
  403635:	00 00                	add    %al,(%rax)
  403637:	00 36                	add    %dh,(%rsi)
  403639:	01 00                	add    %eax,(%rax)
  40363b:	00 00                	add    %al,(%rax)
  40363d:	00 00                	add    %al,(%rax)
  40363f:	00 36                	add    %dh,(%rsi)
  403641:	01 00                	add    %eax,(%rax)
  403643:	00 00                	add    %al,(%rax)
  403645:	00 00                	add    %al,(%rax)
  403647:	00 36                	add    %dh,(%rsi)
  403649:	01 00                	add    %eax,(%rax)
  40364b:	00 00                	add    %al,(%rax)
  40364d:	00 00                	add    %al,(%rax)
  40364f:	00 36                	add    %dh,(%rsi)
  403651:	01 00                	add    %eax,(%rax)
  403653:	00 00                	add    %al,(%rax)
  403655:	00 00                	add    %al,(%rax)
  403657:	00 36                	add    %dh,(%rsi)
  403659:	01 00                	add    %eax,(%rax)
  40365b:	00 00                	add    %al,(%rax)
  40365d:	00 00                	add    %al,(%rax)
  40365f:	00 36                	add    %dh,(%rsi)
  403661:	01 00                	add    %eax,(%rax)
  403663:	00 00                	add    %al,(%rax)
  403665:	00 00                	add    %al,(%rax)
  403667:	00 36                	add    %dh,(%rsi)
  403669:	01 00                	add    %eax,(%rax)
  40366b:	00 00                	add    %al,(%rax)
  40366d:	00 00                	add    %al,(%rax)
  40366f:	00 36                	add    %dh,(%rsi)
  403671:	01 00                	add    %eax,(%rax)
  403673:	00 00                	add    %al,(%rax)
  403675:	00 00                	add    %al,(%rax)
  403677:	00 36                	add    %dh,(%rsi)
  403679:	01 00                	add    %eax,(%rax)
  40367b:	00 00                	add    %al,(%rax)
  40367d:	00 00                	add    %al,(%rax)
  40367f:	00 36                	add    %dh,(%rsi)
  403681:	01 00                	add    %eax,(%rax)
  403683:	00 00                	add    %al,(%rax)
  403685:	00 00                	add    %al,(%rax)
  403687:	00 36                	add    %dh,(%rsi)
  403689:	01 00                	add    %eax,(%rax)
  40368b:	00 00                	add    %al,(%rax)
  40368d:	00 00                	add    %al,(%rax)
  40368f:	00 36                	add    %dh,(%rsi)
  403691:	01 00                	add    %eax,(%rax)
  403693:	00 00                	add    %al,(%rax)
  403695:	00 00                	add    %al,(%rax)
  403697:	00 36                	add    %dh,(%rsi)
  403699:	01 00                	add    %eax,(%rax)
  40369b:	00 00                	add    %al,(%rax)
  40369d:	00 00                	add    %al,(%rax)
  40369f:	00 36                	add    %dh,(%rsi)
  4036a1:	01 00                	add    %eax,(%rax)
  4036a3:	00 00                	add    %al,(%rax)
  4036a5:	00 00                	add    %al,(%rax)
  4036a7:	00 36                	add    %dh,(%rsi)
  4036a9:	01 00                	add    %eax,(%rax)
  4036ab:	00 00                	add    %al,(%rax)
  4036ad:	00 00                	add    %al,(%rax)
  4036af:	00 36                	add    %dh,(%rsi)
  4036b1:	01 00                	add    %eax,(%rax)
  4036b3:	00 00                	add    %al,(%rax)
  4036b5:	00 00                	add    %al,(%rax)
  4036b7:	00 36                	add    %dh,(%rsi)
  4036b9:	01 00                	add    %eax,(%rax)
  4036bb:	00 00                	add    %al,(%rax)
  4036bd:	00 00                	add    %al,(%rax)
  4036bf:	00 c0                	add    %al,%al
  4036c1:	02 00                	add    (%rax),%al
  4036c3:	00 00                	add    %al,(%rax)
  4036c5:	00 00                	add    %al,(%rax)
  4036c7:	00 c8                	add    %cl,%al
  4036c9:	02 00                	add    (%rax),%al
  4036cb:	00 00                	add    %al,(%rax)
  4036cd:	00 00                	add    %al,(%rax)
  4036cf:	00 bb 02 00 00 00    	add    %bh,0x2(%rbx)
  4036d5:	00 00                	add    %al,(%rax)
  4036d7:	00 b2 02 00 00 00    	add    %dh,0x2(%rdx)
  4036dd:	00 00                	add    %al,(%rax)
  4036df:	00 a5 02 00 00 00    	add    %ah,0x2(%rbp)
  4036e5:	00 00                	add    %al,(%rax)
  4036e7:	00 9d 02 00 00 00    	add    %bl,0x2(%rbp)
  4036ed:	00 00                	add    %al,(%rax)
  4036ef:	00 9d 02 00 00 00    	add    %bl,0x2(%rbp)
  4036f5:	00 00                	add    %al,(%rax)
  4036f7:	00 9d 02 00 00 00    	add    %bl,0x2(%rbp)
  4036fd:	00 00                	add    %al,(%rax)
  4036ff:	00 91 02 00 00 00    	add    %dl,0x2(%rcx)
  403705:	00 00                	add    %al,(%rax)
  403707:	00 89 02 00 00 00    	add    %cl,0x2(%rcx)
  40370d:	00 00                	add    %al,(%rax)
  40370f:	00 89 02 00 00 00    	add    %cl,0x2(%rcx)
  403715:	00 00                	add    %al,(%rax)
  403717:	00 89 02 00 00 00    	add    %cl,0x2(%rcx)
  40371d:	00 00                	add    %al,(%rax)
  40371f:	00 89 02 00 00 00    	add    %cl,0x2(%rcx)
  403725:	00 00                	add    %al,(%rax)
  403727:	00 89 02 00 00 00    	add    %cl,0x2(%rcx)
  40372d:	00 00                	add    %al,(%rax)
  40372f:	00 89 02 00 00 00    	add    %cl,0x2(%rcx)
  403735:	00 00                	add    %al,(%rax)
  403737:	00 89 02 00 00 00    	add    %cl,0x2(%rcx)
  40373d:	00 00                	add    %al,(%rax)
  40373f:	00 7d 02             	add    %bh,0x2(%rbp)
  403742:	00 00                	add    %al,(%rax)
  403744:	00 00                	add    %al,(%rax)
  403746:	00 00                	add    %al,(%rax)
  403748:	74 02                	je     40374c <__intel_mic_avx512f_memset+0x54c>
  40374a:	00 00                	add    %al,(%rax)
  40374c:	00 00                	add    %al,(%rax)
  40374e:	00 00                	add    %al,(%rax)
  403750:	74 02                	je     403754 <__intel_mic_avx512f_memset+0x554>
  403752:	00 00                	add    %al,(%rax)
  403754:	00 00                	add    %al,(%rax)
  403756:	00 00                	add    %al,(%rax)
  403758:	74 02                	je     40375c <__intel_mic_avx512f_memset+0x55c>
  40375a:	00 00                	add    %al,(%rax)
  40375c:	00 00                	add    %al,(%rax)
  40375e:	00 00                	add    %al,(%rax)
  403760:	74 02                	je     403764 <__intel_mic_avx512f_memset+0x564>
  403762:	00 00                	add    %al,(%rax)
  403764:	00 00                	add    %al,(%rax)
  403766:	00 00                	add    %al,(%rax)
  403768:	74 02                	je     40376c <__intel_mic_avx512f_memset+0x56c>
  40376a:	00 00                	add    %al,(%rax)
  40376c:	00 00                	add    %al,(%rax)
  40376e:	00 00                	add    %al,(%rax)
  403770:	74 02                	je     403774 <__intel_mic_avx512f_memset+0x574>
  403772:	00 00                	add    %al,(%rax)
  403774:	00 00                	add    %al,(%rax)
  403776:	00 00                	add    %al,(%rax)
  403778:	74 02                	je     40377c <__intel_mic_avx512f_memset+0x57c>
  40377a:	00 00                	add    %al,(%rax)
  40377c:	00 00                	add    %al,(%rax)
  40377e:	00 00                	add    %al,(%rax)
  403780:	74 02                	je     403784 <__intel_mic_avx512f_memset+0x584>
  403782:	00 00                	add    %al,(%rax)
  403784:	00 00                	add    %al,(%rax)
  403786:	00 00                	add    %al,(%rax)
  403788:	74 02                	je     40378c <__intel_mic_avx512f_memset+0x58c>
  40378a:	00 00                	add    %al,(%rax)
  40378c:	00 00                	add    %al,(%rax)
  40378e:	00 00                	add    %al,(%rax)
  403790:	74 02                	je     403794 <__intel_mic_avx512f_memset+0x594>
  403792:	00 00                	add    %al,(%rax)
  403794:	00 00                	add    %al,(%rax)
  403796:	00 00                	add    %al,(%rax)
  403798:	74 02                	je     40379c <__intel_mic_avx512f_memset+0x59c>
  40379a:	00 00                	add    %al,(%rax)
  40379c:	00 00                	add    %al,(%rax)
  40379e:	00 00                	add    %al,(%rax)
  4037a0:	74 02                	je     4037a4 <__intel_mic_avx512f_memset+0x5a4>
  4037a2:	00 00                	add    %al,(%rax)
  4037a4:	00 00                	add    %al,(%rax)
  4037a6:	00 00                	add    %al,(%rax)
  4037a8:	74 02                	je     4037ac <__intel_mic_avx512f_memset+0x5ac>
  4037aa:	00 00                	add    %al,(%rax)
  4037ac:	00 00                	add    %al,(%rax)
  4037ae:	00 00                	add    %al,(%rax)
  4037b0:	74 02                	je     4037b4 <__intel_mic_avx512f_memset+0x5b4>
  4037b2:	00 00                	add    %al,(%rax)
  4037b4:	00 00                	add    %al,(%rax)
  4037b6:	00 00                	add    %al,(%rax)
  4037b8:	74 02                	je     4037bc <__intel_mic_avx512f_memset+0x5bc>
  4037ba:	00 00                	add    %al,(%rax)
  4037bc:	00 00                	add    %al,(%rax)
  4037be:	00 00                	add    %al,(%rax)
  4037c0:	65 02 00             	add    %gs:(%rax),%al
  4037c3:	00 00                	add    %al,(%rax)
  4037c5:	00 00                	add    %al,(%rax)
  4037c7:	00 5c 02 00          	add    %bl,0x0(%rdx,%rax,1)
  4037cb:	00 00                	add    %al,(%rax)
  4037cd:	00 00                	add    %al,(%rax)
  4037cf:	00 5c 02 00          	add    %bl,0x0(%rdx,%rax,1)
  4037d3:	00 00                	add    %al,(%rax)
  4037d5:	00 00                	add    %al,(%rax)
  4037d7:	00 5c 02 00          	add    %bl,0x0(%rdx,%rax,1)
  4037db:	00 00                	add    %al,(%rax)
  4037dd:	00 00                	add    %al,(%rax)
  4037df:	00 5c 02 00          	add    %bl,0x0(%rdx,%rax,1)
  4037e3:	00 00                	add    %al,(%rax)
  4037e5:	00 00                	add    %al,(%rax)
  4037e7:	00 5c 02 00          	add    %bl,0x0(%rdx,%rax,1)
  4037eb:	00 00                	add    %al,(%rax)
  4037ed:	00 00                	add    %al,(%rax)
  4037ef:	00 5c 02 00          	add    %bl,0x0(%rdx,%rax,1)
  4037f3:	00 00                	add    %al,(%rax)
  4037f5:	00 00                	add    %al,(%rax)
  4037f7:	00 5c 02 00          	add    %bl,0x0(%rdx,%rax,1)
  4037fb:	00 00                	add    %al,(%rax)
  4037fd:	00 00                	add    %al,(%rax)
  4037ff:	00 5c 02 00          	add    %bl,0x0(%rdx,%rax,1)
  403803:	00 00                	add    %al,(%rax)
  403805:	00 00                	add    %al,(%rax)
  403807:	00 5c 02 00          	add    %bl,0x0(%rdx,%rax,1)
  40380b:	00 00                	add    %al,(%rax)
  40380d:	00 00                	add    %al,(%rax)
  40380f:	00 5c 02 00          	add    %bl,0x0(%rdx,%rax,1)
  403813:	00 00                	add    %al,(%rax)
  403815:	00 00                	add    %al,(%rax)
  403817:	00 5c 02 00          	add    %bl,0x0(%rdx,%rax,1)
  40381b:	00 00                	add    %al,(%rax)
  40381d:	00 00                	add    %al,(%rax)
  40381f:	00 5c 02 00          	add    %bl,0x0(%rdx,%rax,1)
  403823:	00 00                	add    %al,(%rax)
  403825:	00 00                	add    %al,(%rax)
  403827:	00 5c 02 00          	add    %bl,0x0(%rdx,%rax,1)
  40382b:	00 00                	add    %al,(%rax)
  40382d:	00 00                	add    %al,(%rax)
  40382f:	00 5c 02 00          	add    %bl,0x0(%rdx,%rax,1)
  403833:	00 00                	add    %al,(%rax)
  403835:	00 00                	add    %al,(%rax)
  403837:	00 5c 02 00          	add    %bl,0x0(%rdx,%rax,1)
  40383b:	00 00                	add    %al,(%rax)
  40383d:	00 00                	add    %al,(%rax)
  40383f:	00 5c 02 00          	add    %bl,0x0(%rdx,%rax,1)
  403843:	00 00                	add    %al,(%rax)
  403845:	00 00                	add    %al,(%rax)
  403847:	00 5c 02 00          	add    %bl,0x0(%rdx,%rax,1)
  40384b:	00 00                	add    %al,(%rax)
  40384d:	00 00                	add    %al,(%rax)
  40384f:	00 5c 02 00          	add    %bl,0x0(%rdx,%rax,1)
  403853:	00 00                	add    %al,(%rax)
  403855:	00 00                	add    %al,(%rax)
  403857:	00 5c 02 00          	add    %bl,0x0(%rdx,%rax,1)
  40385b:	00 00                	add    %al,(%rax)
  40385d:	00 00                	add    %al,(%rax)
  40385f:	00 5c 02 00          	add    %bl,0x0(%rdx,%rax,1)
  403863:	00 00                	add    %al,(%rax)
  403865:	00 00                	add    %al,(%rax)
  403867:	00 5c 02 00          	add    %bl,0x0(%rdx,%rax,1)
  40386b:	00 00                	add    %al,(%rax)
  40386d:	00 00                	add    %al,(%rax)
  40386f:	00 5c 02 00          	add    %bl,0x0(%rdx,%rax,1)
  403873:	00 00                	add    %al,(%rax)
  403875:	00 00                	add    %al,(%rax)
  403877:	00 5c 02 00          	add    %bl,0x0(%rdx,%rax,1)
  40387b:	00 00                	add    %al,(%rax)
  40387d:	00 00                	add    %al,(%rax)
  40387f:	00 5c 02 00          	add    %bl,0x0(%rdx,%rax,1)
  403883:	00 00                	add    %al,(%rax)
  403885:	00 00                	add    %al,(%rax)
  403887:	00 5c 02 00          	add    %bl,0x0(%rdx,%rax,1)
  40388b:	00 00                	add    %al,(%rax)
  40388d:	00 00                	add    %al,(%rax)
  40388f:	00 5c 02 00          	add    %bl,0x0(%rdx,%rax,1)
  403893:	00 00                	add    %al,(%rax)
  403895:	00 00                	add    %al,(%rax)
  403897:	00 5c 02 00          	add    %bl,0x0(%rdx,%rax,1)
  40389b:	00 00                	add    %al,(%rax)
  40389d:	00 00                	add    %al,(%rax)
  40389f:	00 5c 02 00          	add    %bl,0x0(%rdx,%rax,1)
  4038a3:	00 00                	add    %al,(%rax)
  4038a5:	00 00                	add    %al,(%rax)
  4038a7:	00 5c 02 00          	add    %bl,0x0(%rdx,%rax,1)
  4038ab:	00 00                	add    %al,(%rax)
  4038ad:	00 00                	add    %al,(%rax)
  4038af:	00 5c 02 00          	add    %bl,0x0(%rdx,%rax,1)
  4038b3:	00 00                	add    %al,(%rax)
  4038b5:	00 00                	add    %al,(%rax)
  4038b7:	00 5c 02 00          	add    %bl,0x0(%rdx,%rax,1)
  4038bb:	00 00                	add    %al,(%rax)
  4038bd:	00 00                	add    %al,(%rax)
  4038bf:	00 e3                	add    %ah,%bl
  4038c1:	02 00                	add    (%rax),%al
  4038c3:	00 00                	add    %al,(%rax)
  4038c5:	00 00                	add    %al,(%rax)
  4038c7:	00 e3                	add    %ah,%bl
  4038c9:	02 00                	add    (%rax),%al
  4038cb:	00 00                	add    %al,(%rax)
  4038cd:	00 00                	add    %al,(%rax)
  4038cf:	00 e3                	add    %ah,%bl
  4038d1:	02 00                	add    (%rax),%al
  4038d3:	00 00                	add    %al,(%rax)
  4038d5:	00 00                	add    %al,(%rax)
  4038d7:	00 e3                	add    %ah,%bl
  4038d9:	02 00                	add    (%rax),%al
  4038db:	00 00                	add    %al,(%rax)
  4038dd:	00 00                	add    %al,(%rax)
  4038df:	00 e3                	add    %ah,%bl
  4038e1:	02 00                	add    (%rax),%al
  4038e3:	00 00                	add    %al,(%rax)
  4038e5:	00 00                	add    %al,(%rax)
  4038e7:	00 e3                	add    %ah,%bl
  4038e9:	02 00                	add    (%rax),%al
  4038eb:	00 00                	add    %al,(%rax)
  4038ed:	00 00                	add    %al,(%rax)
  4038ef:	00 e3                	add    %ah,%bl
  4038f1:	02 00                	add    (%rax),%al
  4038f3:	00 00                	add    %al,(%rax)
  4038f5:	00 00                	add    %al,(%rax)
  4038f7:	00 e3                	add    %ah,%bl
  4038f9:	02 00                	add    (%rax),%al
  4038fb:	00 00                	add    %al,(%rax)
  4038fd:	00 00                	add    %al,(%rax)
  4038ff:	00 e3                	add    %ah,%bl
  403901:	02 00                	add    (%rax),%al
  403903:	00 00                	add    %al,(%rax)
  403905:	00 00                	add    %al,(%rax)
  403907:	00 e3                	add    %ah,%bl
  403909:	02 00                	add    (%rax),%al
  40390b:	00 00                	add    %al,(%rax)
  40390d:	00 00                	add    %al,(%rax)
  40390f:	00 e3                	add    %ah,%bl
  403911:	02 00                	add    (%rax),%al
  403913:	00 00                	add    %al,(%rax)
  403915:	00 00                	add    %al,(%rax)
  403917:	00 e3                	add    %ah,%bl
  403919:	02 00                	add    (%rax),%al
  40391b:	00 00                	add    %al,(%rax)
  40391d:	00 00                	add    %al,(%rax)
  40391f:	00 e3                	add    %ah,%bl
  403921:	02 00                	add    (%rax),%al
  403923:	00 00                	add    %al,(%rax)
  403925:	00 00                	add    %al,(%rax)
  403927:	00 e3                	add    %ah,%bl
  403929:	02 00                	add    (%rax),%al
  40392b:	00 00                	add    %al,(%rax)
  40392d:	00 00                	add    %al,(%rax)
  40392f:	00 e3                	add    %ah,%bl
  403931:	02 00                	add    (%rax),%al
  403933:	00 00                	add    %al,(%rax)
  403935:	00 00                	add    %al,(%rax)
  403937:	00 e3                	add    %ah,%bl
  403939:	02 00                	add    (%rax),%al
  40393b:	00 00                	add    %al,(%rax)
  40393d:	00 00                	add    %al,(%rax)
  40393f:	00 e3                	add    %ah,%bl
  403941:	02 00                	add    (%rax),%al
  403943:	00 00                	add    %al,(%rax)
  403945:	00 00                	add    %al,(%rax)
  403947:	00 e3                	add    %ah,%bl
  403949:	02 00                	add    (%rax),%al
  40394b:	00 00                	add    %al,(%rax)
  40394d:	00 00                	add    %al,(%rax)
  40394f:	00 e3                	add    %ah,%bl
  403951:	02 00                	add    (%rax),%al
  403953:	00 00                	add    %al,(%rax)
  403955:	00 00                	add    %al,(%rax)
  403957:	00 e3                	add    %ah,%bl
  403959:	02 00                	add    (%rax),%al
  40395b:	00 00                	add    %al,(%rax)
  40395d:	00 00                	add    %al,(%rax)
  40395f:	00 e3                	add    %ah,%bl
  403961:	02 00                	add    (%rax),%al
  403963:	00 00                	add    %al,(%rax)
  403965:	00 00                	add    %al,(%rax)
  403967:	00 e3                	add    %ah,%bl
  403969:	02 00                	add    (%rax),%al
  40396b:	00 00                	add    %al,(%rax)
  40396d:	00 00                	add    %al,(%rax)
  40396f:	00 e3                	add    %ah,%bl
  403971:	02 00                	add    (%rax),%al
  403973:	00 00                	add    %al,(%rax)
  403975:	00 00                	add    %al,(%rax)
  403977:	00 e3                	add    %ah,%bl
  403979:	02 00                	add    (%rax),%al
  40397b:	00 00                	add    %al,(%rax)
  40397d:	00 00                	add    %al,(%rax)
  40397f:	00 e3                	add    %ah,%bl
  403981:	02 00                	add    (%rax),%al
  403983:	00 00                	add    %al,(%rax)
  403985:	00 00                	add    %al,(%rax)
  403987:	00 e3                	add    %ah,%bl
  403989:	02 00                	add    (%rax),%al
  40398b:	00 00                	add    %al,(%rax)
  40398d:	00 00                	add    %al,(%rax)
  40398f:	00 e3                	add    %ah,%bl
  403991:	02 00                	add    (%rax),%al
  403993:	00 00                	add    %al,(%rax)
  403995:	00 00                	add    %al,(%rax)
  403997:	00 e3                	add    %ah,%bl
  403999:	02 00                	add    (%rax),%al
  40399b:	00 00                	add    %al,(%rax)
  40399d:	00 00                	add    %al,(%rax)
  40399f:	00 e3                	add    %ah,%bl
  4039a1:	02 00                	add    (%rax),%al
  4039a3:	00 00                	add    %al,(%rax)
  4039a5:	00 00                	add    %al,(%rax)
  4039a7:	00 e3                	add    %ah,%bl
  4039a9:	02 00                	add    (%rax),%al
  4039ab:	00 00                	add    %al,(%rax)
  4039ad:	00 00                	add    %al,(%rax)
  4039af:	00 e3                	add    %ah,%bl
  4039b1:	02 00                	add    (%rax),%al
  4039b3:	00 00                	add    %al,(%rax)
  4039b5:	00 00                	add    %al,(%rax)
  4039b7:	00 e3                	add    %ah,%bl
  4039b9:	02 00                	add    (%rax),%al
  4039bb:	00 00                	add    %al,(%rax)
  4039bd:	00 00                	add    %al,(%rax)
  4039bf:	00 e3                	add    %ah,%bl
  4039c1:	02 00                	add    (%rax),%al
  4039c3:	00 00                	add    %al,(%rax)
  4039c5:	00 00                	add    %al,(%rax)
  4039c7:	00 e3                	add    %ah,%bl
  4039c9:	02 00                	add    (%rax),%al
  4039cb:	00 00                	add    %al,(%rax)
  4039cd:	00 00                	add    %al,(%rax)
  4039cf:	00 e3                	add    %ah,%bl
  4039d1:	02 00                	add    (%rax),%al
  4039d3:	00 00                	add    %al,(%rax)
  4039d5:	00 00                	add    %al,(%rax)
  4039d7:	00 e3                	add    %ah,%bl
  4039d9:	02 00                	add    (%rax),%al
  4039db:	00 00                	add    %al,(%rax)
  4039dd:	00 00                	add    %al,(%rax)
  4039df:	00 e3                	add    %ah,%bl
  4039e1:	02 00                	add    (%rax),%al
  4039e3:	00 00                	add    %al,(%rax)
  4039e5:	00 00                	add    %al,(%rax)
  4039e7:	00 e3                	add    %ah,%bl
  4039e9:	02 00                	add    (%rax),%al
  4039eb:	00 00                	add    %al,(%rax)
  4039ed:	00 00                	add    %al,(%rax)
  4039ef:	00 e3                	add    %ah,%bl
  4039f1:	02 00                	add    (%rax),%al
  4039f3:	00 00                	add    %al,(%rax)
  4039f5:	00 00                	add    %al,(%rax)
  4039f7:	00 e3                	add    %ah,%bl
  4039f9:	02 00                	add    (%rax),%al
  4039fb:	00 00                	add    %al,(%rax)
  4039fd:	00 00                	add    %al,(%rax)
  4039ff:	00 e3                	add    %ah,%bl
  403a01:	02 00                	add    (%rax),%al
  403a03:	00 00                	add    %al,(%rax)
  403a05:	00 00                	add    %al,(%rax)
  403a07:	00 e3                	add    %ah,%bl
  403a09:	02 00                	add    (%rax),%al
  403a0b:	00 00                	add    %al,(%rax)
  403a0d:	00 00                	add    %al,(%rax)
  403a0f:	00 e3                	add    %ah,%bl
  403a11:	02 00                	add    (%rax),%al
  403a13:	00 00                	add    %al,(%rax)
  403a15:	00 00                	add    %al,(%rax)
  403a17:	00 e3                	add    %ah,%bl
  403a19:	02 00                	add    (%rax),%al
  403a1b:	00 00                	add    %al,(%rax)
  403a1d:	00 00                	add    %al,(%rax)
  403a1f:	00 e3                	add    %ah,%bl
  403a21:	02 00                	add    (%rax),%al
  403a23:	00 00                	add    %al,(%rax)
  403a25:	00 00                	add    %al,(%rax)
  403a27:	00 e3                	add    %ah,%bl
  403a29:	02 00                	add    (%rax),%al
  403a2b:	00 00                	add    %al,(%rax)
  403a2d:	00 00                	add    %al,(%rax)
  403a2f:	00 e3                	add    %ah,%bl
  403a31:	02 00                	add    (%rax),%al
  403a33:	00 00                	add    %al,(%rax)
  403a35:	00 00                	add    %al,(%rax)
  403a37:	00 e3                	add    %ah,%bl
  403a39:	02 00                	add    (%rax),%al
  403a3b:	00 00                	add    %al,(%rax)
  403a3d:	00 00                	add    %al,(%rax)
  403a3f:	00 e3                	add    %ah,%bl
  403a41:	02 00                	add    (%rax),%al
  403a43:	00 00                	add    %al,(%rax)
  403a45:	00 00                	add    %al,(%rax)
  403a47:	00 e3                	add    %ah,%bl
  403a49:	02 00                	add    (%rax),%al
  403a4b:	00 00                	add    %al,(%rax)
  403a4d:	00 00                	add    %al,(%rax)
  403a4f:	00 e3                	add    %ah,%bl
  403a51:	02 00                	add    (%rax),%al
  403a53:	00 00                	add    %al,(%rax)
  403a55:	00 00                	add    %al,(%rax)
  403a57:	00 e3                	add    %ah,%bl
  403a59:	02 00                	add    (%rax),%al
  403a5b:	00 00                	add    %al,(%rax)
  403a5d:	00 00                	add    %al,(%rax)
  403a5f:	00 e3                	add    %ah,%bl
  403a61:	02 00                	add    (%rax),%al
  403a63:	00 00                	add    %al,(%rax)
  403a65:	00 00                	add    %al,(%rax)
  403a67:	00 e3                	add    %ah,%bl
  403a69:	02 00                	add    (%rax),%al
  403a6b:	00 00                	add    %al,(%rax)
  403a6d:	00 00                	add    %al,(%rax)
  403a6f:	00 e3                	add    %ah,%bl
  403a71:	02 00                	add    (%rax),%al
  403a73:	00 00                	add    %al,(%rax)
  403a75:	00 00                	add    %al,(%rax)
  403a77:	00 e3                	add    %ah,%bl
  403a79:	02 00                	add    (%rax),%al
  403a7b:	00 00                	add    %al,(%rax)
  403a7d:	00 00                	add    %al,(%rax)
  403a7f:	00 e3                	add    %ah,%bl
  403a81:	02 00                	add    (%rax),%al
  403a83:	00 00                	add    %al,(%rax)
  403a85:	00 00                	add    %al,(%rax)
  403a87:	00 e3                	add    %ah,%bl
  403a89:	02 00                	add    (%rax),%al
  403a8b:	00 00                	add    %al,(%rax)
  403a8d:	00 00                	add    %al,(%rax)
  403a8f:	00 e3                	add    %ah,%bl
  403a91:	02 00                	add    (%rax),%al
  403a93:	00 00                	add    %al,(%rax)
  403a95:	00 00                	add    %al,(%rax)
  403a97:	00 e3                	add    %ah,%bl
  403a99:	02 00                	add    (%rax),%al
  403a9b:	00 00                	add    %al,(%rax)
  403a9d:	00 00                	add    %al,(%rax)
  403a9f:	00 e3                	add    %ah,%bl
  403aa1:	02 00                	add    (%rax),%al
  403aa3:	00 00                	add    %al,(%rax)
  403aa5:	00 00                	add    %al,(%rax)
  403aa7:	00 e3                	add    %ah,%bl
  403aa9:	02 00                	add    (%rax),%al
  403aab:	00 00                	add    %al,(%rax)
  403aad:	00 00                	add    %al,(%rax)
  403aaf:	00 e3                	add    %ah,%bl
  403ab1:	02 00                	add    (%rax),%al
  403ab3:	00 00                	add    %al,(%rax)
  403ab5:	00 00                	add    %al,(%rax)
  403ab7:	00 e3                	add    %ah,%bl
  403ab9:	02 00                	add    (%rax),%al
  403abb:	00 00                	add    %al,(%rax)
  403abd:	00 00                	add    %al,(%rax)
  403abf:	00 ea                	add    %ch,%dl
  403ac1:	02 00                	add    (%rax),%al
  403ac3:	00 00                	add    %al,(%rax)
  403ac5:	00 00                	add    %al,(%rax)
  403ac7:	00 ea                	add    %ch,%dl
  403ac9:	02 00                	add    (%rax),%al
  403acb:	00 00                	add    %al,(%rax)
  403acd:	00 00                	add    %al,(%rax)
  403acf:	00 ea                	add    %ch,%dl
  403ad1:	02 00                	add    (%rax),%al
  403ad3:	00 00                	add    %al,(%rax)
  403ad5:	00 00                	add    %al,(%rax)
  403ad7:	00 ea                	add    %ch,%dl
  403ad9:	02 00                	add    (%rax),%al
  403adb:	00 00                	add    %al,(%rax)
  403add:	00 00                	add    %al,(%rax)
  403adf:	00 ea                	add    %ch,%dl
  403ae1:	02 00                	add    (%rax),%al
  403ae3:	00 00                	add    %al,(%rax)
  403ae5:	00 00                	add    %al,(%rax)
  403ae7:	00 ea                	add    %ch,%dl
  403ae9:	02 00                	add    (%rax),%al
  403aeb:	00 00                	add    %al,(%rax)
  403aed:	00 00                	add    %al,(%rax)
  403aef:	00 ea                	add    %ch,%dl
  403af1:	02 00                	add    (%rax),%al
  403af3:	00 00                	add    %al,(%rax)
  403af5:	00 00                	add    %al,(%rax)
  403af7:	00 ea                	add    %ch,%dl
  403af9:	02 00                	add    (%rax),%al
  403afb:	00 00                	add    %al,(%rax)
  403afd:	00 00                	add    %al,(%rax)
  403aff:	00 ea                	add    %ch,%dl
  403b01:	02 00                	add    (%rax),%al
  403b03:	00 00                	add    %al,(%rax)
  403b05:	00 00                	add    %al,(%rax)
  403b07:	00 ea                	add    %ch,%dl
  403b09:	02 00                	add    (%rax),%al
  403b0b:	00 00                	add    %al,(%rax)
  403b0d:	00 00                	add    %al,(%rax)
  403b0f:	00 ea                	add    %ch,%dl
  403b11:	02 00                	add    (%rax),%al
  403b13:	00 00                	add    %al,(%rax)
  403b15:	00 00                	add    %al,(%rax)
  403b17:	00 ea                	add    %ch,%dl
  403b19:	02 00                	add    (%rax),%al
  403b1b:	00 00                	add    %al,(%rax)
  403b1d:	00 00                	add    %al,(%rax)
  403b1f:	00 ea                	add    %ch,%dl
  403b21:	02 00                	add    (%rax),%al
  403b23:	00 00                	add    %al,(%rax)
  403b25:	00 00                	add    %al,(%rax)
  403b27:	00 ea                	add    %ch,%dl
  403b29:	02 00                	add    (%rax),%al
  403b2b:	00 00                	add    %al,(%rax)
  403b2d:	00 00                	add    %al,(%rax)
  403b2f:	00 ea                	add    %ch,%dl
  403b31:	02 00                	add    (%rax),%al
  403b33:	00 00                	add    %al,(%rax)
  403b35:	00 00                	add    %al,(%rax)
  403b37:	00 ea                	add    %ch,%dl
  403b39:	02 00                	add    (%rax),%al
  403b3b:	00 00                	add    %al,(%rax)
  403b3d:	00 00                	add    %al,(%rax)
  403b3f:	00 ea                	add    %ch,%dl
  403b41:	02 00                	add    (%rax),%al
  403b43:	00 00                	add    %al,(%rax)
  403b45:	00 00                	add    %al,(%rax)
  403b47:	00 ea                	add    %ch,%dl
  403b49:	02 00                	add    (%rax),%al
  403b4b:	00 00                	add    %al,(%rax)
  403b4d:	00 00                	add    %al,(%rax)
  403b4f:	00 ea                	add    %ch,%dl
  403b51:	02 00                	add    (%rax),%al
  403b53:	00 00                	add    %al,(%rax)
  403b55:	00 00                	add    %al,(%rax)
  403b57:	00 ea                	add    %ch,%dl
  403b59:	02 00                	add    (%rax),%al
  403b5b:	00 00                	add    %al,(%rax)
  403b5d:	00 00                	add    %al,(%rax)
  403b5f:	00 ea                	add    %ch,%dl
  403b61:	02 00                	add    (%rax),%al
  403b63:	00 00                	add    %al,(%rax)
  403b65:	00 00                	add    %al,(%rax)
  403b67:	00 ea                	add    %ch,%dl
  403b69:	02 00                	add    (%rax),%al
  403b6b:	00 00                	add    %al,(%rax)
  403b6d:	00 00                	add    %al,(%rax)
  403b6f:	00 ea                	add    %ch,%dl
  403b71:	02 00                	add    (%rax),%al
  403b73:	00 00                	add    %al,(%rax)
  403b75:	00 00                	add    %al,(%rax)
  403b77:	00 ea                	add    %ch,%dl
  403b79:	02 00                	add    (%rax),%al
  403b7b:	00 00                	add    %al,(%rax)
  403b7d:	00 00                	add    %al,(%rax)
  403b7f:	00 ea                	add    %ch,%dl
  403b81:	02 00                	add    (%rax),%al
  403b83:	00 00                	add    %al,(%rax)
  403b85:	00 00                	add    %al,(%rax)
  403b87:	00 ea                	add    %ch,%dl
  403b89:	02 00                	add    (%rax),%al
  403b8b:	00 00                	add    %al,(%rax)
  403b8d:	00 00                	add    %al,(%rax)
  403b8f:	00 ea                	add    %ch,%dl
  403b91:	02 00                	add    (%rax),%al
  403b93:	00 00                	add    %al,(%rax)
  403b95:	00 00                	add    %al,(%rax)
  403b97:	00 ea                	add    %ch,%dl
  403b99:	02 00                	add    (%rax),%al
  403b9b:	00 00                	add    %al,(%rax)
  403b9d:	00 00                	add    %al,(%rax)
  403b9f:	00 ea                	add    %ch,%dl
  403ba1:	02 00                	add    (%rax),%al
  403ba3:	00 00                	add    %al,(%rax)
  403ba5:	00 00                	add    %al,(%rax)
  403ba7:	00 ea                	add    %ch,%dl
  403ba9:	02 00                	add    (%rax),%al
  403bab:	00 00                	add    %al,(%rax)
  403bad:	00 00                	add    %al,(%rax)
  403baf:	00 ea                	add    %ch,%dl
  403bb1:	02 00                	add    (%rax),%al
  403bb3:	00 00                	add    %al,(%rax)
  403bb5:	00 00                	add    %al,(%rax)
  403bb7:	00 ea                	add    %ch,%dl
  403bb9:	02 00                	add    (%rax),%al
  403bbb:	00 00                	add    %al,(%rax)
  403bbd:	00 00                	add    %al,(%rax)
  403bbf:	00 ea                	add    %ch,%dl
  403bc1:	02 00                	add    (%rax),%al
  403bc3:	00 00                	add    %al,(%rax)
  403bc5:	00 00                	add    %al,(%rax)
  403bc7:	00 ea                	add    %ch,%dl
  403bc9:	02 00                	add    (%rax),%al
  403bcb:	00 00                	add    %al,(%rax)
  403bcd:	00 00                	add    %al,(%rax)
  403bcf:	00 ea                	add    %ch,%dl
  403bd1:	02 00                	add    (%rax),%al
  403bd3:	00 00                	add    %al,(%rax)
  403bd5:	00 00                	add    %al,(%rax)
  403bd7:	00 ea                	add    %ch,%dl
  403bd9:	02 00                	add    (%rax),%al
  403bdb:	00 00                	add    %al,(%rax)
  403bdd:	00 00                	add    %al,(%rax)
  403bdf:	00 ea                	add    %ch,%dl
  403be1:	02 00                	add    (%rax),%al
  403be3:	00 00                	add    %al,(%rax)
  403be5:	00 00                	add    %al,(%rax)
  403be7:	00 ea                	add    %ch,%dl
  403be9:	02 00                	add    (%rax),%al
  403beb:	00 00                	add    %al,(%rax)
  403bed:	00 00                	add    %al,(%rax)
  403bef:	00 ea                	add    %ch,%dl
  403bf1:	02 00                	add    (%rax),%al
  403bf3:	00 00                	add    %al,(%rax)
  403bf5:	00 00                	add    %al,(%rax)
  403bf7:	00 ea                	add    %ch,%dl
  403bf9:	02 00                	add    (%rax),%al
  403bfb:	00 00                	add    %al,(%rax)
  403bfd:	00 00                	add    %al,(%rax)
  403bff:	00 ea                	add    %ch,%dl
  403c01:	02 00                	add    (%rax),%al
  403c03:	00 00                	add    %al,(%rax)
  403c05:	00 00                	add    %al,(%rax)
  403c07:	00 ea                	add    %ch,%dl
  403c09:	02 00                	add    (%rax),%al
  403c0b:	00 00                	add    %al,(%rax)
  403c0d:	00 00                	add    %al,(%rax)
  403c0f:	00 ea                	add    %ch,%dl
  403c11:	02 00                	add    (%rax),%al
  403c13:	00 00                	add    %al,(%rax)
  403c15:	00 00                	add    %al,(%rax)
  403c17:	00 ea                	add    %ch,%dl
  403c19:	02 00                	add    (%rax),%al
  403c1b:	00 00                	add    %al,(%rax)
  403c1d:	00 00                	add    %al,(%rax)
  403c1f:	00 ea                	add    %ch,%dl
  403c21:	02 00                	add    (%rax),%al
  403c23:	00 00                	add    %al,(%rax)
  403c25:	00 00                	add    %al,(%rax)
  403c27:	00 ea                	add    %ch,%dl
  403c29:	02 00                	add    (%rax),%al
  403c2b:	00 00                	add    %al,(%rax)
  403c2d:	00 00                	add    %al,(%rax)
  403c2f:	00 ea                	add    %ch,%dl
  403c31:	02 00                	add    (%rax),%al
  403c33:	00 00                	add    %al,(%rax)
  403c35:	00 00                	add    %al,(%rax)
  403c37:	00 ea                	add    %ch,%dl
  403c39:	02 00                	add    (%rax),%al
  403c3b:	00 00                	add    %al,(%rax)
  403c3d:	00 00                	add    %al,(%rax)
  403c3f:	00 ea                	add    %ch,%dl
  403c41:	02 00                	add    (%rax),%al
  403c43:	00 00                	add    %al,(%rax)
  403c45:	00 00                	add    %al,(%rax)
  403c47:	00 ea                	add    %ch,%dl
  403c49:	02 00                	add    (%rax),%al
  403c4b:	00 00                	add    %al,(%rax)
  403c4d:	00 00                	add    %al,(%rax)
  403c4f:	00 ea                	add    %ch,%dl
  403c51:	02 00                	add    (%rax),%al
  403c53:	00 00                	add    %al,(%rax)
  403c55:	00 00                	add    %al,(%rax)
  403c57:	00 ea                	add    %ch,%dl
  403c59:	02 00                	add    (%rax),%al
  403c5b:	00 00                	add    %al,(%rax)
  403c5d:	00 00                	add    %al,(%rax)
  403c5f:	00 ea                	add    %ch,%dl
  403c61:	02 00                	add    (%rax),%al
  403c63:	00 00                	add    %al,(%rax)
  403c65:	00 00                	add    %al,(%rax)
  403c67:	00 ea                	add    %ch,%dl
  403c69:	02 00                	add    (%rax),%al
  403c6b:	00 00                	add    %al,(%rax)
  403c6d:	00 00                	add    %al,(%rax)
  403c6f:	00 ea                	add    %ch,%dl
  403c71:	02 00                	add    (%rax),%al
  403c73:	00 00                	add    %al,(%rax)
  403c75:	00 00                	add    %al,(%rax)
  403c77:	00 ea                	add    %ch,%dl
  403c79:	02 00                	add    (%rax),%al
  403c7b:	00 00                	add    %al,(%rax)
  403c7d:	00 00                	add    %al,(%rax)
  403c7f:	00 ea                	add    %ch,%dl
  403c81:	02 00                	add    (%rax),%al
  403c83:	00 00                	add    %al,(%rax)
  403c85:	00 00                	add    %al,(%rax)
  403c87:	00 ea                	add    %ch,%dl
  403c89:	02 00                	add    (%rax),%al
  403c8b:	00 00                	add    %al,(%rax)
  403c8d:	00 00                	add    %al,(%rax)
  403c8f:	00 ea                	add    %ch,%dl
  403c91:	02 00                	add    (%rax),%al
  403c93:	00 00                	add    %al,(%rax)
  403c95:	00 00                	add    %al,(%rax)
  403c97:	00 ea                	add    %ch,%dl
  403c99:	02 00                	add    (%rax),%al
  403c9b:	00 00                	add    %al,(%rax)
  403c9d:	00 00                	add    %al,(%rax)
  403c9f:	00 ea                	add    %ch,%dl
  403ca1:	02 00                	add    (%rax),%al
  403ca3:	00 00                	add    %al,(%rax)
  403ca5:	00 00                	add    %al,(%rax)
  403ca7:	00 ea                	add    %ch,%dl
  403ca9:	02 00                	add    (%rax),%al
  403cab:	00 00                	add    %al,(%rax)
  403cad:	00 00                	add    %al,(%rax)
  403caf:	00 ea                	add    %ch,%dl
  403cb1:	02 00                	add    (%rax),%al
  403cb3:	00 00                	add    %al,(%rax)
  403cb5:	00 00                	add    %al,(%rax)
  403cb7:	00 ea                	add    %ch,%dl
  403cb9:	02 00                	add    (%rax),%al
  403cbb:	00 00                	add    %al,(%rax)
  403cbd:	00 00                	add    %al,(%rax)
  403cbf:	00 f1                	add    %dh,%cl
  403cc1:	02 00                	add    (%rax),%al
  403cc3:	00 00                	add    %al,(%rax)
  403cc5:	00 00                	add    %al,(%rax)
  403cc7:	00 f1                	add    %dh,%cl
  403cc9:	02 00                	add    (%rax),%al
  403ccb:	00 00                	add    %al,(%rax)
  403ccd:	00 00                	add    %al,(%rax)
  403ccf:	00 f1                	add    %dh,%cl
  403cd1:	02 00                	add    (%rax),%al
  403cd3:	00 00                	add    %al,(%rax)
  403cd5:	00 00                	add    %al,(%rax)
  403cd7:	00 f1                	add    %dh,%cl
  403cd9:	02 00                	add    (%rax),%al
  403cdb:	00 00                	add    %al,(%rax)
  403cdd:	00 00                	add    %al,(%rax)
  403cdf:	00 f1                	add    %dh,%cl
  403ce1:	02 00                	add    (%rax),%al
  403ce3:	00 00                	add    %al,(%rax)
  403ce5:	00 00                	add    %al,(%rax)
  403ce7:	00 f1                	add    %dh,%cl
  403ce9:	02 00                	add    (%rax),%al
  403ceb:	00 00                	add    %al,(%rax)
  403ced:	00 00                	add    %al,(%rax)
  403cef:	00 f1                	add    %dh,%cl
  403cf1:	02 00                	add    (%rax),%al
  403cf3:	00 00                	add    %al,(%rax)
  403cf5:	00 00                	add    %al,(%rax)
  403cf7:	00 f1                	add    %dh,%cl
  403cf9:	02 00                	add    (%rax),%al
  403cfb:	00 00                	add    %al,(%rax)
  403cfd:	00 00                	add    %al,(%rax)
  403cff:	00 f1                	add    %dh,%cl
  403d01:	02 00                	add    (%rax),%al
  403d03:	00 00                	add    %al,(%rax)
  403d05:	00 00                	add    %al,(%rax)
  403d07:	00 f1                	add    %dh,%cl
  403d09:	02 00                	add    (%rax),%al
  403d0b:	00 00                	add    %al,(%rax)
  403d0d:	00 00                	add    %al,(%rax)
  403d0f:	00 f1                	add    %dh,%cl
  403d11:	02 00                	add    (%rax),%al
  403d13:	00 00                	add    %al,(%rax)
  403d15:	00 00                	add    %al,(%rax)
  403d17:	00 f1                	add    %dh,%cl
  403d19:	02 00                	add    (%rax),%al
  403d1b:	00 00                	add    %al,(%rax)
  403d1d:	00 00                	add    %al,(%rax)
  403d1f:	00 f1                	add    %dh,%cl
  403d21:	02 00                	add    (%rax),%al
  403d23:	00 00                	add    %al,(%rax)
  403d25:	00 00                	add    %al,(%rax)
  403d27:	00 f1                	add    %dh,%cl
  403d29:	02 00                	add    (%rax),%al
  403d2b:	00 00                	add    %al,(%rax)
  403d2d:	00 00                	add    %al,(%rax)
  403d2f:	00 f1                	add    %dh,%cl
  403d31:	02 00                	add    (%rax),%al
  403d33:	00 00                	add    %al,(%rax)
  403d35:	00 00                	add    %al,(%rax)
  403d37:	00 f1                	add    %dh,%cl
  403d39:	02 00                	add    (%rax),%al
  403d3b:	00 00                	add    %al,(%rax)
  403d3d:	00 00                	add    %al,(%rax)
  403d3f:	00 f1                	add    %dh,%cl
  403d41:	02 00                	add    (%rax),%al
  403d43:	00 00                	add    %al,(%rax)
  403d45:	00 00                	add    %al,(%rax)
  403d47:	00 f1                	add    %dh,%cl
  403d49:	02 00                	add    (%rax),%al
  403d4b:	00 00                	add    %al,(%rax)
  403d4d:	00 00                	add    %al,(%rax)
  403d4f:	00 f1                	add    %dh,%cl
  403d51:	02 00                	add    (%rax),%al
  403d53:	00 00                	add    %al,(%rax)
  403d55:	00 00                	add    %al,(%rax)
  403d57:	00 f1                	add    %dh,%cl
  403d59:	02 00                	add    (%rax),%al
  403d5b:	00 00                	add    %al,(%rax)
  403d5d:	00 00                	add    %al,(%rax)
  403d5f:	00 f1                	add    %dh,%cl
  403d61:	02 00                	add    (%rax),%al
  403d63:	00 00                	add    %al,(%rax)
  403d65:	00 00                	add    %al,(%rax)
  403d67:	00 f1                	add    %dh,%cl
  403d69:	02 00                	add    (%rax),%al
  403d6b:	00 00                	add    %al,(%rax)
  403d6d:	00 00                	add    %al,(%rax)
  403d6f:	00 f1                	add    %dh,%cl
  403d71:	02 00                	add    (%rax),%al
  403d73:	00 00                	add    %al,(%rax)
  403d75:	00 00                	add    %al,(%rax)
  403d77:	00 f1                	add    %dh,%cl
  403d79:	02 00                	add    (%rax),%al
  403d7b:	00 00                	add    %al,(%rax)
  403d7d:	00 00                	add    %al,(%rax)
  403d7f:	00 f1                	add    %dh,%cl
  403d81:	02 00                	add    (%rax),%al
  403d83:	00 00                	add    %al,(%rax)
  403d85:	00 00                	add    %al,(%rax)
  403d87:	00 f1                	add    %dh,%cl
  403d89:	02 00                	add    (%rax),%al
  403d8b:	00 00                	add    %al,(%rax)
  403d8d:	00 00                	add    %al,(%rax)
  403d8f:	00 f1                	add    %dh,%cl
  403d91:	02 00                	add    (%rax),%al
  403d93:	00 00                	add    %al,(%rax)
  403d95:	00 00                	add    %al,(%rax)
  403d97:	00 f1                	add    %dh,%cl
  403d99:	02 00                	add    (%rax),%al
  403d9b:	00 00                	add    %al,(%rax)
  403d9d:	00 00                	add    %al,(%rax)
  403d9f:	00 f1                	add    %dh,%cl
  403da1:	02 00                	add    (%rax),%al
  403da3:	00 00                	add    %al,(%rax)
  403da5:	00 00                	add    %al,(%rax)
  403da7:	00 f1                	add    %dh,%cl
  403da9:	02 00                	add    (%rax),%al
  403dab:	00 00                	add    %al,(%rax)
  403dad:	00 00                	add    %al,(%rax)
  403daf:	00 f1                	add    %dh,%cl
  403db1:	02 00                	add    (%rax),%al
  403db3:	00 00                	add    %al,(%rax)
  403db5:	00 00                	add    %al,(%rax)
  403db7:	00 f1                	add    %dh,%cl
  403db9:	02 00                	add    (%rax),%al
  403dbb:	00 00                	add    %al,(%rax)
  403dbd:	00 00                	add    %al,(%rax)
  403dbf:	00 f1                	add    %dh,%cl
  403dc1:	02 00                	add    (%rax),%al
  403dc3:	00 00                	add    %al,(%rax)
  403dc5:	00 00                	add    %al,(%rax)
  403dc7:	00 f1                	add    %dh,%cl
  403dc9:	02 00                	add    (%rax),%al
  403dcb:	00 00                	add    %al,(%rax)
  403dcd:	00 00                	add    %al,(%rax)
  403dcf:	00 f1                	add    %dh,%cl
  403dd1:	02 00                	add    (%rax),%al
  403dd3:	00 00                	add    %al,(%rax)
  403dd5:	00 00                	add    %al,(%rax)
  403dd7:	00 f1                	add    %dh,%cl
  403dd9:	02 00                	add    (%rax),%al
  403ddb:	00 00                	add    %al,(%rax)
  403ddd:	00 00                	add    %al,(%rax)
  403ddf:	00 f1                	add    %dh,%cl
  403de1:	02 00                	add    (%rax),%al
  403de3:	00 00                	add    %al,(%rax)
  403de5:	00 00                	add    %al,(%rax)
  403de7:	00 f1                	add    %dh,%cl
  403de9:	02 00                	add    (%rax),%al
  403deb:	00 00                	add    %al,(%rax)
  403ded:	00 00                	add    %al,(%rax)
  403def:	00 f1                	add    %dh,%cl
  403df1:	02 00                	add    (%rax),%al
  403df3:	00 00                	add    %al,(%rax)
  403df5:	00 00                	add    %al,(%rax)
  403df7:	00 f1                	add    %dh,%cl
  403df9:	02 00                	add    (%rax),%al
  403dfb:	00 00                	add    %al,(%rax)
  403dfd:	00 00                	add    %al,(%rax)
  403dff:	00 f1                	add    %dh,%cl
  403e01:	02 00                	add    (%rax),%al
  403e03:	00 00                	add    %al,(%rax)
  403e05:	00 00                	add    %al,(%rax)
  403e07:	00 f1                	add    %dh,%cl
  403e09:	02 00                	add    (%rax),%al
  403e0b:	00 00                	add    %al,(%rax)
  403e0d:	00 00                	add    %al,(%rax)
  403e0f:	00 f1                	add    %dh,%cl
  403e11:	02 00                	add    (%rax),%al
  403e13:	00 00                	add    %al,(%rax)
  403e15:	00 00                	add    %al,(%rax)
  403e17:	00 f1                	add    %dh,%cl
  403e19:	02 00                	add    (%rax),%al
  403e1b:	00 00                	add    %al,(%rax)
  403e1d:	00 00                	add    %al,(%rax)
  403e1f:	00 f1                	add    %dh,%cl
  403e21:	02 00                	add    (%rax),%al
  403e23:	00 00                	add    %al,(%rax)
  403e25:	00 00                	add    %al,(%rax)
  403e27:	00 f1                	add    %dh,%cl
  403e29:	02 00                	add    (%rax),%al
  403e2b:	00 00                	add    %al,(%rax)
  403e2d:	00 00                	add    %al,(%rax)
  403e2f:	00 f1                	add    %dh,%cl
  403e31:	02 00                	add    (%rax),%al
  403e33:	00 00                	add    %al,(%rax)
  403e35:	00 00                	add    %al,(%rax)
  403e37:	00 f1                	add    %dh,%cl
  403e39:	02 00                	add    (%rax),%al
  403e3b:	00 00                	add    %al,(%rax)
  403e3d:	00 00                	add    %al,(%rax)
  403e3f:	00 f1                	add    %dh,%cl
  403e41:	02 00                	add    (%rax),%al
  403e43:	00 00                	add    %al,(%rax)
  403e45:	00 00                	add    %al,(%rax)
  403e47:	00 f1                	add    %dh,%cl
  403e49:	02 00                	add    (%rax),%al
  403e4b:	00 00                	add    %al,(%rax)
  403e4d:	00 00                	add    %al,(%rax)
  403e4f:	00 f1                	add    %dh,%cl
  403e51:	02 00                	add    (%rax),%al
  403e53:	00 00                	add    %al,(%rax)
  403e55:	00 00                	add    %al,(%rax)
  403e57:	00 f1                	add    %dh,%cl
  403e59:	02 00                	add    (%rax),%al
  403e5b:	00 00                	add    %al,(%rax)
  403e5d:	00 00                	add    %al,(%rax)
  403e5f:	00 f1                	add    %dh,%cl
  403e61:	02 00                	add    (%rax),%al
  403e63:	00 00                	add    %al,(%rax)
  403e65:	00 00                	add    %al,(%rax)
  403e67:	00 f1                	add    %dh,%cl
  403e69:	02 00                	add    (%rax),%al
  403e6b:	00 00                	add    %al,(%rax)
  403e6d:	00 00                	add    %al,(%rax)
  403e6f:	00 f1                	add    %dh,%cl
  403e71:	02 00                	add    (%rax),%al
  403e73:	00 00                	add    %al,(%rax)
  403e75:	00 00                	add    %al,(%rax)
  403e77:	00 f1                	add    %dh,%cl
  403e79:	02 00                	add    (%rax),%al
  403e7b:	00 00                	add    %al,(%rax)
  403e7d:	00 00                	add    %al,(%rax)
  403e7f:	00 f1                	add    %dh,%cl
  403e81:	02 00                	add    (%rax),%al
  403e83:	00 00                	add    %al,(%rax)
  403e85:	00 00                	add    %al,(%rax)
  403e87:	00 f1                	add    %dh,%cl
  403e89:	02 00                	add    (%rax),%al
  403e8b:	00 00                	add    %al,(%rax)
  403e8d:	00 00                	add    %al,(%rax)
  403e8f:	00 f1                	add    %dh,%cl
  403e91:	02 00                	add    (%rax),%al
  403e93:	00 00                	add    %al,(%rax)
  403e95:	00 00                	add    %al,(%rax)
  403e97:	00 f1                	add    %dh,%cl
  403e99:	02 00                	add    (%rax),%al
  403e9b:	00 00                	add    %al,(%rax)
  403e9d:	00 00                	add    %al,(%rax)
  403e9f:	00 f1                	add    %dh,%cl
  403ea1:	02 00                	add    (%rax),%al
  403ea3:	00 00                	add    %al,(%rax)
  403ea5:	00 00                	add    %al,(%rax)
  403ea7:	00 f1                	add    %dh,%cl
  403ea9:	02 00                	add    (%rax),%al
  403eab:	00 00                	add    %al,(%rax)
  403ead:	00 00                	add    %al,(%rax)
  403eaf:	00 f1                	add    %dh,%cl
  403eb1:	02 00                	add    (%rax),%al
  403eb3:	00 00                	add    %al,(%rax)
  403eb5:	00 00                	add    %al,(%rax)
  403eb7:	00 f1                	add    %dh,%cl
  403eb9:	02 00                	add    (%rax),%al
  403ebb:	00 00                	add    %al,(%rax)
  403ebd:	00 00                	add    %al,(%rax)
  403ebf:	00 f8                	add    %bh,%al
  403ec1:	02 00                	add    (%rax),%al
  403ec3:	00 00                	add    %al,(%rax)
  403ec5:	00 00                	add    %al,(%rax)
  403ec7:	00 f8                	add    %bh,%al
  403ec9:	02 00                	add    (%rax),%al
  403ecb:	00 00                	add    %al,(%rax)
  403ecd:	00 00                	add    %al,(%rax)
  403ecf:	00 f8                	add    %bh,%al
  403ed1:	02 00                	add    (%rax),%al
  403ed3:	00 00                	add    %al,(%rax)
  403ed5:	00 00                	add    %al,(%rax)
  403ed7:	00 f8                	add    %bh,%al
  403ed9:	02 00                	add    (%rax),%al
  403edb:	00 00                	add    %al,(%rax)
  403edd:	00 00                	add    %al,(%rax)
  403edf:	00 f8                	add    %bh,%al
  403ee1:	02 00                	add    (%rax),%al
  403ee3:	00 00                	add    %al,(%rax)
  403ee5:	00 00                	add    %al,(%rax)
  403ee7:	00 f8                	add    %bh,%al
  403ee9:	02 00                	add    (%rax),%al
  403eeb:	00 00                	add    %al,(%rax)
  403eed:	00 00                	add    %al,(%rax)
  403eef:	00 f8                	add    %bh,%al
  403ef1:	02 00                	add    (%rax),%al
  403ef3:	00 00                	add    %al,(%rax)
  403ef5:	00 00                	add    %al,(%rax)
  403ef7:	00 f8                	add    %bh,%al
  403ef9:	02 00                	add    (%rax),%al
  403efb:	00 00                	add    %al,(%rax)
  403efd:	00 00                	add    %al,(%rax)
  403eff:	00 f8                	add    %bh,%al
  403f01:	02 00                	add    (%rax),%al
  403f03:	00 00                	add    %al,(%rax)
  403f05:	00 00                	add    %al,(%rax)
  403f07:	00 f8                	add    %bh,%al
  403f09:	02 00                	add    (%rax),%al
  403f0b:	00 00                	add    %al,(%rax)
  403f0d:	00 00                	add    %al,(%rax)
  403f0f:	00 f8                	add    %bh,%al
  403f11:	02 00                	add    (%rax),%al
  403f13:	00 00                	add    %al,(%rax)
  403f15:	00 00                	add    %al,(%rax)
  403f17:	00 f8                	add    %bh,%al
  403f19:	02 00                	add    (%rax),%al
  403f1b:	00 00                	add    %al,(%rax)
  403f1d:	00 00                	add    %al,(%rax)
  403f1f:	00 f8                	add    %bh,%al
  403f21:	02 00                	add    (%rax),%al
  403f23:	00 00                	add    %al,(%rax)
  403f25:	00 00                	add    %al,(%rax)
  403f27:	00 f8                	add    %bh,%al
  403f29:	02 00                	add    (%rax),%al
  403f2b:	00 00                	add    %al,(%rax)
  403f2d:	00 00                	add    %al,(%rax)
  403f2f:	00 f8                	add    %bh,%al
  403f31:	02 00                	add    (%rax),%al
  403f33:	00 00                	add    %al,(%rax)
  403f35:	00 00                	add    %al,(%rax)
  403f37:	00 f8                	add    %bh,%al
  403f39:	02 00                	add    (%rax),%al
  403f3b:	00 00                	add    %al,(%rax)
  403f3d:	00 00                	add    %al,(%rax)
  403f3f:	00 f8                	add    %bh,%al
  403f41:	02 00                	add    (%rax),%al
  403f43:	00 00                	add    %al,(%rax)
  403f45:	00 00                	add    %al,(%rax)
  403f47:	00 f8                	add    %bh,%al
  403f49:	02 00                	add    (%rax),%al
  403f4b:	00 00                	add    %al,(%rax)
  403f4d:	00 00                	add    %al,(%rax)
  403f4f:	00 f8                	add    %bh,%al
  403f51:	02 00                	add    (%rax),%al
  403f53:	00 00                	add    %al,(%rax)
  403f55:	00 00                	add    %al,(%rax)
  403f57:	00 f8                	add    %bh,%al
  403f59:	02 00                	add    (%rax),%al
  403f5b:	00 00                	add    %al,(%rax)
  403f5d:	00 00                	add    %al,(%rax)
  403f5f:	00 f8                	add    %bh,%al
  403f61:	02 00                	add    (%rax),%al
  403f63:	00 00                	add    %al,(%rax)
  403f65:	00 00                	add    %al,(%rax)
  403f67:	00 f8                	add    %bh,%al
  403f69:	02 00                	add    (%rax),%al
  403f6b:	00 00                	add    %al,(%rax)
  403f6d:	00 00                	add    %al,(%rax)
  403f6f:	00 f8                	add    %bh,%al
  403f71:	02 00                	add    (%rax),%al
  403f73:	00 00                	add    %al,(%rax)
  403f75:	00 00                	add    %al,(%rax)
  403f77:	00 f8                	add    %bh,%al
  403f79:	02 00                	add    (%rax),%al
  403f7b:	00 00                	add    %al,(%rax)
  403f7d:	00 00                	add    %al,(%rax)
  403f7f:	00 f8                	add    %bh,%al
  403f81:	02 00                	add    (%rax),%al
  403f83:	00 00                	add    %al,(%rax)
  403f85:	00 00                	add    %al,(%rax)
  403f87:	00 f8                	add    %bh,%al
  403f89:	02 00                	add    (%rax),%al
  403f8b:	00 00                	add    %al,(%rax)
  403f8d:	00 00                	add    %al,(%rax)
  403f8f:	00 f8                	add    %bh,%al
  403f91:	02 00                	add    (%rax),%al
  403f93:	00 00                	add    %al,(%rax)
  403f95:	00 00                	add    %al,(%rax)
  403f97:	00 f8                	add    %bh,%al
  403f99:	02 00                	add    (%rax),%al
  403f9b:	00 00                	add    %al,(%rax)
  403f9d:	00 00                	add    %al,(%rax)
  403f9f:	00 f8                	add    %bh,%al
  403fa1:	02 00                	add    (%rax),%al
  403fa3:	00 00                	add    %al,(%rax)
  403fa5:	00 00                	add    %al,(%rax)
  403fa7:	00 f8                	add    %bh,%al
  403fa9:	02 00                	add    (%rax),%al
  403fab:	00 00                	add    %al,(%rax)
  403fad:	00 00                	add    %al,(%rax)
  403faf:	00 f8                	add    %bh,%al
  403fb1:	02 00                	add    (%rax),%al
  403fb3:	00 00                	add    %al,(%rax)
  403fb5:	00 00                	add    %al,(%rax)
  403fb7:	00 f8                	add    %bh,%al
  403fb9:	02 00                	add    (%rax),%al
  403fbb:	00 00                	add    %al,(%rax)
  403fbd:	00 00                	add    %al,(%rax)
  403fbf:	00 f8                	add    %bh,%al
  403fc1:	02 00                	add    (%rax),%al
  403fc3:	00 00                	add    %al,(%rax)
  403fc5:	00 00                	add    %al,(%rax)
  403fc7:	00 f8                	add    %bh,%al
  403fc9:	02 00                	add    (%rax),%al
  403fcb:	00 00                	add    %al,(%rax)
  403fcd:	00 00                	add    %al,(%rax)
  403fcf:	00 f8                	add    %bh,%al
  403fd1:	02 00                	add    (%rax),%al
  403fd3:	00 00                	add    %al,(%rax)
  403fd5:	00 00                	add    %al,(%rax)
  403fd7:	00 f8                	add    %bh,%al
  403fd9:	02 00                	add    (%rax),%al
  403fdb:	00 00                	add    %al,(%rax)
  403fdd:	00 00                	add    %al,(%rax)
  403fdf:	00 f8                	add    %bh,%al
  403fe1:	02 00                	add    (%rax),%al
  403fe3:	00 00                	add    %al,(%rax)
  403fe5:	00 00                	add    %al,(%rax)
  403fe7:	00 f8                	add    %bh,%al
  403fe9:	02 00                	add    (%rax),%al
  403feb:	00 00                	add    %al,(%rax)
  403fed:	00 00                	add    %al,(%rax)
  403fef:	00 f8                	add    %bh,%al
  403ff1:	02 00                	add    (%rax),%al
  403ff3:	00 00                	add    %al,(%rax)
  403ff5:	00 00                	add    %al,(%rax)
  403ff7:	00 f8                	add    %bh,%al
  403ff9:	02 00                	add    (%rax),%al
  403ffb:	00 00                	add    %al,(%rax)
  403ffd:	00 00                	add    %al,(%rax)
  403fff:	00 f8                	add    %bh,%al
  404001:	02 00                	add    (%rax),%al
  404003:	00 00                	add    %al,(%rax)
  404005:	00 00                	add    %al,(%rax)
  404007:	00 f8                	add    %bh,%al
  404009:	02 00                	add    (%rax),%al
  40400b:	00 00                	add    %al,(%rax)
  40400d:	00 00                	add    %al,(%rax)
  40400f:	00 f8                	add    %bh,%al
  404011:	02 00                	add    (%rax),%al
  404013:	00 00                	add    %al,(%rax)
  404015:	00 00                	add    %al,(%rax)
  404017:	00 f8                	add    %bh,%al
  404019:	02 00                	add    (%rax),%al
  40401b:	00 00                	add    %al,(%rax)
  40401d:	00 00                	add    %al,(%rax)
  40401f:	00 f8                	add    %bh,%al
  404021:	02 00                	add    (%rax),%al
  404023:	00 00                	add    %al,(%rax)
  404025:	00 00                	add    %al,(%rax)
  404027:	00 f8                	add    %bh,%al
  404029:	02 00                	add    (%rax),%al
  40402b:	00 00                	add    %al,(%rax)
  40402d:	00 00                	add    %al,(%rax)
  40402f:	00 f8                	add    %bh,%al
  404031:	02 00                	add    (%rax),%al
  404033:	00 00                	add    %al,(%rax)
  404035:	00 00                	add    %al,(%rax)
  404037:	00 f8                	add    %bh,%al
  404039:	02 00                	add    (%rax),%al
  40403b:	00 00                	add    %al,(%rax)
  40403d:	00 00                	add    %al,(%rax)
  40403f:	00 f8                	add    %bh,%al
  404041:	02 00                	add    (%rax),%al
  404043:	00 00                	add    %al,(%rax)
  404045:	00 00                	add    %al,(%rax)
  404047:	00 f8                	add    %bh,%al
  404049:	02 00                	add    (%rax),%al
  40404b:	00 00                	add    %al,(%rax)
  40404d:	00 00                	add    %al,(%rax)
  40404f:	00 f8                	add    %bh,%al
  404051:	02 00                	add    (%rax),%al
  404053:	00 00                	add    %al,(%rax)
  404055:	00 00                	add    %al,(%rax)
  404057:	00 f8                	add    %bh,%al
  404059:	02 00                	add    (%rax),%al
  40405b:	00 00                	add    %al,(%rax)
  40405d:	00 00                	add    %al,(%rax)
  40405f:	00 f8                	add    %bh,%al
  404061:	02 00                	add    (%rax),%al
  404063:	00 00                	add    %al,(%rax)
  404065:	00 00                	add    %al,(%rax)
  404067:	00 f8                	add    %bh,%al
  404069:	02 00                	add    (%rax),%al
  40406b:	00 00                	add    %al,(%rax)
  40406d:	00 00                	add    %al,(%rax)
  40406f:	00 f8                	add    %bh,%al
  404071:	02 00                	add    (%rax),%al
  404073:	00 00                	add    %al,(%rax)
  404075:	00 00                	add    %al,(%rax)
  404077:	00 f8                	add    %bh,%al
  404079:	02 00                	add    (%rax),%al
  40407b:	00 00                	add    %al,(%rax)
  40407d:	00 00                	add    %al,(%rax)
  40407f:	00 f8                	add    %bh,%al
  404081:	02 00                	add    (%rax),%al
  404083:	00 00                	add    %al,(%rax)
  404085:	00 00                	add    %al,(%rax)
  404087:	00 f8                	add    %bh,%al
  404089:	02 00                	add    (%rax),%al
  40408b:	00 00                	add    %al,(%rax)
  40408d:	00 00                	add    %al,(%rax)
  40408f:	00 f8                	add    %bh,%al
  404091:	02 00                	add    (%rax),%al
  404093:	00 00                	add    %al,(%rax)
  404095:	00 00                	add    %al,(%rax)
  404097:	00 f8                	add    %bh,%al
  404099:	02 00                	add    (%rax),%al
  40409b:	00 00                	add    %al,(%rax)
  40409d:	00 00                	add    %al,(%rax)
  40409f:	00 f8                	add    %bh,%al
  4040a1:	02 00                	add    (%rax),%al
  4040a3:	00 00                	add    %al,(%rax)
  4040a5:	00 00                	add    %al,(%rax)
  4040a7:	00 f8                	add    %bh,%al
  4040a9:	02 00                	add    (%rax),%al
  4040ab:	00 00                	add    %al,(%rax)
  4040ad:	00 00                	add    %al,(%rax)
  4040af:	00 f8                	add    %bh,%al
  4040b1:	02 00                	add    (%rax),%al
  4040b3:	00 00                	add    %al,(%rax)
  4040b5:	00 00                	add    %al,(%rax)
  4040b7:	00 f8                	add    %bh,%al
  4040b9:	02 00                	add    (%rax),%al
  4040bb:	00 00                	add    %al,(%rax)
  4040bd:	00 00                	add    %al,(%rax)
  4040bf:	00 ff                	add    %bh,%bh
  4040c1:	02 00                	add    (%rax),%al
  4040c3:	00 00                	add    %al,(%rax)
  4040c5:	00 00                	add    %al,(%rax)
  4040c7:	00 ff                	add    %bh,%bh
  4040c9:	02 00                	add    (%rax),%al
  4040cb:	00 00                	add    %al,(%rax)
  4040cd:	00 00                	add    %al,(%rax)
  4040cf:	00 ff                	add    %bh,%bh
  4040d1:	02 00                	add    (%rax),%al
  4040d3:	00 00                	add    %al,(%rax)
  4040d5:	00 00                	add    %al,(%rax)
  4040d7:	00 ff                	add    %bh,%bh
  4040d9:	02 00                	add    (%rax),%al
  4040db:	00 00                	add    %al,(%rax)
  4040dd:	00 00                	add    %al,(%rax)
  4040df:	00 ff                	add    %bh,%bh
  4040e1:	02 00                	add    (%rax),%al
  4040e3:	00 00                	add    %al,(%rax)
  4040e5:	00 00                	add    %al,(%rax)
  4040e7:	00 ff                	add    %bh,%bh
  4040e9:	02 00                	add    (%rax),%al
  4040eb:	00 00                	add    %al,(%rax)
  4040ed:	00 00                	add    %al,(%rax)
  4040ef:	00 ff                	add    %bh,%bh
  4040f1:	02 00                	add    (%rax),%al
  4040f3:	00 00                	add    %al,(%rax)
  4040f5:	00 00                	add    %al,(%rax)
  4040f7:	00 ff                	add    %bh,%bh
  4040f9:	02 00                	add    (%rax),%al
  4040fb:	00 00                	add    %al,(%rax)
  4040fd:	00 00                	add    %al,(%rax)
  4040ff:	00 ff                	add    %bh,%bh
  404101:	02 00                	add    (%rax),%al
  404103:	00 00                	add    %al,(%rax)
  404105:	00 00                	add    %al,(%rax)
  404107:	00 ff                	add    %bh,%bh
  404109:	02 00                	add    (%rax),%al
  40410b:	00 00                	add    %al,(%rax)
  40410d:	00 00                	add    %al,(%rax)
  40410f:	00 ff                	add    %bh,%bh
  404111:	02 00                	add    (%rax),%al
  404113:	00 00                	add    %al,(%rax)
  404115:	00 00                	add    %al,(%rax)
  404117:	00 ff                	add    %bh,%bh
  404119:	02 00                	add    (%rax),%al
  40411b:	00 00                	add    %al,(%rax)
  40411d:	00 00                	add    %al,(%rax)
  40411f:	00 ff                	add    %bh,%bh
  404121:	02 00                	add    (%rax),%al
  404123:	00 00                	add    %al,(%rax)
  404125:	00 00                	add    %al,(%rax)
  404127:	00 ff                	add    %bh,%bh
  404129:	02 00                	add    (%rax),%al
  40412b:	00 00                	add    %al,(%rax)
  40412d:	00 00                	add    %al,(%rax)
  40412f:	00 ff                	add    %bh,%bh
  404131:	02 00                	add    (%rax),%al
  404133:	00 00                	add    %al,(%rax)
  404135:	00 00                	add    %al,(%rax)
  404137:	00 ff                	add    %bh,%bh
  404139:	02 00                	add    (%rax),%al
  40413b:	00 00                	add    %al,(%rax)
  40413d:	00 00                	add    %al,(%rax)
  40413f:	00 ff                	add    %bh,%bh
  404141:	02 00                	add    (%rax),%al
  404143:	00 00                	add    %al,(%rax)
  404145:	00 00                	add    %al,(%rax)
  404147:	00 ff                	add    %bh,%bh
  404149:	02 00                	add    (%rax),%al
  40414b:	00 00                	add    %al,(%rax)
  40414d:	00 00                	add    %al,(%rax)
  40414f:	00 ff                	add    %bh,%bh
  404151:	02 00                	add    (%rax),%al
  404153:	00 00                	add    %al,(%rax)
  404155:	00 00                	add    %al,(%rax)
  404157:	00 ff                	add    %bh,%bh
  404159:	02 00                	add    (%rax),%al
  40415b:	00 00                	add    %al,(%rax)
  40415d:	00 00                	add    %al,(%rax)
  40415f:	00 ff                	add    %bh,%bh
  404161:	02 00                	add    (%rax),%al
  404163:	00 00                	add    %al,(%rax)
  404165:	00 00                	add    %al,(%rax)
  404167:	00 ff                	add    %bh,%bh
  404169:	02 00                	add    (%rax),%al
  40416b:	00 00                	add    %al,(%rax)
  40416d:	00 00                	add    %al,(%rax)
  40416f:	00 ff                	add    %bh,%bh
  404171:	02 00                	add    (%rax),%al
  404173:	00 00                	add    %al,(%rax)
  404175:	00 00                	add    %al,(%rax)
  404177:	00 ff                	add    %bh,%bh
  404179:	02 00                	add    (%rax),%al
  40417b:	00 00                	add    %al,(%rax)
  40417d:	00 00                	add    %al,(%rax)
  40417f:	00 ff                	add    %bh,%bh
  404181:	02 00                	add    (%rax),%al
  404183:	00 00                	add    %al,(%rax)
  404185:	00 00                	add    %al,(%rax)
  404187:	00 ff                	add    %bh,%bh
  404189:	02 00                	add    (%rax),%al
  40418b:	00 00                	add    %al,(%rax)
  40418d:	00 00                	add    %al,(%rax)
  40418f:	00 ff                	add    %bh,%bh
  404191:	02 00                	add    (%rax),%al
  404193:	00 00                	add    %al,(%rax)
  404195:	00 00                	add    %al,(%rax)
  404197:	00 ff                	add    %bh,%bh
  404199:	02 00                	add    (%rax),%al
  40419b:	00 00                	add    %al,(%rax)
  40419d:	00 00                	add    %al,(%rax)
  40419f:	00 ff                	add    %bh,%bh
  4041a1:	02 00                	add    (%rax),%al
  4041a3:	00 00                	add    %al,(%rax)
  4041a5:	00 00                	add    %al,(%rax)
  4041a7:	00 ff                	add    %bh,%bh
  4041a9:	02 00                	add    (%rax),%al
  4041ab:	00 00                	add    %al,(%rax)
  4041ad:	00 00                	add    %al,(%rax)
  4041af:	00 ff                	add    %bh,%bh
  4041b1:	02 00                	add    (%rax),%al
  4041b3:	00 00                	add    %al,(%rax)
  4041b5:	00 00                	add    %al,(%rax)
  4041b7:	00 ff                	add    %bh,%bh
  4041b9:	02 00                	add    (%rax),%al
  4041bb:	00 00                	add    %al,(%rax)
  4041bd:	00 00                	add    %al,(%rax)
  4041bf:	00 ff                	add    %bh,%bh
  4041c1:	02 00                	add    (%rax),%al
  4041c3:	00 00                	add    %al,(%rax)
  4041c5:	00 00                	add    %al,(%rax)
  4041c7:	00 ff                	add    %bh,%bh
  4041c9:	02 00                	add    (%rax),%al
  4041cb:	00 00                	add    %al,(%rax)
  4041cd:	00 00                	add    %al,(%rax)
  4041cf:	00 ff                	add    %bh,%bh
  4041d1:	02 00                	add    (%rax),%al
  4041d3:	00 00                	add    %al,(%rax)
  4041d5:	00 00                	add    %al,(%rax)
  4041d7:	00 ff                	add    %bh,%bh
  4041d9:	02 00                	add    (%rax),%al
  4041db:	00 00                	add    %al,(%rax)
  4041dd:	00 00                	add    %al,(%rax)
  4041df:	00 ff                	add    %bh,%bh
  4041e1:	02 00                	add    (%rax),%al
  4041e3:	00 00                	add    %al,(%rax)
  4041e5:	00 00                	add    %al,(%rax)
  4041e7:	00 ff                	add    %bh,%bh
  4041e9:	02 00                	add    (%rax),%al
  4041eb:	00 00                	add    %al,(%rax)
  4041ed:	00 00                	add    %al,(%rax)
  4041ef:	00 ff                	add    %bh,%bh
  4041f1:	02 00                	add    (%rax),%al
  4041f3:	00 00                	add    %al,(%rax)
  4041f5:	00 00                	add    %al,(%rax)
  4041f7:	00 ff                	add    %bh,%bh
  4041f9:	02 00                	add    (%rax),%al
  4041fb:	00 00                	add    %al,(%rax)
  4041fd:	00 00                	add    %al,(%rax)
  4041ff:	00 ff                	add    %bh,%bh
  404201:	02 00                	add    (%rax),%al
  404203:	00 00                	add    %al,(%rax)
  404205:	00 00                	add    %al,(%rax)
  404207:	00 ff                	add    %bh,%bh
  404209:	02 00                	add    (%rax),%al
  40420b:	00 00                	add    %al,(%rax)
  40420d:	00 00                	add    %al,(%rax)
  40420f:	00 ff                	add    %bh,%bh
  404211:	02 00                	add    (%rax),%al
  404213:	00 00                	add    %al,(%rax)
  404215:	00 00                	add    %al,(%rax)
  404217:	00 ff                	add    %bh,%bh
  404219:	02 00                	add    (%rax),%al
  40421b:	00 00                	add    %al,(%rax)
  40421d:	00 00                	add    %al,(%rax)
  40421f:	00 ff                	add    %bh,%bh
  404221:	02 00                	add    (%rax),%al
  404223:	00 00                	add    %al,(%rax)
  404225:	00 00                	add    %al,(%rax)
  404227:	00 ff                	add    %bh,%bh
  404229:	02 00                	add    (%rax),%al
  40422b:	00 00                	add    %al,(%rax)
  40422d:	00 00                	add    %al,(%rax)
  40422f:	00 ff                	add    %bh,%bh
  404231:	02 00                	add    (%rax),%al
  404233:	00 00                	add    %al,(%rax)
  404235:	00 00                	add    %al,(%rax)
  404237:	00 ff                	add    %bh,%bh
  404239:	02 00                	add    (%rax),%al
  40423b:	00 00                	add    %al,(%rax)
  40423d:	00 00                	add    %al,(%rax)
  40423f:	00 ff                	add    %bh,%bh
  404241:	02 00                	add    (%rax),%al
  404243:	00 00                	add    %al,(%rax)
  404245:	00 00                	add    %al,(%rax)
  404247:	00 ff                	add    %bh,%bh
  404249:	02 00                	add    (%rax),%al
  40424b:	00 00                	add    %al,(%rax)
  40424d:	00 00                	add    %al,(%rax)
  40424f:	00 ff                	add    %bh,%bh
  404251:	02 00                	add    (%rax),%al
  404253:	00 00                	add    %al,(%rax)
  404255:	00 00                	add    %al,(%rax)
  404257:	00 ff                	add    %bh,%bh
  404259:	02 00                	add    (%rax),%al
  40425b:	00 00                	add    %al,(%rax)
  40425d:	00 00                	add    %al,(%rax)
  40425f:	00 ff                	add    %bh,%bh
  404261:	02 00                	add    (%rax),%al
  404263:	00 00                	add    %al,(%rax)
  404265:	00 00                	add    %al,(%rax)
  404267:	00 ff                	add    %bh,%bh
  404269:	02 00                	add    (%rax),%al
  40426b:	00 00                	add    %al,(%rax)
  40426d:	00 00                	add    %al,(%rax)
  40426f:	00 ff                	add    %bh,%bh
  404271:	02 00                	add    (%rax),%al
  404273:	00 00                	add    %al,(%rax)
  404275:	00 00                	add    %al,(%rax)
  404277:	00 ff                	add    %bh,%bh
  404279:	02 00                	add    (%rax),%al
  40427b:	00 00                	add    %al,(%rax)
  40427d:	00 00                	add    %al,(%rax)
  40427f:	00 ff                	add    %bh,%bh
  404281:	02 00                	add    (%rax),%al
  404283:	00 00                	add    %al,(%rax)
  404285:	00 00                	add    %al,(%rax)
  404287:	00 ff                	add    %bh,%bh
  404289:	02 00                	add    (%rax),%al
  40428b:	00 00                	add    %al,(%rax)
  40428d:	00 00                	add    %al,(%rax)
  40428f:	00 ff                	add    %bh,%bh
  404291:	02 00                	add    (%rax),%al
  404293:	00 00                	add    %al,(%rax)
  404295:	00 00                	add    %al,(%rax)
  404297:	00 ff                	add    %bh,%bh
  404299:	02 00                	add    (%rax),%al
  40429b:	00 00                	add    %al,(%rax)
  40429d:	00 00                	add    %al,(%rax)
  40429f:	00 ff                	add    %bh,%bh
  4042a1:	02 00                	add    (%rax),%al
  4042a3:	00 00                	add    %al,(%rax)
  4042a5:	00 00                	add    %al,(%rax)
  4042a7:	00 ff                	add    %bh,%bh
  4042a9:	02 00                	add    (%rax),%al
  4042ab:	00 00                	add    %al,(%rax)
  4042ad:	00 00                	add    %al,(%rax)
  4042af:	00 ff                	add    %bh,%bh
  4042b1:	02 00                	add    (%rax),%al
  4042b3:	00 00                	add    %al,(%rax)
  4042b5:	00 00                	add    %al,(%rax)
  4042b7:	00 ff                	add    %bh,%bh
  4042b9:	02 00                	add    (%rax),%al
  4042bb:	00 00                	add    %al,(%rax)
  4042bd:	00 00                	add    %al,(%rax)
  4042bf:	00 06                	add    %al,(%rsi)
  4042c1:	03 00                	add    (%rax),%eax
  4042c3:	00 00                	add    %al,(%rax)
  4042c5:	00 00                	add    %al,(%rax)
  4042c7:	00 06                	add    %al,(%rsi)
  4042c9:	03 00                	add    (%rax),%eax
  4042cb:	00 00                	add    %al,(%rax)
  4042cd:	00 00                	add    %al,(%rax)
  4042cf:	00 06                	add    %al,(%rsi)
  4042d1:	03 00                	add    (%rax),%eax
  4042d3:	00 00                	add    %al,(%rax)
  4042d5:	00 00                	add    %al,(%rax)
  4042d7:	00 06                	add    %al,(%rsi)
  4042d9:	03 00                	add    (%rax),%eax
  4042db:	00 00                	add    %al,(%rax)
  4042dd:	00 00                	add    %al,(%rax)
  4042df:	00 06                	add    %al,(%rsi)
  4042e1:	03 00                	add    (%rax),%eax
  4042e3:	00 00                	add    %al,(%rax)
  4042e5:	00 00                	add    %al,(%rax)
  4042e7:	00 06                	add    %al,(%rsi)
  4042e9:	03 00                	add    (%rax),%eax
  4042eb:	00 00                	add    %al,(%rax)
  4042ed:	00 00                	add    %al,(%rax)
  4042ef:	00 06                	add    %al,(%rsi)
  4042f1:	03 00                	add    (%rax),%eax
  4042f3:	00 00                	add    %al,(%rax)
  4042f5:	00 00                	add    %al,(%rax)
  4042f7:	00 06                	add    %al,(%rsi)
  4042f9:	03 00                	add    (%rax),%eax
  4042fb:	00 00                	add    %al,(%rax)
  4042fd:	00 00                	add    %al,(%rax)
  4042ff:	00 06                	add    %al,(%rsi)
  404301:	03 00                	add    (%rax),%eax
  404303:	00 00                	add    %al,(%rax)
  404305:	00 00                	add    %al,(%rax)
  404307:	00 06                	add    %al,(%rsi)
  404309:	03 00                	add    (%rax),%eax
  40430b:	00 00                	add    %al,(%rax)
  40430d:	00 00                	add    %al,(%rax)
  40430f:	00 06                	add    %al,(%rsi)
  404311:	03 00                	add    (%rax),%eax
  404313:	00 00                	add    %al,(%rax)
  404315:	00 00                	add    %al,(%rax)
  404317:	00 06                	add    %al,(%rsi)
  404319:	03 00                	add    (%rax),%eax
  40431b:	00 00                	add    %al,(%rax)
  40431d:	00 00                	add    %al,(%rax)
  40431f:	00 06                	add    %al,(%rsi)
  404321:	03 00                	add    (%rax),%eax
  404323:	00 00                	add    %al,(%rax)
  404325:	00 00                	add    %al,(%rax)
  404327:	00 06                	add    %al,(%rsi)
  404329:	03 00                	add    (%rax),%eax
  40432b:	00 00                	add    %al,(%rax)
  40432d:	00 00                	add    %al,(%rax)
  40432f:	00 06                	add    %al,(%rsi)
  404331:	03 00                	add    (%rax),%eax
  404333:	00 00                	add    %al,(%rax)
  404335:	00 00                	add    %al,(%rax)
  404337:	00 06                	add    %al,(%rsi)
  404339:	03 00                	add    (%rax),%eax
  40433b:	00 00                	add    %al,(%rax)
  40433d:	00 00                	add    %al,(%rax)
  40433f:	00 06                	add    %al,(%rsi)
  404341:	03 00                	add    (%rax),%eax
  404343:	00 00                	add    %al,(%rax)
  404345:	00 00                	add    %al,(%rax)
  404347:	00 06                	add    %al,(%rsi)
  404349:	03 00                	add    (%rax),%eax
  40434b:	00 00                	add    %al,(%rax)
  40434d:	00 00                	add    %al,(%rax)
  40434f:	00 06                	add    %al,(%rsi)
  404351:	03 00                	add    (%rax),%eax
  404353:	00 00                	add    %al,(%rax)
  404355:	00 00                	add    %al,(%rax)
  404357:	00 06                	add    %al,(%rsi)
  404359:	03 00                	add    (%rax),%eax
  40435b:	00 00                	add    %al,(%rax)
  40435d:	00 00                	add    %al,(%rax)
  40435f:	00 06                	add    %al,(%rsi)
  404361:	03 00                	add    (%rax),%eax
  404363:	00 00                	add    %al,(%rax)
  404365:	00 00                	add    %al,(%rax)
  404367:	00 06                	add    %al,(%rsi)
  404369:	03 00                	add    (%rax),%eax
  40436b:	00 00                	add    %al,(%rax)
  40436d:	00 00                	add    %al,(%rax)
  40436f:	00 06                	add    %al,(%rsi)
  404371:	03 00                	add    (%rax),%eax
  404373:	00 00                	add    %al,(%rax)
  404375:	00 00                	add    %al,(%rax)
  404377:	00 06                	add    %al,(%rsi)
  404379:	03 00                	add    (%rax),%eax
  40437b:	00 00                	add    %al,(%rax)
  40437d:	00 00                	add    %al,(%rax)
  40437f:	00 06                	add    %al,(%rsi)
  404381:	03 00                	add    (%rax),%eax
  404383:	00 00                	add    %al,(%rax)
  404385:	00 00                	add    %al,(%rax)
  404387:	00 06                	add    %al,(%rsi)
  404389:	03 00                	add    (%rax),%eax
  40438b:	00 00                	add    %al,(%rax)
  40438d:	00 00                	add    %al,(%rax)
  40438f:	00 06                	add    %al,(%rsi)
  404391:	03 00                	add    (%rax),%eax
  404393:	00 00                	add    %al,(%rax)
  404395:	00 00                	add    %al,(%rax)
  404397:	00 06                	add    %al,(%rsi)
  404399:	03 00                	add    (%rax),%eax
  40439b:	00 00                	add    %al,(%rax)
  40439d:	00 00                	add    %al,(%rax)
  40439f:	00 06                	add    %al,(%rsi)
  4043a1:	03 00                	add    (%rax),%eax
  4043a3:	00 00                	add    %al,(%rax)
  4043a5:	00 00                	add    %al,(%rax)
  4043a7:	00 06                	add    %al,(%rsi)
  4043a9:	03 00                	add    (%rax),%eax
  4043ab:	00 00                	add    %al,(%rax)
  4043ad:	00 00                	add    %al,(%rax)
  4043af:	00 06                	add    %al,(%rsi)
  4043b1:	03 00                	add    (%rax),%eax
  4043b3:	00 00                	add    %al,(%rax)
  4043b5:	00 00                	add    %al,(%rax)
  4043b7:	00 06                	add    %al,(%rsi)
  4043b9:	03 00                	add    (%rax),%eax
  4043bb:	00 00                	add    %al,(%rax)
  4043bd:	00 00                	add    %al,(%rax)
  4043bf:	00 06                	add    %al,(%rsi)
  4043c1:	03 00                	add    (%rax),%eax
  4043c3:	00 00                	add    %al,(%rax)
  4043c5:	00 00                	add    %al,(%rax)
  4043c7:	00 06                	add    %al,(%rsi)
  4043c9:	03 00                	add    (%rax),%eax
  4043cb:	00 00                	add    %al,(%rax)
  4043cd:	00 00                	add    %al,(%rax)
  4043cf:	00 06                	add    %al,(%rsi)
  4043d1:	03 00                	add    (%rax),%eax
  4043d3:	00 00                	add    %al,(%rax)
  4043d5:	00 00                	add    %al,(%rax)
  4043d7:	00 06                	add    %al,(%rsi)
  4043d9:	03 00                	add    (%rax),%eax
  4043db:	00 00                	add    %al,(%rax)
  4043dd:	00 00                	add    %al,(%rax)
  4043df:	00 06                	add    %al,(%rsi)
  4043e1:	03 00                	add    (%rax),%eax
  4043e3:	00 00                	add    %al,(%rax)
  4043e5:	00 00                	add    %al,(%rax)
  4043e7:	00 06                	add    %al,(%rsi)
  4043e9:	03 00                	add    (%rax),%eax
  4043eb:	00 00                	add    %al,(%rax)
  4043ed:	00 00                	add    %al,(%rax)
  4043ef:	00 06                	add    %al,(%rsi)
  4043f1:	03 00                	add    (%rax),%eax
  4043f3:	00 00                	add    %al,(%rax)
  4043f5:	00 00                	add    %al,(%rax)
  4043f7:	00 06                	add    %al,(%rsi)
  4043f9:	03 00                	add    (%rax),%eax
  4043fb:	00 00                	add    %al,(%rax)
  4043fd:	00 00                	add    %al,(%rax)
  4043ff:	00 06                	add    %al,(%rsi)
  404401:	03 00                	add    (%rax),%eax
  404403:	00 00                	add    %al,(%rax)
  404405:	00 00                	add    %al,(%rax)
  404407:	00 06                	add    %al,(%rsi)
  404409:	03 00                	add    (%rax),%eax
  40440b:	00 00                	add    %al,(%rax)
  40440d:	00 00                	add    %al,(%rax)
  40440f:	00 06                	add    %al,(%rsi)
  404411:	03 00                	add    (%rax),%eax
  404413:	00 00                	add    %al,(%rax)
  404415:	00 00                	add    %al,(%rax)
  404417:	00 06                	add    %al,(%rsi)
  404419:	03 00                	add    (%rax),%eax
  40441b:	00 00                	add    %al,(%rax)
  40441d:	00 00                	add    %al,(%rax)
  40441f:	00 06                	add    %al,(%rsi)
  404421:	03 00                	add    (%rax),%eax
  404423:	00 00                	add    %al,(%rax)
  404425:	00 00                	add    %al,(%rax)
  404427:	00 06                	add    %al,(%rsi)
  404429:	03 00                	add    (%rax),%eax
  40442b:	00 00                	add    %al,(%rax)
  40442d:	00 00                	add    %al,(%rax)
  40442f:	00 06                	add    %al,(%rsi)
  404431:	03 00                	add    (%rax),%eax
  404433:	00 00                	add    %al,(%rax)
  404435:	00 00                	add    %al,(%rax)
  404437:	00 06                	add    %al,(%rsi)
  404439:	03 00                	add    (%rax),%eax
  40443b:	00 00                	add    %al,(%rax)
  40443d:	00 00                	add    %al,(%rax)
  40443f:	00 06                	add    %al,(%rsi)
  404441:	03 00                	add    (%rax),%eax
  404443:	00 00                	add    %al,(%rax)
  404445:	00 00                	add    %al,(%rax)
  404447:	00 06                	add    %al,(%rsi)
  404449:	03 00                	add    (%rax),%eax
  40444b:	00 00                	add    %al,(%rax)
  40444d:	00 00                	add    %al,(%rax)
  40444f:	00 06                	add    %al,(%rsi)
  404451:	03 00                	add    (%rax),%eax
  404453:	00 00                	add    %al,(%rax)
  404455:	00 00                	add    %al,(%rax)
  404457:	00 06                	add    %al,(%rsi)
  404459:	03 00                	add    (%rax),%eax
  40445b:	00 00                	add    %al,(%rax)
  40445d:	00 00                	add    %al,(%rax)
  40445f:	00 06                	add    %al,(%rsi)
  404461:	03 00                	add    (%rax),%eax
  404463:	00 00                	add    %al,(%rax)
  404465:	00 00                	add    %al,(%rax)
  404467:	00 06                	add    %al,(%rsi)
  404469:	03 00                	add    (%rax),%eax
  40446b:	00 00                	add    %al,(%rax)
  40446d:	00 00                	add    %al,(%rax)
  40446f:	00 06                	add    %al,(%rsi)
  404471:	03 00                	add    (%rax),%eax
  404473:	00 00                	add    %al,(%rax)
  404475:	00 00                	add    %al,(%rax)
  404477:	00 06                	add    %al,(%rsi)
  404479:	03 00                	add    (%rax),%eax
  40447b:	00 00                	add    %al,(%rax)
  40447d:	00 00                	add    %al,(%rax)
  40447f:	00 06                	add    %al,(%rsi)
  404481:	03 00                	add    (%rax),%eax
  404483:	00 00                	add    %al,(%rax)
  404485:	00 00                	add    %al,(%rax)
  404487:	00 06                	add    %al,(%rsi)
  404489:	03 00                	add    (%rax),%eax
  40448b:	00 00                	add    %al,(%rax)
  40448d:	00 00                	add    %al,(%rax)
  40448f:	00 06                	add    %al,(%rsi)
  404491:	03 00                	add    (%rax),%eax
  404493:	00 00                	add    %al,(%rax)
  404495:	00 00                	add    %al,(%rax)
  404497:	00 06                	add    %al,(%rsi)
  404499:	03 00                	add    (%rax),%eax
  40449b:	00 00                	add    %al,(%rax)
  40449d:	00 00                	add    %al,(%rax)
  40449f:	00 06                	add    %al,(%rsi)
  4044a1:	03 00                	add    (%rax),%eax
  4044a3:	00 00                	add    %al,(%rax)
  4044a5:	00 00                	add    %al,(%rax)
  4044a7:	00 06                	add    %al,(%rsi)
  4044a9:	03 00                	add    (%rax),%eax
  4044ab:	00 00                	add    %al,(%rax)
  4044ad:	00 00                	add    %al,(%rax)
  4044af:	00 06                	add    %al,(%rsi)
  4044b1:	03 00                	add    (%rax),%eax
  4044b3:	00 00                	add    %al,(%rax)
  4044b5:	00 00                	add    %al,(%rax)
  4044b7:	00 06                	add    %al,(%rsi)
  4044b9:	03 00                	add    (%rax),%eax
  4044bb:	00 00                	add    %al,(%rax)
  4044bd:	00 00                	add    %al,(%rax)
  4044bf:	00 0d 03 00 00 00    	add    %cl,0x3(%rip)        # 4044c8 <__intel_mic_avx512f_memset+0x12c8>
  4044c5:	00 00                	add    %al,(%rax)
  4044c7:	00 0d 03 00 00 00    	add    %cl,0x3(%rip)        # 4044d0 <__intel_mic_avx512f_memset+0x12d0>
  4044cd:	00 00                	add    %al,(%rax)
  4044cf:	00 0d 03 00 00 00    	add    %cl,0x3(%rip)        # 4044d8 <__intel_mic_avx512f_memset+0x12d8>
  4044d5:	00 00                	add    %al,(%rax)
  4044d7:	00 0d 03 00 00 00    	add    %cl,0x3(%rip)        # 4044e0 <__intel_mic_avx512f_memset+0x12e0>
  4044dd:	00 00                	add    %al,(%rax)
  4044df:	00 0d 03 00 00 00    	add    %cl,0x3(%rip)        # 4044e8 <__intel_mic_avx512f_memset+0x12e8>
  4044e5:	00 00                	add    %al,(%rax)
  4044e7:	00 0d 03 00 00 00    	add    %cl,0x3(%rip)        # 4044f0 <__intel_mic_avx512f_memset+0x12f0>
  4044ed:	00 00                	add    %al,(%rax)
  4044ef:	00 0d 03 00 00 00    	add    %cl,0x3(%rip)        # 4044f8 <__intel_mic_avx512f_memset+0x12f8>
  4044f5:	00 00                	add    %al,(%rax)
  4044f7:	00 0d 03 00 00 00    	add    %cl,0x3(%rip)        # 404500 <__intel_mic_avx512f_memset+0x1300>
  4044fd:	00 00                	add    %al,(%rax)
  4044ff:	00 0d 03 00 00 00    	add    %cl,0x3(%rip)        # 404508 <__intel_mic_avx512f_memset+0x1308>
  404505:	00 00                	add    %al,(%rax)
  404507:	00 0d 03 00 00 00    	add    %cl,0x3(%rip)        # 404510 <__intel_mic_avx512f_memset+0x1310>
  40450d:	00 00                	add    %al,(%rax)
  40450f:	00 0d 03 00 00 00    	add    %cl,0x3(%rip)        # 404518 <__intel_mic_avx512f_memset+0x1318>
  404515:	00 00                	add    %al,(%rax)
  404517:	00 0d 03 00 00 00    	add    %cl,0x3(%rip)        # 404520 <__intel_mic_avx512f_memset+0x1320>
  40451d:	00 00                	add    %al,(%rax)
  40451f:	00 0d 03 00 00 00    	add    %cl,0x3(%rip)        # 404528 <__intel_mic_avx512f_memset+0x1328>
  404525:	00 00                	add    %al,(%rax)
  404527:	00 0d 03 00 00 00    	add    %cl,0x3(%rip)        # 404530 <__intel_mic_avx512f_memset+0x1330>
  40452d:	00 00                	add    %al,(%rax)
  40452f:	00 0d 03 00 00 00    	add    %cl,0x3(%rip)        # 404538 <__intel_mic_avx512f_memset+0x1338>
  404535:	00 00                	add    %al,(%rax)
  404537:	00 0d 03 00 00 00    	add    %cl,0x3(%rip)        # 404540 <__intel_mic_avx512f_memset+0x1340>
  40453d:	00 00                	add    %al,(%rax)
  40453f:	00 0d 03 00 00 00    	add    %cl,0x3(%rip)        # 404548 <__intel_mic_avx512f_memset+0x1348>
  404545:	00 00                	add    %al,(%rax)
  404547:	00 0d 03 00 00 00    	add    %cl,0x3(%rip)        # 404550 <__intel_mic_avx512f_memset+0x1350>
  40454d:	00 00                	add    %al,(%rax)
  40454f:	00 0d 03 00 00 00    	add    %cl,0x3(%rip)        # 404558 <__intel_mic_avx512f_memset+0x1358>
  404555:	00 00                	add    %al,(%rax)
  404557:	00 0d 03 00 00 00    	add    %cl,0x3(%rip)        # 404560 <__intel_mic_avx512f_memset+0x1360>
  40455d:	00 00                	add    %al,(%rax)
  40455f:	00 0d 03 00 00 00    	add    %cl,0x3(%rip)        # 404568 <__intel_mic_avx512f_memset+0x1368>
  404565:	00 00                	add    %al,(%rax)
  404567:	00 0d 03 00 00 00    	add    %cl,0x3(%rip)        # 404570 <__intel_mic_avx512f_memset+0x1370>
  40456d:	00 00                	add    %al,(%rax)
  40456f:	00 0d 03 00 00 00    	add    %cl,0x3(%rip)        # 404578 <__intel_mic_avx512f_memset+0x1378>
  404575:	00 00                	add    %al,(%rax)
  404577:	00 0d 03 00 00 00    	add    %cl,0x3(%rip)        # 404580 <__intel_mic_avx512f_memset+0x1380>
  40457d:	00 00                	add    %al,(%rax)
  40457f:	00 0d 03 00 00 00    	add    %cl,0x3(%rip)        # 404588 <__intel_mic_avx512f_memset+0x1388>
  404585:	00 00                	add    %al,(%rax)
  404587:	00 0d 03 00 00 00    	add    %cl,0x3(%rip)        # 404590 <__intel_mic_avx512f_memset+0x1390>
  40458d:	00 00                	add    %al,(%rax)
  40458f:	00 0d 03 00 00 00    	add    %cl,0x3(%rip)        # 404598 <__intel_mic_avx512f_memset+0x1398>
  404595:	00 00                	add    %al,(%rax)
  404597:	00 0d 03 00 00 00    	add    %cl,0x3(%rip)        # 4045a0 <__intel_mic_avx512f_memset+0x13a0>
  40459d:	00 00                	add    %al,(%rax)
  40459f:	00 0d 03 00 00 00    	add    %cl,0x3(%rip)        # 4045a8 <__intel_mic_avx512f_memset+0x13a8>
  4045a5:	00 00                	add    %al,(%rax)
  4045a7:	00 0d 03 00 00 00    	add    %cl,0x3(%rip)        # 4045b0 <__intel_mic_avx512f_memset+0x13b0>
  4045ad:	00 00                	add    %al,(%rax)
  4045af:	00 0d 03 00 00 00    	add    %cl,0x3(%rip)        # 4045b8 <__intel_mic_avx512f_memset+0x13b8>
  4045b5:	00 00                	add    %al,(%rax)
  4045b7:	00 0d 03 00 00 00    	add    %cl,0x3(%rip)        # 4045c0 <__intel_mic_avx512f_memset+0x13c0>
  4045bd:	00 00                	add    %al,(%rax)
  4045bf:	00 0d 03 00 00 00    	add    %cl,0x3(%rip)        # 4045c8 <__intel_mic_avx512f_memset+0x13c8>
  4045c5:	00 00                	add    %al,(%rax)
  4045c7:	00 0d 03 00 00 00    	add    %cl,0x3(%rip)        # 4045d0 <__intel_mic_avx512f_memset+0x13d0>
  4045cd:	00 00                	add    %al,(%rax)
  4045cf:	00 0d 03 00 00 00    	add    %cl,0x3(%rip)        # 4045d8 <__intel_mic_avx512f_memset+0x13d8>
  4045d5:	00 00                	add    %al,(%rax)
  4045d7:	00 0d 03 00 00 00    	add    %cl,0x3(%rip)        # 4045e0 <__intel_mic_avx512f_memset+0x13e0>
  4045dd:	00 00                	add    %al,(%rax)
  4045df:	00 0d 03 00 00 00    	add    %cl,0x3(%rip)        # 4045e8 <__intel_mic_avx512f_memset+0x13e8>
  4045e5:	00 00                	add    %al,(%rax)
  4045e7:	00 0d 03 00 00 00    	add    %cl,0x3(%rip)        # 4045f0 <__intel_mic_avx512f_memset+0x13f0>
  4045ed:	00 00                	add    %al,(%rax)
  4045ef:	00 0d 03 00 00 00    	add    %cl,0x3(%rip)        # 4045f8 <__intel_mic_avx512f_memset+0x13f8>
  4045f5:	00 00                	add    %al,(%rax)
  4045f7:	00 0d 03 00 00 00    	add    %cl,0x3(%rip)        # 404600 <__intel_mic_avx512f_memset+0x1400>
  4045fd:	00 00                	add    %al,(%rax)
  4045ff:	00 0d 03 00 00 00    	add    %cl,0x3(%rip)        # 404608 <__intel_mic_avx512f_memset+0x1408>
  404605:	00 00                	add    %al,(%rax)
  404607:	00 0d 03 00 00 00    	add    %cl,0x3(%rip)        # 404610 <__intel_mic_avx512f_memset+0x1410>
  40460d:	00 00                	add    %al,(%rax)
  40460f:	00 0d 03 00 00 00    	add    %cl,0x3(%rip)        # 404618 <__intel_mic_avx512f_memset+0x1418>
  404615:	00 00                	add    %al,(%rax)
  404617:	00 0d 03 00 00 00    	add    %cl,0x3(%rip)        # 404620 <__intel_mic_avx512f_memset+0x1420>
  40461d:	00 00                	add    %al,(%rax)
  40461f:	00 0d 03 00 00 00    	add    %cl,0x3(%rip)        # 404628 <__intel_mic_avx512f_memset+0x1428>
  404625:	00 00                	add    %al,(%rax)
  404627:	00 0d 03 00 00 00    	add    %cl,0x3(%rip)        # 404630 <__intel_mic_avx512f_memset+0x1430>
  40462d:	00 00                	add    %al,(%rax)
  40462f:	00 0d 03 00 00 00    	add    %cl,0x3(%rip)        # 404638 <__intel_mic_avx512f_memset+0x1438>
  404635:	00 00                	add    %al,(%rax)
  404637:	00 0d 03 00 00 00    	add    %cl,0x3(%rip)        # 404640 <__intel_mic_avx512f_memset+0x1440>
  40463d:	00 00                	add    %al,(%rax)
  40463f:	00 0d 03 00 00 00    	add    %cl,0x3(%rip)        # 404648 <__intel_mic_avx512f_memset+0x1448>
  404645:	00 00                	add    %al,(%rax)
  404647:	00 0d 03 00 00 00    	add    %cl,0x3(%rip)        # 404650 <__intel_mic_avx512f_memset+0x1450>
  40464d:	00 00                	add    %al,(%rax)
  40464f:	00 0d 03 00 00 00    	add    %cl,0x3(%rip)        # 404658 <__intel_mic_avx512f_memset+0x1458>
  404655:	00 00                	add    %al,(%rax)
  404657:	00 0d 03 00 00 00    	add    %cl,0x3(%rip)        # 404660 <__intel_mic_avx512f_memset+0x1460>
  40465d:	00 00                	add    %al,(%rax)
  40465f:	00 0d 03 00 00 00    	add    %cl,0x3(%rip)        # 404668 <__intel_mic_avx512f_memset+0x1468>
  404665:	00 00                	add    %al,(%rax)
  404667:	00 0d 03 00 00 00    	add    %cl,0x3(%rip)        # 404670 <__intel_mic_avx512f_memset+0x1470>
  40466d:	00 00                	add    %al,(%rax)
  40466f:	00 0d 03 00 00 00    	add    %cl,0x3(%rip)        # 404678 <__intel_mic_avx512f_memset+0x1478>
  404675:	00 00                	add    %al,(%rax)
  404677:	00 0d 03 00 00 00    	add    %cl,0x3(%rip)        # 404680 <__intel_mic_avx512f_memset+0x1480>
  40467d:	00 00                	add    %al,(%rax)
  40467f:	00 0d 03 00 00 00    	add    %cl,0x3(%rip)        # 404688 <__intel_mic_avx512f_memset+0x1488>
  404685:	00 00                	add    %al,(%rax)
  404687:	00 0d 03 00 00 00    	add    %cl,0x3(%rip)        # 404690 <__intel_mic_avx512f_memset+0x1490>
  40468d:	00 00                	add    %al,(%rax)
  40468f:	00 0d 03 00 00 00    	add    %cl,0x3(%rip)        # 404698 <__intel_mic_avx512f_memset+0x1498>
  404695:	00 00                	add    %al,(%rax)
  404697:	00 0d 03 00 00 00    	add    %cl,0x3(%rip)        # 4046a0 <__intel_mic_avx512f_memset+0x14a0>
  40469d:	00 00                	add    %al,(%rax)
  40469f:	00 0d 03 00 00 00    	add    %cl,0x3(%rip)        # 4046a8 <__intel_mic_avx512f_memset+0x14a8>
  4046a5:	00 00                	add    %al,(%rax)
  4046a7:	00 0d 03 00 00 00    	add    %cl,0x3(%rip)        # 4046b0 <__intel_mic_avx512f_memset+0x14b0>
  4046ad:	00 00                	add    %al,(%rax)
  4046af:	00 0d 03 00 00 00    	add    %cl,0x3(%rip)        # 4046b8 <__intel_mic_avx512f_memset+0x14b8>
  4046b5:	00 00                	add    %al,(%rax)
  4046b7:	00 0d 03 00 00 00    	add    %cl,0x3(%rip)        # 4046c0 <__intel_mic_avx512f_memset+0x14c0>
  4046bd:	00 00                	add    %al,(%rax)
  4046bf:	00 c0                	add    %al,%al
  4046c1:	12 00                	adc    (%rax),%al
  4046c3:	00 00                	add    %al,(%rax)
  4046c5:	00 00                	add    %al,(%rax)
  4046c7:	00 c8                	add    %cl,%al
  4046c9:	12 00                	adc    (%rax),%al
  4046cb:	00 00                	add    %al,(%rax)
  4046cd:	00 00                	add    %al,(%rax)
  4046cf:	00 bb 12 00 00 00    	add    %bh,0x12(%rbx)
  4046d5:	00 00                	add    %al,(%rax)
  4046d7:	00 b2 12 00 00 00    	add    %dh,0x12(%rdx)
  4046dd:	00 00                	add    %al,(%rax)
  4046df:	00 a5 12 00 00 00    	add    %ah,0x12(%rbp)
  4046e5:	00 00                	add    %al,(%rax)
  4046e7:	00 9d 12 00 00 00    	add    %bl,0x12(%rbp)
  4046ed:	00 00                	add    %al,(%rax)
  4046ef:	00 9d 12 00 00 00    	add    %bl,0x12(%rbp)
  4046f5:	00 00                	add    %al,(%rax)
  4046f7:	00 9d 12 00 00 00    	add    %bl,0x12(%rbp)
  4046fd:	00 00                	add    %al,(%rax)
  4046ff:	00 91 12 00 00 00    	add    %dl,0x12(%rcx)
  404705:	00 00                	add    %al,(%rax)
  404707:	00 89 12 00 00 00    	add    %cl,0x12(%rcx)
  40470d:	00 00                	add    %al,(%rax)
  40470f:	00 89 12 00 00 00    	add    %cl,0x12(%rcx)
  404715:	00 00                	add    %al,(%rax)
  404717:	00 89 12 00 00 00    	add    %cl,0x12(%rcx)
  40471d:	00 00                	add    %al,(%rax)
  40471f:	00 89 12 00 00 00    	add    %cl,0x12(%rcx)
  404725:	00 00                	add    %al,(%rax)
  404727:	00 89 12 00 00 00    	add    %cl,0x12(%rcx)
  40472d:	00 00                	add    %al,(%rax)
  40472f:	00 89 12 00 00 00    	add    %cl,0x12(%rcx)
  404735:	00 00                	add    %al,(%rax)
  404737:	00 89 12 00 00 00    	add    %cl,0x12(%rcx)
  40473d:	00 00                	add    %al,(%rax)
  40473f:	00 7d 12             	add    %bh,0x12(%rbp)
  404742:	00 00                	add    %al,(%rax)
  404744:	00 00                	add    %al,(%rax)
  404746:	00 00                	add    %al,(%rax)
  404748:	74 12                	je     40475c <__intel_mic_avx512f_memset+0x155c>
  40474a:	00 00                	add    %al,(%rax)
  40474c:	00 00                	add    %al,(%rax)
  40474e:	00 00                	add    %al,(%rax)
  404750:	74 12                	je     404764 <__intel_mic_avx512f_memset+0x1564>
  404752:	00 00                	add    %al,(%rax)
  404754:	00 00                	add    %al,(%rax)
  404756:	00 00                	add    %al,(%rax)
  404758:	74 12                	je     40476c <__intel_mic_avx512f_memset+0x156c>
  40475a:	00 00                	add    %al,(%rax)
  40475c:	00 00                	add    %al,(%rax)
  40475e:	00 00                	add    %al,(%rax)
  404760:	74 12                	je     404774 <__intel_mic_avx512f_memset+0x1574>
  404762:	00 00                	add    %al,(%rax)
  404764:	00 00                	add    %al,(%rax)
  404766:	00 00                	add    %al,(%rax)
  404768:	74 12                	je     40477c <__intel_mic_avx512f_memset+0x157c>
  40476a:	00 00                	add    %al,(%rax)
  40476c:	00 00                	add    %al,(%rax)
  40476e:	00 00                	add    %al,(%rax)
  404770:	74 12                	je     404784 <__intel_mic_avx512f_memset+0x1584>
  404772:	00 00                	add    %al,(%rax)
  404774:	00 00                	add    %al,(%rax)
  404776:	00 00                	add    %al,(%rax)
  404778:	74 12                	je     40478c <__intel_mic_avx512f_memset+0x158c>
  40477a:	00 00                	add    %al,(%rax)
  40477c:	00 00                	add    %al,(%rax)
  40477e:	00 00                	add    %al,(%rax)
  404780:	74 12                	je     404794 <__intel_mic_avx512f_memset+0x1594>
  404782:	00 00                	add    %al,(%rax)
  404784:	00 00                	add    %al,(%rax)
  404786:	00 00                	add    %al,(%rax)
  404788:	74 12                	je     40479c <__intel_mic_avx512f_memset+0x159c>
  40478a:	00 00                	add    %al,(%rax)
  40478c:	00 00                	add    %al,(%rax)
  40478e:	00 00                	add    %al,(%rax)
  404790:	74 12                	je     4047a4 <__intel_mic_avx512f_memset+0x15a4>
  404792:	00 00                	add    %al,(%rax)
  404794:	00 00                	add    %al,(%rax)
  404796:	00 00                	add    %al,(%rax)
  404798:	74 12                	je     4047ac <__intel_mic_avx512f_memset+0x15ac>
  40479a:	00 00                	add    %al,(%rax)
  40479c:	00 00                	add    %al,(%rax)
  40479e:	00 00                	add    %al,(%rax)
  4047a0:	74 12                	je     4047b4 <__intel_mic_avx512f_memset+0x15b4>
  4047a2:	00 00                	add    %al,(%rax)
  4047a4:	00 00                	add    %al,(%rax)
  4047a6:	00 00                	add    %al,(%rax)
  4047a8:	74 12                	je     4047bc <__intel_mic_avx512f_memset+0x15bc>
  4047aa:	00 00                	add    %al,(%rax)
  4047ac:	00 00                	add    %al,(%rax)
  4047ae:	00 00                	add    %al,(%rax)
  4047b0:	74 12                	je     4047c4 <__intel_mic_avx512f_memset+0x15c4>
  4047b2:	00 00                	add    %al,(%rax)
  4047b4:	00 00                	add    %al,(%rax)
  4047b6:	00 00                	add    %al,(%rax)
  4047b8:	74 12                	je     4047cc <__intel_mic_avx512f_memset+0x15cc>
  4047ba:	00 00                	add    %al,(%rax)
  4047bc:	00 00                	add    %al,(%rax)
  4047be:	00 00                	add    %al,(%rax)
  4047c0:	65 12 00             	adc    %gs:(%rax),%al
  4047c3:	00 00                	add    %al,(%rax)
  4047c5:	00 00                	add    %al,(%rax)
  4047c7:	00 5c 12 00          	add    %bl,0x0(%rdx,%rdx,1)
  4047cb:	00 00                	add    %al,(%rax)
  4047cd:	00 00                	add    %al,(%rax)
  4047cf:	00 5c 12 00          	add    %bl,0x0(%rdx,%rdx,1)
  4047d3:	00 00                	add    %al,(%rax)
  4047d5:	00 00                	add    %al,(%rax)
  4047d7:	00 5c 12 00          	add    %bl,0x0(%rdx,%rdx,1)
  4047db:	00 00                	add    %al,(%rax)
  4047dd:	00 00                	add    %al,(%rax)
  4047df:	00 5c 12 00          	add    %bl,0x0(%rdx,%rdx,1)
  4047e3:	00 00                	add    %al,(%rax)
  4047e5:	00 00                	add    %al,(%rax)
  4047e7:	00 5c 12 00          	add    %bl,0x0(%rdx,%rdx,1)
  4047eb:	00 00                	add    %al,(%rax)
  4047ed:	00 00                	add    %al,(%rax)
  4047ef:	00 5c 12 00          	add    %bl,0x0(%rdx,%rdx,1)
  4047f3:	00 00                	add    %al,(%rax)
  4047f5:	00 00                	add    %al,(%rax)
  4047f7:	00 5c 12 00          	add    %bl,0x0(%rdx,%rdx,1)
  4047fb:	00 00                	add    %al,(%rax)
  4047fd:	00 00                	add    %al,(%rax)
  4047ff:	00 5c 12 00          	add    %bl,0x0(%rdx,%rdx,1)
  404803:	00 00                	add    %al,(%rax)
  404805:	00 00                	add    %al,(%rax)
  404807:	00 5c 12 00          	add    %bl,0x0(%rdx,%rdx,1)
  40480b:	00 00                	add    %al,(%rax)
  40480d:	00 00                	add    %al,(%rax)
  40480f:	00 5c 12 00          	add    %bl,0x0(%rdx,%rdx,1)
  404813:	00 00                	add    %al,(%rax)
  404815:	00 00                	add    %al,(%rax)
  404817:	00 5c 12 00          	add    %bl,0x0(%rdx,%rdx,1)
  40481b:	00 00                	add    %al,(%rax)
  40481d:	00 00                	add    %al,(%rax)
  40481f:	00 5c 12 00          	add    %bl,0x0(%rdx,%rdx,1)
  404823:	00 00                	add    %al,(%rax)
  404825:	00 00                	add    %al,(%rax)
  404827:	00 5c 12 00          	add    %bl,0x0(%rdx,%rdx,1)
  40482b:	00 00                	add    %al,(%rax)
  40482d:	00 00                	add    %al,(%rax)
  40482f:	00 5c 12 00          	add    %bl,0x0(%rdx,%rdx,1)
  404833:	00 00                	add    %al,(%rax)
  404835:	00 00                	add    %al,(%rax)
  404837:	00 5c 12 00          	add    %bl,0x0(%rdx,%rdx,1)
  40483b:	00 00                	add    %al,(%rax)
  40483d:	00 00                	add    %al,(%rax)
  40483f:	00 5c 12 00          	add    %bl,0x0(%rdx,%rdx,1)
  404843:	00 00                	add    %al,(%rax)
  404845:	00 00                	add    %al,(%rax)
  404847:	00 5c 12 00          	add    %bl,0x0(%rdx,%rdx,1)
  40484b:	00 00                	add    %al,(%rax)
  40484d:	00 00                	add    %al,(%rax)
  40484f:	00 5c 12 00          	add    %bl,0x0(%rdx,%rdx,1)
  404853:	00 00                	add    %al,(%rax)
  404855:	00 00                	add    %al,(%rax)
  404857:	00 5c 12 00          	add    %bl,0x0(%rdx,%rdx,1)
  40485b:	00 00                	add    %al,(%rax)
  40485d:	00 00                	add    %al,(%rax)
  40485f:	00 5c 12 00          	add    %bl,0x0(%rdx,%rdx,1)
  404863:	00 00                	add    %al,(%rax)
  404865:	00 00                	add    %al,(%rax)
  404867:	00 5c 12 00          	add    %bl,0x0(%rdx,%rdx,1)
  40486b:	00 00                	add    %al,(%rax)
  40486d:	00 00                	add    %al,(%rax)
  40486f:	00 5c 12 00          	add    %bl,0x0(%rdx,%rdx,1)
  404873:	00 00                	add    %al,(%rax)
  404875:	00 00                	add    %al,(%rax)
  404877:	00 5c 12 00          	add    %bl,0x0(%rdx,%rdx,1)
  40487b:	00 00                	add    %al,(%rax)
  40487d:	00 00                	add    %al,(%rax)
  40487f:	00 5c 12 00          	add    %bl,0x0(%rdx,%rdx,1)
  404883:	00 00                	add    %al,(%rax)
  404885:	00 00                	add    %al,(%rax)
  404887:	00 5c 12 00          	add    %bl,0x0(%rdx,%rdx,1)
  40488b:	00 00                	add    %al,(%rax)
  40488d:	00 00                	add    %al,(%rax)
  40488f:	00 5c 12 00          	add    %bl,0x0(%rdx,%rdx,1)
  404893:	00 00                	add    %al,(%rax)
  404895:	00 00                	add    %al,(%rax)
  404897:	00 5c 12 00          	add    %bl,0x0(%rdx,%rdx,1)
  40489b:	00 00                	add    %al,(%rax)
  40489d:	00 00                	add    %al,(%rax)
  40489f:	00 5c 12 00          	add    %bl,0x0(%rdx,%rdx,1)
  4048a3:	00 00                	add    %al,(%rax)
  4048a5:	00 00                	add    %al,(%rax)
  4048a7:	00 5c 12 00          	add    %bl,0x0(%rdx,%rdx,1)
  4048ab:	00 00                	add    %al,(%rax)
  4048ad:	00 00                	add    %al,(%rax)
  4048af:	00 5c 12 00          	add    %bl,0x0(%rdx,%rdx,1)
  4048b3:	00 00                	add    %al,(%rax)
  4048b5:	00 00                	add    %al,(%rax)
  4048b7:	00 5c 12 00          	add    %bl,0x0(%rdx,%rdx,1)
  4048bb:	00 00                	add    %al,(%rax)
  4048bd:	00 00                	add    %al,(%rax)
  4048bf:	00 4d 12             	add    %cl,0x12(%rbp)
  4048c2:	00 00                	add    %al,(%rax)
  4048c4:	00 00                	add    %al,(%rax)
  4048c6:	00 00                	add    %al,(%rax)
  4048c8:	42 12 00             	rex.X adc (%rax),%al
  4048cb:	00 00                	add    %al,(%rax)
  4048cd:	00 00                	add    %al,(%rax)
  4048cf:	00 42 12             	add    %al,0x12(%rdx)
  4048d2:	00 00                	add    %al,(%rax)
  4048d4:	00 00                	add    %al,(%rax)
  4048d6:	00 00                	add    %al,(%rax)
  4048d8:	42 12 00             	rex.X adc (%rax),%al
  4048db:	00 00                	add    %al,(%rax)
  4048dd:	00 00                	add    %al,(%rax)
  4048df:	00 42 12             	add    %al,0x12(%rdx)
  4048e2:	00 00                	add    %al,(%rax)
  4048e4:	00 00                	add    %al,(%rax)
  4048e6:	00 00                	add    %al,(%rax)
  4048e8:	42 12 00             	rex.X adc (%rax),%al
  4048eb:	00 00                	add    %al,(%rax)
  4048ed:	00 00                	add    %al,(%rax)
  4048ef:	00 42 12             	add    %al,0x12(%rdx)
  4048f2:	00 00                	add    %al,(%rax)
  4048f4:	00 00                	add    %al,(%rax)
  4048f6:	00 00                	add    %al,(%rax)
  4048f8:	42 12 00             	rex.X adc (%rax),%al
  4048fb:	00 00                	add    %al,(%rax)
  4048fd:	00 00                	add    %al,(%rax)
  4048ff:	00 42 12             	add    %al,0x12(%rdx)
  404902:	00 00                	add    %al,(%rax)
  404904:	00 00                	add    %al,(%rax)
  404906:	00 00                	add    %al,(%rax)
  404908:	42 12 00             	rex.X adc (%rax),%al
  40490b:	00 00                	add    %al,(%rax)
  40490d:	00 00                	add    %al,(%rax)
  40490f:	00 42 12             	add    %al,0x12(%rdx)
  404912:	00 00                	add    %al,(%rax)
  404914:	00 00                	add    %al,(%rax)
  404916:	00 00                	add    %al,(%rax)
  404918:	42 12 00             	rex.X adc (%rax),%al
  40491b:	00 00                	add    %al,(%rax)
  40491d:	00 00                	add    %al,(%rax)
  40491f:	00 42 12             	add    %al,0x12(%rdx)
  404922:	00 00                	add    %al,(%rax)
  404924:	00 00                	add    %al,(%rax)
  404926:	00 00                	add    %al,(%rax)
  404928:	42 12 00             	rex.X adc (%rax),%al
  40492b:	00 00                	add    %al,(%rax)
  40492d:	00 00                	add    %al,(%rax)
  40492f:	00 42 12             	add    %al,0x12(%rdx)
  404932:	00 00                	add    %al,(%rax)
  404934:	00 00                	add    %al,(%rax)
  404936:	00 00                	add    %al,(%rax)
  404938:	42 12 00             	rex.X adc (%rax),%al
  40493b:	00 00                	add    %al,(%rax)
  40493d:	00 00                	add    %al,(%rax)
  40493f:	00 42 12             	add    %al,0x12(%rdx)
  404942:	00 00                	add    %al,(%rax)
  404944:	00 00                	add    %al,(%rax)
  404946:	00 00                	add    %al,(%rax)
  404948:	42 12 00             	rex.X adc (%rax),%al
  40494b:	00 00                	add    %al,(%rax)
  40494d:	00 00                	add    %al,(%rax)
  40494f:	00 42 12             	add    %al,0x12(%rdx)
  404952:	00 00                	add    %al,(%rax)
  404954:	00 00                	add    %al,(%rax)
  404956:	00 00                	add    %al,(%rax)
  404958:	42 12 00             	rex.X adc (%rax),%al
  40495b:	00 00                	add    %al,(%rax)
  40495d:	00 00                	add    %al,(%rax)
  40495f:	00 42 12             	add    %al,0x12(%rdx)
  404962:	00 00                	add    %al,(%rax)
  404964:	00 00                	add    %al,(%rax)
  404966:	00 00                	add    %al,(%rax)
  404968:	42 12 00             	rex.X adc (%rax),%al
  40496b:	00 00                	add    %al,(%rax)
  40496d:	00 00                	add    %al,(%rax)
  40496f:	00 42 12             	add    %al,0x12(%rdx)
  404972:	00 00                	add    %al,(%rax)
  404974:	00 00                	add    %al,(%rax)
  404976:	00 00                	add    %al,(%rax)
  404978:	42 12 00             	rex.X adc (%rax),%al
  40497b:	00 00                	add    %al,(%rax)
  40497d:	00 00                	add    %al,(%rax)
  40497f:	00 42 12             	add    %al,0x12(%rdx)
  404982:	00 00                	add    %al,(%rax)
  404984:	00 00                	add    %al,(%rax)
  404986:	00 00                	add    %al,(%rax)
  404988:	42 12 00             	rex.X adc (%rax),%al
  40498b:	00 00                	add    %al,(%rax)
  40498d:	00 00                	add    %al,(%rax)
  40498f:	00 42 12             	add    %al,0x12(%rdx)
  404992:	00 00                	add    %al,(%rax)
  404994:	00 00                	add    %al,(%rax)
  404996:	00 00                	add    %al,(%rax)
  404998:	42 12 00             	rex.X adc (%rax),%al
  40499b:	00 00                	add    %al,(%rax)
  40499d:	00 00                	add    %al,(%rax)
  40499f:	00 42 12             	add    %al,0x12(%rdx)
  4049a2:	00 00                	add    %al,(%rax)
  4049a4:	00 00                	add    %al,(%rax)
  4049a6:	00 00                	add    %al,(%rax)
  4049a8:	42 12 00             	rex.X adc (%rax),%al
  4049ab:	00 00                	add    %al,(%rax)
  4049ad:	00 00                	add    %al,(%rax)
  4049af:	00 42 12             	add    %al,0x12(%rdx)
  4049b2:	00 00                	add    %al,(%rax)
  4049b4:	00 00                	add    %al,(%rax)
  4049b6:	00 00                	add    %al,(%rax)
  4049b8:	42 12 00             	rex.X adc (%rax),%al
  4049bb:	00 00                	add    %al,(%rax)
  4049bd:	00 00                	add    %al,(%rax)
  4049bf:	00 42 12             	add    %al,0x12(%rdx)
  4049c2:	00 00                	add    %al,(%rax)
  4049c4:	00 00                	add    %al,(%rax)
  4049c6:	00 00                	add    %al,(%rax)
  4049c8:	42 12 00             	rex.X adc (%rax),%al
  4049cb:	00 00                	add    %al,(%rax)
  4049cd:	00 00                	add    %al,(%rax)
  4049cf:	00 42 12             	add    %al,0x12(%rdx)
  4049d2:	00 00                	add    %al,(%rax)
  4049d4:	00 00                	add    %al,(%rax)
  4049d6:	00 00                	add    %al,(%rax)
  4049d8:	42 12 00             	rex.X adc (%rax),%al
  4049db:	00 00                	add    %al,(%rax)
  4049dd:	00 00                	add    %al,(%rax)
  4049df:	00 42 12             	add    %al,0x12(%rdx)
  4049e2:	00 00                	add    %al,(%rax)
  4049e4:	00 00                	add    %al,(%rax)
  4049e6:	00 00                	add    %al,(%rax)
  4049e8:	42 12 00             	rex.X adc (%rax),%al
  4049eb:	00 00                	add    %al,(%rax)
  4049ed:	00 00                	add    %al,(%rax)
  4049ef:	00 42 12             	add    %al,0x12(%rdx)
  4049f2:	00 00                	add    %al,(%rax)
  4049f4:	00 00                	add    %al,(%rax)
  4049f6:	00 00                	add    %al,(%rax)
  4049f8:	42 12 00             	rex.X adc (%rax),%al
  4049fb:	00 00                	add    %al,(%rax)
  4049fd:	00 00                	add    %al,(%rax)
  4049ff:	00 42 12             	add    %al,0x12(%rdx)
  404a02:	00 00                	add    %al,(%rax)
  404a04:	00 00                	add    %al,(%rax)
  404a06:	00 00                	add    %al,(%rax)
  404a08:	42 12 00             	rex.X adc (%rax),%al
  404a0b:	00 00                	add    %al,(%rax)
  404a0d:	00 00                	add    %al,(%rax)
  404a0f:	00 42 12             	add    %al,0x12(%rdx)
  404a12:	00 00                	add    %al,(%rax)
  404a14:	00 00                	add    %al,(%rax)
  404a16:	00 00                	add    %al,(%rax)
  404a18:	42 12 00             	rex.X adc (%rax),%al
  404a1b:	00 00                	add    %al,(%rax)
  404a1d:	00 00                	add    %al,(%rax)
  404a1f:	00 42 12             	add    %al,0x12(%rdx)
  404a22:	00 00                	add    %al,(%rax)
  404a24:	00 00                	add    %al,(%rax)
  404a26:	00 00                	add    %al,(%rax)
  404a28:	42 12 00             	rex.X adc (%rax),%al
  404a2b:	00 00                	add    %al,(%rax)
  404a2d:	00 00                	add    %al,(%rax)
  404a2f:	00 42 12             	add    %al,0x12(%rdx)
  404a32:	00 00                	add    %al,(%rax)
  404a34:	00 00                	add    %al,(%rax)
  404a36:	00 00                	add    %al,(%rax)
  404a38:	42 12 00             	rex.X adc (%rax),%al
  404a3b:	00 00                	add    %al,(%rax)
  404a3d:	00 00                	add    %al,(%rax)
  404a3f:	00 42 12             	add    %al,0x12(%rdx)
  404a42:	00 00                	add    %al,(%rax)
  404a44:	00 00                	add    %al,(%rax)
  404a46:	00 00                	add    %al,(%rax)
  404a48:	42 12 00             	rex.X adc (%rax),%al
  404a4b:	00 00                	add    %al,(%rax)
  404a4d:	00 00                	add    %al,(%rax)
  404a4f:	00 42 12             	add    %al,0x12(%rdx)
  404a52:	00 00                	add    %al,(%rax)
  404a54:	00 00                	add    %al,(%rax)
  404a56:	00 00                	add    %al,(%rax)
  404a58:	42 12 00             	rex.X adc (%rax),%al
  404a5b:	00 00                	add    %al,(%rax)
  404a5d:	00 00                	add    %al,(%rax)
  404a5f:	00 42 12             	add    %al,0x12(%rdx)
  404a62:	00 00                	add    %al,(%rax)
  404a64:	00 00                	add    %al,(%rax)
  404a66:	00 00                	add    %al,(%rax)
  404a68:	42 12 00             	rex.X adc (%rax),%al
  404a6b:	00 00                	add    %al,(%rax)
  404a6d:	00 00                	add    %al,(%rax)
  404a6f:	00 42 12             	add    %al,0x12(%rdx)
  404a72:	00 00                	add    %al,(%rax)
  404a74:	00 00                	add    %al,(%rax)
  404a76:	00 00                	add    %al,(%rax)
  404a78:	42 12 00             	rex.X adc (%rax),%al
  404a7b:	00 00                	add    %al,(%rax)
  404a7d:	00 00                	add    %al,(%rax)
  404a7f:	00 42 12             	add    %al,0x12(%rdx)
  404a82:	00 00                	add    %al,(%rax)
  404a84:	00 00                	add    %al,(%rax)
  404a86:	00 00                	add    %al,(%rax)
  404a88:	42 12 00             	rex.X adc (%rax),%al
  404a8b:	00 00                	add    %al,(%rax)
  404a8d:	00 00                	add    %al,(%rax)
  404a8f:	00 42 12             	add    %al,0x12(%rdx)
  404a92:	00 00                	add    %al,(%rax)
  404a94:	00 00                	add    %al,(%rax)
  404a96:	00 00                	add    %al,(%rax)
  404a98:	42 12 00             	rex.X adc (%rax),%al
  404a9b:	00 00                	add    %al,(%rax)
  404a9d:	00 00                	add    %al,(%rax)
  404a9f:	00 42 12             	add    %al,0x12(%rdx)
  404aa2:	00 00                	add    %al,(%rax)
  404aa4:	00 00                	add    %al,(%rax)
  404aa6:	00 00                	add    %al,(%rax)
  404aa8:	42 12 00             	rex.X adc (%rax),%al
  404aab:	00 00                	add    %al,(%rax)
  404aad:	00 00                	add    %al,(%rax)
  404aaf:	00 42 12             	add    %al,0x12(%rdx)
  404ab2:	00 00                	add    %al,(%rax)
  404ab4:	00 00                	add    %al,(%rax)
  404ab6:	00 00                	add    %al,(%rax)
  404ab8:	42 12 00             	rex.X adc (%rax),%al
  404abb:	00 00                	add    %al,(%rax)
  404abd:	00 00                	add    %al,(%rax)
  404abf:	00 c3                	add    %al,%bl
  404ac1:	0f 1f 00             	nopl   (%rax)
  404ac4:	66 2e 0f 1f 84 00 00 	cs nopw 0x0(%rax,%rax,1)
  404acb:	00 00 00 
  404ace:	66 90                	xchg   %ax,%ax

0000000000404ad0 <__intel_avx_rep_memset>:
  404ad0:	f3 0f 1e fa          	endbr64
  404ad4:	49 89 f8             	mov    %rdi,%r8
  404ad7:	49 c7 c2 c0 d0 40 00 	mov    $0x40d0c0,%r10
  404ade:	49 89 fb             	mov    %rdi,%r11
  404ae1:	48 b8 01 01 01 01 01 	movabs $0x101010101010101,%rax
  404ae8:	01 01 01 
  404aeb:	4c 0f b6 ce          	movzbq %sil,%r9
  404aef:	4c 0f af c8          	imul   %rax,%r9
  404af3:	48 8d 35 86 0c 00 00 	lea    0xc86(%rip),%rsi        # 405780 <__intel_avx_rep_memset+0xcb0>
  404afa:	c4 c1 f9 6e c1       	vmovq  %r9,%xmm0
  404aff:	48 81 fa 80 00 00 00 	cmp    $0x80,%rdx
  404b06:	77 18                	ja     404b20 <__intel_avx_rep_memset+0x50>
  404b08:	4c 89 df             	mov    %r11,%rdi
  404b0b:	48 01 d7             	add    %rdx,%rdi
  404b0e:	48 2b 34 d6          	sub    (%rsi,%rdx,8),%rsi
  404b12:	3e ff e6             	notrack jmp *%rsi
  404b15:	66 66 2e 0f 1f 84 00 	data16 cs nopw 0x0(%rax,%rax,1)
  404b1c:	00 00 00 00 
  404b20:	48 8d 35 59 03 00 00 	lea    0x359(%rip),%rsi        # 404e80 <__intel_avx_rep_memset+0x3b0>
  404b27:	4c 89 d9             	mov    %r11,%rcx
  404b2a:	48 83 e1 1f          	and    $0x1f,%rcx
  404b2e:	74 23                	je     404b53 <__intel_avx_rep_memset+0x83>
  404b30:	48 f7 d9             	neg    %rcx
  404b33:	48 83 c1 20          	add    $0x20,%rcx
  404b37:	48 29 ca             	sub    %rcx,%rdx
  404b3a:	4c 89 df             	mov    %r11,%rdi
  404b3d:	48 01 cf             	add    %rcx,%rdi
  404b40:	48 2b 34 ce          	sub    (%rsi,%rcx,8),%rsi
  404b44:	3e ff e6             	notrack jmp *%rsi
  404b47:	66 0f 1f 84 00 00 00 	nopw   0x0(%rax,%rax,1)
  404b4e:	00 00 
  404b50:	49 01 cb             	add    %rcx,%r11
  404b53:	48 81 fa 00 01 00 00 	cmp    $0x100,%rdx
  404b5a:	0f 8c 30 01 00 00    	jl     404c90 <__intel_avx_rep_memset+0x1c0>
  404b60:	49 8b 0a             	mov    (%r10),%rcx
  404b63:	48 89 cf             	mov    %rcx,%rdi
  404b66:	48 c1 e9 04          	shr    $0x4,%rcx
  404b6a:	48 29 cf             	sub    %rcx,%rdi
  404b6d:	48 39 fa             	cmp    %rdi,%rdx
  404b70:	73 5e                	jae    404bd0 <__intel_avx_rep_memset+0x100>
  404b72:	c4 e2 7d 58 c0       	vpbroadcastd %xmm0,%ymm0
  404b77:	c4 c1 7d 7f 03       	vmovdqa %ymm0,(%r11)
  404b7c:	c4 c1 7d 7f 43 20    	vmovdqa %ymm0,0x20(%r11)
  404b82:	c4 c1 7d 7f 43 40    	vmovdqa %ymm0,0x40(%r11)
  404b88:	c4 c1 7d 7f 43 60    	vmovdqa %ymm0,0x60(%r11)
  404b8e:	49 81 c3 00 01 00 00 	add    $0x100,%r11
  404b95:	48 81 ea 00 01 00 00 	sub    $0x100,%rdx
  404b9c:	c4 c1 7d 7f 43 80    	vmovdqa %ymm0,-0x80(%r11)
  404ba2:	c4 c1 7d 7f 43 a0    	vmovdqa %ymm0,-0x60(%r11)
  404ba8:	c4 c1 7d 7f 43 c0    	vmovdqa %ymm0,-0x40(%r11)
  404bae:	c4 c1 7d 7f 43 e0    	vmovdqa %ymm0,-0x20(%r11)
  404bb4:	48 81 fa 00 01 00 00 	cmp    $0x100,%rdx
  404bbb:	7d ba                	jge    404b77 <__intel_avx_rep_memset+0xa7>
  404bbd:	e9 de 00 00 00       	jmp    404ca0 <__intel_avx_rep_memset+0x1d0>
  404bc2:	66 66 66 66 66 2e 0f 	data16 data16 data16 data16 cs nopw 0x0(%rax,%rax,1)
  404bc9:	1f 84 00 00 00 00 00 
  404bd0:	4c 89 df             	mov    %r11,%rdi
  404bd3:	4c 89 c8             	mov    %r9,%rax
  404bd6:	48 89 d1             	mov    %rdx,%rcx
  404bd9:	fc                   	cld
  404bda:	f3 aa                	rep stos %al,%es:(%rdi)
  404bdc:	e9 af 0f 00 00       	jmp    405b90 <__intel_avx_rep_memset+0x10c0>
  404be1:	66 66 66 66 66 66 2e 	data16 data16 data16 data16 data16 cs nopw 0x0(%rax,%rax,1)
  404be8:	0f 1f 84 00 00 00 00 
  404bef:	00 
  404bf0:	45 88 0b             	mov    %r9b,(%r11)
  404bf3:	e9 58 ff ff ff       	jmp    404b50 <__intel_avx_rep_memset+0x80>
