
base_analysis_results/bin/icx_O3_Host_N10240:     file format elf64-x86-64


Disassembly of section .init:

0000000000401000 <_init>:
  401000:	48 83 ec 08          	sub    $0x8,%rsp
  401004:	48 8b 05 bd af 00 00 	mov    0xafbd(%rip),%rax        # 40bfc8 <__gmon_start__@Base>
  40100b:	48 85 c0             	test   %rax,%rax
  40100e:	74 02                	je     401012 <_init+0x12>
  401010:	ff d0                	call   *%rax
  401012:	48 83 c4 08          	add    $0x8,%rsp
  401016:	c3                   	ret

Disassembly of section .plt:

0000000000401020 <getenv@plt-0x10>:
  401020:	ff 35 ca af 00 00    	push   0xafca(%rip)        # 40bff0 <_GLOBAL_OFFSET_TABLE_+0x8>
  401026:	ff 25 cc af 00 00    	jmp    *0xafcc(%rip)        # 40bff8 <_GLOBAL_OFFSET_TABLE_+0x10>
  40102c:	0f 1f 40 00          	nopl   0x0(%rax)

0000000000401030 <getenv@plt>:
  401030:	ff 25 ca af 00 00    	jmp    *0xafca(%rip)        # 40c000 <getenv@GLIBC_2.2.5>
  401036:	68 00 00 00 00       	push   $0x0
  40103b:	e9 e0 ff ff ff       	jmp    401020 <_init+0x20>

0000000000401040 <free@plt>:
  401040:	ff 25 c2 af 00 00    	jmp    *0xafc2(%rip)        # 40c008 <free@GLIBC_2.2.5>
  401046:	68 01 00 00 00       	push   $0x1
  40104b:	e9 d0 ff ff ff       	jmp    401020 <_init+0x20>

0000000000401050 <clock_gettime@plt>:
  401050:	ff 25 ba af 00 00    	jmp    *0xafba(%rip)        # 40c010 <clock_gettime@GLIBC_2.17>
  401056:	68 02 00 00 00       	push   $0x2
  40105b:	e9 c0 ff ff ff       	jmp    401020 <_init+0x20>

0000000000401060 <setenv@plt>:
  401060:	ff 25 b2 af 00 00    	jmp    *0xafb2(%rip)        # 40c018 <setenv@GLIBC_2.2.5>
  401066:	68 03 00 00 00       	push   $0x3
  40106b:	e9 b0 ff ff ff       	jmp    401020 <_init+0x20>

0000000000401070 <fclose@plt>:
  401070:	ff 25 aa af 00 00    	jmp    *0xafaa(%rip)        # 40c020 <fclose@GLIBC_2.2.5>
  401076:	68 04 00 00 00       	push   $0x4
  40107b:	e9 a0 ff ff ff       	jmp    401020 <_init+0x20>

0000000000401080 <strlen@plt>:
  401080:	ff 25 a2 af 00 00    	jmp    *0xafa2(%rip)        # 40c028 <strlen@GLIBC_2.2.5>
  401086:	68 05 00 00 00       	push   $0x5
  40108b:	e9 90 ff ff ff       	jmp    401020 <_init+0x20>

0000000000401090 <__stack_chk_fail@plt>:
  401090:	ff 25 9a af 00 00    	jmp    *0xaf9a(%rip)        # 40c030 <__stack_chk_fail@GLIBC_2.4>
  401096:	68 06 00 00 00       	push   $0x6
  40109b:	e9 80 ff ff ff       	jmp    401020 <_init+0x20>

00000000004010a0 <strchr@plt>:
  4010a0:	ff 25 92 af 00 00    	jmp    *0xaf92(%rip)        # 40c038 <strchr@GLIBC_2.2.5>
  4010a6:	68 07 00 00 00       	push   $0x7
  4010ab:	e9 70 ff ff ff       	jmp    401020 <_init+0x20>

00000000004010b0 <fputc@plt>:
  4010b0:	ff 25 8a af 00 00    	jmp    *0xaf8a(%rip)        # 40c040 <fputc@GLIBC_2.2.5>
  4010b6:	68 08 00 00 00       	push   $0x8
  4010bb:	e9 60 ff ff ff       	jmp    401020 <_init+0x20>

00000000004010c0 <fprintf@plt>:
  4010c0:	ff 25 82 af 00 00    	jmp    *0xaf82(%rip)        # 40c048 <fprintf@GLIBC_2.2.5>
  4010c6:	68 09 00 00 00       	push   $0x9
  4010cb:	e9 50 ff ff ff       	jmp    401020 <_init+0x20>

00000000004010d0 <malloc@plt>:
  4010d0:	ff 25 7a af 00 00    	jmp    *0xaf7a(%rip)        # 40c050 <malloc@GLIBC_2.2.5>
  4010d6:	68 0a 00 00 00       	push   $0xa
  4010db:	e9 40 ff ff ff       	jmp    401020 <_init+0x20>

00000000004010e0 <catopen@plt>:
  4010e0:	ff 25 72 af 00 00    	jmp    *0xaf72(%rip)        # 40c058 <catopen@GLIBC_2.2.5>
  4010e6:	68 0b 00 00 00       	push   $0xb
  4010eb:	e9 30 ff ff ff       	jmp    401020 <_init+0x20>

00000000004010f0 <__vsnprintf_chk@plt>:
  4010f0:	ff 25 6a af 00 00    	jmp    *0xaf6a(%rip)        # 40c060 <__vsnprintf_chk@GLIBC_2.3.4>
  4010f6:	68 0c 00 00 00       	push   $0xc
  4010fb:	e9 20 ff ff ff       	jmp    401020 <_init+0x20>

0000000000401100 <__strncpy_chk@plt>:
  401100:	ff 25 62 af 00 00    	jmp    *0xaf62(%rip)        # 40c068 <__strncpy_chk@GLIBC_2.3.4>
  401106:	68 0d 00 00 00       	push   $0xd
  40110b:	e9 10 ff ff ff       	jmp    401020 <_init+0x20>

0000000000401110 <__printf_chk@plt>:
  401110:	ff 25 5a af 00 00    	jmp    *0xaf5a(%rip)        # 40c070 <__printf_chk@GLIBC_2.3.4>
  401116:	68 0e 00 00 00       	push   $0xe
  40111b:	e9 00 ff ff ff       	jmp    401020 <_init+0x20>

0000000000401120 <fopen@plt>:
  401120:	ff 25 52 af 00 00    	jmp    *0xaf52(%rip)        # 40c078 <fopen@GLIBC_2.2.5>
  401126:	68 0f 00 00 00       	push   $0xf
  40112b:	e9 f0 fe ff ff       	jmp    401020 <_init+0x20>

0000000000401130 <catgets@plt>:
  401130:	ff 25 4a af 00 00    	jmp    *0xaf4a(%rip)        # 40c080 <catgets@GLIBC_2.2.5>
  401136:	68 10 00 00 00       	push   $0x10
  40113b:	e9 e0 fe ff ff       	jmp    401020 <_init+0x20>

0000000000401140 <exit@plt>:
  401140:	ff 25 42 af 00 00    	jmp    *0xaf42(%rip)        # 40c088 <exit@GLIBC_2.2.5>
  401146:	68 11 00 00 00       	push   $0x11
  40114b:	e9 d0 fe ff ff       	jmp    401020 <_init+0x20>

0000000000401150 <__fprintf_chk@plt>:
  401150:	ff 25 3a af 00 00    	jmp    *0xaf3a(%rip)        # 40c090 <__fprintf_chk@GLIBC_2.3.4>
  401156:	68 12 00 00 00       	push   $0x12
  40115b:	e9 c0 fe ff ff       	jmp    401020 <_init+0x20>

0000000000401160 <__strncat_chk@plt>:
  401160:	ff 25 32 af 00 00    	jmp    *0xaf32(%rip)        # 40c098 <__strncat_chk@GLIBC_2.3.4>
  401166:	68 13 00 00 00       	push   $0x13
  40116b:	e9 b0 fe ff ff       	jmp    401020 <_init+0x20>

Disassembly of section .plt.got:

0000000000401170 <memset@plt>:
  401170:	ff 25 4a ae 00 00    	jmp    *0xae4a(%rip)        # 40bfc0 <memset@GLIBC_2.2.5>
  401176:	66 90                	xchg   %ax,%ax

0000000000401178 <__cxa_finalize@plt>:
  401178:	ff 25 5a ae 00 00    	jmp    *0xae5a(%rip)        # 40bfd8 <__cxa_finalize@GLIBC_2.2.5>
  40117e:	66 90                	xchg   %ax,%ax

Disassembly of section .text:

0000000000401180 <_GLOBAL__sub_I_fast_mem_ops.c>:
  401180:	f3 0f 1e fa          	endbr64
  401184:	55                   	push   %rbp
  401185:	48 89 e5             	mov    %rsp,%rbp
  401188:	41 56                	push   %r14
  40118a:	53                   	push   %rbx
  40118b:	48 83 ec 20          	sub    $0x20,%rsp
  40118f:	83 3d 76 b6 00 00 00 	cmpl   $0x0,0xb676(%rip)        # 40c80c <_ZL18__libirc_cache_tbl+0xc>
  401196:	0f 84 05 01 00 00    	je     4012a1 <_GLOBAL__sub_I_fast_mem_ops.c+0x121>
  40119c:	83 3d 5d b6 00 00 00 	cmpl   $0x0,0xb65d(%rip)        # 40c800 <_ZL18__libirc_cache_tbl>
  4011a3:	0f 84 0a 01 00 00    	je     4012b3 <_GLOBAL__sub_I_fast_mem_ops.c+0x133>
  4011a9:	83 3d 54 b6 00 00 00 	cmpl   $0x0,0xb654(%rip)        # 40c804 <_ZL18__libirc_cache_tbl+0x4>
  4011b0:	0f 84 21 02 00 00    	je     4013d7 <_GLOBAL__sub_I_fast_mem_ops.c+0x257>
  4011b6:	53                   	push   %rbx
  4011b7:	b8 01 00 00 00       	mov    $0x1,%eax
  4011bc:	0f a2                	cpuid
  4011be:	89 5d d0             	mov    %ebx,-0x30(%rbp)
  4011c1:	89 55 e0             	mov    %edx,-0x20(%rbp)
  4011c4:	89 45 ec             	mov    %eax,-0x14(%rbp)
  4011c7:	5b                   	pop    %rbx
  4011c8:	8b 45 e0             	mov    -0x20(%rbp),%eax
  4011cb:	89 c1                	mov    %eax,%ecx
  4011cd:	c1 e9 17             	shr    $0x17,%ecx
  4011d0:	83 e1 01             	and    $0x1,%ecx
  4011d3:	a9 00 00 00 04       	test   $0x4000000,%eax
  4011d8:	41 be 02 00 00 00    	mov    $0x2,%r14d
  4011de:	44 0f 44 f1          	cmove  %ecx,%r14d
  4011e2:	8b 05 28 b6 00 00    	mov    0xb628(%rip),%eax        # 40c810 <_ZL18__libirc_cache_tbl+0x10>
  4011e8:	85 c0                	test   %eax,%eax
  4011ea:	0f 84 f8 01 00 00    	je     4013e8 <_GLOBAL__sub_I_fast_mem_ops.c+0x268>
  4011f0:	8b 0d 32 b6 00 00    	mov    0xb632(%rip),%ecx        # 40c828 <_ZL18__libirc_cache_tbl+0x28>
  4011f6:	0f af 0d 27 b6 00 00 	imul   0xb627(%rip),%ecx        # 40c824 <_ZL18__libirc_cache_tbl+0x24>
  4011fd:	8b 15 1d b6 00 00    	mov    0xb61d(%rip),%edx        # 40c820 <_ZL18__libirc_cache_tbl+0x20>
  401203:	8b 35 0f b6 00 00    	mov    0xb60f(%rip),%esi        # 40c818 <_ZL18__libirc_cache_tbl+0x18>
  401209:	0f af 35 04 b6 00 00 	imul   0xb604(%rip),%esi        # 40c814 <_ZL18__libirc_cache_tbl+0x14>
  401210:	39 d0                	cmp    %edx,%eax
  401212:	0f 47 d0             	cmova  %eax,%edx
  401215:	0f 42 f1             	cmovb  %ecx,%esi
  401218:	8b 0d 1a b6 00 00    	mov    0xb61a(%rip),%ecx        # 40c838 <_ZL18__libirc_cache_tbl+0x38>
  40121e:	0f af 0d 0f b6 00 00 	imul   0xb60f(%rip),%ecx        # 40c834 <_ZL18__libirc_cache_tbl+0x34>
  401225:	8b 3d 05 b6 00 00    	mov    0xb605(%rip),%edi        # 40c830 <_ZL18__libirc_cache_tbl+0x30>
  40122b:	39 fa                	cmp    %edi,%edx
  40122d:	0f 43 ce             	cmovae %esi,%ecx
  401230:	0f 46 d7             	cmovbe %edi,%edx
  401233:	48 89 d6             	mov    %rdx,%rsi
  401236:	48 c1 e6 0a          	shl    $0xa,%rsi
  40123a:	48 89 35 6f ae 00 00 	mov    %rsi,0xae6f(%rip)        # 40c0b0 <__libirc_largest_cache_size>
  401241:	48 c1 e2 09          	shl    $0x9,%rdx
  401245:	48 89 15 6c ae 00 00 	mov    %rdx,0xae6c(%rip)        # 40c0b8 <__libirc_largest_cache_size_half>
  40124c:	c1 e0 0a             	shl    $0xa,%eax
  40124f:	48 89 05 6a ae 00 00 	mov    %rax,0xae6a(%rip)        # 40c0c0 <__libirc_data_cache_size>
  401256:	48 89 c2             	mov    %rax,%rdx
  401259:	48 d1 ea             	shr    %rdx
  40125c:	48 89 15 65 ae 00 00 	mov    %rdx,0xae65(%rip)        # 40c0c8 <__libirc_data_cache_size_half>
  401263:	48 89 c2             	mov    %rax,%rdx
  401266:	48 c1 ea 02          	shr    $0x2,%rdx
  40126a:	48 89 15 5f ae 00 00 	mov    %rdx,0xae5f(%rip)        # 40c0d0 <__libirc_largest_cache_size_quoter>
  401271:	48 89 0d d0 b5 00 00 	mov    %rcx,0xb5d0(%rip)        # 40c848 <__libirc_largest_cachelinesize>
  401278:	48 c7 05 55 ae 00 00 	movq   $0x2000,0xae55(%rip)        # 40c0d8 <__libirc_copy_loop_threshold>
  40127f:	00 20 00 00 
  401283:	48 01 c0             	add    %rax,%rax
  401286:	48 8d 04 40          	lea    (%rax,%rax,2),%rax
  40128a:	48 89 05 4f ae 00 00 	mov    %rax,0xae4f(%rip)        # 40c0e0 <__libirc_rep_move_threshold>
  401291:	48 c7 05 4c ae 00 00 	movq   $0x800,0xae4c(%rip)        # 40c0e8 <__libirc_set_loop_threshold>
  401298:	00 08 00 00 
  40129c:	e9 5d 01 00 00       	jmp    4013fe <_GLOBAL__sub_I_fast_mem_ops.c+0x27e>
  4012a1:	e8 1a 6c 00 00       	call   407ec0 <_ZL23__libirc_init_cache_tblv>
  4012a6:	83 3d 53 b5 00 00 00 	cmpl   $0x0,0xb553(%rip)        # 40c800 <_ZL18__libirc_cache_tbl>
  4012ad:	0f 85 f6 fe ff ff    	jne    4011a9 <_GLOBAL__sub_I_fast_mem_ops.c+0x29>
  4012b3:	c7 45 ec 00 00 00 00 	movl   $0x0,-0x14(%rbp)
  4012ba:	48 8d 75 d0          	lea    -0x30(%rbp),%rsi
  4012be:	48 89 75 e0          	mov    %rsi,-0x20(%rbp)
  4012c2:	50                   	push   %rax
  4012c3:	53                   	push   %rbx
  4012c4:	51                   	push   %rcx
  4012c5:	52                   	push   %rdx
  4012c6:	4c 8b 45 e0          	mov    -0x20(%rbp),%r8
  4012ca:	8b 45 ec             	mov    -0x14(%rbp),%eax
  4012cd:	0f a2                	cpuid
  4012cf:	41 89 00             	mov    %eax,(%r8)
  4012d2:	41 89 58 04          	mov    %ebx,0x4(%r8)
  4012d6:	41 89 48 08          	mov    %ecx,0x8(%r8)
  4012da:	41 89 50 0c          	mov    %edx,0xc(%r8)
  4012de:	5a                   	pop    %rdx
  4012df:	59                   	pop    %rcx
  4012e0:	5b                   	pop    %rbx
  4012e1:	58                   	pop    %rax
  4012e2:	45 31 f6             	xor    %r14d,%r14d
  4012e5:	81 7d d4 41 75 74 68 	cmpl   $0x68747541,-0x2c(%rbp)
  4012ec:	0f 85 0c 01 00 00    	jne    4013fe <_GLOBAL__sub_I_fast_mem_ops.c+0x27e>
  4012f2:	81 7d dc 65 6e 74 69 	cmpl   $0x69746e65,-0x24(%rbp)
  4012f9:	0f 85 ff 00 00 00    	jne    4013fe <_GLOBAL__sub_I_fast_mem_ops.c+0x27e>
  4012ff:	81 7d d8 63 41 4d 44 	cmpl   $0x444d4163,-0x28(%rbp)
  401306:	0f 85 f2 00 00 00    	jne    4013fe <_GLOBAL__sub_I_fast_mem_ops.c+0x27e>
  40130c:	c7 45 ec 01 00 00 00 	movl   $0x1,-0x14(%rbp)
  401313:	48 89 75 e0          	mov    %rsi,-0x20(%rbp)
  401317:	50                   	push   %rax
  401318:	53                   	push   %rbx
  401319:	51                   	push   %rcx
  40131a:	52                   	push   %rdx
  40131b:	4c 8b 45 e0          	mov    -0x20(%rbp),%r8
  40131f:	8b 45 ec             	mov    -0x14(%rbp),%eax
  401322:	0f a2                	cpuid
  401324:	41 89 00             	mov    %eax,(%r8)
  401327:	41 89 58 04          	mov    %ebx,0x4(%r8)
  40132b:	41 89 48 08          	mov    %ecx,0x8(%r8)
  40132f:	41 89 50 0c          	mov    %edx,0xc(%r8)
  401333:	5a                   	pop    %rdx
  401334:	59                   	pop    %rcx
  401335:	5b                   	pop    %rbx
  401336:	58                   	pop    %rax
  401337:	44 8b 75 dc          	mov    -0x24(%rbp),%r14d
  40133b:	41 c1 ee 17          	shr    $0x17,%r14d
  40133f:	41 83 e6 01          	and    $0x1,%r14d
  401343:	c7 45 ec 00 00 00 80 	movl   $0x80000000,-0x14(%rbp)
  40134a:	48 89 75 e0          	mov    %rsi,-0x20(%rbp)
  40134e:	50                   	push   %rax
  40134f:	53                   	push   %rbx
  401350:	51                   	push   %rcx
  401351:	52                   	push   %rdx
  401352:	4c 8b 45 e0          	mov    -0x20(%rbp),%r8
  401356:	8b 45 ec             	mov    -0x14(%rbp),%eax
  401359:	0f a2                	cpuid
  40135b:	41 89 00             	mov    %eax,(%r8)
  40135e:	41 89 58 04          	mov    %ebx,0x4(%r8)
  401362:	41 89 48 08          	mov    %ecx,0x8(%r8)
  401366:	41 89 50 0c          	mov    %edx,0xc(%r8)
  40136a:	5a                   	pop    %rdx
  40136b:	59                   	pop    %rcx
  40136c:	5b                   	pop    %rbx
  40136d:	58                   	pop    %rax
  40136e:	81 7d d0 06 00 00 80 	cmpl   $0x80000006,-0x30(%rbp)
  401375:	0f 82 83 00 00 00    	jb     4013fe <_GLOBAL__sub_I_fast_mem_ops.c+0x27e>
  40137b:	c7 45 ec 06 00 00 80 	movl   $0x80000006,-0x14(%rbp)
  401382:	48 89 75 e0          	mov    %rsi,-0x20(%rbp)
  401386:	50                   	push   %rax
  401387:	53                   	push   %rbx
  401388:	51                   	push   %rcx
  401389:	52                   	push   %rdx
  40138a:	4c 8b 45 e0          	mov    -0x20(%rbp),%r8
  40138e:	8b 45 ec             	mov    -0x14(%rbp),%eax
  401391:	0f a2                	cpuid
  401393:	41 89 00             	mov    %eax,(%r8)
  401396:	41 89 58 04          	mov    %ebx,0x4(%r8)
  40139a:	41 89 48 08          	mov    %ecx,0x8(%r8)
  40139e:	41 89 50 0c          	mov    %edx,0xc(%r8)
  4013a2:	5a                   	pop    %rdx
  4013a3:	59                   	pop    %rcx
  4013a4:	5b                   	pop    %rbx
  4013a5:	58                   	pop    %rax
  4013a6:	8b 45 d8             	mov    -0x28(%rbp),%eax
  4013a9:	48 c1 e8 06          	shr    $0x6,%rax
  4013ad:	25 00 fc ff 03       	and    $0x3fffc00,%eax
  4013b2:	48 89 05 f7 ac 00 00 	mov    %rax,0xacf7(%rip)        # 40c0b0 <__libirc_largest_cache_size>
  4013b9:	48 d1 e8             	shr    %rax
  4013bc:	48 89 05 f5 ac 00 00 	mov    %rax,0xacf5(%rip)        # 40c0b8 <__libirc_largest_cache_size_half>
  4013c3:	48 8b 05 f6 ac 00 00 	mov    0xacf6(%rip),%rax        # 40c0c0 <__libirc_data_cache_size>
  4013ca:	48 c1 e8 02          	shr    $0x2,%rax
  4013ce:	48 89 05 fb ac 00 00 	mov    %rax,0xacfb(%rip)        # 40c0d0 <__libirc_largest_cache_size_quoter>
  4013d5:	eb 27                	jmp    4013fe <_GLOBAL__sub_I_fast_mem_ops.c+0x27e>
  4013d7:	45 31 f6             	xor    %r14d,%r14d
  4013da:	8b 05 30 b4 00 00    	mov    0xb430(%rip),%eax        # 40c810 <_ZL18__libirc_cache_tbl+0x10>
  4013e0:	85 c0                	test   %eax,%eax
  4013e2:	0f 85 08 fe ff ff    	jne    4011f0 <_GLOBAL__sub_I_fast_mem_ops.c+0x70>
  4013e8:	48 8d 3d 61 88 00 00 	lea    0x8861(%rip),%rdi        # 409c50 <_ZL16cpuid2_cache_tbl+0x800>
  4013ef:	e8 3c fc ff ff       	call   401030 <getenv@plt>
  4013f4:	48 85 c0             	test   %rax,%rax
  4013f7:	74 05                	je     4013fe <_GLOBAL__sub_I_fast_mem_ops.c+0x27e>
  4013f9:	80 38 00             	cmpb   $0x0,(%rax)
  4013fc:	75 17                	jne    401415 <_GLOBAL__sub_I_fast_mem_ops.c+0x295>
  4013fe:	44 89 35 3b b4 00 00 	mov    %r14d,0xb43b(%rip)        # 40c840 <__libirc_mem_ops_method>
  401405:	44 89 35 44 b4 00 00 	mov    %r14d,0xb444(%rip)        # 40c850 <_ZL12__libirc_tmp>
  40140c:	48 83 c4 20          	add    $0x20,%rsp
  401410:	5b                   	pop    %rbx
  401411:	41 5e                	pop    %r14
  401413:	5d                   	pop    %rbp
  401414:	c3                   	ret
  401415:	bf 01 00 00 00       	mov    $0x1,%edi
  40141a:	31 f6                	xor    %esi,%esi
  40141c:	31 d2                	xor    %edx,%edx
  40141e:	31 c0                	xor    %eax,%eax
  401420:	e8 cb 73 00 00       	call   4087f0 <__libirc_print>
  401425:	bf 01 00 00 00       	mov    $0x1,%edi
  40142a:	be 3d 00 00 00       	mov    $0x3d,%esi
  40142f:	31 d2                	xor    %edx,%edx
  401431:	31 c0                	xor    %eax,%eax
  401433:	e8 b8 73 00 00       	call   4087f0 <__libirc_print>
  401438:	bf 01 00 00 00       	mov    $0x1,%edi
  40143d:	31 f6                	xor    %esi,%esi
  40143f:	31 d2                	xor    %edx,%edx
  401441:	31 c0                	xor    %eax,%eax
  401443:	e8 a8 73 00 00       	call   4087f0 <__libirc_print>
  401448:	bf 01 00 00 00       	mov    $0x1,%edi
  40144d:	e8 ee fc ff ff       	call   401140 <exit@plt>
  401452:	66 2e 0f 1f 84 00 00 	cs nopw 0x0(%rax,%rax,1)
  401459:	00 00 00 
  40145c:	0f 1f 40 00          	nopl   0x0(%rax)

0000000000401460 <_start>:
  401460:	31 ed                	xor    %ebp,%ebp
  401462:	49 89 d1             	mov    %rdx,%r9
  401465:	5e                   	pop    %rsi
  401466:	48 89 e2             	mov    %rsp,%rdx
  401469:	48 83 e4 f0          	and    $0xfffffffffffffff0,%rsp
  40146d:	50                   	push   %rax
  40146e:	54                   	push   %rsp
  40146f:	45 31 c0             	xor    %r8d,%r8d
  401472:	31 c9                	xor    %ecx,%ecx
  401474:	48 c7 c7 50 15 40 00 	mov    $0x401550,%rdi
  40147b:	ff 15 2f ab 00 00    	call   *0xab2f(%rip)        # 40bfb0 <__libc_start_main@GLIBC_2.34>
  401481:	f4                   	hlt
  401482:	66 2e 0f 1f 84 00 00 	cs nopw 0x0(%rax,%rax,1)
  401489:	00 00 00 
  40148c:	0f 1f 40 00          	nopl   0x0(%rax)

0000000000401490 <deregister_tm_clones>:
  401490:	48 8d 3d 59 ac 00 00 	lea    0xac59(%rip),%rdi        # 40c0f0 <__TMC_END__>
  401497:	48 8d 05 52 ac 00 00 	lea    0xac52(%rip),%rax        # 40c0f0 <__TMC_END__>
  40149e:	48 39 f8             	cmp    %rdi,%rax
  4014a1:	74 15                	je     4014b8 <deregister_tm_clones+0x28>
  4014a3:	48 8b 05 0e ab 00 00 	mov    0xab0e(%rip),%rax        # 40bfb8 <_ITM_deregisterTMCloneTable@Base>
  4014aa:	48 85 c0             	test   %rax,%rax
  4014ad:	74 09                	je     4014b8 <deregister_tm_clones+0x28>
  4014af:	ff e0                	jmp    *%rax
  4014b1:	0f 1f 80 00 00 00 00 	nopl   0x0(%rax)
  4014b8:	c3                   	ret
  4014b9:	0f 1f 80 00 00 00 00 	nopl   0x0(%rax)

00000000004014c0 <register_tm_clones>:
  4014c0:	48 8d 3d 29 ac 00 00 	lea    0xac29(%rip),%rdi        # 40c0f0 <__TMC_END__>
  4014c7:	48 8d 35 22 ac 00 00 	lea    0xac22(%rip),%rsi        # 40c0f0 <__TMC_END__>
  4014ce:	48 29 fe             	sub    %rdi,%rsi
  4014d1:	48 89 f0             	mov    %rsi,%rax
  4014d4:	48 c1 ee 3f          	shr    $0x3f,%rsi
  4014d8:	48 c1 f8 03          	sar    $0x3,%rax
  4014dc:	48 01 c6             	add    %rax,%rsi
  4014df:	48 d1 fe             	sar    %rsi
  4014e2:	74 14                	je     4014f8 <register_tm_clones+0x38>
  4014e4:	48 8b 05 e5 aa 00 00 	mov    0xaae5(%rip),%rax        # 40bfd0 <_ITM_registerTMCloneTable@Base>
  4014eb:	48 85 c0             	test   %rax,%rax
  4014ee:	74 08                	je     4014f8 <register_tm_clones+0x38>
  4014f0:	ff e0                	jmp    *%rax
  4014f2:	66 0f 1f 44 00 00    	nopw   0x0(%rax,%rax,1)
  4014f8:	c3                   	ret
  4014f9:	0f 1f 80 00 00 00 00 	nopl   0x0(%rax)

0000000000401500 <__do_global_dtors_aux>:
  401500:	f3 0f 1e fa          	endbr64
  401504:	80 3d fd ab 00 00 00 	cmpb   $0x0,0xabfd(%rip)        # 40c108 <completed.0>
  40150b:	75 2b                	jne    401538 <__do_global_dtors_aux+0x38>
  40150d:	55                   	push   %rbp
  40150e:	48 83 3d c2 aa 00 00 	cmpq   $0x0,0xaac2(%rip)        # 40bfd8 <__cxa_finalize@GLIBC_2.2.5>
  401515:	00 
  401516:	48 89 e5             	mov    %rsp,%rbp
  401519:	74 0c                	je     401527 <__do_global_dtors_aux+0x27>
  40151b:	48 8b 3d 86 ab 00 00 	mov    0xab86(%rip),%rdi        # 40c0a8 <__dso_handle>
  401522:	e8 51 fc ff ff       	call   401178 <__cxa_finalize@plt>
  401527:	e8 64 ff ff ff       	call   401490 <deregister_tm_clones>
  40152c:	c6 05 d5 ab 00 00 01 	movb   $0x1,0xabd5(%rip)        # 40c108 <completed.0>
  401533:	5d                   	pop    %rbp
  401534:	c3                   	ret
  401535:	0f 1f 00             	nopl   (%rax)
  401538:	c3                   	ret
  401539:	0f 1f 80 00 00 00 00 	nopl   0x0(%rax)

0000000000401540 <frame_dummy>:
  401540:	f3 0f 1e fa          	endbr64
  401544:	e9 77 ff ff ff       	jmp    4014c0 <register_tm_clones>
  401549:	0f 1f 80 00 00 00 00 	nopl   0x0(%rax)

0000000000401550 <main>:
  401550:	55                   	push   %rbp
  401551:	41 57                	push   %r15
  401553:	41 56                	push   %r14
  401555:	41 55                	push   %r13
  401557:	41 54                	push   %r12
  401559:	53                   	push   %rbx
  40155a:	48 81 ec e8 00 00 00 	sub    $0xe8,%rsp
  401561:	48 be ee 9f 9d 10 00 	movabs $0x100000109d9fee,%rsi
  401568:	00 10 00 
  40156b:	bf 03 00 00 00       	mov    $0x3,%edi
  401570:	e8 cb 13 00 00       	call   402940 <__intel_new_feature_proc_init>
  401575:	bf 00 00 00 32       	mov    $0x32000000,%edi
  40157a:	e8 51 fb ff ff       	call   4010d0 <malloc@plt>
  40157f:	48 89 c3             	mov    %rax,%rbx
  401582:	bf 00 00 00 32       	mov    $0x32000000,%edi
  401587:	e8 44 fb ff ff       	call   4010d0 <malloc@plt>
  40158c:	49 89 c6             	mov    %rax,%r14
  40158f:	bf 00 00 00 32       	mov    $0x32000000,%edi
  401594:	e8 37 fb ff ff       	call   4010d0 <malloc@plt>
  401599:	b9 01 00 00 00       	mov    $0x1,%ecx
  40159e:	48 85 db             	test   %rbx,%rbx
  4015a1:	74 0a                	je     4015ad <main+0x5d>
  4015a3:	4d 85 f6             	test   %r14,%r14
  4015a6:	74 05                	je     4015ad <main+0x5d>
  4015a8:	48 85 c0             	test   %rax,%rax
  4015ab:	75 14                	jne    4015c1 <main+0x71>
  4015ad:	89 c8                	mov    %ecx,%eax
  4015af:	48 81 c4 e8 00 00 00 	add    $0xe8,%rsp
  4015b6:	5b                   	pop    %rbx
  4015b7:	41 5c                	pop    %r12
  4015b9:	41 5d                	pop    %r13
  4015bb:	41 5e                	pop    %r14
  4015bd:	41 5f                	pop    %r15
  4015bf:	5d                   	pop    %rbp
  4015c0:	c3                   	ret
  4015c1:	45 31 ff             	xor    %r15d,%r15d
  4015c4:	ba 00 00 00 32       	mov    $0x32000000,%edx
  4015c9:	48 89 04 24          	mov    %rax,(%rsp)
  4015cd:	48 89 c7             	mov    %rax,%rdi
  4015d0:	31 f6                	xor    %esi,%esi
  4015d2:	e8 49 0f 00 00       	call   402520 <_intel_fast_memset>
  4015d7:	49 8d 46 60          	lea    0x60(%r14),%rax
  4015db:	48 89 d9             	mov    %rbx,%rcx
  4015de:	48 83 c1 60          	add    $0x60,%rcx
  4015e2:	c5 fa 6f 05 26 7a 00 	vmovdqu 0x7a26(%rip),%xmm0        # 409010 <_IO_stdin_used+0x10>
  4015e9:	00 
  4015ea:	c5 fa 6f 0d 2e 7a 00 	vmovdqu 0x7a2e(%rip),%xmm1        # 409020 <_IO_stdin_used+0x20>
  4015f1:	00 
  4015f2:	66 66 66 66 66 2e 0f 	data16 data16 data16 data16 cs nopw 0x0(%rax,%rax,1)
  4015f9:	1f 84 00 00 00 00 00 
  401600:	48 c7 c2 fc ff ff ff 	mov    $0xfffffffffffffffc,%rdx
  401607:	be f8 ff ff ff       	mov    $0xfffffff8,%esi
  40160c:	bf fc ff ff ff       	mov    $0xfffffffc,%edi
  401611:	41 b8 f4 ff ff ff    	mov    $0xfffffff4,%r8d
  401617:	45 31 c9             	xor    %r9d,%r9d
  40161a:	45 31 d2             	xor    %r10d,%r10d
  40161d:	0f 1f 00             	nopl   (%rax)
  401620:	47 8d 1c 17          	lea    (%r15,%r10,1),%r11d
  401624:	c4 c1 79 6e d3       	vmovd  %r11d,%xmm2
  401629:	c4 e2 79 58 d2       	vpbroadcastd %xmm2,%xmm2
  40162e:	c5 e9 fe d0          	vpaddd %xmm0,%xmm2,%xmm2
  401632:	c5 fe e6 d2          	vcvtdq2pd %xmm2,%ymm2
  401636:	c5 fc 11 54 d1 c0    	vmovups %ymm2,-0x40(%rcx,%rdx,8)
  40163c:	47 8d 1c 0f          	lea    (%r15,%r9,1),%r11d
  401640:	c4 c1 79 6e d3       	vmovd  %r11d,%xmm2
  401645:	c4 e2 79 58 d2       	vpbroadcastd %xmm2,%xmm2
  40164a:	c5 e9 fe d1          	vpaddd %xmm1,%xmm2,%xmm2
  40164e:	c5 fe e6 d2          	vcvtdq2pd %xmm2,%ymm2
  401652:	c5 fc 11 54 d0 c0    	vmovups %ymm2,-0x40(%rax,%rdx,8)
  401658:	47 8d 5c 17 04       	lea    0x4(%r15,%r10,1),%r11d
  40165d:	c4 c1 79 6e d3       	vmovd  %r11d,%xmm2
  401662:	c4 e2 79 58 d2       	vpbroadcastd %xmm2,%xmm2
  401667:	c5 e9 fe d0          	vpaddd %xmm0,%xmm2,%xmm2
  40166b:	c5 fe e6 d2          	vcvtdq2pd %xmm2,%ymm2
  40166f:	c5 fc 11 54 d1 e0    	vmovups %ymm2,-0x20(%rcx,%rdx,8)
  401675:	45 8d 1c 3f          	lea    (%r15,%rdi,1),%r11d
  401679:	c4 c1 79 6e d3       	vmovd  %r11d,%xmm2
  40167e:	c4 e2 79 58 d2       	vpbroadcastd %xmm2,%xmm2
  401683:	c5 e9 fe d1          	vpaddd %xmm1,%xmm2,%xmm2
  401687:	c5 fe e6 d2          	vcvtdq2pd %xmm2,%ymm2
  40168b:	c5 fc 11 54 d0 e0    	vmovups %ymm2,-0x20(%rax,%rdx,8)
  401691:	47 8d 5c 17 08       	lea    0x8(%r15,%r10,1),%r11d
  401696:	c4 c1 79 6e d3       	vmovd  %r11d,%xmm2
  40169b:	c4 e2 79 58 d2       	vpbroadcastd %xmm2,%xmm2
  4016a0:	c5 e9 fe d0          	vpaddd %xmm0,%xmm2,%xmm2
  4016a4:	c5 fe e6 d2          	vcvtdq2pd %xmm2,%ymm2
  4016a8:	c5 fc 11 14 d1       	vmovups %ymm2,(%rcx,%rdx,8)
  4016ad:	45 8d 1c 37          	lea    (%r15,%rsi,1),%r11d
  4016b1:	c4 c1 79 6e d3       	vmovd  %r11d,%xmm2
  4016b6:	c4 e2 79 58 d2       	vpbroadcastd %xmm2,%xmm2
  4016bb:	c5 e9 fe d1          	vpaddd %xmm1,%xmm2,%xmm2
  4016bf:	c5 fe e6 d2          	vcvtdq2pd %xmm2,%ymm2
  4016c3:	c5 fc 11 14 d0       	vmovups %ymm2,(%rax,%rdx,8)
  4016c8:	47 8d 5c 17 0c       	lea    0xc(%r15,%r10,1),%r11d
  4016cd:	c4 c1 79 6e d3       	vmovd  %r11d,%xmm2
  4016d2:	c4 e2 79 58 d2       	vpbroadcastd %xmm2,%xmm2
  4016d7:	c5 e9 fe d0          	vpaddd %xmm0,%xmm2,%xmm2
  4016db:	c5 fe e6 d2          	vcvtdq2pd %xmm2,%ymm2
  4016df:	c5 fc 11 54 d1 20    	vmovups %ymm2,0x20(%rcx,%rdx,8)
  4016e5:	47 8d 1c 07          	lea    (%r15,%r8,1),%r11d
  4016e9:	c4 c1 79 6e d3       	vmovd  %r11d,%xmm2
  4016ee:	c4 e2 79 58 d2       	vpbroadcastd %xmm2,%xmm2
  4016f3:	c5 e9 fe d1          	vpaddd %xmm1,%xmm2,%xmm2
  4016f7:	c5 fe e6 d2          	vcvtdq2pd %xmm2,%ymm2
  4016fb:	c5 fd 11 54 d0 20    	vmovupd %ymm2,0x20(%rax,%rdx,8)
  401701:	41 83 c2 10          	add    $0x10,%r10d
  401705:	48 83 c2 10          	add    $0x10,%rdx
  401709:	83 c6 f0             	add    $0xfffffff0,%esi
  40170c:	83 c7 f0             	add    $0xfffffff0,%edi
  40170f:	41 83 c0 f0          	add    $0xfffffff0,%r8d
  401713:	41 83 c1 f0          	add    $0xfffffff0,%r9d
  401717:	48 81 fa fc 27 00 00 	cmp    $0x27fc,%rdx
  40171e:	0f 82 fc fe ff ff    	jb     401620 <main+0xd0>
  401724:	48 05 00 40 01 00    	add    $0x14000,%rax
  40172a:	48 81 c1 00 40 01 00 	add    $0x14000,%rcx
  401731:	49 81 ff ff 27 00 00 	cmp    $0x27ff,%r15
  401738:	4d 8d 7f 01          	lea    0x1(%r15),%r15
  40173c:	0f 85 be fe ff ff    	jne    401600 <main+0xb0>
  401742:	48 8d 74 24 30       	lea    0x30(%rsp),%rsi
  401747:	bf 01 00 00 00       	mov    $0x1,%edi
  40174c:	c5 f8 77             	vzeroupper
  40174f:	e8 fc f8 ff ff       	call   401050 <clock_gettime@plt>
  401754:	48 8b 04 24          	mov    (%rsp),%rax
  401758:	48 05 00 c0 03 00    	add    $0x3c000,%rax
  40175e:	4c 89 74 24 08       	mov    %r14,0x8(%rsp)
  401763:	49 81 c6 00 c0 03 00 	add    $0x3c000,%r14
  40176a:	4c 89 74 24 10       	mov    %r14,0x10(%rsp)
  40176f:	31 c9                	xor    %ecx,%ecx
  401771:	66 66 66 66 66 66 2e 	data16 data16 data16 data16 data16 cs nopw 0x0(%rax,%rax,1)
  401778:	0f 1f 84 00 00 00 00 
  40177f:	00 
  401780:	48 89 4c 24 18       	mov    %rcx,0x18(%rsp)
  401785:	48 c1 e1 11          	shl    $0x11,%rcx
  401789:	48 8d 34 89          	lea    (%rcx,%rcx,4),%rsi
  40178d:	48 8b 4c 24 10       	mov    0x10(%rsp),%rcx
  401792:	45 31 c0             	xor    %r8d,%r8d
  401795:	66 66 2e 0f 1f 84 00 	data16 cs nopw 0x0(%rax,%rax,1)
  40179c:	00 00 00 00 
  4017a0:	4d 89 c1             	mov    %r8,%r9
  4017a3:	49 c1 e1 06          	shl    $0x6,%r9
  4017a7:	49 01 f1             	add    %rsi,%r9
  4017aa:	48 89 cf             	mov    %rcx,%rdi
  4017ad:	49 89 c3             	mov    %rax,%r11
  4017b0:	45 31 ff             	xor    %r15d,%r15d
  4017b3:	66 66 66 66 2e 0f 1f 	data16 data16 data16 cs nopw 0x0(%rax,%rax,1)
  4017ba:	84 00 00 00 00 00 
  4017c0:	4d 89 dc             	mov    %r11,%r12
  4017c3:	45 31 ed             	xor    %r13d,%r13d
  4017c6:	66 2e 0f 1f 84 00 00 	cs nopw 0x0(%rax,%rax,1)
  4017cd:	00 00 00 
  4017d0:	4b 8d 6c ad 00       	lea    0x0(%r13,%r13,4),%rbp
  4017d5:	48 c1 e5 0d          	shl    $0xd,%rbp
  4017d9:	4c 01 cd             	add    %r9,%rbp
  4017dc:	49 89 fa             	mov    %rdi,%r10
  4017df:	45 31 f6             	xor    %r14d,%r14d
  4017e2:	66 66 66 66 66 2e 0f 	data16 data16 data16 data16 cs nopw 0x0(%rax,%rax,1)
  4017e9:	1f 84 00 00 00 00 00 
  4017f0:	4a 8d 54 b5 00       	lea    0x0(%rbp,%r14,4),%rdx
  4017f5:	c4 e2 7d 19 04 d3    	vbroadcastsd (%rbx,%rdx,8),%ymm0
  4017fb:	c5 fc 11 84 24 c0 00 	vmovups %ymm0,0xc0(%rsp)
  401802:	00 00 
  401804:	c4 e2 7d 19 84 d3 00 	vbroadcastsd 0x14000(%rbx,%rdx,8),%ymm0
  40180b:	40 01 00 
  40180e:	c5 fc 11 84 24 a0 00 	vmovups %ymm0,0xa0(%rsp)
  401815:	00 00 
  401817:	c4 e2 7d 19 84 d3 00 	vbroadcastsd 0x28000(%rbx,%rdx,8),%ymm0
  40181e:	80 02 00 
  401821:	c5 fc 11 84 24 80 00 	vmovups %ymm0,0x80(%rsp)
  401828:	00 00 
  40182a:	c4 e2 7d 19 84 d3 00 	vbroadcastsd 0x3c000(%rbx,%rdx,8),%ymm0
  401831:	c0 03 00 
  401834:	c5 fc 11 44 24 60    	vmovups %ymm0,0x60(%rsp)
  40183a:	c4 e2 7d 19 44 d3 08 	vbroadcastsd 0x8(%rbx,%rdx,8),%ymm0
  401841:	c5 fc 11 44 24 40    	vmovups %ymm0,0x40(%rsp)
  401847:	c4 e2 7d 19 ac d3 08 	vbroadcastsd 0x14008(%rbx,%rdx,8),%ymm5
  40184e:	40 01 00 
  401851:	c4 e2 7d 19 b4 d3 08 	vbroadcastsd 0x28008(%rbx,%rdx,8),%ymm6
  401858:	80 02 00 
  40185b:	c4 e2 7d 19 bc d3 08 	vbroadcastsd 0x3c008(%rbx,%rdx,8),%ymm7
  401862:	c0 03 00 
  401865:	c4 62 7d 19 44 d3 10 	vbroadcastsd 0x10(%rbx,%rdx,8),%ymm8
  40186c:	c4 62 7d 19 8c d3 10 	vbroadcastsd 0x14010(%rbx,%rdx,8),%ymm9
  401873:	40 01 00 
  401876:	c4 62 7d 19 94 d3 10 	vbroadcastsd 0x28010(%rbx,%rdx,8),%ymm10
  40187d:	80 02 00 
  401880:	c4 62 7d 19 9c d3 10 	vbroadcastsd 0x3c010(%rbx,%rdx,8),%ymm11
  401887:	c0 03 00 
  40188a:	c4 62 7d 19 64 d3 18 	vbroadcastsd 0x18(%rbx,%rdx,8),%ymm12
  401891:	c4 62 7d 19 ac d3 18 	vbroadcastsd 0x14018(%rbx,%rdx,8),%ymm13
  401898:	40 01 00 
  40189b:	c4 62 7d 19 b4 d3 18 	vbroadcastsd 0x28018(%rbx,%rdx,8),%ymm14
  4018a2:	80 02 00 
  4018a5:	c4 62 7d 19 bc d3 18 	vbroadcastsd 0x3c018(%rbx,%rdx,8),%ymm15
  4018ac:	c0 03 00 
  4018af:	48 c7 c2 fc ff ff ff 	mov    $0xfffffffffffffffc,%rdx
  4018b6:	66 2e 0f 1f 84 00 00 	cs nopw 0x0(%rax,%rax,1)
  4018bd:	00 00 00 
  4018c0:	c4 c1 7d 10 84 d2 20 	vmovupd -0x3bfe0(%r10,%rdx,8),%ymm0
  4018c7:	40 fc ff 
  4018ca:	c4 c1 7d 10 8c d4 20 	vmovupd -0x3bfe0(%r12,%rdx,8),%ymm1
  4018d1:	40 fc ff 
  4018d4:	c4 e2 fd b8 8c 24 c0 	vfmadd231pd 0xc0(%rsp),%ymm0,%ymm1
  4018db:	00 00 00 
  4018de:	c4 c1 7d 10 94 d4 20 	vmovupd -0x27fe0(%r12,%rdx,8),%ymm2
  4018e5:	80 fd ff 
  4018e8:	c4 e2 fd b8 94 24 a0 	vfmadd231pd 0xa0(%rsp),%ymm0,%ymm2
  4018ef:	00 00 00 
  4018f2:	c4 c1 7d 10 9c d4 20 	vmovupd -0x13fe0(%r12,%rdx,8),%ymm3
  4018f9:	c0 fe ff 
  4018fc:	c4 e2 fd b8 9c 24 80 	vfmadd231pd 0x80(%rsp),%ymm0,%ymm3
  401903:	00 00 00 
  401906:	c5 fd 10 64 24 60    	vmovupd 0x60(%rsp),%ymm4
  40190c:	c4 c2 dd a8 44 d4 20 	vfmadd213pd 0x20(%r12,%rdx,8),%ymm4,%ymm0
  401913:	c4 c1 7d 10 a4 d2 20 	vmovupd -0x27fe0(%r10,%rdx,8),%ymm4
  40191a:	80 fd ff 
  40191d:	c4 e2 dd b8 4c 24 40 	vfmadd231pd 0x40(%rsp),%ymm4,%ymm1
  401924:	c4 e2 dd b8 d5       	vfmadd231pd %ymm5,%ymm4,%ymm2
  401929:	c4 e2 dd b8 de       	vfmadd231pd %ymm6,%ymm4,%ymm3
  40192e:	c4 e2 c5 b8 c4       	vfmadd231pd %ymm4,%ymm7,%ymm0
  401933:	c4 c1 7d 10 a4 d2 20 	vmovupd -0x13fe0(%r10,%rdx,8),%ymm4
  40193a:	c0 fe ff 
  40193d:	c4 c2 dd b8 c8       	vfmadd231pd %ymm8,%ymm4,%ymm1
  401942:	c4 c2 dd b8 d1       	vfmadd231pd %ymm9,%ymm4,%ymm2
  401947:	c4 c2 dd b8 da       	vfmadd231pd %ymm10,%ymm4,%ymm3
  40194c:	c4 e2 a5 b8 c4       	vfmadd231pd %ymm4,%ymm11,%ymm0
  401951:	c4 c1 7d 10 64 d2 20 	vmovupd 0x20(%r10,%rdx,8),%ymm4
  401958:	c4 c2 dd b8 cc       	vfmadd231pd %ymm12,%ymm4,%ymm1
  40195d:	c4 c1 7d 11 8c d4 20 	vmovupd %ymm1,-0x3bfe0(%r12,%rdx,8)
  401964:	40 fc ff 
  401967:	c4 c2 dd b8 d5       	vfmadd231pd %ymm13,%ymm4,%ymm2
  40196c:	c4 c1 7d 11 94 d4 20 	vmovupd %ymm2,-0x27fe0(%r12,%rdx,8)
  401973:	80 fd ff 
  401976:	c4 c2 dd b8 de       	vfmadd231pd %ymm14,%ymm4,%ymm3
  40197b:	c4 c1 7d 11 9c d4 20 	vmovupd %ymm3,-0x13fe0(%r12,%rdx,8)
  401982:	c0 fe ff 
  401985:	c4 e2 85 b8 c4       	vfmadd231pd %ymm4,%ymm15,%ymm0
  40198a:	c4 c1 7d 11 44 d4 20 	vmovupd %ymm0,0x20(%r12,%rdx,8)
  401991:	48 83 c2 04          	add    $0x4,%rdx
  401995:	48 83 fa 3c          	cmp    $0x3c,%rdx
  401999:	0f 82 21 ff ff ff    	jb     4018c0 <main+0x370>
  40199f:	49 81 c2 00 00 05 00 	add    $0x50000,%r10
  4019a6:	49 83 fe 0f          	cmp    $0xf,%r14
  4019aa:	4d 8d 76 01          	lea    0x1(%r14),%r14
  4019ae:	0f 85 3c fe ff ff    	jne    4017f0 <main+0x2a0>
  4019b4:	49 81 c4 00 00 05 00 	add    $0x50000,%r12
  4019bb:	49 83 fd 0f          	cmp    $0xf,%r13
  4019bf:	4d 8d 6d 01          	lea    0x1(%r13),%r13
  4019c3:	0f 85 07 fe ff ff    	jne    4017d0 <main+0x280>
  4019c9:	49 81 c3 00 02 00 00 	add    $0x200,%r11
  4019d0:	48 81 c7 00 02 00 00 	add    $0x200,%rdi
  4019d7:	49 81 ff 9f 00 00 00 	cmp    $0x9f,%r15
  4019de:	4d 8d 7f 01          	lea    0x1(%r15),%r15
  4019e2:	0f 85 d8 fd ff ff    	jne    4017c0 <main+0x270>
  4019e8:	48 81 c1 00 00 50 00 	add    $0x500000,%rcx
  4019ef:	49 81 f8 9f 00 00 00 	cmp    $0x9f,%r8
  4019f6:	4d 8d 40 01          	lea    0x1(%r8),%r8
  4019fa:	0f 85 a0 fd ff ff    	jne    4017a0 <main+0x250>
  401a00:	48 05 00 00 50 00    	add    $0x500000,%rax
  401a06:	48 8b 4c 24 18       	mov    0x18(%rsp),%rcx
  401a0b:	48 81 f9 9f 00 00 00 	cmp    $0x9f,%rcx
  401a12:	48 8d 49 01          	lea    0x1(%rcx),%rcx
  401a16:	0f 85 64 fd ff ff    	jne    401780 <main+0x230>
  401a1c:	48 8d 74 24 20       	lea    0x20(%rsp),%rsi
  401a21:	bf 01 00 00 00       	mov    $0x1,%edi
  401a26:	c5 f8 77             	vzeroupper
  401a29:	e8 22 f6 ff ff       	call   401050 <clock_gettime@plt>
  401a2e:	48 8b 3d cb a6 00 00 	mov    0xa6cb(%rip),%rdi        # 40c100 <stderr@GLIBC_2.2.5>
  401a35:	c5 fa 6f 44 24 20    	vmovdqu 0x20(%rsp),%xmm0
  401a3b:	c5 f9 fb 44 24 30    	vpsubq 0x30(%rsp),%xmm0,%xmm0
  401a41:	c4 e3 f9 16 c0 01    	vpextrq $0x1,%xmm0,%rax
  401a47:	48 8d 88 00 ca 9a 3b 	lea    0x3b9aca00(%rax),%rcx
  401a4e:	48 89 c2             	mov    %rax,%rdx
  401a51:	48 c1 fa 3f          	sar    $0x3f,%rdx
  401a55:	c4 e1 f9 7e c6       	vmovq  %xmm0,%rsi
  401a5a:	48 01 d6             	add    %rdx,%rsi
  401a5d:	48 85 c0             	test   %rax,%rax
  401a60:	48 0f 49 c8          	cmovns %rax,%rcx
  401a64:	c5 d0 57 ed          	vxorps %xmm5,%xmm5,%xmm5
  401a68:	c4 e1 d3 2a ce       	vcvtsi2sd %rsi,%xmm5,%xmm1
  401a6d:	c5 d0 57 ed          	vxorps %xmm5,%xmm5,%xmm5
  401a71:	c4 e1 d3 2a c1       	vcvtsi2sd %rcx,%xmm5,%xmm0
  401a76:	c4 e2 f1 99 05 b1 75 	vfmadd132sd 0x75b1(%rip),%xmm1,%xmm0        # 409030 <_IO_stdin_used+0x30>
  401a7d:	00 00 
  401a7f:	be 38 90 40 00       	mov    $0x409038,%esi
  401a84:	b0 01                	mov    $0x1,%al
  401a86:	e8 35 f6 ff ff       	call   4010c0 <fprintf@plt>
  401a8b:	bf 46 90 40 00       	mov    $0x409046,%edi
  401a90:	be e6 91 40 00       	mov    $0x4091e6,%esi
  401a95:	e8 86 f6 ff ff       	call   401120 <fopen@plt>
  401a9a:	48 85 c0             	test   %rax,%rax
  401a9d:	0f 84 36 0a 00 00    	je     4024d9 <main+0xf89>
  401aa3:	4c 8b 24 24          	mov    (%rsp),%r12
  401aa7:	c4 c1 7b 10 04 24    	vmovsd (%r12),%xmm0
  401aad:	be 52 90 40 00       	mov    $0x409052,%esi
  401ab2:	49 89 c7             	mov    %rax,%r15
  401ab5:	48 89 c7             	mov    %rax,%rdi
  401ab8:	b0 01                	mov    $0x1,%al
  401aba:	e8 01 f6 ff ff       	call   4010c0 <fprintf@plt>
  401abf:	c4 c1 7b 10 44 24 08 	vmovsd 0x8(%r12),%xmm0
  401ac6:	be 52 90 40 00       	mov    $0x409052,%esi
  401acb:	4c 89 ff             	mov    %r15,%rdi
  401ace:	b0 01                	mov    $0x1,%al
  401ad0:	e8 eb f5 ff ff       	call   4010c0 <fprintf@plt>
  401ad5:	c4 c1 7b 10 44 24 10 	vmovsd 0x10(%r12),%xmm0
  401adc:	be 52 90 40 00       	mov    $0x409052,%esi
  401ae1:	4c 89 ff             	mov    %r15,%rdi
  401ae4:	b0 01                	mov    $0x1,%al
  401ae6:	e8 d5 f5 ff ff       	call   4010c0 <fprintf@plt>
  401aeb:	c4 c1 7b 10 44 24 18 	vmovsd 0x18(%r12),%xmm0
  401af2:	be 52 90 40 00       	mov    $0x409052,%esi
  401af7:	4c 89 ff             	mov    %r15,%rdi
  401afa:	b0 01                	mov    $0x1,%al
  401afc:	e8 bf f5 ff ff       	call   4010c0 <fprintf@plt>
  401b01:	c4 c1 7b 10 44 24 20 	vmovsd 0x20(%r12),%xmm0
  401b08:	be 52 90 40 00       	mov    $0x409052,%esi
  401b0d:	4c 89 ff             	mov    %r15,%rdi
  401b10:	b0 01                	mov    $0x1,%al
  401b12:	e8 a9 f5 ff ff       	call   4010c0 <fprintf@plt>
  401b17:	c4 c1 7b 10 44 24 28 	vmovsd 0x28(%r12),%xmm0
  401b1e:	be 52 90 40 00       	mov    $0x409052,%esi
  401b23:	4c 89 ff             	mov    %r15,%rdi
  401b26:	b0 01                	mov    $0x1,%al
  401b28:	e8 93 f5 ff ff       	call   4010c0 <fprintf@plt>
  401b2d:	c4 c1 7b 10 44 24 30 	vmovsd 0x30(%r12),%xmm0
  401b34:	be 52 90 40 00       	mov    $0x409052,%esi
  401b39:	4c 89 ff             	mov    %r15,%rdi
  401b3c:	b0 01                	mov    $0x1,%al
  401b3e:	e8 7d f5 ff ff       	call   4010c0 <fprintf@plt>
  401b43:	c4 c1 7b 10 44 24 38 	vmovsd 0x38(%r12),%xmm0
  401b4a:	be 52 90 40 00       	mov    $0x409052,%esi
  401b4f:	4c 89 ff             	mov    %r15,%rdi
  401b52:	b0 01                	mov    $0x1,%al
  401b54:	e8 67 f5 ff ff       	call   4010c0 <fprintf@plt>
  401b59:	c4 c1 7b 10 44 24 40 	vmovsd 0x40(%r12),%xmm0
  401b60:	be 52 90 40 00       	mov    $0x409052,%esi
  401b65:	4c 89 ff             	mov    %r15,%rdi
  401b68:	b0 01                	mov    $0x1,%al
  401b6a:	e8 51 f5 ff ff       	call   4010c0 <fprintf@plt>
  401b6f:	c4 c1 7b 10 44 24 48 	vmovsd 0x48(%r12),%xmm0
  401b76:	be 52 90 40 00       	mov    $0x409052,%esi
  401b7b:	4c 89 ff             	mov    %r15,%rdi
  401b7e:	b0 01                	mov    $0x1,%al
  401b80:	e8 3b f5 ff ff       	call   4010c0 <fprintf@plt>
  401b85:	bf 0a 00 00 00       	mov    $0xa,%edi
  401b8a:	4c 89 fe             	mov    %r15,%rsi
  401b8d:	e8 1e f5 ff ff       	call   4010b0 <fputc@plt>
  401b92:	c4 c1 7b 10 84 24 00 	vmovsd 0x14000(%r12),%xmm0
  401b99:	40 01 00 
  401b9c:	be 52 90 40 00       	mov    $0x409052,%esi
  401ba1:	4c 89 ff             	mov    %r15,%rdi
  401ba4:	b0 01                	mov    $0x1,%al
  401ba6:	e8 15 f5 ff ff       	call   4010c0 <fprintf@plt>
  401bab:	c4 c1 7b 10 84 24 08 	vmovsd 0x14008(%r12),%xmm0
  401bb2:	40 01 00 
  401bb5:	be 52 90 40 00       	mov    $0x409052,%esi
  401bba:	4c 89 ff             	mov    %r15,%rdi
  401bbd:	b0 01                	mov    $0x1,%al
  401bbf:	e8 fc f4 ff ff       	call   4010c0 <fprintf@plt>
  401bc4:	c4 c1 7b 10 84 24 10 	vmovsd 0x14010(%r12),%xmm0
  401bcb:	40 01 00 
  401bce:	be 52 90 40 00       	mov    $0x409052,%esi
  401bd3:	4c 89 ff             	mov    %r15,%rdi
  401bd6:	b0 01                	mov    $0x1,%al
  401bd8:	e8 e3 f4 ff ff       	call   4010c0 <fprintf@plt>
  401bdd:	c4 c1 7b 10 84 24 18 	vmovsd 0x14018(%r12),%xmm0
  401be4:	40 01 00 
  401be7:	be 52 90 40 00       	mov    $0x409052,%esi
  401bec:	4c 89 ff             	mov    %r15,%rdi
  401bef:	b0 01                	mov    $0x1,%al
  401bf1:	e8 ca f4 ff ff       	call   4010c0 <fprintf@plt>
  401bf6:	c4 c1 7b 10 84 24 20 	vmovsd 0x14020(%r12),%xmm0
  401bfd:	40 01 00 
  401c00:	be 52 90 40 00       	mov    $0x409052,%esi
  401c05:	4c 89 ff             	mov    %r15,%rdi
  401c08:	b0 01                	mov    $0x1,%al
  401c0a:	e8 b1 f4 ff ff       	call   4010c0 <fprintf@plt>
  401c0f:	c4 c1 7b 10 84 24 28 	vmovsd 0x14028(%r12),%xmm0
  401c16:	40 01 00 
  401c19:	be 52 90 40 00       	mov    $0x409052,%esi
  401c1e:	4c 89 ff             	mov    %r15,%rdi
  401c21:	b0 01                	mov    $0x1,%al
  401c23:	e8 98 f4 ff ff       	call   4010c0 <fprintf@plt>
  401c28:	c4 c1 7b 10 84 24 30 	vmovsd 0x14030(%r12),%xmm0
  401c2f:	40 01 00 
  401c32:	be 52 90 40 00       	mov    $0x409052,%esi
  401c37:	4c 89 ff             	mov    %r15,%rdi
  401c3a:	b0 01                	mov    $0x1,%al
  401c3c:	e8 7f f4 ff ff       	call   4010c0 <fprintf@plt>
  401c41:	c4 c1 7b 10 84 24 38 	vmovsd 0x14038(%r12),%xmm0
  401c48:	40 01 00 
  401c4b:	be 52 90 40 00       	mov    $0x409052,%esi
  401c50:	4c 89 ff             	mov    %r15,%rdi
  401c53:	b0 01                	mov    $0x1,%al
  401c55:	e8 66 f4 ff ff       	call   4010c0 <fprintf@plt>
  401c5a:	c4 c1 7b 10 84 24 40 	vmovsd 0x14040(%r12),%xmm0
  401c61:	40 01 00 
  401c64:	be 52 90 40 00       	mov    $0x409052,%esi
  401c69:	4c 89 ff             	mov    %r15,%rdi
  401c6c:	b0 01                	mov    $0x1,%al
  401c6e:	e8 4d f4 ff ff       	call   4010c0 <fprintf@plt>
  401c73:	c4 c1 7b 10 84 24 48 	vmovsd 0x14048(%r12),%xmm0
  401c7a:	40 01 00 
  401c7d:	be 52 90 40 00       	mov    $0x409052,%esi
  401c82:	4c 89 ff             	mov    %r15,%rdi
  401c85:	b0 01                	mov    $0x1,%al
  401c87:	e8 34 f4 ff ff       	call   4010c0 <fprintf@plt>
  401c8c:	bf 0a 00 00 00       	mov    $0xa,%edi
  401c91:	4c 89 fe             	mov    %r15,%rsi
  401c94:	e8 17 f4 ff ff       	call   4010b0 <fputc@plt>
  401c99:	c4 c1 7b 10 84 24 00 	vmovsd 0x28000(%r12),%xmm0
  401ca0:	80 02 00 
  401ca3:	be 52 90 40 00       	mov    $0x409052,%esi
  401ca8:	4c 89 ff             	mov    %r15,%rdi
  401cab:	b0 01                	mov    $0x1,%al
  401cad:	e8 0e f4 ff ff       	call   4010c0 <fprintf@plt>
  401cb2:	c4 c1 7b 10 84 24 08 	vmovsd 0x28008(%r12),%xmm0
  401cb9:	80 02 00 
  401cbc:	be 52 90 40 00       	mov    $0x409052,%esi
  401cc1:	4c 89 ff             	mov    %r15,%rdi
  401cc4:	b0 01                	mov    $0x1,%al
  401cc6:	e8 f5 f3 ff ff       	call   4010c0 <fprintf@plt>
  401ccb:	c4 c1 7b 10 84 24 10 	vmovsd 0x28010(%r12),%xmm0
  401cd2:	80 02 00 
  401cd5:	be 52 90 40 00       	mov    $0x409052,%esi
  401cda:	4c 89 ff             	mov    %r15,%rdi
  401cdd:	b0 01                	mov    $0x1,%al
  401cdf:	e8 dc f3 ff ff       	call   4010c0 <fprintf@plt>
  401ce4:	c4 c1 7b 10 84 24 18 	vmovsd 0x28018(%r12),%xmm0
  401ceb:	80 02 00 
  401cee:	be 52 90 40 00       	mov    $0x409052,%esi
  401cf3:	4c 89 ff             	mov    %r15,%rdi
  401cf6:	b0 01                	mov    $0x1,%al
  401cf8:	e8 c3 f3 ff ff       	call   4010c0 <fprintf@plt>
  401cfd:	c4 c1 7b 10 84 24 20 	vmovsd 0x28020(%r12),%xmm0
  401d04:	80 02 00 
  401d07:	be 52 90 40 00       	mov    $0x409052,%esi
  401d0c:	4c 89 ff             	mov    %r15,%rdi
  401d0f:	b0 01                	mov    $0x1,%al
  401d11:	e8 aa f3 ff ff       	call   4010c0 <fprintf@plt>
  401d16:	c4 c1 7b 10 84 24 28 	vmovsd 0x28028(%r12),%xmm0
  401d1d:	80 02 00 
  401d20:	be 52 90 40 00       	mov    $0x409052,%esi
  401d25:	4c 89 ff             	mov    %r15,%rdi
  401d28:	b0 01                	mov    $0x1,%al
  401d2a:	e8 91 f3 ff ff       	call   4010c0 <fprintf@plt>
  401d2f:	c4 c1 7b 10 84 24 30 	vmovsd 0x28030(%r12),%xmm0
  401d36:	80 02 00 
  401d39:	be 52 90 40 00       	mov    $0x409052,%esi
  401d3e:	4c 89 ff             	mov    %r15,%rdi
  401d41:	b0 01                	mov    $0x1,%al
  401d43:	e8 78 f3 ff ff       	call   4010c0 <fprintf@plt>
  401d48:	c4 c1 7b 10 84 24 38 	vmovsd 0x28038(%r12),%xmm0
  401d4f:	80 02 00 
  401d52:	be 52 90 40 00       	mov    $0x409052,%esi
  401d57:	4c 89 ff             	mov    %r15,%rdi
  401d5a:	b0 01                	mov    $0x1,%al
  401d5c:	e8 5f f3 ff ff       	call   4010c0 <fprintf@plt>
  401d61:	c4 c1 7b 10 84 24 40 	vmovsd 0x28040(%r12),%xmm0
  401d68:	80 02 00 
  401d6b:	be 52 90 40 00       	mov    $0x409052,%esi
  401d70:	4c 89 ff             	mov    %r15,%rdi
  401d73:	b0 01                	mov    $0x1,%al
  401d75:	e8 46 f3 ff ff       	call   4010c0 <fprintf@plt>
  401d7a:	c4 c1 7b 10 84 24 48 	vmovsd 0x28048(%r12),%xmm0
  401d81:	80 02 00 
  401d84:	be 52 90 40 00       	mov    $0x409052,%esi
  401d89:	4c 89 ff             	mov    %r15,%rdi
  401d8c:	b0 01                	mov    $0x1,%al
  401d8e:	e8 2d f3 ff ff       	call   4010c0 <fprintf@plt>
  401d93:	bf 0a 00 00 00       	mov    $0xa,%edi
  401d98:	4c 89 fe             	mov    %r15,%rsi
  401d9b:	e8 10 f3 ff ff       	call   4010b0 <fputc@plt>
  401da0:	c4 c1 7b 10 84 24 00 	vmovsd 0x3c000(%r12),%xmm0
  401da7:	c0 03 00 
  401daa:	be 52 90 40 00       	mov    $0x409052,%esi
  401daf:	4c 89 ff             	mov    %r15,%rdi
  401db2:	b0 01                	mov    $0x1,%al
  401db4:	e8 07 f3 ff ff       	call   4010c0 <fprintf@plt>
  401db9:	c4 c1 7b 10 84 24 08 	vmovsd 0x3c008(%r12),%xmm0
  401dc0:	c0 03 00 
  401dc3:	be 52 90 40 00       	mov    $0x409052,%esi
  401dc8:	4c 89 ff             	mov    %r15,%rdi
  401dcb:	b0 01                	mov    $0x1,%al
  401dcd:	e8 ee f2 ff ff       	call   4010c0 <fprintf@plt>
  401dd2:	c4 c1 7b 10 84 24 10 	vmovsd 0x3c010(%r12),%xmm0
  401dd9:	c0 03 00 
  401ddc:	be 52 90 40 00       	mov    $0x409052,%esi
  401de1:	4c 89 ff             	mov    %r15,%rdi
  401de4:	b0 01                	mov    $0x1,%al
  401de6:	e8 d5 f2 ff ff       	call   4010c0 <fprintf@plt>
  401deb:	c4 c1 7b 10 84 24 18 	vmovsd 0x3c018(%r12),%xmm0
  401df2:	c0 03 00 
  401df5:	be 52 90 40 00       	mov    $0x409052,%esi
  401dfa:	4c 89 ff             	mov    %r15,%rdi
  401dfd:	b0 01                	mov    $0x1,%al
  401dff:	e8 bc f2 ff ff       	call   4010c0 <fprintf@plt>
  401e04:	c4 c1 7b 10 84 24 20 	vmovsd 0x3c020(%r12),%xmm0
  401e0b:	c0 03 00 
  401e0e:	be 52 90 40 00       	mov    $0x409052,%esi
  401e13:	4c 89 ff             	mov    %r15,%rdi
  401e16:	b0 01                	mov    $0x1,%al
  401e18:	e8 a3 f2 ff ff       	call   4010c0 <fprintf@plt>
  401e1d:	c4 c1 7b 10 84 24 28 	vmovsd 0x3c028(%r12),%xmm0
  401e24:	c0 03 00 
  401e27:	be 52 90 40 00       	mov    $0x409052,%esi
  401e2c:	4c 89 ff             	mov    %r15,%rdi
  401e2f:	b0 01                	mov    $0x1,%al
  401e31:	e8 8a f2 ff ff       	call   4010c0 <fprintf@plt>
  401e36:	c4 c1 7b 10 84 24 30 	vmovsd 0x3c030(%r12),%xmm0
  401e3d:	c0 03 00 
  401e40:	be 52 90 40 00       	mov    $0x409052,%esi
  401e45:	4c 89 ff             	mov    %r15,%rdi
  401e48:	b0 01                	mov    $0x1,%al
  401e4a:	e8 71 f2 ff ff       	call   4010c0 <fprintf@plt>
  401e4f:	c4 c1 7b 10 84 24 38 	vmovsd 0x3c038(%r12),%xmm0
  401e56:	c0 03 00 
  401e59:	be 52 90 40 00       	mov    $0x409052,%esi
  401e5e:	4c 89 ff             	mov    %r15,%rdi
  401e61:	b0 01                	mov    $0x1,%al
  401e63:	e8 58 f2 ff ff       	call   4010c0 <fprintf@plt>
  401e68:	c4 c1 7b 10 84 24 40 	vmovsd 0x3c040(%r12),%xmm0
  401e6f:	c0 03 00 
  401e72:	be 52 90 40 00       	mov    $0x409052,%esi
  401e77:	4c 89 ff             	mov    %r15,%rdi
  401e7a:	b0 01                	mov    $0x1,%al
  401e7c:	e8 3f f2 ff ff       	call   4010c0 <fprintf@plt>
  401e81:	c4 c1 7b 10 84 24 48 	vmovsd 0x3c048(%r12),%xmm0
  401e88:	c0 03 00 
  401e8b:	be 52 90 40 00       	mov    $0x409052,%esi
  401e90:	4c 89 ff             	mov    %r15,%rdi
  401e93:	b0 01                	mov    $0x1,%al
  401e95:	e8 26 f2 ff ff       	call   4010c0 <fprintf@plt>
  401e9a:	bf 0a 00 00 00       	mov    $0xa,%edi
  401e9f:	4c 89 fe             	mov    %r15,%rsi
  401ea2:	e8 09 f2 ff ff       	call   4010b0 <fputc@plt>
  401ea7:	c4 c1 7b 10 84 24 00 	vmovsd 0x50000(%r12),%xmm0
  401eae:	00 05 00 
  401eb1:	be 52 90 40 00       	mov    $0x409052,%esi
  401eb6:	4c 89 ff             	mov    %r15,%rdi
  401eb9:	b0 01                	mov    $0x1,%al
  401ebb:	e8 00 f2 ff ff       	call   4010c0 <fprintf@plt>
  401ec0:	c4 c1 7b 10 84 24 08 	vmovsd 0x50008(%r12),%xmm0
  401ec7:	00 05 00 
  401eca:	be 52 90 40 00       	mov    $0x409052,%esi
  401ecf:	4c 89 ff             	mov    %r15,%rdi
  401ed2:	b0 01                	mov    $0x1,%al
  401ed4:	e8 e7 f1 ff ff       	call   4010c0 <fprintf@plt>
  401ed9:	c4 c1 7b 10 84 24 10 	vmovsd 0x50010(%r12),%xmm0
  401ee0:	00 05 00 
  401ee3:	be 52 90 40 00       	mov    $0x409052,%esi
  401ee8:	4c 89 ff             	mov    %r15,%rdi
  401eeb:	b0 01                	mov    $0x1,%al
  401eed:	e8 ce f1 ff ff       	call   4010c0 <fprintf@plt>
  401ef2:	c4 c1 7b 10 84 24 18 	vmovsd 0x50018(%r12),%xmm0
  401ef9:	00 05 00 
  401efc:	be 52 90 40 00       	mov    $0x409052,%esi
  401f01:	4c 89 ff             	mov    %r15,%rdi
  401f04:	b0 01                	mov    $0x1,%al
  401f06:	e8 b5 f1 ff ff       	call   4010c0 <fprintf@plt>
  401f0b:	c4 c1 7b 10 84 24 20 	vmovsd 0x50020(%r12),%xmm0
  401f12:	00 05 00 
  401f15:	be 52 90 40 00       	mov    $0x409052,%esi
  401f1a:	4c 89 ff             	mov    %r15,%rdi
  401f1d:	b0 01                	mov    $0x1,%al
  401f1f:	e8 9c f1 ff ff       	call   4010c0 <fprintf@plt>
  401f24:	c4 c1 7b 10 84 24 28 	vmovsd 0x50028(%r12),%xmm0
  401f2b:	00 05 00 
  401f2e:	be 52 90 40 00       	mov    $0x409052,%esi
  401f33:	4c 89 ff             	mov    %r15,%rdi
  401f36:	b0 01                	mov    $0x1,%al
  401f38:	e8 83 f1 ff ff       	call   4010c0 <fprintf@plt>
  401f3d:	c4 c1 7b 10 84 24 30 	vmovsd 0x50030(%r12),%xmm0
  401f44:	00 05 00 
  401f47:	be 52 90 40 00       	mov    $0x409052,%esi
  401f4c:	4c 89 ff             	mov    %r15,%rdi
  401f4f:	b0 01                	mov    $0x1,%al
  401f51:	e8 6a f1 ff ff       	call   4010c0 <fprintf@plt>
  401f56:	c4 c1 7b 10 84 24 38 	vmovsd 0x50038(%r12),%xmm0
  401f5d:	00 05 00 
  401f60:	be 52 90 40 00       	mov    $0x409052,%esi
  401f65:	4c 89 ff             	mov    %r15,%rdi
  401f68:	b0 01                	mov    $0x1,%al
  401f6a:	e8 51 f1 ff ff       	call   4010c0 <fprintf@plt>
  401f6f:	c4 c1 7b 10 84 24 40 	vmovsd 0x50040(%r12),%xmm0
  401f76:	00 05 00 
  401f79:	be 52 90 40 00       	mov    $0x409052,%esi
  401f7e:	4c 89 ff             	mov    %r15,%rdi
  401f81:	b0 01                	mov    $0x1,%al
  401f83:	e8 38 f1 ff ff       	call   4010c0 <fprintf@plt>
  401f88:	c4 c1 7b 10 84 24 48 	vmovsd 0x50048(%r12),%xmm0
  401f8f:	00 05 00 
  401f92:	be 52 90 40 00       	mov    $0x409052,%esi
  401f97:	4c 89 ff             	mov    %r15,%rdi
  401f9a:	b0 01                	mov    $0x1,%al
  401f9c:	e8 1f f1 ff ff       	call   4010c0 <fprintf@plt>
  401fa1:	bf 0a 00 00 00       	mov    $0xa,%edi
  401fa6:	4c 89 fe             	mov    %r15,%rsi
  401fa9:	e8 02 f1 ff ff       	call   4010b0 <fputc@plt>
  401fae:	c4 c1 7b 10 84 24 00 	vmovsd 0x64000(%r12),%xmm0
  401fb5:	40 06 00 
  401fb8:	be 52 90 40 00       	mov    $0x409052,%esi
  401fbd:	4c 89 ff             	mov    %r15,%rdi
  401fc0:	b0 01                	mov    $0x1,%al
  401fc2:	e8 f9 f0 ff ff       	call   4010c0 <fprintf@plt>
  401fc7:	c4 c1 7b 10 84 24 08 	vmovsd 0x64008(%r12),%xmm0
  401fce:	40 06 00 
  401fd1:	be 52 90 40 00       	mov    $0x409052,%esi
  401fd6:	4c 89 ff             	mov    %r15,%rdi
  401fd9:	b0 01                	mov    $0x1,%al
  401fdb:	e8 e0 f0 ff ff       	call   4010c0 <fprintf@plt>
  401fe0:	c4 c1 7b 10 84 24 10 	vmovsd 0x64010(%r12),%xmm0
  401fe7:	40 06 00 
  401fea:	be 52 90 40 00       	mov    $0x409052,%esi
  401fef:	4c 89 ff             	mov    %r15,%rdi
  401ff2:	b0 01                	mov    $0x1,%al
  401ff4:	e8 c7 f0 ff ff       	call   4010c0 <fprintf@plt>
  401ff9:	c4 c1 7b 10 84 24 18 	vmovsd 0x64018(%r12),%xmm0
  402000:	40 06 00 
  402003:	be 52 90 40 00       	mov    $0x409052,%esi
  402008:	4c 89 ff             	mov    %r15,%rdi
  40200b:	b0 01                	mov    $0x1,%al
  40200d:	e8 ae f0 ff ff       	call   4010c0 <fprintf@plt>
  402012:	c4 c1 7b 10 84 24 20 	vmovsd 0x64020(%r12),%xmm0
  402019:	40 06 00 
  40201c:	be 52 90 40 00       	mov    $0x409052,%esi
  402021:	4c 89 ff             	mov    %r15,%rdi
  402024:	b0 01                	mov    $0x1,%al
  402026:	e8 95 f0 ff ff       	call   4010c0 <fprintf@plt>
  40202b:	c4 c1 7b 10 84 24 28 	vmovsd 0x64028(%r12),%xmm0
  402032:	40 06 00 
  402035:	be 52 90 40 00       	mov    $0x409052,%esi
  40203a:	4c 89 ff             	mov    %r15,%rdi
  40203d:	b0 01                	mov    $0x1,%al
  40203f:	e8 7c f0 ff ff       	call   4010c0 <fprintf@plt>
  402044:	c4 c1 7b 10 84 24 30 	vmovsd 0x64030(%r12),%xmm0
  40204b:	40 06 00 
  40204e:	be 52 90 40 00       	mov    $0x409052,%esi
  402053:	4c 89 ff             	mov    %r15,%rdi
  402056:	b0 01                	mov    $0x1,%al
  402058:	e8 63 f0 ff ff       	call   4010c0 <fprintf@plt>
  40205d:	c4 c1 7b 10 84 24 38 	vmovsd 0x64038(%r12),%xmm0
  402064:	40 06 00 
  402067:	be 52 90 40 00       	mov    $0x409052,%esi
  40206c:	4c 89 ff             	mov    %r15,%rdi
  40206f:	b0 01                	mov    $0x1,%al
  402071:	e8 4a f0 ff ff       	call   4010c0 <fprintf@plt>
  402076:	c4 c1 7b 10 84 24 40 	vmovsd 0x64040(%r12),%xmm0
  40207d:	40 06 00 
  402080:	be 52 90 40 00       	mov    $0x409052,%esi
  402085:	4c 89 ff             	mov    %r15,%rdi
  402088:	b0 01                	mov    $0x1,%al
  40208a:	e8 31 f0 ff ff       	call   4010c0 <fprintf@plt>
  40208f:	c4 c1 7b 10 84 24 48 	vmovsd 0x64048(%r12),%xmm0
  402096:	40 06 00 
  402099:	be 52 90 40 00       	mov    $0x409052,%esi
  40209e:	4c 89 ff             	mov    %r15,%rdi
  4020a1:	b0 01                	mov    $0x1,%al
  4020a3:	e8 18 f0 ff ff       	call   4010c0 <fprintf@plt>
  4020a8:	bf 0a 00 00 00       	mov    $0xa,%edi
  4020ad:	4c 89 fe             	mov    %r15,%rsi
  4020b0:	e8 fb ef ff ff       	call   4010b0 <fputc@plt>
  4020b5:	c4 c1 7b 10 84 24 00 	vmovsd 0x78000(%r12),%xmm0
  4020bc:	80 07 00 
  4020bf:	be 52 90 40 00       	mov    $0x409052,%esi
  4020c4:	4c 89 ff             	mov    %r15,%rdi
  4020c7:	b0 01                	mov    $0x1,%al
  4020c9:	e8 f2 ef ff ff       	call   4010c0 <fprintf@plt>
  4020ce:	c4 c1 7b 10 84 24 08 	vmovsd 0x78008(%r12),%xmm0
  4020d5:	80 07 00 
  4020d8:	be 52 90 40 00       	mov    $0x409052,%esi
  4020dd:	4c 89 ff             	mov    %r15,%rdi
  4020e0:	b0 01                	mov    $0x1,%al
  4020e2:	e8 d9 ef ff ff       	call   4010c0 <fprintf@plt>
  4020e7:	c4 c1 7b 10 84 24 10 	vmovsd 0x78010(%r12),%xmm0
  4020ee:	80 07 00 
  4020f1:	be 52 90 40 00       	mov    $0x409052,%esi
  4020f6:	4c 89 ff             	mov    %r15,%rdi
  4020f9:	b0 01                	mov    $0x1,%al
  4020fb:	e8 c0 ef ff ff       	call   4010c0 <fprintf@plt>
  402100:	c4 c1 7b 10 84 24 18 	vmovsd 0x78018(%r12),%xmm0
  402107:	80 07 00 
  40210a:	be 52 90 40 00       	mov    $0x409052,%esi
  40210f:	4c 89 ff             	mov    %r15,%rdi
  402112:	b0 01                	mov    $0x1,%al
  402114:	e8 a7 ef ff ff       	call   4010c0 <fprintf@plt>
  402119:	c4 c1 7b 10 84 24 20 	vmovsd 0x78020(%r12),%xmm0
  402120:	80 07 00 
  402123:	be 52 90 40 00       	mov    $0x409052,%esi
  402128:	4c 89 ff             	mov    %r15,%rdi
  40212b:	b0 01                	mov    $0x1,%al
  40212d:	e8 8e ef ff ff       	call   4010c0 <fprintf@plt>
  402132:	c4 c1 7b 10 84 24 28 	vmovsd 0x78028(%r12),%xmm0
  402139:	80 07 00 
  40213c:	be 52 90 40 00       	mov    $0x409052,%esi
  402141:	4c 89 ff             	mov    %r15,%rdi
  402144:	b0 01                	mov    $0x1,%al
  402146:	e8 75 ef ff ff       	call   4010c0 <fprintf@plt>
  40214b:	c4 c1 7b 10 84 24 30 	vmovsd 0x78030(%r12),%xmm0
  402152:	80 07 00 
  402155:	be 52 90 40 00       	mov    $0x409052,%esi
  40215a:	4c 89 ff             	mov    %r15,%rdi
  40215d:	b0 01                	mov    $0x1,%al
  40215f:	e8 5c ef ff ff       	call   4010c0 <fprintf@plt>
  402164:	c4 c1 7b 10 84 24 38 	vmovsd 0x78038(%r12),%xmm0
  40216b:	80 07 00 
  40216e:	be 52 90 40 00       	mov    $0x409052,%esi
  402173:	4c 89 ff             	mov    %r15,%rdi
  402176:	b0 01                	mov    $0x1,%al
  402178:	e8 43 ef ff ff       	call   4010c0 <fprintf@plt>
  40217d:	c4 c1 7b 10 84 24 40 	vmovsd 0x78040(%r12),%xmm0
  402184:	80 07 00 
  402187:	be 52 90 40 00       	mov    $0x409052,%esi
  40218c:	4c 89 ff             	mov    %r15,%rdi
  40218f:	b0 01                	mov    $0x1,%al
  402191:	e8 2a ef ff ff       	call   4010c0 <fprintf@plt>
  402196:	c4 c1 7b 10 84 24 48 	vmovsd 0x78048(%r12),%xmm0
  40219d:	80 07 00 
  4021a0:	be 52 90 40 00       	mov    $0x409052,%esi
  4021a5:	4c 89 ff             	mov    %r15,%rdi
  4021a8:	b0 01                	mov    $0x1,%al
  4021aa:	e8 11 ef ff ff       	call   4010c0 <fprintf@plt>
  4021af:	bf 0a 00 00 00       	mov    $0xa,%edi
  4021b4:	4c 89 fe             	mov    %r15,%rsi
  4021b7:	e8 f4 ee ff ff       	call   4010b0 <fputc@plt>
  4021bc:	c4 c1 7b 10 84 24 00 	vmovsd 0x8c000(%r12),%xmm0
  4021c3:	c0 08 00 
  4021c6:	be 52 90 40 00       	mov    $0x409052,%esi
  4021cb:	4c 89 ff             	mov    %r15,%rdi
  4021ce:	b0 01                	mov    $0x1,%al
  4021d0:	e8 eb ee ff ff       	call   4010c0 <fprintf@plt>
  4021d5:	c4 c1 7b 10 84 24 08 	vmovsd 0x8c008(%r12),%xmm0
  4021dc:	c0 08 00 
  4021df:	be 52 90 40 00       	mov    $0x409052,%esi
  4021e4:	4c 89 ff             	mov    %r15,%rdi
  4021e7:	b0 01                	mov    $0x1,%al
  4021e9:	e8 d2 ee ff ff       	call   4010c0 <fprintf@plt>
  4021ee:	c4 c1 7b 10 84 24 10 	vmovsd 0x8c010(%r12),%xmm0
  4021f5:	c0 08 00 
  4021f8:	be 52 90 40 00       	mov    $0x409052,%esi
  4021fd:	4c 89 ff             	mov    %r15,%rdi
  402200:	b0 01                	mov    $0x1,%al
  402202:	e8 b9 ee ff ff       	call   4010c0 <fprintf@plt>
  402207:	c4 c1 7b 10 84 24 18 	vmovsd 0x8c018(%r12),%xmm0
  40220e:	c0 08 00 
  402211:	be 52 90 40 00       	mov    $0x409052,%esi
  402216:	4c 89 ff             	mov    %r15,%rdi
  402219:	b0 01                	mov    $0x1,%al
  40221b:	e8 a0 ee ff ff       	call   4010c0 <fprintf@plt>
  402220:	c4 c1 7b 10 84 24 20 	vmovsd 0x8c020(%r12),%xmm0
  402227:	c0 08 00 
  40222a:	be 52 90 40 00       	mov    $0x409052,%esi
  40222f:	4c 89 ff             	mov    %r15,%rdi
  402232:	b0 01                	mov    $0x1,%al
  402234:	e8 87 ee ff ff       	call   4010c0 <fprintf@plt>
  402239:	c4 c1 7b 10 84 24 28 	vmovsd 0x8c028(%r12),%xmm0
  402240:	c0 08 00 
  402243:	be 52 90 40 00       	mov    $0x409052,%esi
  402248:	4c 89 ff             	mov    %r15,%rdi
  40224b:	b0 01                	mov    $0x1,%al
  40224d:	e8 6e ee ff ff       	call   4010c0 <fprintf@plt>
  402252:	c4 c1 7b 10 84 24 30 	vmovsd 0x8c030(%r12),%xmm0
  402259:	c0 08 00 
  40225c:	be 52 90 40 00       	mov    $0x409052,%esi
  402261:	4c 89 ff             	mov    %r15,%rdi
  402264:	b0 01                	mov    $0x1,%al
  402266:	e8 55 ee ff ff       	call   4010c0 <fprintf@plt>
  40226b:	c4 c1 7b 10 84 24 38 	vmovsd 0x8c038(%r12),%xmm0
  402272:	c0 08 00 
  402275:	be 52 90 40 00       	mov    $0x409052,%esi
  40227a:	4c 89 ff             	mov    %r15,%rdi
  40227d:	b0 01                	mov    $0x1,%al
  40227f:	e8 3c ee ff ff       	call   4010c0 <fprintf@plt>
  402284:	c4 c1 7b 10 84 24 40 	vmovsd 0x8c040(%r12),%xmm0
  40228b:	c0 08 00 
  40228e:	be 52 90 40 00       	mov    $0x409052,%esi
  402293:	4c 89 ff             	mov    %r15,%rdi
  402296:	b0 01                	mov    $0x1,%al
  402298:	e8 23 ee ff ff       	call   4010c0 <fprintf@plt>
  40229d:	c4 c1 7b 10 84 24 48 	vmovsd 0x8c048(%r12),%xmm0
  4022a4:	c0 08 00 
  4022a7:	be 52 90 40 00       	mov    $0x409052,%esi
  4022ac:	4c 89 ff             	mov    %r15,%rdi
  4022af:	b0 01                	mov    $0x1,%al
  4022b1:	e8 0a ee ff ff       	call   4010c0 <fprintf@plt>
  4022b6:	bf 0a 00 00 00       	mov    $0xa,%edi
  4022bb:	4c 89 fe             	mov    %r15,%rsi
  4022be:	e8 ed ed ff ff       	call   4010b0 <fputc@plt>
  4022c3:	c4 c1 7b 10 84 24 00 	vmovsd 0xa0000(%r12),%xmm0
  4022ca:	00 0a 00 
  4022cd:	be 52 90 40 00       	mov    $0x409052,%esi
  4022d2:	4c 89 ff             	mov    %r15,%rdi
  4022d5:	b0 01                	mov    $0x1,%al
  4022d7:	e8 e4 ed ff ff       	call   4010c0 <fprintf@plt>
  4022dc:	c4 c1 7b 10 84 24 08 	vmovsd 0xa0008(%r12),%xmm0
  4022e3:	00 0a 00 
  4022e6:	be 52 90 40 00       	mov    $0x409052,%esi
  4022eb:	4c 89 ff             	mov    %r15,%rdi
  4022ee:	b0 01                	mov    $0x1,%al
  4022f0:	e8 cb ed ff ff       	call   4010c0 <fprintf@plt>
  4022f5:	c4 c1 7b 10 84 24 10 	vmovsd 0xa0010(%r12),%xmm0
  4022fc:	00 0a 00 
  4022ff:	be 52 90 40 00       	mov    $0x409052,%esi
  402304:	4c 89 ff             	mov    %r15,%rdi
  402307:	b0 01                	mov    $0x1,%al
  402309:	e8 b2 ed ff ff       	call   4010c0 <fprintf@plt>
  40230e:	c4 c1 7b 10 84 24 18 	vmovsd 0xa0018(%r12),%xmm0
  402315:	00 0a 00 
  402318:	be 52 90 40 00       	mov    $0x409052,%esi
  40231d:	4c 89 ff             	mov    %r15,%rdi
  402320:	b0 01                	mov    $0x1,%al
  402322:	e8 99 ed ff ff       	call   4010c0 <fprintf@plt>
  402327:	c4 c1 7b 10 84 24 20 	vmovsd 0xa0020(%r12),%xmm0
  40232e:	00 0a 00 
  402331:	be 52 90 40 00       	mov    $0x409052,%esi
  402336:	4c 89 ff             	mov    %r15,%rdi
  402339:	b0 01                	mov    $0x1,%al
  40233b:	e8 80 ed ff ff       	call   4010c0 <fprintf@plt>
  402340:	c4 c1 7b 10 84 24 28 	vmovsd 0xa0028(%r12),%xmm0
  402347:	00 0a 00 
  40234a:	be 52 90 40 00       	mov    $0x409052,%esi
  40234f:	4c 89 ff             	mov    %r15,%rdi
  402352:	b0 01                	mov    $0x1,%al
  402354:	e8 67 ed ff ff       	call   4010c0 <fprintf@plt>
  402359:	c4 c1 7b 10 84 24 30 	vmovsd 0xa0030(%r12),%xmm0
  402360:	00 0a 00 
  402363:	be 52 90 40 00       	mov    $0x409052,%esi
  402368:	4c 89 ff             	mov    %r15,%rdi
  40236b:	b0 01                	mov    $0x1,%al
  40236d:	e8 4e ed ff ff       	call   4010c0 <fprintf@plt>
  402372:	c4 c1 7b 10 84 24 38 	vmovsd 0xa0038(%r12),%xmm0
  402379:	00 0a 00 
  40237c:	be 52 90 40 00       	mov    $0x409052,%esi
  402381:	4c 89 ff             	mov    %r15,%rdi
  402384:	b0 01                	mov    $0x1,%al
  402386:	e8 35 ed ff ff       	call   4010c0 <fprintf@plt>
  40238b:	c4 c1 7b 10 84 24 40 	vmovsd 0xa0040(%r12),%xmm0
  402392:	00 0a 00 
  402395:	be 52 90 40 00       	mov    $0x409052,%esi
  40239a:	4c 89 ff             	mov    %r15,%rdi
  40239d:	b0 01                	mov    $0x1,%al
  40239f:	e8 1c ed ff ff       	call   4010c0 <fprintf@plt>
  4023a4:	c4 c1 7b 10 84 24 48 	vmovsd 0xa0048(%r12),%xmm0
  4023ab:	00 0a 00 
  4023ae:	be 52 90 40 00       	mov    $0x409052,%esi
  4023b3:	4c 89 ff             	mov    %r15,%rdi
  4023b6:	b0 01                	mov    $0x1,%al
  4023b8:	e8 03 ed ff ff       	call   4010c0 <fprintf@plt>
  4023bd:	bf 0a 00 00 00       	mov    $0xa,%edi
  4023c2:	4c 89 fe             	mov    %r15,%rsi
  4023c5:	e8 e6 ec ff ff       	call   4010b0 <fputc@plt>
  4023ca:	c4 c1 7b 10 84 24 00 	vmovsd 0xb4000(%r12),%xmm0
  4023d1:	40 0b 00 
  4023d4:	be 52 90 40 00       	mov    $0x409052,%esi
  4023d9:	4c 89 ff             	mov    %r15,%rdi
  4023dc:	b0 01                	mov    $0x1,%al
  4023de:	e8 dd ec ff ff       	call   4010c0 <fprintf@plt>
  4023e3:	c4 c1 7b 10 84 24 08 	vmovsd 0xb4008(%r12),%xmm0
  4023ea:	40 0b 00 
  4023ed:	be 52 90 40 00       	mov    $0x409052,%esi
  4023f2:	4c 89 ff             	mov    %r15,%rdi
  4023f5:	b0 01                	mov    $0x1,%al
  4023f7:	e8 c4 ec ff ff       	call   4010c0 <fprintf@plt>
  4023fc:	c4 c1 7b 10 84 24 10 	vmovsd 0xb4010(%r12),%xmm0
  402403:	40 0b 00 
  402406:	be 52 90 40 00       	mov    $0x409052,%esi
  40240b:	4c 89 ff             	mov    %r15,%rdi
  40240e:	b0 01                	mov    $0x1,%al
  402410:	e8 ab ec ff ff       	call   4010c0 <fprintf@plt>
  402415:	c4 c1 7b 10 84 24 18 	vmovsd 0xb4018(%r12),%xmm0
  40241c:	40 0b 00 
  40241f:	be 52 90 40 00       	mov    $0x409052,%esi
  402424:	4c 89 ff             	mov    %r15,%rdi
  402427:	b0 01                	mov    $0x1,%al
  402429:	e8 92 ec ff ff       	call   4010c0 <fprintf@plt>
  40242e:	c4 c1 7b 10 84 24 20 	vmovsd 0xb4020(%r12),%xmm0
  402435:	40 0b 00 
  402438:	be 52 90 40 00       	mov    $0x409052,%esi
  40243d:	4c 89 ff             	mov    %r15,%rdi
  402440:	b0 01                	mov    $0x1,%al
  402442:	e8 79 ec ff ff       	call   4010c0 <fprintf@plt>
  402447:	c4 c1 7b 10 84 24 28 	vmovsd 0xb4028(%r12),%xmm0
  40244e:	40 0b 00 
  402451:	be 52 90 40 00       	mov    $0x409052,%esi
  402456:	4c 89 ff             	mov    %r15,%rdi
  402459:	b0 01                	mov    $0x1,%al
  40245b:	e8 60 ec ff ff       	call   4010c0 <fprintf@plt>
  402460:	c4 c1 7b 10 84 24 30 	vmovsd 0xb4030(%r12),%xmm0
  402467:	40 0b 00 
  40246a:	be 52 90 40 00       	mov    $0x409052,%esi
  40246f:	4c 89 ff             	mov    %r15,%rdi
  402472:	b0 01                	mov    $0x1,%al
  402474:	e8 47 ec ff ff       	call   4010c0 <fprintf@plt>
  402479:	c4 c1 7b 10 84 24 38 	vmovsd 0xb4038(%r12),%xmm0
  402480:	40 0b 00 
  402483:	be 52 90 40 00       	mov    $0x409052,%esi
  402488:	4c 89 ff             	mov    %r15,%rdi
  40248b:	b0 01                	mov    $0x1,%al
  40248d:	e8 2e ec ff ff       	call   4010c0 <fprintf@plt>
  402492:	c4 c1 7b 10 84 24 40 	vmovsd 0xb4040(%r12),%xmm0
  402499:	40 0b 00 
  40249c:	be 52 90 40 00       	mov    $0x409052,%esi
  4024a1:	4c 89 ff             	mov    %r15,%rdi
  4024a4:	b0 01                	mov    $0x1,%al
  4024a6:	e8 15 ec ff ff       	call   4010c0 <fprintf@plt>
  4024ab:	c4 c1 7b 10 84 24 48 	vmovsd 0xb4048(%r12),%xmm0
  4024b2:	40 0b 00 
  4024b5:	be 52 90 40 00       	mov    $0x409052,%esi
  4024ba:	4c 89 ff             	mov    %r15,%rdi
  4024bd:	b0 01                	mov    $0x1,%al
  4024bf:	e8 fc eb ff ff       	call   4010c0 <fprintf@plt>
  4024c4:	bf 0a 00 00 00       	mov    $0xa,%edi
  4024c9:	4c 89 fe             	mov    %r15,%rsi
  4024cc:	e8 df eb ff ff       	call   4010b0 <fputc@plt>
  4024d1:	4c 89 ff             	mov    %r15,%rdi
  4024d4:	e8 97 eb ff ff       	call   401070 <fclose@plt>
  4024d9:	48 89 df             	mov    %rbx,%rdi
  4024dc:	e8 5f eb ff ff       	call   401040 <free@plt>
  4024e1:	48 8b 7c 24 08       	mov    0x8(%rsp),%rdi
  4024e6:	e8 55 eb ff ff       	call   401040 <free@plt>
  4024eb:	48 8b 3c 24          	mov    (%rsp),%rdi
  4024ef:	e8 4c eb ff ff       	call   401040 <free@plt>
  4024f4:	31 c9                	xor    %ecx,%ecx
  4024f6:	e9 b2 f0 ff ff       	jmp    4015ad <main+0x5d>
  4024fb:	90                   	nop
  4024fc:	0f 1f 40 00          	nopl   0x0(%rax)

0000000000402500 <__intel_get_fast_memset_impl.V>:
  402500:	48 c7 c0 90 43 40 00 	mov    $0x404390,%rax
  402507:	c3                   	ret
  402508:	0f 1f 84 00 00 00 00 	nopl   0x0(%rax,%rax,1)
  40250f:	00 

0000000000402510 <__intel_get_fast_memset_impl.Z>:
  402510:	48 c7 c0 c0 2a 40 00 	mov    $0x402ac0,%rax
  402517:	c3                   	ret
  402518:	0f 1f 84 00 00 00 00 	nopl   0x0(%rax,%rax,1)
  40251f:	00 

0000000000402520 <_intel_fast_memset>:
  402520:	f3 0f 1e fa          	endbr64
  402524:	48 8b 05 e5 9b 00 00 	mov    0x9be5(%rip),%rax        # 40c110 <__real_memset_impl>
  40252b:	48 85 c0             	test   %rax,%rax
  40252e:	0f 84 0c 00 00 00    	je     402540 <__real_memset_impl_setup>
  402534:	ff e0                	jmp    *%rax
  402536:	66 2e 0f 1f 84 00 00 	cs nopw 0x0(%rax,%rax,1)
  40253d:	00 00 00 

0000000000402540 <__real_memset_impl_setup>:
  402540:	55                   	push   %rbp
  402541:	41 56                	push   %r14
  402543:	53                   	push   %rbx
  402544:	48 89 d3             	mov    %rdx,%rbx
  402547:	89 f5                	mov    %esi,%ebp
  402549:	49 89 fe             	mov    %rdi,%r14
  40254c:	48 c7 c1 30 c1 40 00 	mov    $0x40c130,%rcx
  402553:	48 8b 01             	mov    (%rcx),%rax
  402556:	48 85 c0             	test   %rax,%rax
  402559:	75 12                	jne    40256d <__real_memset_impl_setup+0x2d>
  40255b:	0f 1f 44 00 00       	nopl   0x0(%rax,%rax,1)
  402560:	e8 bb 4b 00 00       	call   407120 <__intel_cpu_features_init_x>
  402565:	48 8b 01             	mov    (%rcx),%rax
  402568:	48 85 c0             	test   %rax,%rax
  40256b:	74 f3                	je     402560 <__real_memset_impl_setup+0x20>
  40256d:	48 89 c1             	mov    %rax,%rcx
  402570:	48 f7 d1             	not    %rcx
  402573:	48 ba ec 9f 9d 18 07 	movabs $0x7189d9fec,%rdx
  40257a:	00 00 00 
  40257d:	48 85 d1             	test   %rdx,%rcx
  402580:	75 07                	jne    402589 <__real_memset_impl_setup+0x49>
  402582:	e8 89 ff ff ff       	call   402510 <__intel_get_fast_memset_impl.Z>
  402587:	eb 29                	jmp    4025b2 <__real_memset_impl_setup+0x72>
  402589:	89 c1                	mov    %eax,%ecx
  40258b:	f7 d1                	not    %ecx
  40258d:	f7 c1 ec 9f 9d 00    	test   $0x9d9fec,%ecx
  402593:	75 07                	jne    40259c <__real_memset_impl_setup+0x5c>
  402595:	e8 66 ff ff ff       	call   402500 <__intel_get_fast_memset_impl.V>
  40259a:	eb 16                	jmp    4025b2 <__real_memset_impl_setup+0x72>
  40259c:	f7 d0                	not    %eax
  40259e:	a8 6c                	test   $0x6c,%al
  4025a0:	75 09                	jne    4025ab <__real_memset_impl_setup+0x6b>
  4025a2:	48 c7 c0 60 54 40 00 	mov    $0x405460,%rax
  4025a9:	eb 07                	jmp    4025b2 <__real_memset_impl_setup+0x72>
  4025ab:	48 8b 05 0e 9a 00 00 	mov    0x9a0e(%rip),%rax        # 40bfc0 <memset@GLIBC_2.2.5>
  4025b2:	48 89 05 57 9b 00 00 	mov    %rax,0x9b57(%rip)        # 40c110 <__real_memset_impl>
  4025b9:	4c 89 f7             	mov    %r14,%rdi
  4025bc:	89 ee                	mov    %ebp,%esi
  4025be:	48 89 da             	mov    %rbx,%rdx
  4025c1:	5b                   	pop    %rbx
  4025c2:	41 5e                	pop    %r14
  4025c4:	5d                   	pop    %rbp
  4025c5:	ff e0                	jmp    *%rax
  4025c7:	90                   	nop
  4025c8:	0f 1f 84 00 00 00 00 	nopl   0x0(%rax,%rax,1)
  4025cf:	00 

00000000004025d0 <__intel_new_feature_proc_init_n>:
  4025d0:	f3 0f 1e fa          	endbr64
  4025d4:	55                   	push   %rbp
  4025d5:	41 57                	push   %r15
  4025d7:	41 56                	push   %r14
  4025d9:	41 55                	push   %r13
  4025db:	41 54                	push   %r12
  4025dd:	53                   	push   %rbx
  4025de:	48 81 ec 38 04 00 00 	sub    $0x438,%rsp
  4025e5:	64 48 8b 04 25 28 00 	mov    %fs:0x28,%rax
  4025ec:	00 00 
  4025ee:	48 89 84 24 30 04 00 	mov    %rax,0x430(%rsp)
  4025f5:	00 
  4025f6:	0f 57 c0             	xorps  %xmm0,%xmm0
  4025f9:	0f 29 44 24 10       	movaps %xmm0,0x10(%rsp)
  4025fe:	48 c7 c1 20 c1 40 00 	mov    $0x40c120,%rcx
  402605:	48 83 39 00          	cmpq   $0x0,(%rcx)
  402609:	75 17                	jne    402622 <__intel_new_feature_proc_init_n+0x52>
  40260b:	e8 30 40 00 00       	call   406640 <__intel_cpu_features_init>
  402610:	85 c0                	test   %eax,%eax
  402612:	0f 85 0b 02 00 00    	jne    402823 <__intel_new_feature_proc_init_n+0x253>
  402618:	48 83 39 00          	cmpq   $0x0,(%rcx)
  40261c:	0f 84 01 02 00 00    	je     402823 <__intel_new_feature_proc_init_n+0x253>
  402622:	83 ff 02             	cmp    $0x2,%edi
  402625:	7d 38                	jge    40265f <__intel_new_feature_proc_init_n+0x8f>
  402627:	48 63 c7             	movslq %edi,%rax
  40262a:	48 8b 0c c1          	mov    (%rcx,%rax,8),%rcx
  40262e:	48 f7 d1             	not    %rcx
  402631:	48 85 ce             	test   %rcx,%rsi
  402634:	75 48                	jne    40267e <__intel_new_feature_proc_init_n+0xae>
  402636:	64 48 8b 04 25 28 00 	mov    %fs:0x28,%rax
  40263d:	00 00 
  40263f:	48 3b 84 24 30 04 00 	cmp    0x430(%rsp),%rax
  402646:	00 
  402647:	0f 85 e8 02 00 00    	jne    402935 <__intel_new_feature_proc_init_n+0x365>
  40264d:	48 81 c4 38 04 00 00 	add    $0x438,%rsp
  402654:	5b                   	pop    %rbx
  402655:	41 5c                	pop    %r12
  402657:	41 5d                	pop    %r13
  402659:	41 5e                	pop    %r14
  40265b:	41 5f                	pop    %r15
  40265d:	5d                   	pop    %rbp
  40265e:	c3                   	ret
  40265f:	bf 01 00 00 00       	mov    $0x1,%edi
  402664:	31 f6                	xor    %esi,%esi
  402666:	31 d2                	xor    %edx,%edx
  402668:	31 c0                	xor    %eax,%eax
  40266a:	e8 81 61 00 00       	call   4087f0 <__libirc_print>
  40266f:	bf 01 00 00 00       	mov    $0x1,%edi
  402674:	be 3a 00 00 00       	mov    $0x3a,%esi
  402679:	e9 bf 01 00 00       	jmp    40283d <__intel_new_feature_proc_init_n+0x26d>
  40267e:	48 21 f1             	and    %rsi,%rcx
  402681:	48 89 4c c4 10       	mov    %rcx,0x10(%rsp,%rax,8)
  402686:	45 31 ff             	xor    %r15d,%r15d
  402689:	bf 39 00 00 00       	mov    $0x39,%edi
  40268e:	31 f6                	xor    %esi,%esi
  402690:	31 c0                	xor    %eax,%eax
  402692:	e8 19 5f 00 00       	call   4085b0 <__libirc_get_msg>
  402697:	48 89 04 24          	mov    %rax,(%rsp)
  40269b:	c6 44 24 30 00       	movb   $0x0,0x30(%rsp)
  4026a0:	bd 01 00 00 00       	mov    $0x1,%ebp
  4026a5:	4c 8d 64 24 10       	lea    0x10(%rsp),%r12
  4026aa:	4c 8d 6c 24 30       	lea    0x30(%rsp),%r13
  4026af:	31 db                	xor    %ebx,%ebx
  4026b1:	eb 31                	jmp    4026e4 <__intel_new_feature_proc_init_n+0x114>
  4026b3:	b8 ff 03 00 00       	mov    $0x3ff,%eax
  4026b8:	44 29 f8             	sub    %r15d,%eax
  4026bb:	48 63 d0             	movslq %eax,%rdx
  4026be:	b9 00 04 00 00       	mov    $0x400,%ecx
  4026c3:	4c 89 ef             	mov    %r13,%rdi
  4026c6:	4c 89 f6             	mov    %r14,%rsi
  4026c9:	e8 92 ea ff ff       	call   401160 <__strncat_chk@plt>
  4026ce:	4c 89 ef             	mov    %r13,%rdi
  4026d1:	e8 aa e9 ff ff       	call   401080 <strlen@plt>
  4026d6:	49 89 c7             	mov    %rax,%r15
  4026d9:	ff c5                	inc    %ebp
  4026db:	83 fd 47             	cmp    $0x47,%ebp
  4026de:	0f 84 26 01 00 00    	je     40280a <__intel_new_feature_proc_init_n+0x23a>
  4026e4:	89 e8                	mov    %ebp,%eax
  4026e6:	e8 45 55 00 00       	call   407c30 <__libirc_get_feature_bitpos>
  4026eb:	85 c0                	test   %eax,%eax
  4026ed:	78 ea                	js     4026d9 <__intel_new_feature_proc_init_n+0x109>
  4026ef:	4c 89 e7             	mov    %r12,%rdi
  4026f2:	89 ee                	mov    %ebp,%esi
  4026f4:	e8 77 55 00 00       	call   407c70 <__libirc_get_cpu_feature>
  4026f9:	85 c0                	test   %eax,%eax
  4026fb:	74 dc                	je     4026d9 <__intel_new_feature_proc_init_n+0x109>
  4026fd:	4c 89 e7             	mov    %r12,%rdi
  402700:	89 ee                	mov    %ebp,%esi
  402702:	e8 69 55 00 00       	call   407c70 <__libirc_get_cpu_feature>
  402707:	85 c0                	test   %eax,%eax
  402709:	0f 88 e6 00 00 00    	js     4027f5 <__intel_new_feature_proc_init_n+0x225>
  40270f:	89 ef                	mov    %ebp,%edi
  402711:	e8 2a 4a 00 00       	call   407140 <__libirc_get_feature_name>
  402716:	48 85 c0             	test   %rax,%rax
  402719:	0f 84 d6 00 00 00    	je     4027f5 <__intel_new_feature_proc_init_n+0x225>
  40271f:	49 89 c6             	mov    %rax,%r14
  402722:	80 38 00             	cmpb   $0x0,(%rax)
  402725:	0f 84 ca 00 00 00    	je     4027f5 <__intel_new_feature_proc_init_n+0x225>
  40272b:	80 7c 24 30 00       	cmpb   $0x0,0x30(%rsp)
  402730:	74 81                	je     4026b3 <__intel_new_feature_proc_init_n+0xe3>
  402732:	48 85 db             	test   %rbx,%rbx
  402735:	0f 84 b2 00 00 00    	je     4027ed <__intel_new_feature_proc_init_n+0x21d>
  40273b:	4d 89 ec             	mov    %r13,%r12
  40273e:	48 89 df             	mov    %rbx,%rdi
  402741:	e8 3a e9 ff ff       	call   401080 <strlen@plt>
  402746:	49 89 c5             	mov    %rax,%r13
  402749:	48 8d 3d 08 69 00 00 	lea    0x6908(%rip),%rdi        # 409058 <_IO_stdin_used+0x58>
  402750:	e8 2b e9 ff ff       	call   401080 <strlen@plt>
  402755:	48 89 44 24 28       	mov    %rax,0x28(%rsp)
  40275a:	48 89 5c 24 08       	mov    %rbx,0x8(%rsp)
  40275f:	49 63 df             	movslq %r15d,%rbx
  402762:	48 8b 3c 24          	mov    (%rsp),%rdi
  402766:	e8 15 e9 ff ff       	call   401080 <strlen@plt>
  40276b:	49 89 c7             	mov    %rax,%r15
  40276e:	4c 89 f7             	mov    %r14,%rdi
  402771:	e8 0a e9 ff ff       	call   401080 <strlen@plt>
  402776:	49 01 dd             	add    %rbx,%r13
  402779:	4c 03 6c 24 28       	add    0x28(%rsp),%r13
  40277e:	4c 01 f8             	add    %r15,%rax
  402781:	4c 01 e8             	add    %r13,%rax
  402784:	b9 ff 03 00 00       	mov    $0x3ff,%ecx
  402789:	29 d9                	sub    %ebx,%ecx
  40278b:	48 63 d1             	movslq %ecx,%rdx
  40278e:	48 3d ff 03 00 00    	cmp    $0x3ff,%rax
  402794:	0f 87 dd 00 00 00    	ja     402877 <__intel_new_feature_proc_init_n+0x2a7>
  40279a:	b9 00 04 00 00       	mov    $0x400,%ecx
  40279f:	4d 89 e5             	mov    %r12,%r13
  4027a2:	4c 89 e7             	mov    %r12,%rdi
  4027a5:	48 8d 35 ac 68 00 00 	lea    0x68ac(%rip),%rsi        # 409058 <_IO_stdin_used+0x58>
  4027ac:	e8 af e9 ff ff       	call   401160 <__strncat_chk@plt>
  4027b1:	4c 89 e7             	mov    %r12,%rdi
  4027b4:	e8 c7 e8 ff ff       	call   401080 <strlen@plt>
  4027b9:	48 c1 e0 20          	shl    $0x20,%rax
  4027bd:	48 ba 00 00 00 00 ff 	movabs $0x3ff00000000,%rdx
  4027c4:	03 00 00 
  4027c7:	48 29 c2             	sub    %rax,%rdx
  4027ca:	48 c1 fa 20          	sar    $0x20,%rdx
  4027ce:	b9 00 04 00 00       	mov    $0x400,%ecx
  4027d3:	4c 89 e7             	mov    %r12,%rdi
  4027d6:	48 8b 74 24 08       	mov    0x8(%rsp),%rsi
  4027db:	e8 80 e9 ff ff       	call   401160 <__strncat_chk@plt>
  4027e0:	4c 89 f3             	mov    %r14,%rbx
  4027e3:	4c 8d 64 24 10       	lea    0x10(%rsp),%r12
  4027e8:	e9 e1 fe ff ff       	jmp    4026ce <__intel_new_feature_proc_init_n+0xfe>
  4027ed:	4c 89 f3             	mov    %r14,%rbx
  4027f0:	e9 e4 fe ff ff       	jmp    4026d9 <__intel_new_feature_proc_init_n+0x109>
  4027f5:	bf 01 00 00 00       	mov    $0x1,%edi
  4027fa:	31 f6                	xor    %esi,%esi
  4027fc:	31 d2                	xor    %edx,%edx
  4027fe:	31 c0                	xor    %eax,%eax
  402800:	e8 eb 5f 00 00       	call   4087f0 <__libirc_print>
  402805:	e9 ce 00 00 00       	jmp    4028d8 <__intel_new_feature_proc_init_n+0x308>
  40280a:	48 85 db             	test   %rbx,%rbx
  40280d:	0f 84 ac 00 00 00    	je     4028bf <__intel_new_feature_proc_init_n+0x2ef>
  402813:	49 89 dc             	mov    %rbx,%r12
  402816:	b8 ff 03 00 00       	mov    $0x3ff,%eax
  40281b:	44 29 f8             	sub    %r15d,%eax
  40281e:	48 63 d0             	movslq %eax,%rdx
  402821:	eb 59                	jmp    40287c <__intel_new_feature_proc_init_n+0x2ac>
  402823:	bf 01 00 00 00       	mov    $0x1,%edi
  402828:	31 f6                	xor    %esi,%esi
  40282a:	31 d2                	xor    %edx,%edx
  40282c:	31 c0                	xor    %eax,%eax
  40282e:	e8 bd 5f 00 00       	call   4087f0 <__libirc_print>
  402833:	bf 01 00 00 00       	mov    $0x1,%edi
  402838:	be 3b 00 00 00       	mov    $0x3b,%esi
  40283d:	31 d2                	xor    %edx,%edx
  40283f:	31 c0                	xor    %eax,%eax
  402841:	e8 aa 5f 00 00       	call   4087f0 <__libirc_print>
  402846:	64 48 8b 04 25 28 00 	mov    %fs:0x28,%rax
  40284d:	00 00 
  40284f:	48 3b 84 24 30 04 00 	cmp    0x430(%rsp),%rax
  402856:	00 
  402857:	0f 85 d8 00 00 00    	jne    402935 <__intel_new_feature_proc_init_n+0x365>
  40285d:	bf 01 00 00 00       	mov    $0x1,%edi
  402862:	31 f6                	xor    %esi,%esi
  402864:	31 d2                	xor    %edx,%edx
  402866:	31 c0                	xor    %eax,%eax
  402868:	e8 83 5f 00 00       	call   4087f0 <__libirc_print>
  40286d:	bf 01 00 00 00       	mov    $0x1,%edi
  402872:	e8 c9 e8 ff ff       	call   401140 <exit@plt>
  402877:	4c 8b 64 24 08       	mov    0x8(%rsp),%r12
  40287c:	4c 8d 74 24 30       	lea    0x30(%rsp),%r14
  402881:	b9 00 04 00 00       	mov    $0x400,%ecx
  402886:	4c 89 f7             	mov    %r14,%rdi
  402889:	48 8b 34 24          	mov    (%rsp),%rsi
  40288d:	e8 ce e8 ff ff       	call   401160 <__strncat_chk@plt>
  402892:	4c 89 f7             	mov    %r14,%rdi
  402895:	e8 e6 e7 ff ff       	call   401080 <strlen@plt>
  40289a:	48 c1 e0 20          	shl    $0x20,%rax
  40289e:	48 ba 00 00 00 00 ff 	movabs $0x3ff00000000,%rdx
  4028a5:	03 00 00 
  4028a8:	48 29 c2             	sub    %rax,%rdx
  4028ab:	48 c1 fa 20          	sar    $0x20,%rdx
  4028af:	b9 00 04 00 00       	mov    $0x400,%ecx
  4028b4:	4c 89 f7             	mov    %r14,%rdi
  4028b7:	4c 89 e6             	mov    %r12,%rsi
  4028ba:	e8 a1 e8 ff ff       	call   401160 <__strncat_chk@plt>
  4028bf:	0f b6 5c 24 30       	movzbl 0x30(%rsp),%ebx
  4028c4:	bf 01 00 00 00       	mov    $0x1,%edi
  4028c9:	31 f6                	xor    %esi,%esi
  4028cb:	31 d2                	xor    %edx,%edx
  4028cd:	31 c0                	xor    %eax,%eax
  4028cf:	e8 1c 5f 00 00       	call   4087f0 <__libirc_print>
  4028d4:	84 db                	test   %bl,%bl
  4028d6:	75 15                	jne    4028ed <__intel_new_feature_proc_init_n+0x31d>
  4028d8:	bf 01 00 00 00       	mov    $0x1,%edi
  4028dd:	be 3a 00 00 00       	mov    $0x3a,%esi
  4028e2:	31 d2                	xor    %edx,%edx
  4028e4:	31 c0                	xor    %eax,%eax
  4028e6:	e8 05 5f 00 00       	call   4087f0 <__libirc_print>
  4028eb:	eb 1b                	jmp    402908 <__intel_new_feature_proc_init_n+0x338>
  4028ed:	48 8d 4c 24 30       	lea    0x30(%rsp),%rcx
  4028f2:	bf 01 00 00 00       	mov    $0x1,%edi
  4028f7:	be 38 00 00 00       	mov    $0x38,%esi
  4028fc:	ba 01 00 00 00       	mov    $0x1,%edx
  402901:	31 c0                	xor    %eax,%eax
  402903:	e8 e8 5e 00 00       	call   4087f0 <__libirc_print>
  402908:	bf 01 00 00 00       	mov    $0x1,%edi
  40290d:	31 f6                	xor    %esi,%esi
  40290f:	31 d2                	xor    %edx,%edx
  402911:	31 c0                	xor    %eax,%eax
  402913:	e8 d8 5e 00 00       	call   4087f0 <__libirc_print>
  402918:	64 48 8b 04 25 28 00 	mov    %fs:0x28,%rax
  40291f:	00 00 
  402921:	48 3b 84 24 30 04 00 	cmp    0x430(%rsp),%rax
  402928:	00 
  402929:	75 0a                	jne    402935 <__intel_new_feature_proc_init_n+0x365>
  40292b:	bf 01 00 00 00       	mov    $0x1,%edi
  402930:	e8 0b e8 ff ff       	call   401140 <exit@plt>
  402935:	e8 56 e7 ff ff       	call   401090 <__stack_chk_fail@plt>
  40293a:	66 0f 1f 44 00 00    	nopw   0x0(%rax,%rax,1)

0000000000402940 <__intel_new_feature_proc_init>:
  402940:	f3 0f 1e fa          	endbr64
  402944:	53                   	push   %rbx
  402945:	89 fb                	mov    %edi,%ebx
  402947:	31 ff                	xor    %edi,%edi
  402949:	e8 82 fc ff ff       	call   4025d0 <__intel_new_feature_proc_init_n>
  40294e:	48 c7 c7 20 c1 40 00 	mov    $0x40c120,%rdi
  402955:	be 06 00 00 00       	mov    $0x6,%esi
  40295a:	e8 11 53 00 00       	call   407c70 <__libirc_get_cpu_feature>
  40295f:	83 f8 01             	cmp    $0x1,%eax
  402962:	75 0a                	jne    40296e <__intel_new_feature_proc_init+0x2e>
  402964:	31 ff                	xor    %edi,%edi
  402966:	89 de                	mov    %ebx,%esi
  402968:	5b                   	pop    %rbx
  402969:	e9 52 00 00 00       	jmp    4029c0 <__intel_proc_init_ftzdazule>
  40296e:	85 c0                	test   %eax,%eax
  402970:	78 02                	js     402974 <__intel_new_feature_proc_init+0x34>
  402972:	5b                   	pop    %rbx
  402973:	c3                   	ret
  402974:	bf 01 00 00 00       	mov    $0x1,%edi
  402979:	31 f6                	xor    %esi,%esi
  40297b:	31 d2                	xor    %edx,%edx
  40297d:	31 c0                	xor    %eax,%eax
  40297f:	e8 6c 5e 00 00       	call   4087f0 <__libirc_print>
  402984:	bf 01 00 00 00       	mov    $0x1,%edi
  402989:	be 3a 00 00 00       	mov    $0x3a,%esi
  40298e:	31 d2                	xor    %edx,%edx
  402990:	31 c0                	xor    %eax,%eax
  402992:	e8 59 5e 00 00       	call   4087f0 <__libirc_print>
  402997:	bf 01 00 00 00       	mov    $0x1,%edi
  40299c:	31 f6                	xor    %esi,%esi
  40299e:	31 d2                	xor    %edx,%edx
  4029a0:	31 c0                	xor    %eax,%eax
  4029a2:	e8 49 5e 00 00       	call   4087f0 <__libirc_print>
  4029a7:	bf 01 00 00 00       	mov    $0x1,%edi
  4029ac:	e8 8f e7 ff ff       	call   401140 <exit@plt>
  4029b1:	0f 1f 00             	nopl   (%rax)
  4029b4:	66 2e 0f 1f 84 00 00 	cs nopw 0x0(%rax,%rax,1)
  4029bb:	00 00 00 
  4029be:	66 90                	xchg   %ax,%ax

00000000004029c0 <__intel_proc_init_ftzdazule>:
  4029c0:	f3 0f 1e fa          	endbr64
  4029c4:	55                   	push   %rbp
  4029c5:	41 56                	push   %r14
  4029c7:	53                   	push   %rbx
  4029c8:	48 81 ec 20 02 00 00 	sub    $0x220,%rsp
  4029cf:	89 f3                	mov    %esi,%ebx
  4029d1:	41 89 f6             	mov    %esi,%r14d
  4029d4:	41 83 e6 04          	and    $0x4,%r14d
  4029d8:	89 f5                	mov    %esi,%ebp
  4029da:	83 e5 02             	and    $0x2,%ebp
  4029dd:	74 07                	je     4029e6 <__intel_proc_init_ftzdazule+0x26>
  4029df:	89 f8                	mov    %edi,%eax
  4029e1:	83 e0 02             	and    $0x2,%eax
  4029e4:	74 12                	je     4029f8 <__intel_proc_init_ftzdazule+0x38>
  4029e6:	31 c0                	xor    %eax,%eax
  4029e8:	45 85 f6             	test   %r14d,%r14d
  4029eb:	74 38                	je     402a25 <__intel_proc_init_ftzdazule+0x65>
  4029ed:	b8 01 00 00 00       	mov    $0x1,%eax
  4029f2:	40 f6 c7 04          	test   $0x4,%dil
  4029f6:	75 2d                	jne    402a25 <__intel_proc_init_ftzdazule+0x65>
  4029f8:	48 8d 7c 24 20       	lea    0x20(%rsp),%rdi
  4029fd:	ba 00 02 00 00       	mov    $0x200,%edx
  402a02:	31 f6                	xor    %esi,%esi
  402a04:	e8 67 e7 ff ff       	call   401170 <memset@plt>
  402a09:	0f ae 44 24 20       	fxsave 0x20(%rsp)
  402a0e:	8b 44 24 3c          	mov    0x3c(%rsp),%eax
  402a12:	89 c1                	mov    %eax,%ecx
  402a14:	c1 e1 19             	shl    $0x19,%ecx
  402a17:	c1 f9 1f             	sar    $0x1f,%ecx
  402a1a:	21 cd                	and    %ecx,%ebp
  402a1c:	c1 e0 0e             	shl    $0xe,%eax
  402a1f:	c1 f8 1f             	sar    $0x1f,%eax
  402a22:	44 21 f0             	and    %r14d,%eax
  402a25:	f6 c3 01             	test   $0x1,%bl
  402a28:	74 17                	je     402a41 <__intel_proc_init_ftzdazule+0x81>
  402a2a:	0f ae 5c 24 1c       	stmxcsr 0x1c(%rsp)
  402a2f:	b9 00 80 00 00       	mov    $0x8000,%ecx
  402a34:	0b 4c 24 1c          	or     0x1c(%rsp),%ecx
  402a38:	89 4c 24 18          	mov    %ecx,0x18(%rsp)
  402a3c:	0f ae 54 24 18       	ldmxcsr 0x18(%rsp)
  402a41:	85 ed                	test   %ebp,%ebp
  402a43:	74 15                	je     402a5a <__intel_proc_init_ftzdazule+0x9a>
  402a45:	0f ae 5c 24 14       	stmxcsr 0x14(%rsp)
  402a4a:	8b 4c 24 14          	mov    0x14(%rsp),%ecx
  402a4e:	83 c9 40             	or     $0x40,%ecx
  402a51:	89 4c 24 10          	mov    %ecx,0x10(%rsp)
  402a55:	0f ae 54 24 10       	ldmxcsr 0x10(%rsp)
  402a5a:	85 c0                	test   %eax,%eax
  402a5c:	74 17                	je     402a75 <__intel_proc_init_ftzdazule+0xb5>
  402a5e:	0f ae 5c 24 0c       	stmxcsr 0xc(%rsp)
  402a63:	b8 00 00 02 00       	mov    $0x20000,%eax
  402a68:	0b 44 24 0c          	or     0xc(%rsp),%eax
  402a6c:	89 44 24 08          	mov    %eax,0x8(%rsp)
  402a70:	0f ae 54 24 08       	ldmxcsr 0x8(%rsp)
  402a75:	48 81 c4 20 02 00 00 	add    $0x220,%rsp
  402a7c:	5b                   	pop    %rbx
  402a7d:	41 5e                	pop    %r14
  402a7f:	5d                   	pop    %rbp
  402a80:	c3                   	ret
  402a81:	0f 1f 00             	nopl   (%rax)
  402a84:	66 2e 0f 1f 84 00 00 	cs nopw 0x0(%rax,%rax,1)
  402a8b:	00 00 00 
  402a8e:	66 2e 0f 1f 84 00 00 	cs nopw 0x0(%rax,%rax,1)
  402a95:	00 00 00 
  402a98:	66 2e 0f 1f 84 00 00 	cs nopw 0x0(%rax,%rax,1)
  402a9f:	00 00 00 
  402aa2:	66 2e 0f 1f 84 00 00 	cs nopw 0x0(%rax,%rax,1)
  402aa9:	00 00 00 
  402aac:	66 2e 0f 1f 84 00 00 	cs nopw 0x0(%rax,%rax,1)
  402ab3:	00 00 00 
  402ab6:	66 2e 0f 1f 84 00 00 	cs nopw 0x0(%rax,%rax,1)
  402abd:	00 00 00 

0000000000402ac0 <__intel_mic_avx512f_memset>:
  402ac0:	f3 0f 1e fa          	endbr64
  402ac4:	48 89 f8             	mov    %rdi,%rax
  402ac7:	48 c7 c1 d0 c0 40 00 	mov    $0x40c0d0,%rcx
  402ace:	49 b8 01 01 01 01 01 	movabs $0x101010101010101,%r8
  402ad5:	01 01 01 
  402ad8:	4c 0f b6 ce          	movzbq %sil,%r9
  402adc:	4d 0f af c8          	imul   %r8,%r9
  402ae0:	48 8d 35 99 14 00 00 	lea    0x1499(%rip),%rsi        # 403f80 <__intel_mic_avx512f_memset+0x14c0>
  402ae7:	62 d2 7d 48 7c c1    	vpbroadcastd %r9d,%zmm0
  402aed:	48 81 fa 80 00 00 00 	cmp    $0x80,%rdx
  402af4:	7d 0c                	jge    402b02 <__intel_mic_avx512f_memset+0x42>
  402af6:	49 89 f8             	mov    %rdi,%r8
  402af9:	49 01 d0             	add    %rdx,%r8
  402afc:	48 2b 34 d6          	sub    (%rsi,%rdx,8),%rsi
  402b00:	ff e6                	jmp    *%rsi
  402b02:	48 8d 35 77 02 00 00 	lea    0x277(%rip),%rsi        # 402d80 <__intel_mic_avx512f_memset+0x2c0>
  402b09:	49 89 fa             	mov    %rdi,%r10
  402b0c:	49 f7 da             	neg    %r10
  402b0f:	49 83 c2 40          	add    $0x40,%r10
  402b13:	49 83 e2 3f          	and    $0x3f,%r10
  402b17:	74 12                	je     402b2b <__intel_mic_avx512f_memset+0x6b>
  402b19:	4c 29 d2             	sub    %r10,%rdx
  402b1c:	49 89 f8             	mov    %rdi,%r8
  402b1f:	4d 01 d0             	add    %r10,%r8
  402b22:	4a 2b 34 d6          	sub    (%rsi,%r10,8),%rsi
  402b26:	ff e6                	jmp    *%rsi
  402b28:	4c 01 d7             	add    %r10,%rdi
  402b2b:	48 81 fa 00 02 00 00 	cmp    $0x200,%rdx
  402b32:	0f 8c 21 01 00 00    	jl     402c59 <__intel_mic_avx512f_memset+0x199>
  402b38:	48 3b 11             	cmp    (%rcx),%rdx
  402b3b:	73 53                	jae    402b90 <__intel_mic_avx512f_memset+0xd0>
  402b3d:	62 f1 7c 48 29 07    	vmovaps %zmm0,(%rdi)
  402b43:	62 f1 7c 48 29 47 01 	vmovaps %zmm0,0x40(%rdi)
  402b4a:	62 f1 7c 48 29 47 02 	vmovaps %zmm0,0x80(%rdi)
  402b51:	62 f1 7c 48 29 47 03 	vmovaps %zmm0,0xc0(%rdi)
  402b58:	48 8d bf 00 02 00 00 	lea    0x200(%rdi),%rdi
  402b5f:	48 81 ea 00 02 00 00 	sub    $0x200,%rdx
  402b66:	62 f1 7c 48 29 47 fc 	vmovaps %zmm0,-0x100(%rdi)
  402b6d:	62 f1 7c 48 29 47 fd 	vmovaps %zmm0,-0xc0(%rdi)
  402b74:	62 f1 7c 48 29 47 fe 	vmovaps %zmm0,-0x80(%rdi)
  402b7b:	62 f1 7c 48 29 47 ff 	vmovaps %zmm0,-0x40(%rdi)
  402b82:	48 81 fa 00 02 00 00 	cmp    $0x200,%rdx
  402b89:	7d b2                	jge    402b3d <__intel_mic_avx512f_memset+0x7d>
  402b8b:	e9 c9 00 00 00       	jmp    402c59 <__intel_mic_avx512f_memset+0x199>
  402b90:	62 f1 7d 48 e7 07    	vmovntdq %zmm0,(%rdi)
  402b96:	62 f1 7d 48 e7 47 01 	vmovntdq %zmm0,0x40(%rdi)
  402b9d:	62 f1 7d 48 e7 47 02 	vmovntdq %zmm0,0x80(%rdi)
  402ba4:	62 f1 7d 48 e7 47 03 	vmovntdq %zmm0,0xc0(%rdi)
  402bab:	48 8d bf 00 02 00 00 	lea    0x200(%rdi),%rdi
  402bb2:	48 81 ea 00 02 00 00 	sub    $0x200,%rdx
  402bb9:	62 f1 7d 48 e7 47 fc 	vmovntdq %zmm0,-0x100(%rdi)
  402bc0:	62 f1 7d 48 e7 47 fd 	vmovntdq %zmm0,-0xc0(%rdi)
  402bc7:	62 f1 7d 48 e7 47 fe 	vmovntdq %zmm0,-0x80(%rdi)
  402bce:	62 f1 7d 48 e7 47 ff 	vmovntdq %zmm0,-0x40(%rdi)
  402bd5:	48 81 fa 00 02 00 00 	cmp    $0x200,%rdx
  402bdc:	7d b2                	jge    402b90 <__intel_mic_avx512f_memset+0xd0>
  402bde:	0f ae f8             	sfence
  402be1:	eb 76                	jmp    402c59 <__intel_mic_avx512f_memset+0x199>
  402be3:	44 88 0f             	mov    %r9b,(%rdi)
  402be6:	e9 3d ff ff ff       	jmp    402b28 <__intel_mic_avx512f_memset+0x68>
  402beb:	66 44 89 0f          	mov    %r9w,(%rdi)
  402bef:	e9 34 ff ff ff       	jmp    402b28 <__intel_mic_avx512f_memset+0x68>
  402bf4:	66 44 89 0f          	mov    %r9w,(%rdi)
  402bf8:	44 88 4f 02          	mov    %r9b,0x2(%rdi)
  402bfc:	e9 27 ff ff ff       	jmp    402b28 <__intel_mic_avx512f_memset+0x68>
  402c01:	44 89 0f             	mov    %r9d,(%rdi)
  402c04:	e9 1f ff ff ff       	jmp    402b28 <__intel_mic_avx512f_memset+0x68>
  402c09:	44 89 0f             	mov    %r9d,(%rdi)
  402c0c:	45 89 48 fc          	mov    %r9d,-0x4(%r8)
  402c10:	e9 13 ff ff ff       	jmp    402b28 <__intel_mic_avx512f_memset+0x68>
  402c15:	4c 89 0f             	mov    %r9,(%rdi)
  402c18:	e9 0b ff ff ff       	jmp    402b28 <__intel_mic_avx512f_memset+0x68>
  402c1d:	4c 89 0f             	mov    %r9,(%rdi)
  402c20:	4d 89 48 f8          	mov    %r9,-0x8(%r8)
  402c24:	e9 ff fe ff ff       	jmp    402b28 <__intel_mic_avx512f_memset+0x68>
  402c29:	c5 f8 11 07          	vmovups %xmm0,(%rdi)
  402c2d:	e9 f6 fe ff ff       	jmp    402b28 <__intel_mic_avx512f_memset+0x68>
  402c32:	c5 f8 11 07          	vmovups %xmm0,(%rdi)
  402c36:	c4 c1 78 11 40 f0    	vmovups %xmm0,-0x10(%r8)
  402c3c:	e9 e7 fe ff ff       	jmp    402b28 <__intel_mic_avx512f_memset+0x68>
  402c41:	c5 fc 11 07          	vmovups %ymm0,(%rdi)
  402c45:	e9 de fe ff ff       	jmp    402b28 <__intel_mic_avx512f_memset+0x68>
  402c4a:	c5 fc 11 07          	vmovups %ymm0,(%rdi)
  402c4e:	c4 c1 7c 11 40 e0    	vmovups %ymm0,-0x20(%r8)
  402c54:	e9 cf fe ff ff       	jmp    402b28 <__intel_mic_avx512f_memset+0x68>
  402c59:	49 89 f8             	mov    %rdi,%r8
  402c5c:	49 01 d0             	add    %rdx,%r8
  402c5f:	48 01 d7             	add    %rdx,%rdi
  402c62:	48 83 e7 c0          	and    $0xffffffffffffffc0,%rdi
  402c66:	48 8d 35 13 03 00 00 	lea    0x313(%rip),%rsi        # 402f80 <__intel_mic_avx512f_memset+0x4c0>
  402c6d:	48 2b 34 d6          	sub    (%rsi,%rdx,8),%rsi
  402c71:	ff e6                	jmp    *%rsi
  402c73:	62 f1 7c 48 29 47 f9 	vmovaps %zmm0,-0x1c0(%rdi)
  402c7a:	62 f1 7c 48 29 47 fa 	vmovaps %zmm0,-0x180(%rdi)
  402c81:	62 f1 7c 48 29 47 fb 	vmovaps %zmm0,-0x140(%rdi)
  402c88:	62 f1 7c 48 29 47 fc 	vmovaps %zmm0,-0x100(%rdi)
  402c8f:	62 f1 7c 48 29 47 fd 	vmovaps %zmm0,-0xc0(%rdi)
  402c96:	62 f1 7c 48 29 47 fe 	vmovaps %zmm0,-0x80(%rdi)
  402c9d:	62 f1 7c 48 29 47 ff 	vmovaps %zmm0,-0x40(%rdi)
  402ca4:	4c 89 c2             	mov    %r8,%rdx
  402ca7:	48 83 e2 3f          	and    $0x3f,%rdx
  402cab:	48 8d 35 ce 02 00 00 	lea    0x2ce(%rip),%rsi        # 402f80 <__intel_mic_avx512f_memset+0x4c0>
  402cb2:	48 2b 34 d6          	sub    (%rsi,%rdx,8),%rsi
  402cb6:	ff e6                	jmp    *%rsi
  402cb8:	44 88 0f             	mov    %r9b,(%rdi)
  402cbb:	e9 c0 16 00 00       	jmp    404380 <__intel_mic_avx512f_memset+0x18c0>
  402cc0:	e9 bb 16 00 00       	jmp    404380 <__intel_mic_avx512f_memset+0x18c0>
  402cc5:	66 44 89 0f          	mov    %r9w,(%rdi)
  402cc9:	e9 b2 16 00 00       	jmp    404380 <__intel_mic_avx512f_memset+0x18c0>
  402cce:	66 44 89 0f          	mov    %r9w,(%rdi)
  402cd2:	44 88 4f 02          	mov    %r9b,0x2(%rdi)
  402cd6:	e9 a5 16 00 00       	jmp    404380 <__intel_mic_avx512f_memset+0x18c0>
  402cdb:	44 89 0f             	mov    %r9d,(%rdi)
  402cde:	e9 9d 16 00 00       	jmp    404380 <__intel_mic_avx512f_memset+0x18c0>
  402ce3:	44 89 0f             	mov    %r9d,(%rdi)
  402ce6:	45 89 48 fc          	mov    %r9d,-0x4(%r8)
  402cea:	e9 91 16 00 00       	jmp    404380 <__intel_mic_avx512f_memset+0x18c0>
  402cef:	4c 89 0f             	mov    %r9,(%rdi)
  402cf2:	e9 89 16 00 00       	jmp    404380 <__intel_mic_avx512f_memset+0x18c0>
  402cf7:	4c 89 0f             	mov    %r9,(%rdi)
  402cfa:	4d 89 48 f8          	mov    %r9,-0x8(%r8)
  402cfe:	e9 7d 16 00 00       	jmp    404380 <__intel_mic_avx512f_memset+0x18c0>
  402d03:	c5 f8 11 07          	vmovups %xmm0,(%rdi)
  402d07:	e9 74 16 00 00       	jmp    404380 <__intel_mic_avx512f_memset+0x18c0>
  402d0c:	c5 f8 11 07          	vmovups %xmm0,(%rdi)
  402d10:	c4 c1 78 11 40 f0    	vmovups %xmm0,-0x10(%r8)
  402d16:	e9 65 16 00 00       	jmp    404380 <__intel_mic_avx512f_memset+0x18c0>
  402d1b:	c5 fc 11 07          	vmovups %ymm0,(%rdi)
  402d1f:	e9 5c 16 00 00       	jmp    404380 <__intel_mic_avx512f_memset+0x18c0>
  402d24:	c5 fc 11 07          	vmovups %ymm0,(%rdi)
  402d28:	c4 c1 7c 11 40 e0    	vmovups %ymm0,-0x20(%r8)
  402d2e:	e9 4d 16 00 00       	jmp    404380 <__intel_mic_avx512f_memset+0x18c0>
  402d33:	62 f1 7c 48 11 07    	vmovups %zmm0,(%rdi)
  402d39:	e9 42 16 00 00       	jmp    404380 <__intel_mic_avx512f_memset+0x18c0>
  402d3e:	62 f1 7c 48 11 07    	vmovups %zmm0,(%rdi)
  402d44:	62 d1 7c 48 11 40 ff 	vmovups %zmm0,-0x40(%r8)
  402d4b:	e9 30 16 00 00       	jmp    404380 <__intel_mic_avx512f_memset+0x18c0>
  402d50:	66 66 66 66 66 66 2e 	data16 data16 data16 data16 data16 cs nopw 0x0(%rax,%rax,1)
  402d57:	0f 1f 84 00 00 00 00 
  402d5e:	00 
  402d5f:	66 66 66 66 66 66 2e 	data16 data16 data16 data16 data16 cs nopw 0x0(%rax,%rax,1)
  402d66:	0f 1f 84 00 00 00 00 
  402d6d:	00 
  402d6e:	66 66 66 66 66 66 2e 	data16 data16 data16 data16 data16 cs nopw 0x0(%rax,%rax,1)
  402d75:	0f 1f 84 00 00 00 00 
  402d7c:	00 
  402d7d:	0f 1f 00             	nopl   (%rax)
  402d80:	9a                   	(bad)
  402d81:	01 00                	add    %eax,(%rax)
  402d83:	00 00                	add    %al,(%rax)
  402d85:	00 00                	add    %al,(%rax)
  402d87:	00 9d 01 00 00 00    	add    %bl,0x1(%rbp)
  402d8d:	00 00                	add    %al,(%rax)
  402d8f:	00 95 01 00 00 00    	add    %dl,0x1(%rbp)
  402d95:	00 00                	add    %al,(%rax)
  402d97:	00 8c 01 00 00 00 00 	add    %cl,0x0(%rcx,%rax,1)
  402d9e:	00 00                	add    %al,(%rax)
  402da0:	7f 01                	jg     402da3 <__intel_mic_avx512f_memset+0x2e3>
  402da2:	00 00                	add    %al,(%rax)
  402da4:	00 00                	add    %al,(%rax)
  402da6:	00 00                	add    %al,(%rax)
  402da8:	77 01                	ja     402dab <__intel_mic_avx512f_memset+0x2eb>
  402daa:	00 00                	add    %al,(%rax)
  402dac:	00 00                	add    %al,(%rax)
  402dae:	00 00                	add    %al,(%rax)
  402db0:	77 01                	ja     402db3 <__intel_mic_avx512f_memset+0x2f3>
  402db2:	00 00                	add    %al,(%rax)
  402db4:	00 00                	add    %al,(%rax)
  402db6:	00 00                	add    %al,(%rax)
  402db8:	77 01                	ja     402dbb <__intel_mic_avx512f_memset+0x2fb>
  402dba:	00 00                	add    %al,(%rax)
  402dbc:	00 00                	add    %al,(%rax)
  402dbe:	00 00                	add    %al,(%rax)
  402dc0:	6b 01 00             	imul   $0x0,(%rcx),%eax
  402dc3:	00 00                	add    %al,(%rax)
  402dc5:	00 00                	add    %al,(%rax)
  402dc7:	00 63 01             	add    %ah,0x1(%rbx)
  402dca:	00 00                	add    %al,(%rax)
  402dcc:	00 00                	add    %al,(%rax)
  402dce:	00 00                	add    %al,(%rax)
  402dd0:	63 01                	movsxd (%rcx),%eax
  402dd2:	00 00                	add    %al,(%rax)
  402dd4:	00 00                	add    %al,(%rax)
  402dd6:	00 00                	add    %al,(%rax)
  402dd8:	63 01                	movsxd (%rcx),%eax
  402dda:	00 00                	add    %al,(%rax)
  402ddc:	00 00                	add    %al,(%rax)
  402dde:	00 00                	add    %al,(%rax)
  402de0:	63 01                	movsxd (%rcx),%eax
  402de2:	00 00                	add    %al,(%rax)
  402de4:	00 00                	add    %al,(%rax)
  402de6:	00 00                	add    %al,(%rax)
  402de8:	63 01                	movsxd (%rcx),%eax
  402dea:	00 00                	add    %al,(%rax)
  402dec:	00 00                	add    %al,(%rax)
  402dee:	00 00                	add    %al,(%rax)
  402df0:	63 01                	movsxd (%rcx),%eax
  402df2:	00 00                	add    %al,(%rax)
  402df4:	00 00                	add    %al,(%rax)
  402df6:	00 00                	add    %al,(%rax)
  402df8:	63 01                	movsxd (%rcx),%eax
  402dfa:	00 00                	add    %al,(%rax)
  402dfc:	00 00                	add    %al,(%rax)
  402dfe:	00 00                	add    %al,(%rax)
  402e00:	57                   	push   %rdi
  402e01:	01 00                	add    %eax,(%rax)
  402e03:	00 00                	add    %al,(%rax)
  402e05:	00 00                	add    %al,(%rax)
  402e07:	00 4e 01             	add    %cl,0x1(%rsi)
  402e0a:	00 00                	add    %al,(%rax)
  402e0c:	00 00                	add    %al,(%rax)
  402e0e:	00 00                	add    %al,(%rax)
  402e10:	4e 01 00             	rex.WRX add %r8,(%rax)
  402e13:	00 00                	add    %al,(%rax)
  402e15:	00 00                	add    %al,(%rax)
  402e17:	00 4e 01             	add    %cl,0x1(%rsi)
  402e1a:	00 00                	add    %al,(%rax)
  402e1c:	00 00                	add    %al,(%rax)
  402e1e:	00 00                	add    %al,(%rax)
  402e20:	4e 01 00             	rex.WRX add %r8,(%rax)
  402e23:	00 00                	add    %al,(%rax)
  402e25:	00 00                	add    %al,(%rax)
  402e27:	00 4e 01             	add    %cl,0x1(%rsi)
  402e2a:	00 00                	add    %al,(%rax)
  402e2c:	00 00                	add    %al,(%rax)
  402e2e:	00 00                	add    %al,(%rax)
  402e30:	4e 01 00             	rex.WRX add %r8,(%rax)
  402e33:	00 00                	add    %al,(%rax)
  402e35:	00 00                	add    %al,(%rax)
  402e37:	00 4e 01             	add    %cl,0x1(%rsi)
  402e3a:	00 00                	add    %al,(%rax)
  402e3c:	00 00                	add    %al,(%rax)
  402e3e:	00 00                	add    %al,(%rax)
  402e40:	4e 01 00             	rex.WRX add %r8,(%rax)
  402e43:	00 00                	add    %al,(%rax)
  402e45:	00 00                	add    %al,(%rax)
  402e47:	00 4e 01             	add    %cl,0x1(%rsi)
  402e4a:	00 00                	add    %al,(%rax)
  402e4c:	00 00                	add    %al,(%rax)
  402e4e:	00 00                	add    %al,(%rax)
  402e50:	4e 01 00             	rex.WRX add %r8,(%rax)
  402e53:	00 00                	add    %al,(%rax)
  402e55:	00 00                	add    %al,(%rax)
  402e57:	00 4e 01             	add    %cl,0x1(%rsi)
  402e5a:	00 00                	add    %al,(%rax)
  402e5c:	00 00                	add    %al,(%rax)
  402e5e:	00 00                	add    %al,(%rax)
  402e60:	4e 01 00             	rex.WRX add %r8,(%rax)
  402e63:	00 00                	add    %al,(%rax)
  402e65:	00 00                	add    %al,(%rax)
  402e67:	00 4e 01             	add    %cl,0x1(%rsi)
  402e6a:	00 00                	add    %al,(%rax)
  402e6c:	00 00                	add    %al,(%rax)
  402e6e:	00 00                	add    %al,(%rax)
  402e70:	4e 01 00             	rex.WRX add %r8,(%rax)
  402e73:	00 00                	add    %al,(%rax)
  402e75:	00 00                	add    %al,(%rax)
  402e77:	00 4e 01             	add    %cl,0x1(%rsi)
  402e7a:	00 00                	add    %al,(%rax)
  402e7c:	00 00                	add    %al,(%rax)
  402e7e:	00 00                	add    %al,(%rax)
  402e80:	3f                   	(bad)
  402e81:	01 00                	add    %eax,(%rax)
  402e83:	00 00                	add    %al,(%rax)
  402e85:	00 00                	add    %al,(%rax)
  402e87:	00 36                	add    %dh,(%rsi)
  402e89:	01 00                	add    %eax,(%rax)
  402e8b:	00 00                	add    %al,(%rax)
  402e8d:	00 00                	add    %al,(%rax)
  402e8f:	00 36                	add    %dh,(%rsi)
  402e91:	01 00                	add    %eax,(%rax)
  402e93:	00 00                	add    %al,(%rax)
  402e95:	00 00                	add    %al,(%rax)
  402e97:	00 36                	add    %dh,(%rsi)
  402e99:	01 00                	add    %eax,(%rax)
  402e9b:	00 00                	add    %al,(%rax)
  402e9d:	00 00                	add    %al,(%rax)
  402e9f:	00 36                	add    %dh,(%rsi)
  402ea1:	01 00                	add    %eax,(%rax)
  402ea3:	00 00                	add    %al,(%rax)
  402ea5:	00 00                	add    %al,(%rax)
  402ea7:	00 36                	add    %dh,(%rsi)
  402ea9:	01 00                	add    %eax,(%rax)
  402eab:	00 00                	add    %al,(%rax)
  402ead:	00 00                	add    %al,(%rax)
  402eaf:	00 36                	add    %dh,(%rsi)
  402eb1:	01 00                	add    %eax,(%rax)
  402eb3:	00 00                	add    %al,(%rax)
  402eb5:	00 00                	add    %al,(%rax)
  402eb7:	00 36                	add    %dh,(%rsi)
  402eb9:	01 00                	add    %eax,(%rax)
  402ebb:	00 00                	add    %al,(%rax)
  402ebd:	00 00                	add    %al,(%rax)
  402ebf:	00 36                	add    %dh,(%rsi)
  402ec1:	01 00                	add    %eax,(%rax)
  402ec3:	00 00                	add    %al,(%rax)
  402ec5:	00 00                	add    %al,(%rax)
  402ec7:	00 36                	add    %dh,(%rsi)
  402ec9:	01 00                	add    %eax,(%rax)
  402ecb:	00 00                	add    %al,(%rax)
  402ecd:	00 00                	add    %al,(%rax)
  402ecf:	00 36                	add    %dh,(%rsi)
  402ed1:	01 00                	add    %eax,(%rax)
  402ed3:	00 00                	add    %al,(%rax)
  402ed5:	00 00                	add    %al,(%rax)
  402ed7:	00 36                	add    %dh,(%rsi)
  402ed9:	01 00                	add    %eax,(%rax)
  402edb:	00 00                	add    %al,(%rax)
  402edd:	00 00                	add    %al,(%rax)
  402edf:	00 36                	add    %dh,(%rsi)
  402ee1:	01 00                	add    %eax,(%rax)
  402ee3:	00 00                	add    %al,(%rax)
  402ee5:	00 00                	add    %al,(%rax)
  402ee7:	00 36                	add    %dh,(%rsi)
  402ee9:	01 00                	add    %eax,(%rax)
  402eeb:	00 00                	add    %al,(%rax)
  402eed:	00 00                	add    %al,(%rax)
  402eef:	00 36                	add    %dh,(%rsi)
  402ef1:	01 00                	add    %eax,(%rax)
  402ef3:	00 00                	add    %al,(%rax)
  402ef5:	00 00                	add    %al,(%rax)
  402ef7:	00 36                	add    %dh,(%rsi)
  402ef9:	01 00                	add    %eax,(%rax)
  402efb:	00 00                	add    %al,(%rax)
  402efd:	00 00                	add    %al,(%rax)
  402eff:	00 36                	add    %dh,(%rsi)
  402f01:	01 00                	add    %eax,(%rax)
  402f03:	00 00                	add    %al,(%rax)
  402f05:	00 00                	add    %al,(%rax)
  402f07:	00 36                	add    %dh,(%rsi)
  402f09:	01 00                	add    %eax,(%rax)
  402f0b:	00 00                	add    %al,(%rax)
  402f0d:	00 00                	add    %al,(%rax)
  402f0f:	00 36                	add    %dh,(%rsi)
  402f11:	01 00                	add    %eax,(%rax)
  402f13:	00 00                	add    %al,(%rax)
  402f15:	00 00                	add    %al,(%rax)
  402f17:	00 36                	add    %dh,(%rsi)
  402f19:	01 00                	add    %eax,(%rax)
  402f1b:	00 00                	add    %al,(%rax)
  402f1d:	00 00                	add    %al,(%rax)
  402f1f:	00 36                	add    %dh,(%rsi)
  402f21:	01 00                	add    %eax,(%rax)
  402f23:	00 00                	add    %al,(%rax)
  402f25:	00 00                	add    %al,(%rax)
  402f27:	00 36                	add    %dh,(%rsi)
  402f29:	01 00                	add    %eax,(%rax)
  402f2b:	00 00                	add    %al,(%rax)
  402f2d:	00 00                	add    %al,(%rax)
  402f2f:	00 36                	add    %dh,(%rsi)
  402f31:	01 00                	add    %eax,(%rax)
  402f33:	00 00                	add    %al,(%rax)
  402f35:	00 00                	add    %al,(%rax)
  402f37:	00 36                	add    %dh,(%rsi)
  402f39:	01 00                	add    %eax,(%rax)
  402f3b:	00 00                	add    %al,(%rax)
  402f3d:	00 00                	add    %al,(%rax)
  402f3f:	00 36                	add    %dh,(%rsi)
  402f41:	01 00                	add    %eax,(%rax)
  402f43:	00 00                	add    %al,(%rax)
  402f45:	00 00                	add    %al,(%rax)
  402f47:	00 36                	add    %dh,(%rsi)
  402f49:	01 00                	add    %eax,(%rax)
  402f4b:	00 00                	add    %al,(%rax)
  402f4d:	00 00                	add    %al,(%rax)
  402f4f:	00 36                	add    %dh,(%rsi)
  402f51:	01 00                	add    %eax,(%rax)
  402f53:	00 00                	add    %al,(%rax)
  402f55:	00 00                	add    %al,(%rax)
  402f57:	00 36                	add    %dh,(%rsi)
  402f59:	01 00                	add    %eax,(%rax)
  402f5b:	00 00                	add    %al,(%rax)
  402f5d:	00 00                	add    %al,(%rax)
  402f5f:	00 36                	add    %dh,(%rsi)
  402f61:	01 00                	add    %eax,(%rax)
  402f63:	00 00                	add    %al,(%rax)
  402f65:	00 00                	add    %al,(%rax)
  402f67:	00 36                	add    %dh,(%rsi)
  402f69:	01 00                	add    %eax,(%rax)
  402f6b:	00 00                	add    %al,(%rax)
  402f6d:	00 00                	add    %al,(%rax)
  402f6f:	00 36                	add    %dh,(%rsi)
  402f71:	01 00                	add    %eax,(%rax)
  402f73:	00 00                	add    %al,(%rax)
  402f75:	00 00                	add    %al,(%rax)
  402f77:	00 36                	add    %dh,(%rsi)
  402f79:	01 00                	add    %eax,(%rax)
  402f7b:	00 00                	add    %al,(%rax)
  402f7d:	00 00                	add    %al,(%rax)
  402f7f:	00 c0                	add    %al,%al
  402f81:	02 00                	add    (%rax),%al
  402f83:	00 00                	add    %al,(%rax)
  402f85:	00 00                	add    %al,(%rax)
  402f87:	00 c8                	add    %cl,%al
  402f89:	02 00                	add    (%rax),%al
  402f8b:	00 00                	add    %al,(%rax)
  402f8d:	00 00                	add    %al,(%rax)
  402f8f:	00 bb 02 00 00 00    	add    %bh,0x2(%rbx)
  402f95:	00 00                	add    %al,(%rax)
  402f97:	00 b2 02 00 00 00    	add    %dh,0x2(%rdx)
  402f9d:	00 00                	add    %al,(%rax)
  402f9f:	00 a5 02 00 00 00    	add    %ah,0x2(%rbp)
  402fa5:	00 00                	add    %al,(%rax)
  402fa7:	00 9d 02 00 00 00    	add    %bl,0x2(%rbp)
  402fad:	00 00                	add    %al,(%rax)
  402faf:	00 9d 02 00 00 00    	add    %bl,0x2(%rbp)
  402fb5:	00 00                	add    %al,(%rax)
  402fb7:	00 9d 02 00 00 00    	add    %bl,0x2(%rbp)
  402fbd:	00 00                	add    %al,(%rax)
  402fbf:	00 91 02 00 00 00    	add    %dl,0x2(%rcx)
  402fc5:	00 00                	add    %al,(%rax)
  402fc7:	00 89 02 00 00 00    	add    %cl,0x2(%rcx)
  402fcd:	00 00                	add    %al,(%rax)
  402fcf:	00 89 02 00 00 00    	add    %cl,0x2(%rcx)
  402fd5:	00 00                	add    %al,(%rax)
  402fd7:	00 89 02 00 00 00    	add    %cl,0x2(%rcx)
  402fdd:	00 00                	add    %al,(%rax)
  402fdf:	00 89 02 00 00 00    	add    %cl,0x2(%rcx)
  402fe5:	00 00                	add    %al,(%rax)
  402fe7:	00 89 02 00 00 00    	add    %cl,0x2(%rcx)
  402fed:	00 00                	add    %al,(%rax)
  402fef:	00 89 02 00 00 00    	add    %cl,0x2(%rcx)
  402ff5:	00 00                	add    %al,(%rax)
  402ff7:	00 89 02 00 00 00    	add    %cl,0x2(%rcx)
  402ffd:	00 00                	add    %al,(%rax)
  402fff:	00 7d 02             	add    %bh,0x2(%rbp)
  403002:	00 00                	add    %al,(%rax)
  403004:	00 00                	add    %al,(%rax)
  403006:	00 00                	add    %al,(%rax)
  403008:	74 02                	je     40300c <__intel_mic_avx512f_memset+0x54c>
  40300a:	00 00                	add    %al,(%rax)
  40300c:	00 00                	add    %al,(%rax)
  40300e:	00 00                	add    %al,(%rax)
  403010:	74 02                	je     403014 <__intel_mic_avx512f_memset+0x554>
  403012:	00 00                	add    %al,(%rax)
  403014:	00 00                	add    %al,(%rax)
  403016:	00 00                	add    %al,(%rax)
  403018:	74 02                	je     40301c <__intel_mic_avx512f_memset+0x55c>
  40301a:	00 00                	add    %al,(%rax)
  40301c:	00 00                	add    %al,(%rax)
  40301e:	00 00                	add    %al,(%rax)
  403020:	74 02                	je     403024 <__intel_mic_avx512f_memset+0x564>
  403022:	00 00                	add    %al,(%rax)
  403024:	00 00                	add    %al,(%rax)
  403026:	00 00                	add    %al,(%rax)
  403028:	74 02                	je     40302c <__intel_mic_avx512f_memset+0x56c>
  40302a:	00 00                	add    %al,(%rax)
  40302c:	00 00                	add    %al,(%rax)
  40302e:	00 00                	add    %al,(%rax)
  403030:	74 02                	je     403034 <__intel_mic_avx512f_memset+0x574>
  403032:	00 00                	add    %al,(%rax)
  403034:	00 00                	add    %al,(%rax)
  403036:	00 00                	add    %al,(%rax)
  403038:	74 02                	je     40303c <__intel_mic_avx512f_memset+0x57c>
  40303a:	00 00                	add    %al,(%rax)
  40303c:	00 00                	add    %al,(%rax)
  40303e:	00 00                	add    %al,(%rax)
  403040:	74 02                	je     403044 <__intel_mic_avx512f_memset+0x584>
  403042:	00 00                	add    %al,(%rax)
  403044:	00 00                	add    %al,(%rax)
  403046:	00 00                	add    %al,(%rax)
  403048:	74 02                	je     40304c <__intel_mic_avx512f_memset+0x58c>
  40304a:	00 00                	add    %al,(%rax)
  40304c:	00 00                	add    %al,(%rax)
  40304e:	00 00                	add    %al,(%rax)
  403050:	74 02                	je     403054 <__intel_mic_avx512f_memset+0x594>
  403052:	00 00                	add    %al,(%rax)
  403054:	00 00                	add    %al,(%rax)
  403056:	00 00                	add    %al,(%rax)
  403058:	74 02                	je     40305c <__intel_mic_avx512f_memset+0x59c>
  40305a:	00 00                	add    %al,(%rax)
  40305c:	00 00                	add    %al,(%rax)
  40305e:	00 00                	add    %al,(%rax)
  403060:	74 02                	je     403064 <__intel_mic_avx512f_memset+0x5a4>
  403062:	00 00                	add    %al,(%rax)
  403064:	00 00                	add    %al,(%rax)
  403066:	00 00                	add    %al,(%rax)
  403068:	74 02                	je     40306c <__intel_mic_avx512f_memset+0x5ac>
  40306a:	00 00                	add    %al,(%rax)
  40306c:	00 00                	add    %al,(%rax)
  40306e:	00 00                	add    %al,(%rax)
  403070:	74 02                	je     403074 <__intel_mic_avx512f_memset+0x5b4>
  403072:	00 00                	add    %al,(%rax)
  403074:	00 00                	add    %al,(%rax)
  403076:	00 00                	add    %al,(%rax)
  403078:	74 02                	je     40307c <__intel_mic_avx512f_memset+0x5bc>
  40307a:	00 00                	add    %al,(%rax)
  40307c:	00 00                	add    %al,(%rax)
  40307e:	00 00                	add    %al,(%rax)
  403080:	65 02 00             	add    %gs:(%rax),%al
  403083:	00 00                	add    %al,(%rax)
  403085:	00 00                	add    %al,(%rax)
  403087:	00 5c 02 00          	add    %bl,0x0(%rdx,%rax,1)
  40308b:	00 00                	add    %al,(%rax)
  40308d:	00 00                	add    %al,(%rax)
  40308f:	00 5c 02 00          	add    %bl,0x0(%rdx,%rax,1)
  403093:	00 00                	add    %al,(%rax)
  403095:	00 00                	add    %al,(%rax)
  403097:	00 5c 02 00          	add    %bl,0x0(%rdx,%rax,1)
  40309b:	00 00                	add    %al,(%rax)
  40309d:	00 00                	add    %al,(%rax)
  40309f:	00 5c 02 00          	add    %bl,0x0(%rdx,%rax,1)
  4030a3:	00 00                	add    %al,(%rax)
  4030a5:	00 00                	add    %al,(%rax)
  4030a7:	00 5c 02 00          	add    %bl,0x0(%rdx,%rax,1)
  4030ab:	00 00                	add    %al,(%rax)
  4030ad:	00 00                	add    %al,(%rax)
  4030af:	00 5c 02 00          	add    %bl,0x0(%rdx,%rax,1)
  4030b3:	00 00                	add    %al,(%rax)
  4030b5:	00 00                	add    %al,(%rax)
  4030b7:	00 5c 02 00          	add    %bl,0x0(%rdx,%rax,1)
  4030bb:	00 00                	add    %al,(%rax)
  4030bd:	00 00                	add    %al,(%rax)
  4030bf:	00 5c 02 00          	add    %bl,0x0(%rdx,%rax,1)
  4030c3:	00 00                	add    %al,(%rax)
  4030c5:	00 00                	add    %al,(%rax)
  4030c7:	00 5c 02 00          	add    %bl,0x0(%rdx,%rax,1)
  4030cb:	00 00                	add    %al,(%rax)
  4030cd:	00 00                	add    %al,(%rax)
  4030cf:	00 5c 02 00          	add    %bl,0x0(%rdx,%rax,1)
  4030d3:	00 00                	add    %al,(%rax)
  4030d5:	00 00                	add    %al,(%rax)
  4030d7:	00 5c 02 00          	add    %bl,0x0(%rdx,%rax,1)
  4030db:	00 00                	add    %al,(%rax)
  4030dd:	00 00                	add    %al,(%rax)
  4030df:	00 5c 02 00          	add    %bl,0x0(%rdx,%rax,1)
  4030e3:	00 00                	add    %al,(%rax)
  4030e5:	00 00                	add    %al,(%rax)
  4030e7:	00 5c 02 00          	add    %bl,0x0(%rdx,%rax,1)
  4030eb:	00 00                	add    %al,(%rax)
  4030ed:	00 00                	add    %al,(%rax)
  4030ef:	00 5c 02 00          	add    %bl,0x0(%rdx,%rax,1)
  4030f3:	00 00                	add    %al,(%rax)
  4030f5:	00 00                	add    %al,(%rax)
  4030f7:	00 5c 02 00          	add    %bl,0x0(%rdx,%rax,1)
  4030fb:	00 00                	add    %al,(%rax)
  4030fd:	00 00                	add    %al,(%rax)
  4030ff:	00 5c 02 00          	add    %bl,0x0(%rdx,%rax,1)
  403103:	00 00                	add    %al,(%rax)
  403105:	00 00                	add    %al,(%rax)
  403107:	00 5c 02 00          	add    %bl,0x0(%rdx,%rax,1)
  40310b:	00 00                	add    %al,(%rax)
  40310d:	00 00                	add    %al,(%rax)
  40310f:	00 5c 02 00          	add    %bl,0x0(%rdx,%rax,1)
  403113:	00 00                	add    %al,(%rax)
  403115:	00 00                	add    %al,(%rax)
  403117:	00 5c 02 00          	add    %bl,0x0(%rdx,%rax,1)
  40311b:	00 00                	add    %al,(%rax)
  40311d:	00 00                	add    %al,(%rax)
  40311f:	00 5c 02 00          	add    %bl,0x0(%rdx,%rax,1)
  403123:	00 00                	add    %al,(%rax)
  403125:	00 00                	add    %al,(%rax)
  403127:	00 5c 02 00          	add    %bl,0x0(%rdx,%rax,1)
  40312b:	00 00                	add    %al,(%rax)
  40312d:	00 00                	add    %al,(%rax)
  40312f:	00 5c 02 00          	add    %bl,0x0(%rdx,%rax,1)
  403133:	00 00                	add    %al,(%rax)
  403135:	00 00                	add    %al,(%rax)
  403137:	00 5c 02 00          	add    %bl,0x0(%rdx,%rax,1)
  40313b:	00 00                	add    %al,(%rax)
  40313d:	00 00                	add    %al,(%rax)
  40313f:	00 5c 02 00          	add    %bl,0x0(%rdx,%rax,1)
  403143:	00 00                	add    %al,(%rax)
  403145:	00 00                	add    %al,(%rax)
  403147:	00 5c 02 00          	add    %bl,0x0(%rdx,%rax,1)
  40314b:	00 00                	add    %al,(%rax)
  40314d:	00 00                	add    %al,(%rax)
  40314f:	00 5c 02 00          	add    %bl,0x0(%rdx,%rax,1)
  403153:	00 00                	add    %al,(%rax)
  403155:	00 00                	add    %al,(%rax)
  403157:	00 5c 02 00          	add    %bl,0x0(%rdx,%rax,1)
  40315b:	00 00                	add    %al,(%rax)
  40315d:	00 00                	add    %al,(%rax)
  40315f:	00 5c 02 00          	add    %bl,0x0(%rdx,%rax,1)
  403163:	00 00                	add    %al,(%rax)
  403165:	00 00                	add    %al,(%rax)
  403167:	00 5c 02 00          	add    %bl,0x0(%rdx,%rax,1)
  40316b:	00 00                	add    %al,(%rax)
  40316d:	00 00                	add    %al,(%rax)
  40316f:	00 5c 02 00          	add    %bl,0x0(%rdx,%rax,1)
  403173:	00 00                	add    %al,(%rax)
  403175:	00 00                	add    %al,(%rax)
  403177:	00 5c 02 00          	add    %bl,0x0(%rdx,%rax,1)
  40317b:	00 00                	add    %al,(%rax)
  40317d:	00 00                	add    %al,(%rax)
  40317f:	00 e3                	add    %ah,%bl
  403181:	02 00                	add    (%rax),%al
  403183:	00 00                	add    %al,(%rax)
  403185:	00 00                	add    %al,(%rax)
  403187:	00 e3                	add    %ah,%bl
  403189:	02 00                	add    (%rax),%al
  40318b:	00 00                	add    %al,(%rax)
  40318d:	00 00                	add    %al,(%rax)
  40318f:	00 e3                	add    %ah,%bl
  403191:	02 00                	add    (%rax),%al
  403193:	00 00                	add    %al,(%rax)
  403195:	00 00                	add    %al,(%rax)
  403197:	00 e3                	add    %ah,%bl
  403199:	02 00                	add    (%rax),%al
  40319b:	00 00                	add    %al,(%rax)
  40319d:	00 00                	add    %al,(%rax)
  40319f:	00 e3                	add    %ah,%bl
  4031a1:	02 00                	add    (%rax),%al
  4031a3:	00 00                	add    %al,(%rax)
  4031a5:	00 00                	add    %al,(%rax)
  4031a7:	00 e3                	add    %ah,%bl
  4031a9:	02 00                	add    (%rax),%al
  4031ab:	00 00                	add    %al,(%rax)
  4031ad:	00 00                	add    %al,(%rax)
  4031af:	00 e3                	add    %ah,%bl
  4031b1:	02 00                	add    (%rax),%al
  4031b3:	00 00                	add    %al,(%rax)
  4031b5:	00 00                	add    %al,(%rax)
  4031b7:	00 e3                	add    %ah,%bl
  4031b9:	02 00                	add    (%rax),%al
  4031bb:	00 00                	add    %al,(%rax)
  4031bd:	00 00                	add    %al,(%rax)
  4031bf:	00 e3                	add    %ah,%bl
  4031c1:	02 00                	add    (%rax),%al
  4031c3:	00 00                	add    %al,(%rax)
  4031c5:	00 00                	add    %al,(%rax)
  4031c7:	00 e3                	add    %ah,%bl
  4031c9:	02 00                	add    (%rax),%al
  4031cb:	00 00                	add    %al,(%rax)
  4031cd:	00 00                	add    %al,(%rax)
  4031cf:	00 e3                	add    %ah,%bl
  4031d1:	02 00                	add    (%rax),%al
  4031d3:	00 00                	add    %al,(%rax)
  4031d5:	00 00                	add    %al,(%rax)
  4031d7:	00 e3                	add    %ah,%bl
  4031d9:	02 00                	add    (%rax),%al
  4031db:	00 00                	add    %al,(%rax)
  4031dd:	00 00                	add    %al,(%rax)
  4031df:	00 e3                	add    %ah,%bl
  4031e1:	02 00                	add    (%rax),%al
  4031e3:	00 00                	add    %al,(%rax)
  4031e5:	00 00                	add    %al,(%rax)
  4031e7:	00 e3                	add    %ah,%bl
  4031e9:	02 00                	add    (%rax),%al
  4031eb:	00 00                	add    %al,(%rax)
  4031ed:	00 00                	add    %al,(%rax)
  4031ef:	00 e3                	add    %ah,%bl
  4031f1:	02 00                	add    (%rax),%al
  4031f3:	00 00                	add    %al,(%rax)
  4031f5:	00 00                	add    %al,(%rax)
  4031f7:	00 e3                	add    %ah,%bl
  4031f9:	02 00                	add    (%rax),%al
  4031fb:	00 00                	add    %al,(%rax)
  4031fd:	00 00                	add    %al,(%rax)
  4031ff:	00 e3                	add    %ah,%bl
  403201:	02 00                	add    (%rax),%al
  403203:	00 00                	add    %al,(%rax)
  403205:	00 00                	add    %al,(%rax)
  403207:	00 e3                	add    %ah,%bl
  403209:	02 00                	add    (%rax),%al
  40320b:	00 00                	add    %al,(%rax)
  40320d:	00 00                	add    %al,(%rax)
  40320f:	00 e3                	add    %ah,%bl
  403211:	02 00                	add    (%rax),%al
  403213:	00 00                	add    %al,(%rax)
  403215:	00 00                	add    %al,(%rax)
  403217:	00 e3                	add    %ah,%bl
  403219:	02 00                	add    (%rax),%al
  40321b:	00 00                	add    %al,(%rax)
  40321d:	00 00                	add    %al,(%rax)
  40321f:	00 e3                	add    %ah,%bl
  403221:	02 00                	add    (%rax),%al
  403223:	00 00                	add    %al,(%rax)
  403225:	00 00                	add    %al,(%rax)
  403227:	00 e3                	add    %ah,%bl
  403229:	02 00                	add    (%rax),%al
  40322b:	00 00                	add    %al,(%rax)
  40322d:	00 00                	add    %al,(%rax)
  40322f:	00 e3                	add    %ah,%bl
  403231:	02 00                	add    (%rax),%al
  403233:	00 00                	add    %al,(%rax)
  403235:	00 00                	add    %al,(%rax)
  403237:	00 e3                	add    %ah,%bl
  403239:	02 00                	add    (%rax),%al
  40323b:	00 00                	add    %al,(%rax)
  40323d:	00 00                	add    %al,(%rax)
  40323f:	00 e3                	add    %ah,%bl
  403241:	02 00                	add    (%rax),%al
  403243:	00 00                	add    %al,(%rax)
  403245:	00 00                	add    %al,(%rax)
  403247:	00 e3                	add    %ah,%bl
  403249:	02 00                	add    (%rax),%al
  40324b:	00 00                	add    %al,(%rax)
  40324d:	00 00                	add    %al,(%rax)
  40324f:	00 e3                	add    %ah,%bl
  403251:	02 00                	add    (%rax),%al
  403253:	00 00                	add    %al,(%rax)
  403255:	00 00                	add    %al,(%rax)
  403257:	00 e3                	add    %ah,%bl
  403259:	02 00                	add    (%rax),%al
  40325b:	00 00                	add    %al,(%rax)
  40325d:	00 00                	add    %al,(%rax)
  40325f:	00 e3                	add    %ah,%bl
  403261:	02 00                	add    (%rax),%al
  403263:	00 00                	add    %al,(%rax)
  403265:	00 00                	add    %al,(%rax)
  403267:	00 e3                	add    %ah,%bl
  403269:	02 00                	add    (%rax),%al
  40326b:	00 00                	add    %al,(%rax)
  40326d:	00 00                	add    %al,(%rax)
  40326f:	00 e3                	add    %ah,%bl
  403271:	02 00                	add    (%rax),%al
  403273:	00 00                	add    %al,(%rax)
  403275:	00 00                	add    %al,(%rax)
  403277:	00 e3                	add    %ah,%bl
  403279:	02 00                	add    (%rax),%al
  40327b:	00 00                	add    %al,(%rax)
  40327d:	00 00                	add    %al,(%rax)
  40327f:	00 e3                	add    %ah,%bl
  403281:	02 00                	add    (%rax),%al
  403283:	00 00                	add    %al,(%rax)
  403285:	00 00                	add    %al,(%rax)
  403287:	00 e3                	add    %ah,%bl
  403289:	02 00                	add    (%rax),%al
  40328b:	00 00                	add    %al,(%rax)
  40328d:	00 00                	add    %al,(%rax)
  40328f:	00 e3                	add    %ah,%bl
  403291:	02 00                	add    (%rax),%al
  403293:	00 00                	add    %al,(%rax)
  403295:	00 00                	add    %al,(%rax)
  403297:	00 e3                	add    %ah,%bl
  403299:	02 00                	add    (%rax),%al
  40329b:	00 00                	add    %al,(%rax)
  40329d:	00 00                	add    %al,(%rax)
  40329f:	00 e3                	add    %ah,%bl
  4032a1:	02 00                	add    (%rax),%al
  4032a3:	00 00                	add    %al,(%rax)
  4032a5:	00 00                	add    %al,(%rax)
  4032a7:	00 e3                	add    %ah,%bl
  4032a9:	02 00                	add    (%rax),%al
  4032ab:	00 00                	add    %al,(%rax)
  4032ad:	00 00                	add    %al,(%rax)
  4032af:	00 e3                	add    %ah,%bl
  4032b1:	02 00                	add    (%rax),%al
  4032b3:	00 00                	add    %al,(%rax)
  4032b5:	00 00                	add    %al,(%rax)
  4032b7:	00 e3                	add    %ah,%bl
  4032b9:	02 00                	add    (%rax),%al
  4032bb:	00 00                	add    %al,(%rax)
  4032bd:	00 00                	add    %al,(%rax)
  4032bf:	00 e3                	add    %ah,%bl
  4032c1:	02 00                	add    (%rax),%al
  4032c3:	00 00                	add    %al,(%rax)
  4032c5:	00 00                	add    %al,(%rax)
  4032c7:	00 e3                	add    %ah,%bl
  4032c9:	02 00                	add    (%rax),%al
  4032cb:	00 00                	add    %al,(%rax)
  4032cd:	00 00                	add    %al,(%rax)
  4032cf:	00 e3                	add    %ah,%bl
  4032d1:	02 00                	add    (%rax),%al
  4032d3:	00 00                	add    %al,(%rax)
  4032d5:	00 00                	add    %al,(%rax)
  4032d7:	00 e3                	add    %ah,%bl
  4032d9:	02 00                	add    (%rax),%al
  4032db:	00 00                	add    %al,(%rax)
  4032dd:	00 00                	add    %al,(%rax)
  4032df:	00 e3                	add    %ah,%bl
  4032e1:	02 00                	add    (%rax),%al
  4032e3:	00 00                	add    %al,(%rax)
  4032e5:	00 00                	add    %al,(%rax)
  4032e7:	00 e3                	add    %ah,%bl
  4032e9:	02 00                	add    (%rax),%al
  4032eb:	00 00                	add    %al,(%rax)
  4032ed:	00 00                	add    %al,(%rax)
  4032ef:	00 e3                	add    %ah,%bl
  4032f1:	02 00                	add    (%rax),%al
  4032f3:	00 00                	add    %al,(%rax)
  4032f5:	00 00                	add    %al,(%rax)
  4032f7:	00 e3                	add    %ah,%bl
  4032f9:	02 00                	add    (%rax),%al
  4032fb:	00 00                	add    %al,(%rax)
  4032fd:	00 00                	add    %al,(%rax)
  4032ff:	00 e3                	add    %ah,%bl
  403301:	02 00                	add    (%rax),%al
  403303:	00 00                	add    %al,(%rax)
  403305:	00 00                	add    %al,(%rax)
  403307:	00 e3                	add    %ah,%bl
  403309:	02 00                	add    (%rax),%al
  40330b:	00 00                	add    %al,(%rax)
  40330d:	00 00                	add    %al,(%rax)
  40330f:	00 e3                	add    %ah,%bl
  403311:	02 00                	add    (%rax),%al
  403313:	00 00                	add    %al,(%rax)
  403315:	00 00                	add    %al,(%rax)
  403317:	00 e3                	add    %ah,%bl
  403319:	02 00                	add    (%rax),%al
  40331b:	00 00                	add    %al,(%rax)
  40331d:	00 00                	add    %al,(%rax)
  40331f:	00 e3                	add    %ah,%bl
  403321:	02 00                	add    (%rax),%al
  403323:	00 00                	add    %al,(%rax)
  403325:	00 00                	add    %al,(%rax)
  403327:	00 e3                	add    %ah,%bl
  403329:	02 00                	add    (%rax),%al
  40332b:	00 00                	add    %al,(%rax)
  40332d:	00 00                	add    %al,(%rax)
  40332f:	00 e3                	add    %ah,%bl
  403331:	02 00                	add    (%rax),%al
  403333:	00 00                	add    %al,(%rax)
  403335:	00 00                	add    %al,(%rax)
  403337:	00 e3                	add    %ah,%bl
  403339:	02 00                	add    (%rax),%al
  40333b:	00 00                	add    %al,(%rax)
  40333d:	00 00                	add    %al,(%rax)
  40333f:	00 e3                	add    %ah,%bl
  403341:	02 00                	add    (%rax),%al
  403343:	00 00                	add    %al,(%rax)
  403345:	00 00                	add    %al,(%rax)
  403347:	00 e3                	add    %ah,%bl
  403349:	02 00                	add    (%rax),%al
  40334b:	00 00                	add    %al,(%rax)
  40334d:	00 00                	add    %al,(%rax)
  40334f:	00 e3                	add    %ah,%bl
  403351:	02 00                	add    (%rax),%al
  403353:	00 00                	add    %al,(%rax)
  403355:	00 00                	add    %al,(%rax)
  403357:	00 e3                	add    %ah,%bl
  403359:	02 00                	add    (%rax),%al
  40335b:	00 00                	add    %al,(%rax)
  40335d:	00 00                	add    %al,(%rax)
  40335f:	00 e3                	add    %ah,%bl
  403361:	02 00                	add    (%rax),%al
  403363:	00 00                	add    %al,(%rax)
  403365:	00 00                	add    %al,(%rax)
  403367:	00 e3                	add    %ah,%bl
  403369:	02 00                	add    (%rax),%al
  40336b:	00 00                	add    %al,(%rax)
  40336d:	00 00                	add    %al,(%rax)
  40336f:	00 e3                	add    %ah,%bl
  403371:	02 00                	add    (%rax),%al
  403373:	00 00                	add    %al,(%rax)
  403375:	00 00                	add    %al,(%rax)
  403377:	00 e3                	add    %ah,%bl
  403379:	02 00                	add    (%rax),%al
  40337b:	00 00                	add    %al,(%rax)
  40337d:	00 00                	add    %al,(%rax)
  40337f:	00 ea                	add    %ch,%dl
  403381:	02 00                	add    (%rax),%al
  403383:	00 00                	add    %al,(%rax)
  403385:	00 00                	add    %al,(%rax)
  403387:	00 ea                	add    %ch,%dl
  403389:	02 00                	add    (%rax),%al
  40338b:	00 00                	add    %al,(%rax)
  40338d:	00 00                	add    %al,(%rax)
  40338f:	00 ea                	add    %ch,%dl
  403391:	02 00                	add    (%rax),%al
  403393:	00 00                	add    %al,(%rax)
  403395:	00 00                	add    %al,(%rax)
  403397:	00 ea                	add    %ch,%dl
  403399:	02 00                	add    (%rax),%al
  40339b:	00 00                	add    %al,(%rax)
  40339d:	00 00                	add    %al,(%rax)
  40339f:	00 ea                	add    %ch,%dl
  4033a1:	02 00                	add    (%rax),%al
  4033a3:	00 00                	add    %al,(%rax)
  4033a5:	00 00                	add    %al,(%rax)
  4033a7:	00 ea                	add    %ch,%dl
  4033a9:	02 00                	add    (%rax),%al
  4033ab:	00 00                	add    %al,(%rax)
  4033ad:	00 00                	add    %al,(%rax)
  4033af:	00 ea                	add    %ch,%dl
  4033b1:	02 00                	add    (%rax),%al
  4033b3:	00 00                	add    %al,(%rax)
  4033b5:	00 00                	add    %al,(%rax)
  4033b7:	00 ea                	add    %ch,%dl
  4033b9:	02 00                	add    (%rax),%al
  4033bb:	00 00                	add    %al,(%rax)
  4033bd:	00 00                	add    %al,(%rax)
  4033bf:	00 ea                	add    %ch,%dl
  4033c1:	02 00                	add    (%rax),%al
  4033c3:	00 00                	add    %al,(%rax)
  4033c5:	00 00                	add    %al,(%rax)
  4033c7:	00 ea                	add    %ch,%dl
  4033c9:	02 00                	add    (%rax),%al
  4033cb:	00 00                	add    %al,(%rax)
  4033cd:	00 00                	add    %al,(%rax)
  4033cf:	00 ea                	add    %ch,%dl
  4033d1:	02 00                	add    (%rax),%al
  4033d3:	00 00                	add    %al,(%rax)
  4033d5:	00 00                	add    %al,(%rax)
  4033d7:	00 ea                	add    %ch,%dl
  4033d9:	02 00                	add    (%rax),%al
  4033db:	00 00                	add    %al,(%rax)
  4033dd:	00 00                	add    %al,(%rax)
  4033df:	00 ea                	add    %ch,%dl
  4033e1:	02 00                	add    (%rax),%al
  4033e3:	00 00                	add    %al,(%rax)
  4033e5:	00 00                	add    %al,(%rax)
  4033e7:	00 ea                	add    %ch,%dl
  4033e9:	02 00                	add    (%rax),%al
  4033eb:	00 00                	add    %al,(%rax)
  4033ed:	00 00                	add    %al,(%rax)
  4033ef:	00 ea                	add    %ch,%dl
  4033f1:	02 00                	add    (%rax),%al
  4033f3:	00 00                	add    %al,(%rax)
  4033f5:	00 00                	add    %al,(%rax)
  4033f7:	00 ea                	add    %ch,%dl
  4033f9:	02 00                	add    (%rax),%al
  4033fb:	00 00                	add    %al,(%rax)
  4033fd:	00 00                	add    %al,(%rax)
  4033ff:	00 ea                	add    %ch,%dl
  403401:	02 00                	add    (%rax),%al
  403403:	00 00                	add    %al,(%rax)
  403405:	00 00                	add    %al,(%rax)
  403407:	00 ea                	add    %ch,%dl
  403409:	02 00                	add    (%rax),%al
  40340b:	00 00                	add    %al,(%rax)
  40340d:	00 00                	add    %al,(%rax)
  40340f:	00 ea                	add    %ch,%dl
  403411:	02 00                	add    (%rax),%al
  403413:	00 00                	add    %al,(%rax)
  403415:	00 00                	add    %al,(%rax)
  403417:	00 ea                	add    %ch,%dl
  403419:	02 00                	add    (%rax),%al
  40341b:	00 00                	add    %al,(%rax)
  40341d:	00 00                	add    %al,(%rax)
  40341f:	00 ea                	add    %ch,%dl
  403421:	02 00                	add    (%rax),%al
  403423:	00 00                	add    %al,(%rax)
  403425:	00 00                	add    %al,(%rax)
  403427:	00 ea                	add    %ch,%dl
  403429:	02 00                	add    (%rax),%al
  40342b:	00 00                	add    %al,(%rax)
  40342d:	00 00                	add    %al,(%rax)
  40342f:	00 ea                	add    %ch,%dl
  403431:	02 00                	add    (%rax),%al
  403433:	00 00                	add    %al,(%rax)
  403435:	00 00                	add    %al,(%rax)
  403437:	00 ea                	add    %ch,%dl
  403439:	02 00                	add    (%rax),%al
  40343b:	00 00                	add    %al,(%rax)
  40343d:	00 00                	add    %al,(%rax)
  40343f:	00 ea                	add    %ch,%dl
  403441:	02 00                	add    (%rax),%al
  403443:	00 00                	add    %al,(%rax)
  403445:	00 00                	add    %al,(%rax)
  403447:	00 ea                	add    %ch,%dl
  403449:	02 00                	add    (%rax),%al
  40344b:	00 00                	add    %al,(%rax)
  40344d:	00 00                	add    %al,(%rax)
  40344f:	00 ea                	add    %ch,%dl
  403451:	02 00                	add    (%rax),%al
  403453:	00 00                	add    %al,(%rax)
  403455:	00 00                	add    %al,(%rax)
  403457:	00 ea                	add    %ch,%dl
  403459:	02 00                	add    (%rax),%al
  40345b:	00 00                	add    %al,(%rax)
  40345d:	00 00                	add    %al,(%rax)
  40345f:	00 ea                	add    %ch,%dl
  403461:	02 00                	add    (%rax),%al
  403463:	00 00                	add    %al,(%rax)
  403465:	00 00                	add    %al,(%rax)
  403467:	00 ea                	add    %ch,%dl
  403469:	02 00                	add    (%rax),%al
  40346b:	00 00                	add    %al,(%rax)
  40346d:	00 00                	add    %al,(%rax)
  40346f:	00 ea                	add    %ch,%dl
  403471:	02 00                	add    (%rax),%al
  403473:	00 00                	add    %al,(%rax)
  403475:	00 00                	add    %al,(%rax)
  403477:	00 ea                	add    %ch,%dl
  403479:	02 00                	add    (%rax),%al
  40347b:	00 00                	add    %al,(%rax)
  40347d:	00 00                	add    %al,(%rax)
  40347f:	00 ea                	add    %ch,%dl
  403481:	02 00                	add    (%rax),%al
  403483:	00 00                	add    %al,(%rax)
  403485:	00 00                	add    %al,(%rax)
  403487:	00 ea                	add    %ch,%dl
  403489:	02 00                	add    (%rax),%al
  40348b:	00 00                	add    %al,(%rax)
  40348d:	00 00                	add    %al,(%rax)
  40348f:	00 ea                	add    %ch,%dl
  403491:	02 00                	add    (%rax),%al
  403493:	00 00                	add    %al,(%rax)
  403495:	00 00                	add    %al,(%rax)
  403497:	00 ea                	add    %ch,%dl
  403499:	02 00                	add    (%rax),%al
  40349b:	00 00                	add    %al,(%rax)
  40349d:	00 00                	add    %al,(%rax)
  40349f:	00 ea                	add    %ch,%dl
  4034a1:	02 00                	add    (%rax),%al
  4034a3:	00 00                	add    %al,(%rax)
  4034a5:	00 00                	add    %al,(%rax)
  4034a7:	00 ea                	add    %ch,%dl
  4034a9:	02 00                	add    (%rax),%al
  4034ab:	00 00                	add    %al,(%rax)
  4034ad:	00 00                	add    %al,(%rax)
  4034af:	00 ea                	add    %ch,%dl
  4034b1:	02 00                	add    (%rax),%al
  4034b3:	00 00                	add    %al,(%rax)
  4034b5:	00 00                	add    %al,(%rax)
  4034b7:	00 ea                	add    %ch,%dl
  4034b9:	02 00                	add    (%rax),%al
  4034bb:	00 00                	add    %al,(%rax)
  4034bd:	00 00                	add    %al,(%rax)
  4034bf:	00 ea                	add    %ch,%dl
  4034c1:	02 00                	add    (%rax),%al
  4034c3:	00 00                	add    %al,(%rax)
  4034c5:	00 00                	add    %al,(%rax)
  4034c7:	00 ea                	add    %ch,%dl
  4034c9:	02 00                	add    (%rax),%al
  4034cb:	00 00                	add    %al,(%rax)
  4034cd:	00 00                	add    %al,(%rax)
  4034cf:	00 ea                	add    %ch,%dl
  4034d1:	02 00                	add    (%rax),%al
  4034d3:	00 00                	add    %al,(%rax)
  4034d5:	00 00                	add    %al,(%rax)
  4034d7:	00 ea                	add    %ch,%dl
  4034d9:	02 00                	add    (%rax),%al
  4034db:	00 00                	add    %al,(%rax)
  4034dd:	00 00                	add    %al,(%rax)
  4034df:	00 ea                	add    %ch,%dl
  4034e1:	02 00                	add    (%rax),%al
  4034e3:	00 00                	add    %al,(%rax)
  4034e5:	00 00                	add    %al,(%rax)
  4034e7:	00 ea                	add    %ch,%dl
  4034e9:	02 00                	add    (%rax),%al
  4034eb:	00 00                	add    %al,(%rax)
  4034ed:	00 00                	add    %al,(%rax)
  4034ef:	00 ea                	add    %ch,%dl
  4034f1:	02 00                	add    (%rax),%al
  4034f3:	00 00                	add    %al,(%rax)
  4034f5:	00 00                	add    %al,(%rax)
  4034f7:	00 ea                	add    %ch,%dl
  4034f9:	02 00                	add    (%rax),%al
  4034fb:	00 00                	add    %al,(%rax)
  4034fd:	00 00                	add    %al,(%rax)
  4034ff:	00 ea                	add    %ch,%dl
  403501:	02 00                	add    (%rax),%al
  403503:	00 00                	add    %al,(%rax)
  403505:	00 00                	add    %al,(%rax)
  403507:	00 ea                	add    %ch,%dl
  403509:	02 00                	add    (%rax),%al
  40350b:	00 00                	add    %al,(%rax)
  40350d:	00 00                	add    %al,(%rax)
  40350f:	00 ea                	add    %ch,%dl
  403511:	02 00                	add    (%rax),%al
  403513:	00 00                	add    %al,(%rax)
  403515:	00 00                	add    %al,(%rax)
  403517:	00 ea                	add    %ch,%dl
  403519:	02 00                	add    (%rax),%al
  40351b:	00 00                	add    %al,(%rax)
  40351d:	00 00                	add    %al,(%rax)
  40351f:	00 ea                	add    %ch,%dl
  403521:	02 00                	add    (%rax),%al
  403523:	00 00                	add    %al,(%rax)
  403525:	00 00                	add    %al,(%rax)
  403527:	00 ea                	add    %ch,%dl
  403529:	02 00                	add    (%rax),%al
  40352b:	00 00                	add    %al,(%rax)
  40352d:	00 00                	add    %al,(%rax)
  40352f:	00 ea                	add    %ch,%dl
  403531:	02 00                	add    (%rax),%al
  403533:	00 00                	add    %al,(%rax)
  403535:	00 00                	add    %al,(%rax)
  403537:	00 ea                	add    %ch,%dl
  403539:	02 00                	add    (%rax),%al
  40353b:	00 00                	add    %al,(%rax)
  40353d:	00 00                	add    %al,(%rax)
  40353f:	00 ea                	add    %ch,%dl
  403541:	02 00                	add    (%rax),%al
  403543:	00 00                	add    %al,(%rax)
  403545:	00 00                	add    %al,(%rax)
  403547:	00 ea                	add    %ch,%dl
  403549:	02 00                	add    (%rax),%al
  40354b:	00 00                	add    %al,(%rax)
  40354d:	00 00                	add    %al,(%rax)
  40354f:	00 ea                	add    %ch,%dl
  403551:	02 00                	add    (%rax),%al
  403553:	00 00                	add    %al,(%rax)
  403555:	00 00                	add    %al,(%rax)
  403557:	00 ea                	add    %ch,%dl
  403559:	02 00                	add    (%rax),%al
  40355b:	00 00                	add    %al,(%rax)
  40355d:	00 00                	add    %al,(%rax)
  40355f:	00 ea                	add    %ch,%dl
  403561:	02 00                	add    (%rax),%al
  403563:	00 00                	add    %al,(%rax)
  403565:	00 00                	add    %al,(%rax)
  403567:	00 ea                	add    %ch,%dl
  403569:	02 00                	add    (%rax),%al
  40356b:	00 00                	add    %al,(%rax)
  40356d:	00 00                	add    %al,(%rax)
  40356f:	00 ea                	add    %ch,%dl
  403571:	02 00                	add    (%rax),%al
  403573:	00 00                	add    %al,(%rax)
  403575:	00 00                	add    %al,(%rax)
  403577:	00 ea                	add    %ch,%dl
  403579:	02 00                	add    (%rax),%al
  40357b:	00 00                	add    %al,(%rax)
  40357d:	00 00                	add    %al,(%rax)
  40357f:	00 f1                	add    %dh,%cl
  403581:	02 00                	add    (%rax),%al
  403583:	00 00                	add    %al,(%rax)
  403585:	00 00                	add    %al,(%rax)
  403587:	00 f1                	add    %dh,%cl
  403589:	02 00                	add    (%rax),%al
  40358b:	00 00                	add    %al,(%rax)
  40358d:	00 00                	add    %al,(%rax)
  40358f:	00 f1                	add    %dh,%cl
  403591:	02 00                	add    (%rax),%al
  403593:	00 00                	add    %al,(%rax)
  403595:	00 00                	add    %al,(%rax)
  403597:	00 f1                	add    %dh,%cl
  403599:	02 00                	add    (%rax),%al
  40359b:	00 00                	add    %al,(%rax)
  40359d:	00 00                	add    %al,(%rax)
  40359f:	00 f1                	add    %dh,%cl
  4035a1:	02 00                	add    (%rax),%al
  4035a3:	00 00                	add    %al,(%rax)
  4035a5:	00 00                	add    %al,(%rax)
  4035a7:	00 f1                	add    %dh,%cl
  4035a9:	02 00                	add    (%rax),%al
  4035ab:	00 00                	add    %al,(%rax)
  4035ad:	00 00                	add    %al,(%rax)
  4035af:	00 f1                	add    %dh,%cl
  4035b1:	02 00                	add    (%rax),%al
  4035b3:	00 00                	add    %al,(%rax)
  4035b5:	00 00                	add    %al,(%rax)
  4035b7:	00 f1                	add    %dh,%cl
  4035b9:	02 00                	add    (%rax),%al
  4035bb:	00 00                	add    %al,(%rax)
  4035bd:	00 00                	add    %al,(%rax)
  4035bf:	00 f1                	add    %dh,%cl
  4035c1:	02 00                	add    (%rax),%al
  4035c3:	00 00                	add    %al,(%rax)
  4035c5:	00 00                	add    %al,(%rax)
  4035c7:	00 f1                	add    %dh,%cl
  4035c9:	02 00                	add    (%rax),%al
  4035cb:	00 00                	add    %al,(%rax)
  4035cd:	00 00                	add    %al,(%rax)
  4035cf:	00 f1                	add    %dh,%cl
  4035d1:	02 00                	add    (%rax),%al
  4035d3:	00 00                	add    %al,(%rax)
  4035d5:	00 00                	add    %al,(%rax)
  4035d7:	00 f1                	add    %dh,%cl
  4035d9:	02 00                	add    (%rax),%al
  4035db:	00 00                	add    %al,(%rax)
  4035dd:	00 00                	add    %al,(%rax)
  4035df:	00 f1                	add    %dh,%cl
  4035e1:	02 00                	add    (%rax),%al
  4035e3:	00 00                	add    %al,(%rax)
  4035e5:	00 00                	add    %al,(%rax)
  4035e7:	00 f1                	add    %dh,%cl
  4035e9:	02 00                	add    (%rax),%al
  4035eb:	00 00                	add    %al,(%rax)
  4035ed:	00 00                	add    %al,(%rax)
  4035ef:	00 f1                	add    %dh,%cl
  4035f1:	02 00                	add    (%rax),%al
  4035f3:	00 00                	add    %al,(%rax)
  4035f5:	00 00                	add    %al,(%rax)
  4035f7:	00 f1                	add    %dh,%cl
  4035f9:	02 00                	add    (%rax),%al
  4035fb:	00 00                	add    %al,(%rax)
  4035fd:	00 00                	add    %al,(%rax)
  4035ff:	00 f1                	add    %dh,%cl
  403601:	02 00                	add    (%rax),%al
  403603:	00 00                	add    %al,(%rax)
  403605:	00 00                	add    %al,(%rax)
  403607:	00 f1                	add    %dh,%cl
  403609:	02 00                	add    (%rax),%al
  40360b:	00 00                	add    %al,(%rax)
  40360d:	00 00                	add    %al,(%rax)
  40360f:	00 f1                	add    %dh,%cl
  403611:	02 00                	add    (%rax),%al
  403613:	00 00                	add    %al,(%rax)
  403615:	00 00                	add    %al,(%rax)
  403617:	00 f1                	add    %dh,%cl
  403619:	02 00                	add    (%rax),%al
  40361b:	00 00                	add    %al,(%rax)
  40361d:	00 00                	add    %al,(%rax)
  40361f:	00 f1                	add    %dh,%cl
  403621:	02 00                	add    (%rax),%al
  403623:	00 00                	add    %al,(%rax)
  403625:	00 00                	add    %al,(%rax)
  403627:	00 f1                	add    %dh,%cl
  403629:	02 00                	add    (%rax),%al
  40362b:	00 00                	add    %al,(%rax)
  40362d:	00 00                	add    %al,(%rax)
  40362f:	00 f1                	add    %dh,%cl
  403631:	02 00                	add    (%rax),%al
  403633:	00 00                	add    %al,(%rax)
  403635:	00 00                	add    %al,(%rax)
  403637:	00 f1                	add    %dh,%cl
  403639:	02 00                	add    (%rax),%al
  40363b:	00 00                	add    %al,(%rax)
  40363d:	00 00                	add    %al,(%rax)
  40363f:	00 f1                	add    %dh,%cl
  403641:	02 00                	add    (%rax),%al
  403643:	00 00                	add    %al,(%rax)
  403645:	00 00                	add    %al,(%rax)
  403647:	00 f1                	add    %dh,%cl
  403649:	02 00                	add    (%rax),%al
  40364b:	00 00                	add    %al,(%rax)
  40364d:	00 00                	add    %al,(%rax)
  40364f:	00 f1                	add    %dh,%cl
  403651:	02 00                	add    (%rax),%al
  403653:	00 00                	add    %al,(%rax)
  403655:	00 00                	add    %al,(%rax)
  403657:	00 f1                	add    %dh,%cl
  403659:	02 00                	add    (%rax),%al
  40365b:	00 00                	add    %al,(%rax)
  40365d:	00 00                	add    %al,(%rax)
  40365f:	00 f1                	add    %dh,%cl
  403661:	02 00                	add    (%rax),%al
  403663:	00 00                	add    %al,(%rax)
  403665:	00 00                	add    %al,(%rax)
  403667:	00 f1                	add    %dh,%cl
  403669:	02 00                	add    (%rax),%al
  40366b:	00 00                	add    %al,(%rax)
  40366d:	00 00                	add    %al,(%rax)
  40366f:	00 f1                	add    %dh,%cl
  403671:	02 00                	add    (%rax),%al
  403673:	00 00                	add    %al,(%rax)
  403675:	00 00                	add    %al,(%rax)
  403677:	00 f1                	add    %dh,%cl
  403679:	02 00                	add    (%rax),%al
  40367b:	00 00                	add    %al,(%rax)
  40367d:	00 00                	add    %al,(%rax)
  40367f:	00 f1                	add    %dh,%cl
  403681:	02 00                	add    (%rax),%al
  403683:	00 00                	add    %al,(%rax)
  403685:	00 00                	add    %al,(%rax)
  403687:	00 f1                	add    %dh,%cl
  403689:	02 00                	add    (%rax),%al
  40368b:	00 00                	add    %al,(%rax)
  40368d:	00 00                	add    %al,(%rax)
  40368f:	00 f1                	add    %dh,%cl
  403691:	02 00                	add    (%rax),%al
  403693:	00 00                	add    %al,(%rax)
  403695:	00 00                	add    %al,(%rax)
  403697:	00 f1                	add    %dh,%cl
  403699:	02 00                	add    (%rax),%al
  40369b:	00 00                	add    %al,(%rax)
  40369d:	00 00                	add    %al,(%rax)
  40369f:	00 f1                	add    %dh,%cl
  4036a1:	02 00                	add    (%rax),%al
  4036a3:	00 00                	add    %al,(%rax)
  4036a5:	00 00                	add    %al,(%rax)
  4036a7:	00 f1                	add    %dh,%cl
  4036a9:	02 00                	add    (%rax),%al
  4036ab:	00 00                	add    %al,(%rax)
  4036ad:	00 00                	add    %al,(%rax)
  4036af:	00 f1                	add    %dh,%cl
  4036b1:	02 00                	add    (%rax),%al
  4036b3:	00 00                	add    %al,(%rax)
  4036b5:	00 00                	add    %al,(%rax)
  4036b7:	00 f1                	add    %dh,%cl
  4036b9:	02 00                	add    (%rax),%al
  4036bb:	00 00                	add    %al,(%rax)
  4036bd:	00 00                	add    %al,(%rax)
  4036bf:	00 f1                	add    %dh,%cl
  4036c1:	02 00                	add    (%rax),%al
  4036c3:	00 00                	add    %al,(%rax)
  4036c5:	00 00                	add    %al,(%rax)
  4036c7:	00 f1                	add    %dh,%cl
  4036c9:	02 00                	add    (%rax),%al
  4036cb:	00 00                	add    %al,(%rax)
  4036cd:	00 00                	add    %al,(%rax)
  4036cf:	00 f1                	add    %dh,%cl
  4036d1:	02 00                	add    (%rax),%al
  4036d3:	00 00                	add    %al,(%rax)
  4036d5:	00 00                	add    %al,(%rax)
  4036d7:	00 f1                	add    %dh,%cl
  4036d9:	02 00                	add    (%rax),%al
  4036db:	00 00                	add    %al,(%rax)
  4036dd:	00 00                	add    %al,(%rax)
  4036df:	00 f1                	add    %dh,%cl
  4036e1:	02 00                	add    (%rax),%al
  4036e3:	00 00                	add    %al,(%rax)
  4036e5:	00 00                	add    %al,(%rax)
  4036e7:	00 f1                	add    %dh,%cl
  4036e9:	02 00                	add    (%rax),%al
  4036eb:	00 00                	add    %al,(%rax)
  4036ed:	00 00                	add    %al,(%rax)
  4036ef:	00 f1                	add    %dh,%cl
  4036f1:	02 00                	add    (%rax),%al
  4036f3:	00 00                	add    %al,(%rax)
  4036f5:	00 00                	add    %al,(%rax)
  4036f7:	00 f1                	add    %dh,%cl
  4036f9:	02 00                	add    (%rax),%al
  4036fb:	00 00                	add    %al,(%rax)
  4036fd:	00 00                	add    %al,(%rax)
  4036ff:	00 f1                	add    %dh,%cl
  403701:	02 00                	add    (%rax),%al
  403703:	00 00                	add    %al,(%rax)
  403705:	00 00                	add    %al,(%rax)
  403707:	00 f1                	add    %dh,%cl
  403709:	02 00                	add    (%rax),%al
  40370b:	00 00                	add    %al,(%rax)
  40370d:	00 00                	add    %al,(%rax)
  40370f:	00 f1                	add    %dh,%cl
  403711:	02 00                	add    (%rax),%al
  403713:	00 00                	add    %al,(%rax)
  403715:	00 00                	add    %al,(%rax)
  403717:	00 f1                	add    %dh,%cl
  403719:	02 00                	add    (%rax),%al
  40371b:	00 00                	add    %al,(%rax)
  40371d:	00 00                	add    %al,(%rax)
  40371f:	00 f1                	add    %dh,%cl
  403721:	02 00                	add    (%rax),%al
  403723:	00 00                	add    %al,(%rax)
  403725:	00 00                	add    %al,(%rax)
  403727:	00 f1                	add    %dh,%cl
  403729:	02 00                	add    (%rax),%al
  40372b:	00 00                	add    %al,(%rax)
  40372d:	00 00                	add    %al,(%rax)
  40372f:	00 f1                	add    %dh,%cl
  403731:	02 00                	add    (%rax),%al
  403733:	00 00                	add    %al,(%rax)
  403735:	00 00                	add    %al,(%rax)
  403737:	00 f1                	add    %dh,%cl
  403739:	02 00                	add    (%rax),%al
  40373b:	00 00                	add    %al,(%rax)
  40373d:	00 00                	add    %al,(%rax)
  40373f:	00 f1                	add    %dh,%cl
  403741:	02 00                	add    (%rax),%al
  403743:	00 00                	add    %al,(%rax)
  403745:	00 00                	add    %al,(%rax)
  403747:	00 f1                	add    %dh,%cl
  403749:	02 00                	add    (%rax),%al
  40374b:	00 00                	add    %al,(%rax)
  40374d:	00 00                	add    %al,(%rax)
  40374f:	00 f1                	add    %dh,%cl
  403751:	02 00                	add    (%rax),%al
  403753:	00 00                	add    %al,(%rax)
  403755:	00 00                	add    %al,(%rax)
  403757:	00 f1                	add    %dh,%cl
  403759:	02 00                	add    (%rax),%al
  40375b:	00 00                	add    %al,(%rax)
  40375d:	00 00                	add    %al,(%rax)
  40375f:	00 f1                	add    %dh,%cl
  403761:	02 00                	add    (%rax),%al
  403763:	00 00                	add    %al,(%rax)
  403765:	00 00                	add    %al,(%rax)
  403767:	00 f1                	add    %dh,%cl
  403769:	02 00                	add    (%rax),%al
  40376b:	00 00                	add    %al,(%rax)
  40376d:	00 00                	add    %al,(%rax)
  40376f:	00 f1                	add    %dh,%cl
  403771:	02 00                	add    (%rax),%al
  403773:	00 00                	add    %al,(%rax)
  403775:	00 00                	add    %al,(%rax)
  403777:	00 f1                	add    %dh,%cl
  403779:	02 00                	add    (%rax),%al
  40377b:	00 00                	add    %al,(%rax)
  40377d:	00 00                	add    %al,(%rax)
  40377f:	00 f8                	add    %bh,%al
  403781:	02 00                	add    (%rax),%al
  403783:	00 00                	add    %al,(%rax)
  403785:	00 00                	add    %al,(%rax)
  403787:	00 f8                	add    %bh,%al
  403789:	02 00                	add    (%rax),%al
  40378b:	00 00                	add    %al,(%rax)
  40378d:	00 00                	add    %al,(%rax)
  40378f:	00 f8                	add    %bh,%al
  403791:	02 00                	add    (%rax),%al
  403793:	00 00                	add    %al,(%rax)
  403795:	00 00                	add    %al,(%rax)
  403797:	00 f8                	add    %bh,%al
  403799:	02 00                	add    (%rax),%al
  40379b:	00 00                	add    %al,(%rax)
  40379d:	00 00                	add    %al,(%rax)
  40379f:	00 f8                	add    %bh,%al
  4037a1:	02 00                	add    (%rax),%al
  4037a3:	00 00                	add    %al,(%rax)
  4037a5:	00 00                	add    %al,(%rax)
  4037a7:	00 f8                	add    %bh,%al
  4037a9:	02 00                	add    (%rax),%al
  4037ab:	00 00                	add    %al,(%rax)
  4037ad:	00 00                	add    %al,(%rax)
  4037af:	00 f8                	add    %bh,%al
  4037b1:	02 00                	add    (%rax),%al
  4037b3:	00 00                	add    %al,(%rax)
  4037b5:	00 00                	add    %al,(%rax)
  4037b7:	00 f8                	add    %bh,%al
  4037b9:	02 00                	add    (%rax),%al
  4037bb:	00 00                	add    %al,(%rax)
  4037bd:	00 00                	add    %al,(%rax)
  4037bf:	00 f8                	add    %bh,%al
  4037c1:	02 00                	add    (%rax),%al
  4037c3:	00 00                	add    %al,(%rax)
  4037c5:	00 00                	add    %al,(%rax)
  4037c7:	00 f8                	add    %bh,%al
  4037c9:	02 00                	add    (%rax),%al
  4037cb:	00 00                	add    %al,(%rax)
  4037cd:	00 00                	add    %al,(%rax)
  4037cf:	00 f8                	add    %bh,%al
  4037d1:	02 00                	add    (%rax),%al
  4037d3:	00 00                	add    %al,(%rax)
  4037d5:	00 00                	add    %al,(%rax)
  4037d7:	00 f8                	add    %bh,%al
  4037d9:	02 00                	add    (%rax),%al
  4037db:	00 00                	add    %al,(%rax)
  4037dd:	00 00                	add    %al,(%rax)
  4037df:	00 f8                	add    %bh,%al
  4037e1:	02 00                	add    (%rax),%al
  4037e3:	00 00                	add    %al,(%rax)
  4037e5:	00 00                	add    %al,(%rax)
  4037e7:	00 f8                	add    %bh,%al
  4037e9:	02 00                	add    (%rax),%al
  4037eb:	00 00                	add    %al,(%rax)
  4037ed:	00 00                	add    %al,(%rax)
  4037ef:	00 f8                	add    %bh,%al
  4037f1:	02 00                	add    (%rax),%al
  4037f3:	00 00                	add    %al,(%rax)
  4037f5:	00 00                	add    %al,(%rax)
  4037f7:	00 f8                	add    %bh,%al
  4037f9:	02 00                	add    (%rax),%al
  4037fb:	00 00                	add    %al,(%rax)
  4037fd:	00 00                	add    %al,(%rax)
  4037ff:	00 f8                	add    %bh,%al
  403801:	02 00                	add    (%rax),%al
  403803:	00 00                	add    %al,(%rax)
  403805:	00 00                	add    %al,(%rax)
  403807:	00 f8                	add    %bh,%al
  403809:	02 00                	add    (%rax),%al
  40380b:	00 00                	add    %al,(%rax)
  40380d:	00 00                	add    %al,(%rax)
  40380f:	00 f8                	add    %bh,%al
  403811:	02 00                	add    (%rax),%al
  403813:	00 00                	add    %al,(%rax)
  403815:	00 00                	add    %al,(%rax)
  403817:	00 f8                	add    %bh,%al
  403819:	02 00                	add    (%rax),%al
  40381b:	00 00                	add    %al,(%rax)
  40381d:	00 00                	add    %al,(%rax)
  40381f:	00 f8                	add    %bh,%al
  403821:	02 00                	add    (%rax),%al
  403823:	00 00                	add    %al,(%rax)
  403825:	00 00                	add    %al,(%rax)
  403827:	00 f8                	add    %bh,%al
  403829:	02 00                	add    (%rax),%al
  40382b:	00 00                	add    %al,(%rax)
  40382d:	00 00                	add    %al,(%rax)
  40382f:	00 f8                	add    %bh,%al
  403831:	02 00                	add    (%rax),%al
  403833:	00 00                	add    %al,(%rax)
  403835:	00 00                	add    %al,(%rax)
  403837:	00 f8                	add    %bh,%al
  403839:	02 00                	add    (%rax),%al
  40383b:	00 00                	add    %al,(%rax)
  40383d:	00 00                	add    %al,(%rax)
  40383f:	00 f8                	add    %bh,%al
  403841:	02 00                	add    (%rax),%al
  403843:	00 00                	add    %al,(%rax)
  403845:	00 00                	add    %al,(%rax)
  403847:	00 f8                	add    %bh,%al
  403849:	02 00                	add    (%rax),%al
  40384b:	00 00                	add    %al,(%rax)
  40384d:	00 00                	add    %al,(%rax)
  40384f:	00 f8                	add    %bh,%al
  403851:	02 00                	add    (%rax),%al
  403853:	00 00                	add    %al,(%rax)
  403855:	00 00                	add    %al,(%rax)
  403857:	00 f8                	add    %bh,%al
  403859:	02 00                	add    (%rax),%al
  40385b:	00 00                	add    %al,(%rax)
  40385d:	00 00                	add    %al,(%rax)
  40385f:	00 f8                	add    %bh,%al
  403861:	02 00                	add    (%rax),%al
  403863:	00 00                	add    %al,(%rax)
  403865:	00 00                	add    %al,(%rax)
  403867:	00 f8                	add    %bh,%al
  403869:	02 00                	add    (%rax),%al
  40386b:	00 00                	add    %al,(%rax)
  40386d:	00 00                	add    %al,(%rax)
  40386f:	00 f8                	add    %bh,%al
  403871:	02 00                	add    (%rax),%al
  403873:	00 00                	add    %al,(%rax)
  403875:	00 00                	add    %al,(%rax)
  403877:	00 f8                	add    %bh,%al
  403879:	02 00                	add    (%rax),%al
  40387b:	00 00                	add    %al,(%rax)
  40387d:	00 00                	add    %al,(%rax)
  40387f:	00 f8                	add    %bh,%al
  403881:	02 00                	add    (%rax),%al
  403883:	00 00                	add    %al,(%rax)
  403885:	00 00                	add    %al,(%rax)
  403887:	00 f8                	add    %bh,%al
  403889:	02 00                	add    (%rax),%al
  40388b:	00 00                	add    %al,(%rax)
  40388d:	00 00                	add    %al,(%rax)
  40388f:	00 f8                	add    %bh,%al
  403891:	02 00                	add    (%rax),%al
  403893:	00 00                	add    %al,(%rax)
  403895:	00 00                	add    %al,(%rax)
  403897:	00 f8                	add    %bh,%al
  403899:	02 00                	add    (%rax),%al
  40389b:	00 00                	add    %al,(%rax)
  40389d:	00 00                	add    %al,(%rax)
  40389f:	00 f8                	add    %bh,%al
  4038a1:	02 00                	add    (%rax),%al
  4038a3:	00 00                	add    %al,(%rax)
  4038a5:	00 00                	add    %al,(%rax)
  4038a7:	00 f8                	add    %bh,%al
  4038a9:	02 00                	add    (%rax),%al
  4038ab:	00 00                	add    %al,(%rax)
  4038ad:	00 00                	add    %al,(%rax)
  4038af:	00 f8                	add    %bh,%al
  4038b1:	02 00                	add    (%rax),%al
  4038b3:	00 00                	add    %al,(%rax)
  4038b5:	00 00                	add    %al,(%rax)
  4038b7:	00 f8                	add    %bh,%al
  4038b9:	02 00                	add    (%rax),%al
  4038bb:	00 00                	add    %al,(%rax)
  4038bd:	00 00                	add    %al,(%rax)
  4038bf:	00 f8                	add    %bh,%al
  4038c1:	02 00                	add    (%rax),%al
  4038c3:	00 00                	add    %al,(%rax)
  4038c5:	00 00                	add    %al,(%rax)
  4038c7:	00 f8                	add    %bh,%al
  4038c9:	02 00                	add    (%rax),%al
  4038cb:	00 00                	add    %al,(%rax)
  4038cd:	00 00                	add    %al,(%rax)
  4038cf:	00 f8                	add    %bh,%al
  4038d1:	02 00                	add    (%rax),%al
  4038d3:	00 00                	add    %al,(%rax)
  4038d5:	00 00                	add    %al,(%rax)
  4038d7:	00 f8                	add    %bh,%al
  4038d9:	02 00                	add    (%rax),%al
  4038db:	00 00                	add    %al,(%rax)
  4038dd:	00 00                	add    %al,(%rax)
  4038df:	00 f8                	add    %bh,%al
  4038e1:	02 00                	add    (%rax),%al
  4038e3:	00 00                	add    %al,(%rax)
  4038e5:	00 00                	add    %al,(%rax)
  4038e7:	00 f8                	add    %bh,%al
  4038e9:	02 00                	add    (%rax),%al
  4038eb:	00 00                	add    %al,(%rax)
  4038ed:	00 00                	add    %al,(%rax)
  4038ef:	00 f8                	add    %bh,%al
  4038f1:	02 00                	add    (%rax),%al
  4038f3:	00 00                	add    %al,(%rax)
  4038f5:	00 00                	add    %al,(%rax)
  4038f7:	00 f8                	add    %bh,%al
  4038f9:	02 00                	add    (%rax),%al
  4038fb:	00 00                	add    %al,(%rax)
  4038fd:	00 00                	add    %al,(%rax)
  4038ff:	00 f8                	add    %bh,%al
  403901:	02 00                	add    (%rax),%al
  403903:	00 00                	add    %al,(%rax)
  403905:	00 00                	add    %al,(%rax)
  403907:	00 f8                	add    %bh,%al
  403909:	02 00                	add    (%rax),%al
  40390b:	00 00                	add    %al,(%rax)
  40390d:	00 00                	add    %al,(%rax)
  40390f:	00 f8                	add    %bh,%al
  403911:	02 00                	add    (%rax),%al
  403913:	00 00                	add    %al,(%rax)
  403915:	00 00                	add    %al,(%rax)
  403917:	00 f8                	add    %bh,%al
  403919:	02 00                	add    (%rax),%al
  40391b:	00 00                	add    %al,(%rax)
  40391d:	00 00                	add    %al,(%rax)
  40391f:	00 f8                	add    %bh,%al
  403921:	02 00                	add    (%rax),%al
  403923:	00 00                	add    %al,(%rax)
  403925:	00 00                	add    %al,(%rax)
  403927:	00 f8                	add    %bh,%al
  403929:	02 00                	add    (%rax),%al
  40392b:	00 00                	add    %al,(%rax)
  40392d:	00 00                	add    %al,(%rax)
  40392f:	00 f8                	add    %bh,%al
  403931:	02 00                	add    (%rax),%al
  403933:	00 00                	add    %al,(%rax)
  403935:	00 00                	add    %al,(%rax)
  403937:	00 f8                	add    %bh,%al
  403939:	02 00                	add    (%rax),%al
  40393b:	00 00                	add    %al,(%rax)
  40393d:	00 00                	add    %al,(%rax)
  40393f:	00 f8                	add    %bh,%al
  403941:	02 00                	add    (%rax),%al
  403943:	00 00                	add    %al,(%rax)
  403945:	00 00                	add    %al,(%rax)
  403947:	00 f8                	add    %bh,%al
  403949:	02 00                	add    (%rax),%al
  40394b:	00 00                	add    %al,(%rax)
  40394d:	00 00                	add    %al,(%rax)
  40394f:	00 f8                	add    %bh,%al
  403951:	02 00                	add    (%rax),%al
  403953:	00 00                	add    %al,(%rax)
  403955:	00 00                	add    %al,(%rax)
  403957:	00 f8                	add    %bh,%al
  403959:	02 00                	add    (%rax),%al
  40395b:	00 00                	add    %al,(%rax)
  40395d:	00 00                	add    %al,(%rax)
  40395f:	00 f8                	add    %bh,%al
  403961:	02 00                	add    (%rax),%al
  403963:	00 00                	add    %al,(%rax)
  403965:	00 00                	add    %al,(%rax)
  403967:	00 f8                	add    %bh,%al
  403969:	02 00                	add    (%rax),%al
  40396b:	00 00                	add    %al,(%rax)
  40396d:	00 00                	add    %al,(%rax)
  40396f:	00 f8                	add    %bh,%al
  403971:	02 00                	add    (%rax),%al
  403973:	00 00                	add    %al,(%rax)
  403975:	00 00                	add    %al,(%rax)
  403977:	00 f8                	add    %bh,%al
  403979:	02 00                	add    (%rax),%al
  40397b:	00 00                	add    %al,(%rax)
  40397d:	00 00                	add    %al,(%rax)
  40397f:	00 ff                	add    %bh,%bh
  403981:	02 00                	add    (%rax),%al
  403983:	00 00                	add    %al,(%rax)
  403985:	00 00                	add    %al,(%rax)
  403987:	00 ff                	add    %bh,%bh
  403989:	02 00                	add    (%rax),%al
  40398b:	00 00                	add    %al,(%rax)
  40398d:	00 00                	add    %al,(%rax)
  40398f:	00 ff                	add    %bh,%bh
  403991:	02 00                	add    (%rax),%al
  403993:	00 00                	add    %al,(%rax)
  403995:	00 00                	add    %al,(%rax)
  403997:	00 ff                	add    %bh,%bh
  403999:	02 00                	add    (%rax),%al
  40399b:	00 00                	add    %al,(%rax)
  40399d:	00 00                	add    %al,(%rax)
  40399f:	00 ff                	add    %bh,%bh
  4039a1:	02 00                	add    (%rax),%al
  4039a3:	00 00                	add    %al,(%rax)
  4039a5:	00 00                	add    %al,(%rax)
  4039a7:	00 ff                	add    %bh,%bh
  4039a9:	02 00                	add    (%rax),%al
  4039ab:	00 00                	add    %al,(%rax)
  4039ad:	00 00                	add    %al,(%rax)
  4039af:	00 ff                	add    %bh,%bh
  4039b1:	02 00                	add    (%rax),%al
  4039b3:	00 00                	add    %al,(%rax)
  4039b5:	00 00                	add    %al,(%rax)
  4039b7:	00 ff                	add    %bh,%bh
  4039b9:	02 00                	add    (%rax),%al
  4039bb:	00 00                	add    %al,(%rax)
  4039bd:	00 00                	add    %al,(%rax)
  4039bf:	00 ff                	add    %bh,%bh
  4039c1:	02 00                	add    (%rax),%al
  4039c3:	00 00                	add    %al,(%rax)
  4039c5:	00 00                	add    %al,(%rax)
  4039c7:	00 ff                	add    %bh,%bh
  4039c9:	02 00                	add    (%rax),%al
  4039cb:	00 00                	add    %al,(%rax)
  4039cd:	00 00                	add    %al,(%rax)
  4039cf:	00 ff                	add    %bh,%bh
  4039d1:	02 00                	add    (%rax),%al
  4039d3:	00 00                	add    %al,(%rax)
  4039d5:	00 00                	add    %al,(%rax)
  4039d7:	00 ff                	add    %bh,%bh
  4039d9:	02 00                	add    (%rax),%al
  4039db:	00 00                	add    %al,(%rax)
  4039dd:	00 00                	add    %al,(%rax)
  4039df:	00 ff                	add    %bh,%bh
  4039e1:	02 00                	add    (%rax),%al
  4039e3:	00 00                	add    %al,(%rax)
  4039e5:	00 00                	add    %al,(%rax)
  4039e7:	00 ff                	add    %bh,%bh
  4039e9:	02 00                	add    (%rax),%al
  4039eb:	00 00                	add    %al,(%rax)
  4039ed:	00 00                	add    %al,(%rax)
  4039ef:	00 ff                	add    %bh,%bh
  4039f1:	02 00                	add    (%rax),%al
  4039f3:	00 00                	add    %al,(%rax)
  4039f5:	00 00                	add    %al,(%rax)
  4039f7:	00 ff                	add    %bh,%bh
  4039f9:	02 00                	add    (%rax),%al
  4039fb:	00 00                	add    %al,(%rax)
  4039fd:	00 00                	add    %al,(%rax)
  4039ff:	00 ff                	add    %bh,%bh
  403a01:	02 00                	add    (%rax),%al
  403a03:	00 00                	add    %al,(%rax)
  403a05:	00 00                	add    %al,(%rax)
  403a07:	00 ff                	add    %bh,%bh
  403a09:	02 00                	add    (%rax),%al
  403a0b:	00 00                	add    %al,(%rax)
  403a0d:	00 00                	add    %al,(%rax)
  403a0f:	00 ff                	add    %bh,%bh
  403a11:	02 00                	add    (%rax),%al
  403a13:	00 00                	add    %al,(%rax)
  403a15:	00 00                	add    %al,(%rax)
  403a17:	00 ff                	add    %bh,%bh
  403a19:	02 00                	add    (%rax),%al
  403a1b:	00 00                	add    %al,(%rax)
  403a1d:	00 00                	add    %al,(%rax)
  403a1f:	00 ff                	add    %bh,%bh
  403a21:	02 00                	add    (%rax),%al
  403a23:	00 00                	add    %al,(%rax)
  403a25:	00 00                	add    %al,(%rax)
  403a27:	00 ff                	add    %bh,%bh
  403a29:	02 00                	add    (%rax),%al
  403a2b:	00 00                	add    %al,(%rax)
  403a2d:	00 00                	add    %al,(%rax)
  403a2f:	00 ff                	add    %bh,%bh
  403a31:	02 00                	add    (%rax),%al
  403a33:	00 00                	add    %al,(%rax)
  403a35:	00 00                	add    %al,(%rax)
  403a37:	00 ff                	add    %bh,%bh
  403a39:	02 00                	add    (%rax),%al
  403a3b:	00 00                	add    %al,(%rax)
  403a3d:	00 00                	add    %al,(%rax)
  403a3f:	00 ff                	add    %bh,%bh
  403a41:	02 00                	add    (%rax),%al
  403a43:	00 00                	add    %al,(%rax)
  403a45:	00 00                	add    %al,(%rax)
  403a47:	00 ff                	add    %bh,%bh
  403a49:	02 00                	add    (%rax),%al
  403a4b:	00 00                	add    %al,(%rax)
  403a4d:	00 00                	add    %al,(%rax)
  403a4f:	00 ff                	add    %bh,%bh
  403a51:	02 00                	add    (%rax),%al
  403a53:	00 00                	add    %al,(%rax)
  403a55:	00 00                	add    %al,(%rax)
  403a57:	00 ff                	add    %bh,%bh
  403a59:	02 00                	add    (%rax),%al
  403a5b:	00 00                	add    %al,(%rax)
  403a5d:	00 00                	add    %al,(%rax)
  403a5f:	00 ff                	add    %bh,%bh
  403a61:	02 00                	add    (%rax),%al
  403a63:	00 00                	add    %al,(%rax)
  403a65:	00 00                	add    %al,(%rax)
  403a67:	00 ff                	add    %bh,%bh
  403a69:	02 00                	add    (%rax),%al
  403a6b:	00 00                	add    %al,(%rax)
  403a6d:	00 00                	add    %al,(%rax)
  403a6f:	00 ff                	add    %bh,%bh
  403a71:	02 00                	add    (%rax),%al
  403a73:	00 00                	add    %al,(%rax)
  403a75:	00 00                	add    %al,(%rax)
  403a77:	00 ff                	add    %bh,%bh
  403a79:	02 00                	add    (%rax),%al
  403a7b:	00 00                	add    %al,(%rax)
  403a7d:	00 00                	add    %al,(%rax)
  403a7f:	00 ff                	add    %bh,%bh
  403a81:	02 00                	add    (%rax),%al
  403a83:	00 00                	add    %al,(%rax)
  403a85:	00 00                	add    %al,(%rax)
  403a87:	00 ff                	add    %bh,%bh
  403a89:	02 00                	add    (%rax),%al
  403a8b:	00 00                	add    %al,(%rax)
  403a8d:	00 00                	add    %al,(%rax)
  403a8f:	00 ff                	add    %bh,%bh
  403a91:	02 00                	add    (%rax),%al
  403a93:	00 00                	add    %al,(%rax)
  403a95:	00 00                	add    %al,(%rax)
  403a97:	00 ff                	add    %bh,%bh
  403a99:	02 00                	add    (%rax),%al
  403a9b:	00 00                	add    %al,(%rax)
  403a9d:	00 00                	add    %al,(%rax)
  403a9f:	00 ff                	add    %bh,%bh
  403aa1:	02 00                	add    (%rax),%al
  403aa3:	00 00                	add    %al,(%rax)
  403aa5:	00 00                	add    %al,(%rax)
  403aa7:	00 ff                	add    %bh,%bh
  403aa9:	02 00                	add    (%rax),%al
  403aab:	00 00                	add    %al,(%rax)
  403aad:	00 00                	add    %al,(%rax)
  403aaf:	00 ff                	add    %bh,%bh
  403ab1:	02 00                	add    (%rax),%al
  403ab3:	00 00                	add    %al,(%rax)
  403ab5:	00 00                	add    %al,(%rax)
  403ab7:	00 ff                	add    %bh,%bh
  403ab9:	02 00                	add    (%rax),%al
  403abb:	00 00                	add    %al,(%rax)
  403abd:	00 00                	add    %al,(%rax)
  403abf:	00 ff                	add    %bh,%bh
  403ac1:	02 00                	add    (%rax),%al
  403ac3:	00 00                	add    %al,(%rax)
  403ac5:	00 00                	add    %al,(%rax)
  403ac7:	00 ff                	add    %bh,%bh
  403ac9:	02 00                	add    (%rax),%al
  403acb:	00 00                	add    %al,(%rax)
  403acd:	00 00                	add    %al,(%rax)
  403acf:	00 ff                	add    %bh,%bh
  403ad1:	02 00                	add    (%rax),%al
  403ad3:	00 00                	add    %al,(%rax)
  403ad5:	00 00                	add    %al,(%rax)
  403ad7:	00 ff                	add    %bh,%bh
  403ad9:	02 00                	add    (%rax),%al
  403adb:	00 00                	add    %al,(%rax)
  403add:	00 00                	add    %al,(%rax)
  403adf:	00 ff                	add    %bh,%bh
  403ae1:	02 00                	add    (%rax),%al
  403ae3:	00 00                	add    %al,(%rax)
  403ae5:	00 00                	add    %al,(%rax)
  403ae7:	00 ff                	add    %bh,%bh
  403ae9:	02 00                	add    (%rax),%al
  403aeb:	00 00                	add    %al,(%rax)
  403aed:	00 00                	add    %al,(%rax)
  403aef:	00 ff                	add    %bh,%bh
  403af1:	02 00                	add    (%rax),%al
  403af3:	00 00                	add    %al,(%rax)
  403af5:	00 00                	add    %al,(%rax)
  403af7:	00 ff                	add    %bh,%bh
  403af9:	02 00                	add    (%rax),%al
  403afb:	00 00                	add    %al,(%rax)
  403afd:	00 00                	add    %al,(%rax)
  403aff:	00 ff                	add    %bh,%bh
  403b01:	02 00                	add    (%rax),%al
  403b03:	00 00                	add    %al,(%rax)
  403b05:	00 00                	add    %al,(%rax)
  403b07:	00 ff                	add    %bh,%bh
  403b09:	02 00                	add    (%rax),%al
  403b0b:	00 00                	add    %al,(%rax)
  403b0d:	00 00                	add    %al,(%rax)
  403b0f:	00 ff                	add    %bh,%bh
  403b11:	02 00                	add    (%rax),%al
  403b13:	00 00                	add    %al,(%rax)
  403b15:	00 00                	add    %al,(%rax)
  403b17:	00 ff                	add    %bh,%bh
  403b19:	02 00                	add    (%rax),%al
  403b1b:	00 00                	add    %al,(%rax)
  403b1d:	00 00                	add    %al,(%rax)
  403b1f:	00 ff                	add    %bh,%bh
  403b21:	02 00                	add    (%rax),%al
  403b23:	00 00                	add    %al,(%rax)
  403b25:	00 00                	add    %al,(%rax)
  403b27:	00 ff                	add    %bh,%bh
  403b29:	02 00                	add    (%rax),%al
  403b2b:	00 00                	add    %al,(%rax)
  403b2d:	00 00                	add    %al,(%rax)
  403b2f:	00 ff                	add    %bh,%bh
  403b31:	02 00                	add    (%rax),%al
  403b33:	00 00                	add    %al,(%rax)
  403b35:	00 00                	add    %al,(%rax)
  403b37:	00 ff                	add    %bh,%bh
  403b39:	02 00                	add    (%rax),%al
  403b3b:	00 00                	add    %al,(%rax)
  403b3d:	00 00                	add    %al,(%rax)
  403b3f:	00 ff                	add    %bh,%bh
  403b41:	02 00                	add    (%rax),%al
  403b43:	00 00                	add    %al,(%rax)
  403b45:	00 00                	add    %al,(%rax)
  403b47:	00 ff                	add    %bh,%bh
  403b49:	02 00                	add    (%rax),%al
  403b4b:	00 00                	add    %al,(%rax)
  403b4d:	00 00                	add    %al,(%rax)
  403b4f:	00 ff                	add    %bh,%bh
  403b51:	02 00                	add    (%rax),%al
  403b53:	00 00                	add    %al,(%rax)
  403b55:	00 00                	add    %al,(%rax)
  403b57:	00 ff                	add    %bh,%bh
  403b59:	02 00                	add    (%rax),%al
  403b5b:	00 00                	add    %al,(%rax)
  403b5d:	00 00                	add    %al,(%rax)
  403b5f:	00 ff                	add    %bh,%bh
  403b61:	02 00                	add    (%rax),%al
  403b63:	00 00                	add    %al,(%rax)
  403b65:	00 00                	add    %al,(%rax)
  403b67:	00 ff                	add    %bh,%bh
  403b69:	02 00                	add    (%rax),%al
  403b6b:	00 00                	add    %al,(%rax)
  403b6d:	00 00                	add    %al,(%rax)
  403b6f:	00 ff                	add    %bh,%bh
  403b71:	02 00                	add    (%rax),%al
  403b73:	00 00                	add    %al,(%rax)
  403b75:	00 00                	add    %al,(%rax)
  403b77:	00 ff                	add    %bh,%bh
  403b79:	02 00                	add    (%rax),%al
  403b7b:	00 00                	add    %al,(%rax)
  403b7d:	00 00                	add    %al,(%rax)
  403b7f:	00 06                	add    %al,(%rsi)
  403b81:	03 00                	add    (%rax),%eax
  403b83:	00 00                	add    %al,(%rax)
  403b85:	00 00                	add    %al,(%rax)
  403b87:	00 06                	add    %al,(%rsi)
  403b89:	03 00                	add    (%rax),%eax
  403b8b:	00 00                	add    %al,(%rax)
  403b8d:	00 00                	add    %al,(%rax)
  403b8f:	00 06                	add    %al,(%rsi)
  403b91:	03 00                	add    (%rax),%eax
  403b93:	00 00                	add    %al,(%rax)
  403b95:	00 00                	add    %al,(%rax)
  403b97:	00 06                	add    %al,(%rsi)
  403b99:	03 00                	add    (%rax),%eax
  403b9b:	00 00                	add    %al,(%rax)
  403b9d:	00 00                	add    %al,(%rax)
  403b9f:	00 06                	add    %al,(%rsi)
  403ba1:	03 00                	add    (%rax),%eax
  403ba3:	00 00                	add    %al,(%rax)
  403ba5:	00 00                	add    %al,(%rax)
  403ba7:	00 06                	add    %al,(%rsi)
  403ba9:	03 00                	add    (%rax),%eax
  403bab:	00 00                	add    %al,(%rax)
  403bad:	00 00                	add    %al,(%rax)
  403baf:	00 06                	add    %al,(%rsi)
  403bb1:	03 00                	add    (%rax),%eax
  403bb3:	00 00                	add    %al,(%rax)
  403bb5:	00 00                	add    %al,(%rax)
  403bb7:	00 06                	add    %al,(%rsi)
  403bb9:	03 00                	add    (%rax),%eax
  403bbb:	00 00                	add    %al,(%rax)
  403bbd:	00 00                	add    %al,(%rax)
  403bbf:	00 06                	add    %al,(%rsi)
  403bc1:	03 00                	add    (%rax),%eax
  403bc3:	00 00                	add    %al,(%rax)
  403bc5:	00 00                	add    %al,(%rax)
  403bc7:	00 06                	add    %al,(%rsi)
  403bc9:	03 00                	add    (%rax),%eax
  403bcb:	00 00                	add    %al,(%rax)
  403bcd:	00 00                	add    %al,(%rax)
  403bcf:	00 06                	add    %al,(%rsi)
  403bd1:	03 00                	add    (%rax),%eax
  403bd3:	00 00                	add    %al,(%rax)
  403bd5:	00 00                	add    %al,(%rax)
  403bd7:	00 06                	add    %al,(%rsi)
  403bd9:	03 00                	add    (%rax),%eax
  403bdb:	00 00                	add    %al,(%rax)
  403bdd:	00 00                	add    %al,(%rax)
  403bdf:	00 06                	add    %al,(%rsi)
  403be1:	03 00                	add    (%rax),%eax
  403be3:	00 00                	add    %al,(%rax)
  403be5:	00 00                	add    %al,(%rax)
  403be7:	00 06                	add    %al,(%rsi)
  403be9:	03 00                	add    (%rax),%eax
  403beb:	00 00                	add    %al,(%rax)
  403bed:	00 00                	add    %al,(%rax)
  403bef:	00 06                	add    %al,(%rsi)
  403bf1:	03 00                	add    (%rax),%eax
  403bf3:	00 00                	add    %al,(%rax)
  403bf5:	00 00                	add    %al,(%rax)
  403bf7:	00 06                	add    %al,(%rsi)
  403bf9:	03 00                	add    (%rax),%eax
  403bfb:	00 00                	add    %al,(%rax)
  403bfd:	00 00                	add    %al,(%rax)
  403bff:	00 06                	add    %al,(%rsi)
  403c01:	03 00                	add    (%rax),%eax
  403c03:	00 00                	add    %al,(%rax)
  403c05:	00 00                	add    %al,(%rax)
  403c07:	00 06                	add    %al,(%rsi)
  403c09:	03 00                	add    (%rax),%eax
  403c0b:	00 00                	add    %al,(%rax)
  403c0d:	00 00                	add    %al,(%rax)
  403c0f:	00 06                	add    %al,(%rsi)
  403c11:	03 00                	add    (%rax),%eax
  403c13:	00 00                	add    %al,(%rax)
  403c15:	00 00                	add    %al,(%rax)
  403c17:	00 06                	add    %al,(%rsi)
  403c19:	03 00                	add    (%rax),%eax
  403c1b:	00 00                	add    %al,(%rax)
  403c1d:	00 00                	add    %al,(%rax)
  403c1f:	00 06                	add    %al,(%rsi)
  403c21:	03 00                	add    (%rax),%eax
  403c23:	00 00                	add    %al,(%rax)
  403c25:	00 00                	add    %al,(%rax)
  403c27:	00 06                	add    %al,(%rsi)
  403c29:	03 00                	add    (%rax),%eax
  403c2b:	00 00                	add    %al,(%rax)
  403c2d:	00 00                	add    %al,(%rax)
  403c2f:	00 06                	add    %al,(%rsi)
  403c31:	03 00                	add    (%rax),%eax
  403c33:	00 00                	add    %al,(%rax)
  403c35:	00 00                	add    %al,(%rax)
  403c37:	00 06                	add    %al,(%rsi)
  403c39:	03 00                	add    (%rax),%eax
  403c3b:	00 00                	add    %al,(%rax)
  403c3d:	00 00                	add    %al,(%rax)
  403c3f:	00 06                	add    %al,(%rsi)
  403c41:	03 00                	add    (%rax),%eax
  403c43:	00 00                	add    %al,(%rax)
  403c45:	00 00                	add    %al,(%rax)
  403c47:	00 06                	add    %al,(%rsi)
  403c49:	03 00                	add    (%rax),%eax
  403c4b:	00 00                	add    %al,(%rax)
  403c4d:	00 00                	add    %al,(%rax)
  403c4f:	00 06                	add    %al,(%rsi)
  403c51:	03 00                	add    (%rax),%eax
  403c53:	00 00                	add    %al,(%rax)
  403c55:	00 00                	add    %al,(%rax)
  403c57:	00 06                	add    %al,(%rsi)
  403c59:	03 00                	add    (%rax),%eax
  403c5b:	00 00                	add    %al,(%rax)
  403c5d:	00 00                	add    %al,(%rax)
  403c5f:	00 06                	add    %al,(%rsi)
  403c61:	03 00                	add    (%rax),%eax
  403c63:	00 00                	add    %al,(%rax)
  403c65:	00 00                	add    %al,(%rax)
  403c67:	00 06                	add    %al,(%rsi)
  403c69:	03 00                	add    (%rax),%eax
  403c6b:	00 00                	add    %al,(%rax)
  403c6d:	00 00                	add    %al,(%rax)
  403c6f:	00 06                	add    %al,(%rsi)
  403c71:	03 00                	add    (%rax),%eax
  403c73:	00 00                	add    %al,(%rax)
  403c75:	00 00                	add    %al,(%rax)
  403c77:	00 06                	add    %al,(%rsi)
  403c79:	03 00                	add    (%rax),%eax
  403c7b:	00 00                	add    %al,(%rax)
  403c7d:	00 00                	add    %al,(%rax)
  403c7f:	00 06                	add    %al,(%rsi)
  403c81:	03 00                	add    (%rax),%eax
  403c83:	00 00                	add    %al,(%rax)
  403c85:	00 00                	add    %al,(%rax)
  403c87:	00 06                	add    %al,(%rsi)
  403c89:	03 00                	add    (%rax),%eax
  403c8b:	00 00                	add    %al,(%rax)
  403c8d:	00 00                	add    %al,(%rax)
  403c8f:	00 06                	add    %al,(%rsi)
  403c91:	03 00                	add    (%rax),%eax
  403c93:	00 00                	add    %al,(%rax)
  403c95:	00 00                	add    %al,(%rax)
  403c97:	00 06                	add    %al,(%rsi)
  403c99:	03 00                	add    (%rax),%eax
  403c9b:	00 00                	add    %al,(%rax)
  403c9d:	00 00                	add    %al,(%rax)
  403c9f:	00 06                	add    %al,(%rsi)
  403ca1:	03 00                	add    (%rax),%eax
  403ca3:	00 00                	add    %al,(%rax)
  403ca5:	00 00                	add    %al,(%rax)
  403ca7:	00 06                	add    %al,(%rsi)
  403ca9:	03 00                	add    (%rax),%eax
  403cab:	00 00                	add    %al,(%rax)
  403cad:	00 00                	add    %al,(%rax)
  403caf:	00 06                	add    %al,(%rsi)
  403cb1:	03 00                	add    (%rax),%eax
  403cb3:	00 00                	add    %al,(%rax)
  403cb5:	00 00                	add    %al,(%rax)
  403cb7:	00 06                	add    %al,(%rsi)
  403cb9:	03 00                	add    (%rax),%eax
  403cbb:	00 00                	add    %al,(%rax)
  403cbd:	00 00                	add    %al,(%rax)
  403cbf:	00 06                	add    %al,(%rsi)
  403cc1:	03 00                	add    (%rax),%eax
  403cc3:	00 00                	add    %al,(%rax)
  403cc5:	00 00                	add    %al,(%rax)
  403cc7:	00 06                	add    %al,(%rsi)
  403cc9:	03 00                	add    (%rax),%eax
  403ccb:	00 00                	add    %al,(%rax)
  403ccd:	00 00                	add    %al,(%rax)
  403ccf:	00 06                	add    %al,(%rsi)
  403cd1:	03 00                	add    (%rax),%eax
  403cd3:	00 00                	add    %al,(%rax)
  403cd5:	00 00                	add    %al,(%rax)
  403cd7:	00 06                	add    %al,(%rsi)
  403cd9:	03 00                	add    (%rax),%eax
  403cdb:	00 00                	add    %al,(%rax)
  403cdd:	00 00                	add    %al,(%rax)
  403cdf:	00 06                	add    %al,(%rsi)
  403ce1:	03 00                	add    (%rax),%eax
  403ce3:	00 00                	add    %al,(%rax)
  403ce5:	00 00                	add    %al,(%rax)
  403ce7:	00 06                	add    %al,(%rsi)
  403ce9:	03 00                	add    (%rax),%eax
  403ceb:	00 00                	add    %al,(%rax)
  403ced:	00 00                	add    %al,(%rax)
  403cef:	00 06                	add    %al,(%rsi)
  403cf1:	03 00                	add    (%rax),%eax
  403cf3:	00 00                	add    %al,(%rax)
  403cf5:	00 00                	add    %al,(%rax)
  403cf7:	00 06                	add    %al,(%rsi)
  403cf9:	03 00                	add    (%rax),%eax
  403cfb:	00 00                	add    %al,(%rax)
  403cfd:	00 00                	add    %al,(%rax)
  403cff:	00 06                	add    %al,(%rsi)
  403d01:	03 00                	add    (%rax),%eax
  403d03:	00 00                	add    %al,(%rax)
  403d05:	00 00                	add    %al,(%rax)
  403d07:	00 06                	add    %al,(%rsi)
  403d09:	03 00                	add    (%rax),%eax
  403d0b:	00 00                	add    %al,(%rax)
  403d0d:	00 00                	add    %al,(%rax)
  403d0f:	00 06                	add    %al,(%rsi)
  403d11:	03 00                	add    (%rax),%eax
  403d13:	00 00                	add    %al,(%rax)
  403d15:	00 00                	add    %al,(%rax)
  403d17:	00 06                	add    %al,(%rsi)
  403d19:	03 00                	add    (%rax),%eax
  403d1b:	00 00                	add    %al,(%rax)
  403d1d:	00 00                	add    %al,(%rax)
  403d1f:	00 06                	add    %al,(%rsi)
  403d21:	03 00                	add    (%rax),%eax
  403d23:	00 00                	add    %al,(%rax)
  403d25:	00 00                	add    %al,(%rax)
  403d27:	00 06                	add    %al,(%rsi)
  403d29:	03 00                	add    (%rax),%eax
  403d2b:	00 00                	add    %al,(%rax)
  403d2d:	00 00                	add    %al,(%rax)
  403d2f:	00 06                	add    %al,(%rsi)
  403d31:	03 00                	add    (%rax),%eax
  403d33:	00 00                	add    %al,(%rax)
  403d35:	00 00                	add    %al,(%rax)
  403d37:	00 06                	add    %al,(%rsi)
  403d39:	03 00                	add    (%rax),%eax
  403d3b:	00 00                	add    %al,(%rax)
  403d3d:	00 00                	add    %al,(%rax)
  403d3f:	00 06                	add    %al,(%rsi)
  403d41:	03 00                	add    (%rax),%eax
  403d43:	00 00                	add    %al,(%rax)
  403d45:	00 00                	add    %al,(%rax)
  403d47:	00 06                	add    %al,(%rsi)
  403d49:	03 00                	add    (%rax),%eax
  403d4b:	00 00                	add    %al,(%rax)
  403d4d:	00 00                	add    %al,(%rax)
  403d4f:	00 06                	add    %al,(%rsi)
  403d51:	03 00                	add    (%rax),%eax
  403d53:	00 00                	add    %al,(%rax)
  403d55:	00 00                	add    %al,(%rax)
  403d57:	00 06                	add    %al,(%rsi)
  403d59:	03 00                	add    (%rax),%eax
  403d5b:	00 00                	add    %al,(%rax)
  403d5d:	00 00                	add    %al,(%rax)
  403d5f:	00 06                	add    %al,(%rsi)
  403d61:	03 00                	add    (%rax),%eax
  403d63:	00 00                	add    %al,(%rax)
  403d65:	00 00                	add    %al,(%rax)
  403d67:	00 06                	add    %al,(%rsi)
  403d69:	03 00                	add    (%rax),%eax
  403d6b:	00 00                	add    %al,(%rax)
  403d6d:	00 00                	add    %al,(%rax)
  403d6f:	00 06                	add    %al,(%rsi)
  403d71:	03 00                	add    (%rax),%eax
  403d73:	00 00                	add    %al,(%rax)
  403d75:	00 00                	add    %al,(%rax)
  403d77:	00 06                	add    %al,(%rsi)
  403d79:	03 00                	add    (%rax),%eax
  403d7b:	00 00                	add    %al,(%rax)
  403d7d:	00 00                	add    %al,(%rax)
  403d7f:	00 0d 03 00 00 00    	add    %cl,0x3(%rip)        # 403d88 <__intel_mic_avx512f_memset+0x12c8>
  403d85:	00 00                	add    %al,(%rax)
  403d87:	00 0d 03 00 00 00    	add    %cl,0x3(%rip)        # 403d90 <__intel_mic_avx512f_memset+0x12d0>
  403d8d:	00 00                	add    %al,(%rax)
  403d8f:	00 0d 03 00 00 00    	add    %cl,0x3(%rip)        # 403d98 <__intel_mic_avx512f_memset+0x12d8>
  403d95:	00 00                	add    %al,(%rax)
  403d97:	00 0d 03 00 00 00    	add    %cl,0x3(%rip)        # 403da0 <__intel_mic_avx512f_memset+0x12e0>
  403d9d:	00 00                	add    %al,(%rax)
  403d9f:	00 0d 03 00 00 00    	add    %cl,0x3(%rip)        # 403da8 <__intel_mic_avx512f_memset+0x12e8>
  403da5:	00 00                	add    %al,(%rax)
  403da7:	00 0d 03 00 00 00    	add    %cl,0x3(%rip)        # 403db0 <__intel_mic_avx512f_memset+0x12f0>
  403dad:	00 00                	add    %al,(%rax)
  403daf:	00 0d 03 00 00 00    	add    %cl,0x3(%rip)        # 403db8 <__intel_mic_avx512f_memset+0x12f8>
  403db5:	00 00                	add    %al,(%rax)
  403db7:	00 0d 03 00 00 00    	add    %cl,0x3(%rip)        # 403dc0 <__intel_mic_avx512f_memset+0x1300>
  403dbd:	00 00                	add    %al,(%rax)
  403dbf:	00 0d 03 00 00 00    	add    %cl,0x3(%rip)        # 403dc8 <__intel_mic_avx512f_memset+0x1308>
  403dc5:	00 00                	add    %al,(%rax)
  403dc7:	00 0d 03 00 00 00    	add    %cl,0x3(%rip)        # 403dd0 <__intel_mic_avx512f_memset+0x1310>
  403dcd:	00 00                	add    %al,(%rax)
  403dcf:	00 0d 03 00 00 00    	add    %cl,0x3(%rip)        # 403dd8 <__intel_mic_avx512f_memset+0x1318>
  403dd5:	00 00                	add    %al,(%rax)
  403dd7:	00 0d 03 00 00 00    	add    %cl,0x3(%rip)        # 403de0 <__intel_mic_avx512f_memset+0x1320>
  403ddd:	00 00                	add    %al,(%rax)
  403ddf:	00 0d 03 00 00 00    	add    %cl,0x3(%rip)        # 403de8 <__intel_mic_avx512f_memset+0x1328>
  403de5:	00 00                	add    %al,(%rax)
  403de7:	00 0d 03 00 00 00    	add    %cl,0x3(%rip)        # 403df0 <__intel_mic_avx512f_memset+0x1330>
  403ded:	00 00                	add    %al,(%rax)
  403def:	00 0d 03 00 00 00    	add    %cl,0x3(%rip)        # 403df8 <__intel_mic_avx512f_memset+0x1338>
  403df5:	00 00                	add    %al,(%rax)
  403df7:	00 0d 03 00 00 00    	add    %cl,0x3(%rip)        # 403e00 <__intel_mic_avx512f_memset+0x1340>
  403dfd:	00 00                	add    %al,(%rax)
  403dff:	00 0d 03 00 00 00    	add    %cl,0x3(%rip)        # 403e08 <__intel_mic_avx512f_memset+0x1348>
  403e05:	00 00                	add    %al,(%rax)
  403e07:	00 0d 03 00 00 00    	add    %cl,0x3(%rip)        # 403e10 <__intel_mic_avx512f_memset+0x1350>
  403e0d:	00 00                	add    %al,(%rax)
  403e0f:	00 0d 03 00 00 00    	add    %cl,0x3(%rip)        # 403e18 <__intel_mic_avx512f_memset+0x1358>
  403e15:	00 00                	add    %al,(%rax)
  403e17:	00 0d 03 00 00 00    	add    %cl,0x3(%rip)        # 403e20 <__intel_mic_avx512f_memset+0x1360>
  403e1d:	00 00                	add    %al,(%rax)
  403e1f:	00 0d 03 00 00 00    	add    %cl,0x3(%rip)        # 403e28 <__intel_mic_avx512f_memset+0x1368>
  403e25:	00 00                	add    %al,(%rax)
  403e27:	00 0d 03 00 00 00    	add    %cl,0x3(%rip)        # 403e30 <__intel_mic_avx512f_memset+0x1370>
  403e2d:	00 00                	add    %al,(%rax)
  403e2f:	00 0d 03 00 00 00    	add    %cl,0x3(%rip)        # 403e38 <__intel_mic_avx512f_memset+0x1378>
  403e35:	00 00                	add    %al,(%rax)
  403e37:	00 0d 03 00 00 00    	add    %cl,0x3(%rip)        # 403e40 <__intel_mic_avx512f_memset+0x1380>
  403e3d:	00 00                	add    %al,(%rax)
  403e3f:	00 0d 03 00 00 00    	add    %cl,0x3(%rip)        # 403e48 <__intel_mic_avx512f_memset+0x1388>
  403e45:	00 00                	add    %al,(%rax)
  403e47:	00 0d 03 00 00 00    	add    %cl,0x3(%rip)        # 403e50 <__intel_mic_avx512f_memset+0x1390>
  403e4d:	00 00                	add    %al,(%rax)
  403e4f:	00 0d 03 00 00 00    	add    %cl,0x3(%rip)        # 403e58 <__intel_mic_avx512f_memset+0x1398>
  403e55:	00 00                	add    %al,(%rax)
  403e57:	00 0d 03 00 00 00    	add    %cl,0x3(%rip)        # 403e60 <__intel_mic_avx512f_memset+0x13a0>
  403e5d:	00 00                	add    %al,(%rax)
  403e5f:	00 0d 03 00 00 00    	add    %cl,0x3(%rip)        # 403e68 <__intel_mic_avx512f_memset+0x13a8>
  403e65:	00 00                	add    %al,(%rax)
  403e67:	00 0d 03 00 00 00    	add    %cl,0x3(%rip)        # 403e70 <__intel_mic_avx512f_memset+0x13b0>
  403e6d:	00 00                	add    %al,(%rax)
  403e6f:	00 0d 03 00 00 00    	add    %cl,0x3(%rip)        # 403e78 <__intel_mic_avx512f_memset+0x13b8>
  403e75:	00 00                	add    %al,(%rax)
  403e77:	00 0d 03 00 00 00    	add    %cl,0x3(%rip)        # 403e80 <__intel_mic_avx512f_memset+0x13c0>
  403e7d:	00 00                	add    %al,(%rax)
  403e7f:	00 0d 03 00 00 00    	add    %cl,0x3(%rip)        # 403e88 <__intel_mic_avx512f_memset+0x13c8>
  403e85:	00 00                	add    %al,(%rax)
  403e87:	00 0d 03 00 00 00    	add    %cl,0x3(%rip)        # 403e90 <__intel_mic_avx512f_memset+0x13d0>
  403e8d:	00 00                	add    %al,(%rax)
  403e8f:	00 0d 03 00 00 00    	add    %cl,0x3(%rip)        # 403e98 <__intel_mic_avx512f_memset+0x13d8>
  403e95:	00 00                	add    %al,(%rax)
  403e97:	00 0d 03 00 00 00    	add    %cl,0x3(%rip)        # 403ea0 <__intel_mic_avx512f_memset+0x13e0>
  403e9d:	00 00                	add    %al,(%rax)
  403e9f:	00 0d 03 00 00 00    	add    %cl,0x3(%rip)        # 403ea8 <__intel_mic_avx512f_memset+0x13e8>
  403ea5:	00 00                	add    %al,(%rax)
  403ea7:	00 0d 03 00 00 00    	add    %cl,0x3(%rip)        # 403eb0 <__intel_mic_avx512f_memset+0x13f0>
  403ead:	00 00                	add    %al,(%rax)
  403eaf:	00 0d 03 00 00 00    	add    %cl,0x3(%rip)        # 403eb8 <__intel_mic_avx512f_memset+0x13f8>
  403eb5:	00 00                	add    %al,(%rax)
  403eb7:	00 0d 03 00 00 00    	add    %cl,0x3(%rip)        # 403ec0 <__intel_mic_avx512f_memset+0x1400>
  403ebd:	00 00                	add    %al,(%rax)
  403ebf:	00 0d 03 00 00 00    	add    %cl,0x3(%rip)        # 403ec8 <__intel_mic_avx512f_memset+0x1408>
  403ec5:	00 00                	add    %al,(%rax)
  403ec7:	00 0d 03 00 00 00    	add    %cl,0x3(%rip)        # 403ed0 <__intel_mic_avx512f_memset+0x1410>
  403ecd:	00 00                	add    %al,(%rax)
  403ecf:	00 0d 03 00 00 00    	add    %cl,0x3(%rip)        # 403ed8 <__intel_mic_avx512f_memset+0x1418>
  403ed5:	00 00                	add    %al,(%rax)
  403ed7:	00 0d 03 00 00 00    	add    %cl,0x3(%rip)        # 403ee0 <__intel_mic_avx512f_memset+0x1420>
  403edd:	00 00                	add    %al,(%rax)
  403edf:	00 0d 03 00 00 00    	add    %cl,0x3(%rip)        # 403ee8 <__intel_mic_avx512f_memset+0x1428>
  403ee5:	00 00                	add    %al,(%rax)
  403ee7:	00 0d 03 00 00 00    	add    %cl,0x3(%rip)        # 403ef0 <__intel_mic_avx512f_memset+0x1430>
  403eed:	00 00                	add    %al,(%rax)
  403eef:	00 0d 03 00 00 00    	add    %cl,0x3(%rip)        # 403ef8 <__intel_mic_avx512f_memset+0x1438>
  403ef5:	00 00                	add    %al,(%rax)
  403ef7:	00 0d 03 00 00 00    	add    %cl,0x3(%rip)        # 403f00 <__intel_mic_avx512f_memset+0x1440>
  403efd:	00 00                	add    %al,(%rax)
  403eff:	00 0d 03 00 00 00    	add    %cl,0x3(%rip)        # 403f08 <__intel_mic_avx512f_memset+0x1448>
  403f05:	00 00                	add    %al,(%rax)
  403f07:	00 0d 03 00 00 00    	add    %cl,0x3(%rip)        # 403f10 <__intel_mic_avx512f_memset+0x1450>
  403f0d:	00 00                	add    %al,(%rax)
  403f0f:	00 0d 03 00 00 00    	add    %cl,0x3(%rip)        # 403f18 <__intel_mic_avx512f_memset+0x1458>
  403f15:	00 00                	add    %al,(%rax)
  403f17:	00 0d 03 00 00 00    	add    %cl,0x3(%rip)        # 403f20 <__intel_mic_avx512f_memset+0x1460>
  403f1d:	00 00                	add    %al,(%rax)
  403f1f:	00 0d 03 00 00 00    	add    %cl,0x3(%rip)        # 403f28 <__intel_mic_avx512f_memset+0x1468>
  403f25:	00 00                	add    %al,(%rax)
  403f27:	00 0d 03 00 00 00    	add    %cl,0x3(%rip)        # 403f30 <__intel_mic_avx512f_memset+0x1470>
  403f2d:	00 00                	add    %al,(%rax)
  403f2f:	00 0d 03 00 00 00    	add    %cl,0x3(%rip)        # 403f38 <__intel_mic_avx512f_memset+0x1478>
  403f35:	00 00                	add    %al,(%rax)
  403f37:	00 0d 03 00 00 00    	add    %cl,0x3(%rip)        # 403f40 <__intel_mic_avx512f_memset+0x1480>
  403f3d:	00 00                	add    %al,(%rax)
  403f3f:	00 0d 03 00 00 00    	add    %cl,0x3(%rip)        # 403f48 <__intel_mic_avx512f_memset+0x1488>
  403f45:	00 00                	add    %al,(%rax)
  403f47:	00 0d 03 00 00 00    	add    %cl,0x3(%rip)        # 403f50 <__intel_mic_avx512f_memset+0x1490>
  403f4d:	00 00                	add    %al,(%rax)
  403f4f:	00 0d 03 00 00 00    	add    %cl,0x3(%rip)        # 403f58 <__intel_mic_avx512f_memset+0x1498>
  403f55:	00 00                	add    %al,(%rax)
  403f57:	00 0d 03 00 00 00    	add    %cl,0x3(%rip)        # 403f60 <__intel_mic_avx512f_memset+0x14a0>
  403f5d:	00 00                	add    %al,(%rax)
  403f5f:	00 0d 03 00 00 00    	add    %cl,0x3(%rip)        # 403f68 <__intel_mic_avx512f_memset+0x14a8>
  403f65:	00 00                	add    %al,(%rax)
  403f67:	00 0d 03 00 00 00    	add    %cl,0x3(%rip)        # 403f70 <__intel_mic_avx512f_memset+0x14b0>
  403f6d:	00 00                	add    %al,(%rax)
  403f6f:	00 0d 03 00 00 00    	add    %cl,0x3(%rip)        # 403f78 <__intel_mic_avx512f_memset+0x14b8>
  403f75:	00 00                	add    %al,(%rax)
  403f77:	00 0d 03 00 00 00    	add    %cl,0x3(%rip)        # 403f80 <__intel_mic_avx512f_memset+0x14c0>
  403f7d:	00 00                	add    %al,(%rax)
  403f7f:	00 c0                	add    %al,%al
  403f81:	12 00                	adc    (%rax),%al
  403f83:	00 00                	add    %al,(%rax)
  403f85:	00 00                	add    %al,(%rax)
  403f87:	00 c8                	add    %cl,%al
  403f89:	12 00                	adc    (%rax),%al
  403f8b:	00 00                	add    %al,(%rax)
  403f8d:	00 00                	add    %al,(%rax)
  403f8f:	00 bb 12 00 00 00    	add    %bh,0x12(%rbx)
  403f95:	00 00                	add    %al,(%rax)
  403f97:	00 b2 12 00 00 00    	add    %dh,0x12(%rdx)
  403f9d:	00 00                	add    %al,(%rax)
  403f9f:	00 a5 12 00 00 00    	add    %ah,0x12(%rbp)
  403fa5:	00 00                	add    %al,(%rax)
  403fa7:	00 9d 12 00 00 00    	add    %bl,0x12(%rbp)
  403fad:	00 00                	add    %al,(%rax)
  403faf:	00 9d 12 00 00 00    	add    %bl,0x12(%rbp)
  403fb5:	00 00                	add    %al,(%rax)
  403fb7:	00 9d 12 00 00 00    	add    %bl,0x12(%rbp)
  403fbd:	00 00                	add    %al,(%rax)
  403fbf:	00 91 12 00 00 00    	add    %dl,0x12(%rcx)
  403fc5:	00 00                	add    %al,(%rax)
  403fc7:	00 89 12 00 00 00    	add    %cl,0x12(%rcx)
  403fcd:	00 00                	add    %al,(%rax)
  403fcf:	00 89 12 00 00 00    	add    %cl,0x12(%rcx)
  403fd5:	00 00                	add    %al,(%rax)
  403fd7:	00 89 12 00 00 00    	add    %cl,0x12(%rcx)
  403fdd:	00 00                	add    %al,(%rax)
  403fdf:	00 89 12 00 00 00    	add    %cl,0x12(%rcx)
  403fe5:	00 00                	add    %al,(%rax)
  403fe7:	00 89 12 00 00 00    	add    %cl,0x12(%rcx)
  403fed:	00 00                	add    %al,(%rax)
  403fef:	00 89 12 00 00 00    	add    %cl,0x12(%rcx)
  403ff5:	00 00                	add    %al,(%rax)
  403ff7:	00 89 12 00 00 00    	add    %cl,0x12(%rcx)
  403ffd:	00 00                	add    %al,(%rax)
  403fff:	00 7d 12             	add    %bh,0x12(%rbp)
  404002:	00 00                	add    %al,(%rax)
  404004:	00 00                	add    %al,(%rax)
  404006:	00 00                	add    %al,(%rax)
  404008:	74 12                	je     40401c <__intel_mic_avx512f_memset+0x155c>
  40400a:	00 00                	add    %al,(%rax)
  40400c:	00 00                	add    %al,(%rax)
  40400e:	00 00                	add    %al,(%rax)
  404010:	74 12                	je     404024 <__intel_mic_avx512f_memset+0x1564>
  404012:	00 00                	add    %al,(%rax)
  404014:	00 00                	add    %al,(%rax)
  404016:	00 00                	add    %al,(%rax)
  404018:	74 12                	je     40402c <__intel_mic_avx512f_memset+0x156c>
  40401a:	00 00                	add    %al,(%rax)
  40401c:	00 00                	add    %al,(%rax)
  40401e:	00 00                	add    %al,(%rax)
  404020:	74 12                	je     404034 <__intel_mic_avx512f_memset+0x1574>
  404022:	00 00                	add    %al,(%rax)
  404024:	00 00                	add    %al,(%rax)
  404026:	00 00                	add    %al,(%rax)
  404028:	74 12                	je     40403c <__intel_mic_avx512f_memset+0x157c>
  40402a:	00 00                	add    %al,(%rax)
  40402c:	00 00                	add    %al,(%rax)
  40402e:	00 00                	add    %al,(%rax)
  404030:	74 12                	je     404044 <__intel_mic_avx512f_memset+0x1584>
  404032:	00 00                	add    %al,(%rax)
  404034:	00 00                	add    %al,(%rax)
  404036:	00 00                	add    %al,(%rax)
  404038:	74 12                	je     40404c <__intel_mic_avx512f_memset+0x158c>
  40403a:	00 00                	add    %al,(%rax)
  40403c:	00 00                	add    %al,(%rax)
  40403e:	00 00                	add    %al,(%rax)
  404040:	74 12                	je     404054 <__intel_mic_avx512f_memset+0x1594>
  404042:	00 00                	add    %al,(%rax)
  404044:	00 00                	add    %al,(%rax)
  404046:	00 00                	add    %al,(%rax)
  404048:	74 12                	je     40405c <__intel_mic_avx512f_memset+0x159c>
  40404a:	00 00                	add    %al,(%rax)
  40404c:	00 00                	add    %al,(%rax)
  40404e:	00 00                	add    %al,(%rax)
  404050:	74 12                	je     404064 <__intel_mic_avx512f_memset+0x15a4>
  404052:	00 00                	add    %al,(%rax)
  404054:	00 00                	add    %al,(%rax)
  404056:	00 00                	add    %al,(%rax)
  404058:	74 12                	je     40406c <__intel_mic_avx512f_memset+0x15ac>
  40405a:	00 00                	add    %al,(%rax)
  40405c:	00 00                	add    %al,(%rax)
  40405e:	00 00                	add    %al,(%rax)
  404060:	74 12                	je     404074 <__intel_mic_avx512f_memset+0x15b4>
  404062:	00 00                	add    %al,(%rax)
  404064:	00 00                	add    %al,(%rax)
  404066:	00 00                	add    %al,(%rax)
  404068:	74 12                	je     40407c <__intel_mic_avx512f_memset+0x15bc>
  40406a:	00 00                	add    %al,(%rax)
  40406c:	00 00                	add    %al,(%rax)
  40406e:	00 00                	add    %al,(%rax)
  404070:	74 12                	je     404084 <__intel_mic_avx512f_memset+0x15c4>
  404072:	00 00                	add    %al,(%rax)
  404074:	00 00                	add    %al,(%rax)
  404076:	00 00                	add    %al,(%rax)
  404078:	74 12                	je     40408c <__intel_mic_avx512f_memset+0x15cc>
  40407a:	00 00                	add    %al,(%rax)
  40407c:	00 00                	add    %al,(%rax)
  40407e:	00 00                	add    %al,(%rax)
  404080:	65 12 00             	adc    %gs:(%rax),%al
  404083:	00 00                	add    %al,(%rax)
  404085:	00 00                	add    %al,(%rax)
  404087:	00 5c 12 00          	add    %bl,0x0(%rdx,%rdx,1)
  40408b:	00 00                	add    %al,(%rax)
  40408d:	00 00                	add    %al,(%rax)
  40408f:	00 5c 12 00          	add    %bl,0x0(%rdx,%rdx,1)
  404093:	00 00                	add    %al,(%rax)
  404095:	00 00                	add    %al,(%rax)
  404097:	00 5c 12 00          	add    %bl,0x0(%rdx,%rdx,1)
  40409b:	00 00                	add    %al,(%rax)
  40409d:	00 00                	add    %al,(%rax)
  40409f:	00 5c 12 00          	add    %bl,0x0(%rdx,%rdx,1)
  4040a3:	00 00                	add    %al,(%rax)
  4040a5:	00 00                	add    %al,(%rax)
  4040a7:	00 5c 12 00          	add    %bl,0x0(%rdx,%rdx,1)
  4040ab:	00 00                	add    %al,(%rax)
  4040ad:	00 00                	add    %al,(%rax)
  4040af:	00 5c 12 00          	add    %bl,0x0(%rdx,%rdx,1)
  4040b3:	00 00                	add    %al,(%rax)
  4040b5:	00 00                	add    %al,(%rax)
  4040b7:	00 5c 12 00          	add    %bl,0x0(%rdx,%rdx,1)
  4040bb:	00 00                	add    %al,(%rax)
  4040bd:	00 00                	add    %al,(%rax)
  4040bf:	00 5c 12 00          	add    %bl,0x0(%rdx,%rdx,1)
  4040c3:	00 00                	add    %al,(%rax)
  4040c5:	00 00                	add    %al,(%rax)
  4040c7:	00 5c 12 00          	add    %bl,0x0(%rdx,%rdx,1)
  4040cb:	00 00                	add    %al,(%rax)
  4040cd:	00 00                	add    %al,(%rax)
  4040cf:	00 5c 12 00          	add    %bl,0x0(%rdx,%rdx,1)
  4040d3:	00 00                	add    %al,(%rax)
  4040d5:	00 00                	add    %al,(%rax)
  4040d7:	00 5c 12 00          	add    %bl,0x0(%rdx,%rdx,1)
  4040db:	00 00                	add    %al,(%rax)
  4040dd:	00 00                	add    %al,(%rax)
  4040df:	00 5c 12 00          	add    %bl,0x0(%rdx,%rdx,1)
  4040e3:	00 00                	add    %al,(%rax)
  4040e5:	00 00                	add    %al,(%rax)
  4040e7:	00 5c 12 00          	add    %bl,0x0(%rdx,%rdx,1)
  4040eb:	00 00                	add    %al,(%rax)
  4040ed:	00 00                	add    %al,(%rax)
  4040ef:	00 5c 12 00          	add    %bl,0x0(%rdx,%rdx,1)
  4040f3:	00 00                	add    %al,(%rax)
  4040f5:	00 00                	add    %al,(%rax)
  4040f7:	00 5c 12 00          	add    %bl,0x0(%rdx,%rdx,1)
  4040fb:	00 00                	add    %al,(%rax)
  4040fd:	00 00                	add    %al,(%rax)
  4040ff:	00 5c 12 00          	add    %bl,0x0(%rdx,%rdx,1)
  404103:	00 00                	add    %al,(%rax)
  404105:	00 00                	add    %al,(%rax)
  404107:	00 5c 12 00          	add    %bl,0x0(%rdx,%rdx,1)
  40410b:	00 00                	add    %al,(%rax)
  40410d:	00 00                	add    %al,(%rax)
  40410f:	00 5c 12 00          	add    %bl,0x0(%rdx,%rdx,1)
  404113:	00 00                	add    %al,(%rax)
  404115:	00 00                	add    %al,(%rax)
  404117:	00 5c 12 00          	add    %bl,0x0(%rdx,%rdx,1)
  40411b:	00 00                	add    %al,(%rax)
  40411d:	00 00                	add    %al,(%rax)
  40411f:	00 5c 12 00          	add    %bl,0x0(%rdx,%rdx,1)
  404123:	00 00                	add    %al,(%rax)
  404125:	00 00                	add    %al,(%rax)
  404127:	00 5c 12 00          	add    %bl,0x0(%rdx,%rdx,1)
  40412b:	00 00                	add    %al,(%rax)
  40412d:	00 00                	add    %al,(%rax)
  40412f:	00 5c 12 00          	add    %bl,0x0(%rdx,%rdx,1)
  404133:	00 00                	add    %al,(%rax)
  404135:	00 00                	add    %al,(%rax)
  404137:	00 5c 12 00          	add    %bl,0x0(%rdx,%rdx,1)
  40413b:	00 00                	add    %al,(%rax)
  40413d:	00 00                	add    %al,(%rax)
  40413f:	00 5c 12 00          	add    %bl,0x0(%rdx,%rdx,1)
  404143:	00 00                	add    %al,(%rax)
  404145:	00 00                	add    %al,(%rax)
  404147:	00 5c 12 00          	add    %bl,0x0(%rdx,%rdx,1)
  40414b:	00 00                	add    %al,(%rax)
  40414d:	00 00                	add    %al,(%rax)
  40414f:	00 5c 12 00          	add    %bl,0x0(%rdx,%rdx,1)
  404153:	00 00                	add    %al,(%rax)
  404155:	00 00                	add    %al,(%rax)
  404157:	00 5c 12 00          	add    %bl,0x0(%rdx,%rdx,1)
  40415b:	00 00                	add    %al,(%rax)
  40415d:	00 00                	add    %al,(%rax)
  40415f:	00 5c 12 00          	add    %bl,0x0(%rdx,%rdx,1)
  404163:	00 00                	add    %al,(%rax)
  404165:	00 00                	add    %al,(%rax)
  404167:	00 5c 12 00          	add    %bl,0x0(%rdx,%rdx,1)
  40416b:	00 00                	add    %al,(%rax)
  40416d:	00 00                	add    %al,(%rax)
  40416f:	00 5c 12 00          	add    %bl,0x0(%rdx,%rdx,1)
  404173:	00 00                	add    %al,(%rax)
  404175:	00 00                	add    %al,(%rax)
  404177:	00 5c 12 00          	add    %bl,0x0(%rdx,%rdx,1)
  40417b:	00 00                	add    %al,(%rax)
  40417d:	00 00                	add    %al,(%rax)
  40417f:	00 4d 12             	add    %cl,0x12(%rbp)
  404182:	00 00                	add    %al,(%rax)
  404184:	00 00                	add    %al,(%rax)
  404186:	00 00                	add    %al,(%rax)
  404188:	42 12 00             	rex.X adc (%rax),%al
  40418b:	00 00                	add    %al,(%rax)
  40418d:	00 00                	add    %al,(%rax)
  40418f:	00 42 12             	add    %al,0x12(%rdx)
  404192:	00 00                	add    %al,(%rax)
  404194:	00 00                	add    %al,(%rax)
  404196:	00 00                	add    %al,(%rax)
  404198:	42 12 00             	rex.X adc (%rax),%al
  40419b:	00 00                	add    %al,(%rax)
  40419d:	00 00                	add    %al,(%rax)
  40419f:	00 42 12             	add    %al,0x12(%rdx)
  4041a2:	00 00                	add    %al,(%rax)
  4041a4:	00 00                	add    %al,(%rax)
  4041a6:	00 00                	add    %al,(%rax)
  4041a8:	42 12 00             	rex.X adc (%rax),%al
  4041ab:	00 00                	add    %al,(%rax)
  4041ad:	00 00                	add    %al,(%rax)
  4041af:	00 42 12             	add    %al,0x12(%rdx)
  4041b2:	00 00                	add    %al,(%rax)
  4041b4:	00 00                	add    %al,(%rax)
  4041b6:	00 00                	add    %al,(%rax)
  4041b8:	42 12 00             	rex.X adc (%rax),%al
  4041bb:	00 00                	add    %al,(%rax)
  4041bd:	00 00                	add    %al,(%rax)
  4041bf:	00 42 12             	add    %al,0x12(%rdx)
  4041c2:	00 00                	add    %al,(%rax)
  4041c4:	00 00                	add    %al,(%rax)
  4041c6:	00 00                	add    %al,(%rax)
  4041c8:	42 12 00             	rex.X adc (%rax),%al
  4041cb:	00 00                	add    %al,(%rax)
  4041cd:	00 00                	add    %al,(%rax)
  4041cf:	00 42 12             	add    %al,0x12(%rdx)
  4041d2:	00 00                	add    %al,(%rax)
  4041d4:	00 00                	add    %al,(%rax)
  4041d6:	00 00                	add    %al,(%rax)
  4041d8:	42 12 00             	rex.X adc (%rax),%al
  4041db:	00 00                	add    %al,(%rax)
  4041dd:	00 00                	add    %al,(%rax)
  4041df:	00 42 12             	add    %al,0x12(%rdx)
  4041e2:	00 00                	add    %al,(%rax)
  4041e4:	00 00                	add    %al,(%rax)
  4041e6:	00 00                	add    %al,(%rax)
  4041e8:	42 12 00             	rex.X adc (%rax),%al
  4041eb:	00 00                	add    %al,(%rax)
  4041ed:	00 00                	add    %al,(%rax)
  4041ef:	00 42 12             	add    %al,0x12(%rdx)
  4041f2:	00 00                	add    %al,(%rax)
  4041f4:	00 00                	add    %al,(%rax)
  4041f6:	00 00                	add    %al,(%rax)
  4041f8:	42 12 00             	rex.X adc (%rax),%al
  4041fb:	00 00                	add    %al,(%rax)
  4041fd:	00 00                	add    %al,(%rax)
  4041ff:	00 42 12             	add    %al,0x12(%rdx)
  404202:	00 00                	add    %al,(%rax)
  404204:	00 00                	add    %al,(%rax)
  404206:	00 00                	add    %al,(%rax)
  404208:	42 12 00             	rex.X adc (%rax),%al
  40420b:	00 00                	add    %al,(%rax)
  40420d:	00 00                	add    %al,(%rax)
  40420f:	00 42 12             	add    %al,0x12(%rdx)
  404212:	00 00                	add    %al,(%rax)
  404214:	00 00                	add    %al,(%rax)
  404216:	00 00                	add    %al,(%rax)
  404218:	42 12 00             	rex.X adc (%rax),%al
  40421b:	00 00                	add    %al,(%rax)
  40421d:	00 00                	add    %al,(%rax)
  40421f:	00 42 12             	add    %al,0x12(%rdx)
  404222:	00 00                	add    %al,(%rax)
  404224:	00 00                	add    %al,(%rax)
  404226:	00 00                	add    %al,(%rax)
  404228:	42 12 00             	rex.X adc (%rax),%al
  40422b:	00 00                	add    %al,(%rax)
  40422d:	00 00                	add    %al,(%rax)
  40422f:	00 42 12             	add    %al,0x12(%rdx)
  404232:	00 00                	add    %al,(%rax)
  404234:	00 00                	add    %al,(%rax)
  404236:	00 00                	add    %al,(%rax)
  404238:	42 12 00             	rex.X adc (%rax),%al
  40423b:	00 00                	add    %al,(%rax)
  40423d:	00 00                	add    %al,(%rax)
  40423f:	00 42 12             	add    %al,0x12(%rdx)
  404242:	00 00                	add    %al,(%rax)
  404244:	00 00                	add    %al,(%rax)
  404246:	00 00                	add    %al,(%rax)
  404248:	42 12 00             	rex.X adc (%rax),%al
  40424b:	00 00                	add    %al,(%rax)
  40424d:	00 00                	add    %al,(%rax)
  40424f:	00 42 12             	add    %al,0x12(%rdx)
  404252:	00 00                	add    %al,(%rax)
  404254:	00 00                	add    %al,(%rax)
  404256:	00 00                	add    %al,(%rax)
  404258:	42 12 00             	rex.X adc (%rax),%al
  40425b:	00 00                	add    %al,(%rax)
  40425d:	00 00                	add    %al,(%rax)
  40425f:	00 42 12             	add    %al,0x12(%rdx)
  404262:	00 00                	add    %al,(%rax)
  404264:	00 00                	add    %al,(%rax)
  404266:	00 00                	add    %al,(%rax)
  404268:	42 12 00             	rex.X adc (%rax),%al
  40426b:	00 00                	add    %al,(%rax)
  40426d:	00 00                	add    %al,(%rax)
  40426f:	00 42 12             	add    %al,0x12(%rdx)
  404272:	00 00                	add    %al,(%rax)
  404274:	00 00                	add    %al,(%rax)
  404276:	00 00                	add    %al,(%rax)
  404278:	42 12 00             	rex.X adc (%rax),%al
  40427b:	00 00                	add    %al,(%rax)
  40427d:	00 00                	add    %al,(%rax)
  40427f:	00 42 12             	add    %al,0x12(%rdx)
  404282:	00 00                	add    %al,(%rax)
  404284:	00 00                	add    %al,(%rax)
  404286:	00 00                	add    %al,(%rax)
  404288:	42 12 00             	rex.X adc (%rax),%al
  40428b:	00 00                	add    %al,(%rax)
  40428d:	00 00                	add    %al,(%rax)
  40428f:	00 42 12             	add    %al,0x12(%rdx)
  404292:	00 00                	add    %al,(%rax)
  404294:	00 00                	add    %al,(%rax)
  404296:	00 00                	add    %al,(%rax)
  404298:	42 12 00             	rex.X adc (%rax),%al
  40429b:	00 00                	add    %al,(%rax)
  40429d:	00 00                	add    %al,(%rax)
  40429f:	00 42 12             	add    %al,0x12(%rdx)
  4042a2:	00 00                	add    %al,(%rax)
  4042a4:	00 00                	add    %al,(%rax)
  4042a6:	00 00                	add    %al,(%rax)
  4042a8:	42 12 00             	rex.X adc (%rax),%al
  4042ab:	00 00                	add    %al,(%rax)
  4042ad:	00 00                	add    %al,(%rax)
  4042af:	00 42 12             	add    %al,0x12(%rdx)
  4042b2:	00 00                	add    %al,(%rax)
  4042b4:	00 00                	add    %al,(%rax)
  4042b6:	00 00                	add    %al,(%rax)
  4042b8:	42 12 00             	rex.X adc (%rax),%al
  4042bb:	00 00                	add    %al,(%rax)
  4042bd:	00 00                	add    %al,(%rax)
  4042bf:	00 42 12             	add    %al,0x12(%rdx)
  4042c2:	00 00                	add    %al,(%rax)
  4042c4:	00 00                	add    %al,(%rax)
  4042c6:	00 00                	add    %al,(%rax)
  4042c8:	42 12 00             	rex.X adc (%rax),%al
  4042cb:	00 00                	add    %al,(%rax)
  4042cd:	00 00                	add    %al,(%rax)
  4042cf:	00 42 12             	add    %al,0x12(%rdx)
  4042d2:	00 00                	add    %al,(%rax)
  4042d4:	00 00                	add    %al,(%rax)
  4042d6:	00 00                	add    %al,(%rax)
  4042d8:	42 12 00             	rex.X adc (%rax),%al
  4042db:	00 00                	add    %al,(%rax)
  4042dd:	00 00                	add    %al,(%rax)
  4042df:	00 42 12             	add    %al,0x12(%rdx)
  4042e2:	00 00                	add    %al,(%rax)
  4042e4:	00 00                	add    %al,(%rax)
  4042e6:	00 00                	add    %al,(%rax)
  4042e8:	42 12 00             	rex.X adc (%rax),%al
  4042eb:	00 00                	add    %al,(%rax)
  4042ed:	00 00                	add    %al,(%rax)
  4042ef:	00 42 12             	add    %al,0x12(%rdx)
  4042f2:	00 00                	add    %al,(%rax)
  4042f4:	00 00                	add    %al,(%rax)
  4042f6:	00 00                	add    %al,(%rax)
  4042f8:	42 12 00             	rex.X adc (%rax),%al
  4042fb:	00 00                	add    %al,(%rax)
  4042fd:	00 00                	add    %al,(%rax)
  4042ff:	00 42 12             	add    %al,0x12(%rdx)
  404302:	00 00                	add    %al,(%rax)
  404304:	00 00                	add    %al,(%rax)
  404306:	00 00                	add    %al,(%rax)
  404308:	42 12 00             	rex.X adc (%rax),%al
  40430b:	00 00                	add    %al,(%rax)
  40430d:	00 00                	add    %al,(%rax)
  40430f:	00 42 12             	add    %al,0x12(%rdx)
  404312:	00 00                	add    %al,(%rax)
  404314:	00 00                	add    %al,(%rax)
  404316:	00 00                	add    %al,(%rax)
  404318:	42 12 00             	rex.X adc (%rax),%al
  40431b:	00 00                	add    %al,(%rax)
  40431d:	00 00                	add    %al,(%rax)
  40431f:	00 42 12             	add    %al,0x12(%rdx)
  404322:	00 00                	add    %al,(%rax)
  404324:	00 00                	add    %al,(%rax)
  404326:	00 00                	add    %al,(%rax)
  404328:	42 12 00             	rex.X adc (%rax),%al
  40432b:	00 00                	add    %al,(%rax)
  40432d:	00 00                	add    %al,(%rax)
  40432f:	00 42 12             	add    %al,0x12(%rdx)
  404332:	00 00                	add    %al,(%rax)
  404334:	00 00                	add    %al,(%rax)
  404336:	00 00                	add    %al,(%rax)
  404338:	42 12 00             	rex.X adc (%rax),%al
  40433b:	00 00                	add    %al,(%rax)
  40433d:	00 00                	add    %al,(%rax)
  40433f:	00 42 12             	add    %al,0x12(%rdx)
  404342:	00 00                	add    %al,(%rax)
  404344:	00 00                	add    %al,(%rax)
  404346:	00 00                	add    %al,(%rax)
  404348:	42 12 00             	rex.X adc (%rax),%al
  40434b:	00 00                	add    %al,(%rax)
  40434d:	00 00                	add    %al,(%rax)
  40434f:	00 42 12             	add    %al,0x12(%rdx)
  404352:	00 00                	add    %al,(%rax)
  404354:	00 00                	add    %al,(%rax)
  404356:	00 00                	add    %al,(%rax)
  404358:	42 12 00             	rex.X adc (%rax),%al
  40435b:	00 00                	add    %al,(%rax)
  40435d:	00 00                	add    %al,(%rax)
  40435f:	00 42 12             	add    %al,0x12(%rdx)
  404362:	00 00                	add    %al,(%rax)
  404364:	00 00                	add    %al,(%rax)
  404366:	00 00                	add    %al,(%rax)
  404368:	42 12 00             	rex.X adc (%rax),%al
  40436b:	00 00                	add    %al,(%rax)
  40436d:	00 00                	add    %al,(%rax)
  40436f:	00 42 12             	add    %al,0x12(%rdx)
  404372:	00 00                	add    %al,(%rax)
  404374:	00 00                	add    %al,(%rax)
  404376:	00 00                	add    %al,(%rax)
  404378:	42 12 00             	rex.X adc (%rax),%al
  40437b:	00 00                	add    %al,(%rax)
  40437d:	00 00                	add    %al,(%rax)
  40437f:	00 c3                	add    %al,%bl
  404381:	0f 1f 00             	nopl   (%rax)
  404384:	66 2e 0f 1f 84 00 00 	cs nopw 0x0(%rax,%rax,1)
  40438b:	00 00 00 
  40438e:	66 90                	xchg   %ax,%ax

0000000000404390 <__intel_avx_rep_memset>:
  404390:	f3 0f 1e fa          	endbr64
  404394:	49 89 f8             	mov    %rdi,%r8
  404397:	49 c7 c2 c0 c0 40 00 	mov    $0x40c0c0,%r10
  40439e:	49 89 fb             	mov    %rdi,%r11
  4043a1:	48 b8 01 01 01 01 01 	movabs $0x101010101010101,%rax
  4043a8:	01 01 01 
  4043ab:	4c 0f b6 ce          	movzbq %sil,%r9
  4043af:	4c 0f af c8          	imul   %rax,%r9
  4043b3:	48 8d 35 86 0c 00 00 	lea    0xc86(%rip),%rsi        # 405040 <__intel_avx_rep_memset+0xcb0>
  4043ba:	c4 c1 f9 6e c1       	vmovq  %r9,%xmm0
  4043bf:	48 81 fa 80 00 00 00 	cmp    $0x80,%rdx
  4043c6:	77 18                	ja     4043e0 <__intel_avx_rep_memset+0x50>
  4043c8:	4c 89 df             	mov    %r11,%rdi
  4043cb:	48 01 d7             	add    %rdx,%rdi
  4043ce:	48 2b 34 d6          	sub    (%rsi,%rdx,8),%rsi
  4043d2:	3e ff e6             	notrack jmp *%rsi
  4043d5:	66 66 2e 0f 1f 84 00 	data16 cs nopw 0x0(%rax,%rax,1)
  4043dc:	00 00 00 00 
  4043e0:	48 8d 35 59 03 00 00 	lea    0x359(%rip),%rsi        # 404740 <__intel_avx_rep_memset+0x3b0>
  4043e7:	4c 89 d9             	mov    %r11,%rcx
  4043ea:	48 83 e1 1f          	and    $0x1f,%rcx
  4043ee:	74 23                	je     404413 <__intel_avx_rep_memset+0x83>
  4043f0:	48 f7 d9             	neg    %rcx
  4043f3:	48 83 c1 20          	add    $0x20,%rcx
  4043f7:	48 29 ca             	sub    %rcx,%rdx
  4043fa:	4c 89 df             	mov    %r11,%rdi
  4043fd:	48 01 cf             	add    %rcx,%rdi
  404400:	48 2b 34 ce          	sub    (%rsi,%rcx,8),%rsi
  404404:	3e ff e6             	notrack jmp *%rsi
  404407:	66 0f 1f 84 00 00 00 	nopw   0x0(%rax,%rax,1)
  40440e:	00 00 
  404410:	49 01 cb             	add    %rcx,%r11
  404413:	48 81 fa 00 01 00 00 	cmp    $0x100,%rdx
  40441a:	0f 8c 30 01 00 00    	jl     404550 <__intel_avx_rep_memset+0x1c0>
  404420:	49 8b 0a             	mov    (%r10),%rcx
  404423:	48 89 cf             	mov    %rcx,%rdi
  404426:	48 c1 e9 04          	shr    $0x4,%rcx
  40442a:	48 29 cf             	sub    %rcx,%rdi
  40442d:	48 39 fa             	cmp    %rdi,%rdx
  404430:	73 5e                	jae    404490 <__intel_avx_rep_memset+0x100>
  404432:	c4 e2 7d 58 c0       	vpbroadcastd %xmm0,%ymm0
  404437:	c4 c1 7d 7f 03       	vmovdqa %ymm0,(%r11)
  40443c:	c4 c1 7d 7f 43 20    	vmovdqa %ymm0,0x20(%r11)
  404442:	c4 c1 7d 7f 43 40    	vmovdqa %ymm0,0x40(%r11)
  404448:	c4 c1 7d 7f 43 60    	vmovdqa %ymm0,0x60(%r11)
  40444e:	49 81 c3 00 01 00 00 	add    $0x100,%r11
  404455:	48 81 ea 00 01 00 00 	sub    $0x100,%rdx
  40445c:	c4 c1 7d 7f 43 80    	vmovdqa %ymm0,-0x80(%r11)
  404462:	c4 c1 7d 7f 43 a0    	vmovdqa %ymm0,-0x60(%r11)
  404468:	c4 c1 7d 7f 43 c0    	vmovdqa %ymm0,-0x40(%r11)
  40446e:	c4 c1 7d 7f 43 e0    	vmovdqa %ymm0,-0x20(%r11)
  404474:	48 81 fa 00 01 00 00 	cmp    $0x100,%rdx
  40447b:	7d ba                	jge    404437 <__intel_avx_rep_memset+0xa7>
  40447d:	e9 de 00 00 00       	jmp    404560 <__intel_avx_rep_memset+0x1d0>
  404482:	66 66 66 66 66 2e 0f 	data16 data16 data16 data16 cs nopw 0x0(%rax,%rax,1)
  404489:	1f 84 00 00 00 00 00 
  404490:	4c 89 df             	mov    %r11,%rdi
  404493:	4c 89 c8             	mov    %r9,%rax
  404496:	48 89 d1             	mov    %rdx,%rcx
  404499:	fc                   	cld
  40449a:	f3 aa                	rep stos %al,%es:(%rdi)
  40449c:	e9 af 0f 00 00       	jmp    405450 <__intel_avx_rep_memset+0x10c0>
  4044a1:	66 66 66 66 66 66 2e 	data16 data16 data16 data16 data16 cs nopw 0x0(%rax,%rax,1)
  4044a8:	0f 1f 84 00 00 00 00 
  4044af:	00 
  4044b0:	45 88 0b             	mov    %r9b,(%r11)
  4044b3:	e9 58 ff ff ff       	jmp    404410 <__intel_avx_rep_memset+0x80>
  4044b8:	0f 1f 84 00 00 00 00 	nopl   0x0(%rax,%rax,1)
  4044bf:	00 
  4044c0:	66 45 89 0b          	mov    %r9w,(%r11)
  4044c4:	e9 47 ff ff ff       	jmp    404410 <__intel_avx_rep_memset+0x80>
  4044c9:	0f 1f 80 00 00 00 00 	nopl   0x0(%rax)
  4044d0:	66 45 89 0b          	mov    %r9w,(%r11)
  4044d4:	45 88 4b 02          	mov    %r9b,0x2(%r11)
  4044d8:	e9 33 ff ff ff       	jmp    404410 <__intel_avx_rep_memset+0x80>
  4044dd:	0f 1f 00             	nopl   (%rax)
  4044e0:	45 89 0b             	mov    %r9d,(%r11)
  4044e3:	e9 28 ff ff ff       	jmp    404410 <__intel_avx_rep_memset+0x80>
  4044e8:	0f 1f 84 00 00 00 00 	nopl   0x0(%rax,%rax,1)
  4044ef:	00 
  4044f0:	45 89 0b             	mov    %r9d,(%r11)
  4044f3:	44 89 4f fc          	mov    %r9d,-0x4(%rdi)
  4044f7:	e9 14 ff ff ff       	jmp    404410 <__intel_avx_rep_memset+0x80>
  4044fc:	0f 1f 40 00          	nopl   0x0(%rax)
  404500:	4d 89 0b             	mov    %r9,(%r11)
  404503:	e9 08 ff ff ff       	jmp    404410 <__intel_avx_rep_memset+0x80>
  404508:	0f 1f 84 00 00 00 00 	nopl   0x0(%rax,%rax,1)
  40450f:	00 
  404510:	4d 89 0b             	mov    %r9,(%r11)
  404513:	4c 89 4f f8          	mov    %r9,-0x8(%rdi)
  404517:	e9 f4 fe ff ff       	jmp    404410 <__intel_avx_rep_memset+0x80>
  40451c:	0f 1f 40 00          	nopl   0x0(%rax)
  404520:	4d 89 0b             	mov    %r9,(%r11)
  404523:	4d 89 4b 08          	mov    %r9,0x8(%r11)
  404527:	e9 e4 fe ff ff       	jmp    404410 <__intel_avx_rep_memset+0x80>
  40452c:	0f 1f 40 00          	nopl   0x0(%rax)
  404530:	4d 89 0b             	mov    %r9,(%r11)
  404533:	4d 89 4b 08          	mov    %r9,0x8(%r11)
  404537:	4c 89 4f f0          	mov    %r9,-0x10(%rdi)
  40453b:	4c 89 4f f8          	mov    %r9,-0x8(%rdi)
  40453f:	e9 cc fe ff ff       	jmp    404410 <__intel_avx_rep_memset+0x80>
  404544:	66 66 66 2e 0f 1f 84 	data16 data16 cs nopw 0x0(%rax,%rax,1)
  40454b:	00 00 00 00 00 
  404550:	c4 e2 7d 58 c0       	vpbroadcastd %xmm0,%ymm0
  404555:	66 66 2e 0f 1f 84 00 	data16 cs nopw 0x0(%rax,%rax,1)
  40455c:	00 00 00 00 
  404560:	49 01 d3             	add    %rdx,%r11
  404563:	4c 89 df             	mov    %r11,%rdi
  404566:	49 83 e3 e0          	and    $0xffffffffffffffe0,%r11
  40456a:	48 8d 35 cf 02 00 00 	lea    0x2cf(%rip),%rsi        # 404840 <__intel_avx_rep_memset+0x4b0>
  404571:	48 2b 34 d6          	sub    (%rsi,%rdx,8),%rsi
  404575:	3e ff e6             	notrack jmp *%rsi
  404578:	0f 1f 84 00 00 00 00 	nopl   0x0(%rax,%rax,1)
  40457f:	00 
  404580:	c4 c1 7c 29 83 20 ff 	vmovaps %ymm0,-0xe0(%r11)
  404587:	ff ff 
  404589:	c4 c1 7c 29 83 40 ff 	vmovaps %ymm0,-0xc0(%r11)
  404590:	ff ff 
  404592:	c4 c1 7c 29 83 60 ff 	vmovaps %ymm0,-0xa0(%r11)
  404599:	ff ff 
  40459b:	0f 1f 44 00 00       	nopl   0x0(%rax,%rax,1)
  4045a0:	c4 c1 7c 29 43 80    	vmovaps %ymm0,-0x80(%r11)
  4045a6:	c4 c1 7c 29 43 a0    	vmovaps %ymm0,-0x60(%r11)
  4045ac:	c4 c1 7c 29 43 c0    	vmovaps %ymm0,-0x40(%r11)
  4045b2:	c4 c1 7c 29 43 e0    	vmovaps %ymm0,-0x20(%r11)
  4045b8:	48 89 fa             	mov    %rdi,%rdx
  4045bb:	48 83 e2 1f          	and    $0x1f,%rdx
  4045bf:	48 8d 35 7a 02 00 00 	lea    0x27a(%rip),%rsi        # 404840 <__intel_avx_rep_memset+0x4b0>
  4045c6:	48 2b 34 d6          	sub    (%rsi,%rdx,8),%rsi
  4045ca:	3e ff e6             	notrack jmp *%rsi
  4045cd:	0f 1f 00             	nopl   (%rax)
  4045d0:	45 88 0b             	mov    %r9b,(%r11)
  4045d3:	e9 78 0e 00 00       	jmp    405450 <__intel_avx_rep_memset+0x10c0>
  4045d8:	0f 1f 84 00 00 00 00 	nopl   0x0(%rax,%rax,1)
  4045df:	00 
  4045e0:	e9 6b 0e 00 00       	jmp    405450 <__intel_avx_rep_memset+0x10c0>
  4045e5:	66 66 2e 0f 1f 84 00 	data16 cs nopw 0x0(%rax,%rax,1)
  4045ec:	00 00 00 00 
  4045f0:	66 45 89 0b          	mov    %r9w,(%r11)
  4045f4:	e9 57 0e 00 00       	jmp    405450 <__intel_avx_rep_memset+0x10c0>
  4045f9:	0f 1f 80 00 00 00 00 	nopl   0x0(%rax)
  404600:	66 45 89 0b          	mov    %r9w,(%r11)
  404604:	45 88 4b 02          	mov    %r9b,0x2(%r11)
  404608:	e9 43 0e 00 00       	jmp    405450 <__intel_avx_rep_memset+0x10c0>
  40460d:	0f 1f 00             	nopl   (%rax)
  404610:	45 89 0b             	mov    %r9d,(%r11)
  404613:	e9 38 0e 00 00       	jmp    405450 <__intel_avx_rep_memset+0x10c0>
  404618:	0f 1f 84 00 00 00 00 	nopl   0x0(%rax,%rax,1)
  40461f:	00 
  404620:	45 89 0b             	mov    %r9d,(%r11)
  404623:	44 89 4f fc          	mov    %r9d,-0x4(%rdi)
  404627:	e9 24 0e 00 00       	jmp    405450 <__intel_avx_rep_memset+0x10c0>
  40462c:	0f 1f 40 00          	nopl   0x0(%rax)
  404630:	4d 89 0b             	mov    %r9,(%r11)
  404633:	e9 18 0e 00 00       	jmp    405450 <__intel_avx_rep_memset+0x10c0>
  404638:	0f 1f 84 00 00 00 00 	nopl   0x0(%rax,%rax,1)
  40463f:	00 
  404640:	4d 89 0b             	mov    %r9,(%r11)
  404643:	4c 89 4f f8          	mov    %r9,-0x8(%rdi)
  404647:	e9 04 0e 00 00       	jmp    405450 <__intel_avx_rep_memset+0x10c0>
  40464c:	0f 1f 40 00          	nopl   0x0(%rax)
  404650:	c4 c1 78 11 03       	vmovups %xmm0,(%r11)
  404655:	e9 f6 0d 00 00       	jmp    405450 <__intel_avx_rep_memset+0x10c0>
  40465a:	66 0f 1f 44 00 00    	nopw   0x0(%rax,%rax,1)
  404660:	c4 c1 78 11 03       	vmovups %xmm0,(%r11)
  404665:	c5 f8 11 47 f0       	vmovups %xmm0,-0x10(%rdi)
  40466a:	e9 e1 0d 00 00       	jmp    405450 <__intel_avx_rep_memset+0x10c0>
  40466f:	90                   	nop
  404670:	c4 e2 7d 58 c0       	vpbroadcastd %xmm0,%ymm0
  404675:	c4 c1 7c 11 03       	vmovups %ymm0,(%r11)
  40467a:	e9 d1 0d 00 00       	jmp    405450 <__intel_avx_rep_memset+0x10c0>
  40467f:	90                   	nop
  404680:	c4 e2 7d 58 c0       	vpbroadcastd %xmm0,%ymm0
  404685:	c4 c1 7c 11 03       	vmovups %ymm0,(%r11)
  40468a:	c5 fc 11 47 e0       	vmovups %ymm0,-0x20(%rdi)
  40468f:	e9 bc 0d 00 00       	jmp    405450 <__intel_avx_rep_memset+0x10c0>
  404694:	66 66 66 2e 0f 1f 84 	data16 data16 cs nopw 0x0(%rax,%rax,1)
  40469b:	00 00 00 00 00 
  4046a0:	c4 e2 7d 58 c0       	vpbroadcastd %xmm0,%ymm0
  4046a5:	c4 c1 7c 11 03       	vmovups %ymm0,(%r11)
  4046aa:	c4 c1 7c 11 43 20    	vmovups %ymm0,0x20(%r11)
  4046b0:	e9 9b 0d 00 00       	jmp    405450 <__intel_avx_rep_memset+0x10c0>
  4046b5:	66 66 2e 0f 1f 84 00 	data16 cs nopw 0x0(%rax,%rax,1)
  4046bc:	00 00 00 00 
  4046c0:	c4 e2 7d 58 c0       	vpbroadcastd %xmm0,%ymm0
  4046c5:	c4 c1 7c 11 03       	vmovups %ymm0,(%r11)
  4046ca:	c4 c1 7c 11 43 20    	vmovups %ymm0,0x20(%r11)
  4046d0:	c5 fc 11 47 e0       	vmovups %ymm0,-0x20(%rdi)
  4046d5:	c5 fc 11 47 c0       	vmovups %ymm0,-0x40(%rdi)
  4046da:	e9 71 0d 00 00       	jmp    405450 <__intel_avx_rep_memset+0x10c0>
  4046df:	90                   	nop
  4046e0:	c4 e2 7d 58 c0       	vpbroadcastd %xmm0,%ymm0
  4046e5:	c4 c1 7c 11 03       	vmovups %ymm0,(%r11)
  4046ea:	c4 c1 7c 11 43 20    	vmovups %ymm0,0x20(%r11)
  4046f0:	c4 c1 7c 11 43 40    	vmovups %ymm0,0x40(%r11)
  4046f6:	c4 c1 7c 11 43 60    	vmovups %ymm0,0x60(%r11)
  4046fc:	e9 4f 0d 00 00       	jmp    405450 <__intel_avx_rep_memset+0x10c0>
  404701:	66 66 66 66 66 66 2e 	data16 data16 data16 data16 data16 cs nopw 0x0(%rax,%rax,1)
  404708:	0f 1f 84 00 00 00 00 
  40470f:	00 
  404710:	66 0f 6c c0          	punpcklqdq %xmm0,%xmm0
  404714:	c4 c1 78 11 03       	vmovups %xmm0,(%r11)
  404719:	e9 32 0d 00 00       	jmp    405450 <__intel_avx_rep_memset+0x10c0>
  40471e:	66 90                	xchg   %ax,%ax
  404720:	66 0f 6c c0          	punpcklqdq %xmm0,%xmm0
  404724:	c4 c1 78 11 03       	vmovups %xmm0,(%r11)
  404729:	c5 f8 11 47 f0       	vmovups %xmm0,-0x10(%rdi)
  40472e:	e9 1d 0d 00 00       	jmp    405450 <__intel_avx_rep_memset+0x10c0>
  404733:	66 66 66 66 2e 0f 1f 	data16 data16 data16 cs nopw 0x0(%rax,%rax,1)
  40473a:	84 00 00 00 00 00 
  404740:	8d 02                	lea    (%rdx),%eax
  404742:	00 00                	add    %al,(%rax)
  404744:	00 00                	add    %al,(%rax)
  404746:	00 00                	add    %al,(%rax)
  404748:	90                   	nop
  404749:	02 00                	add    (%rax),%al
  40474b:	00 00                	add    %al,(%rax)
  40474d:	00 00                	add    %al,(%rax)
  40474f:	00 80 02 00 00 00    	add    %al,0x2(%rax)
  404755:	00 00                	add    %al,(%rax)
  404757:	00 70 02             	add    %dh,0x2(%rax)
  40475a:	00 00                	add    %al,(%rax)
  40475c:	00 00                	add    %al,(%rax)
  40475e:	00 00                	add    %al,(%rax)
  404760:	60                   	(bad)
  404761:	02 00                	add    (%rax),%al
  404763:	00 00                	add    %al,(%rax)
  404765:	00 00                	add    %al,(%rax)
  404767:	00 50 02             	add    %dl,0x2(%rax)
  40476a:	00 00                	add    %al,(%rax)
  40476c:	00 00                	add    %al,(%rax)
  40476e:	00 00                	add    %al,(%rax)
  404770:	50                   	push   %rax
  404771:	02 00                	add    (%rax),%al
  404773:	00 00                	add    %al,(%rax)
  404775:	00 00                	add    %al,(%rax)
  404777:	00 50 02             	add    %dl,0x2(%rax)
  40477a:	00 00                	add    %al,(%rax)
  40477c:	00 00                	add    %al,(%rax)
  40477e:	00 00                	add    %al,(%rax)
  404780:	40 02 00             	rex add (%rax),%al
  404783:	00 00                	add    %al,(%rax)
  404785:	00 00                	add    %al,(%rax)
  404787:	00 30                	add    %dh,(%rax)
  404789:	02 00                	add    (%rax),%al
  40478b:	00 00                	add    %al,(%rax)
  40478d:	00 00                	add    %al,(%rax)
  40478f:	00 30                	add    %dh,(%rax)
  404791:	02 00                	add    (%rax),%al
  404793:	00 00                	add    %al,(%rax)
  404795:	00 00                	add    %al,(%rax)
  404797:	00 30                	add    %dh,(%rax)
  404799:	02 00                	add    (%rax),%al
  40479b:	00 00                	add    %al,(%rax)
  40479d:	00 00                	add    %al,(%rax)
  40479f:	00 30                	add    %dh,(%rax)
  4047a1:	02 00                	add    (%rax),%al
  4047a3:	00 00                	add    %al,(%rax)
  4047a5:	00 00                	add    %al,(%rax)
  4047a7:	00 30                	add    %dh,(%rax)
  4047a9:	02 00                	add    (%rax),%al
  4047ab:	00 00                	add    %al,(%rax)
  4047ad:	00 00                	add    %al,(%rax)
  4047af:	00 30                	add    %dh,(%rax)
  4047b1:	02 00                	add    (%rax),%al
  4047b3:	00 00                	add    %al,(%rax)
  4047b5:	00 00                	add    %al,(%rax)
  4047b7:	00 30                	add    %dh,(%rax)
  4047b9:	02 00                	add    (%rax),%al
  4047bb:	00 00                	add    %al,(%rax)
  4047bd:	00 00                	add    %al,(%rax)
  4047bf:	00 20                	add    %ah,(%rax)
  4047c1:	02 00                	add    (%rax),%al
  4047c3:	00 00                	add    %al,(%rax)
  4047c5:	00 00                	add    %al,(%rax)
  4047c7:	00 10                	add    %dl,(%rax)
  4047c9:	02 00                	add    (%rax),%al
  4047cb:	00 00                	add    %al,(%rax)
  4047cd:	00 00                	add    %al,(%rax)
  4047cf:	00 10                	add    %dl,(%rax)
  4047d1:	02 00                	add    (%rax),%al
  4047d3:	00 00                	add    %al,(%rax)
  4047d5:	00 00                	add    %al,(%rax)
  4047d7:	00 10                	add    %dl,(%rax)
  4047d9:	02 00                	add    (%rax),%al
  4047db:	00 00                	add    %al,(%rax)
  4047dd:	00 00                	add    %al,(%rax)
  4047df:	00 10                	add    %dl,(%rax)
  4047e1:	02 00                	add    (%rax),%al
  4047e3:	00 00                	add    %al,(%rax)
  4047e5:	00 00                	add    %al,(%rax)
  4047e7:	00 10                	add    %dl,(%rax)
  4047e9:	02 00                	add    (%rax),%al
  4047eb:	00 00                	add    %al,(%rax)
  4047ed:	00 00                	add    %al,(%rax)
  4047ef:	00 10                	add    %dl,(%rax)
  4047f1:	02 00                	add    (%rax),%al
  4047f3:	00 00                	add    %al,(%rax)
  4047f5:	00 00                	add    %al,(%rax)
  4047f7:	00 10                	add    %dl,(%rax)
  4047f9:	02 00                	add    (%rax),%al
  4047fb:	00 00                	add    %al,(%rax)
  4047fd:	00 00                	add    %al,(%rax)
  4047ff:	00 10                	add    %dl,(%rax)
  404801:	02 00                	add    (%rax),%al
  404803:	00 00                	add    %al,(%rax)
  404805:	00 00                	add    %al,(%rax)
  404807:	00 10                	add    %dl,(%rax)
  404809:	02 00                	add    (%rax),%al
  40480b:	00 00                	add    %al,(%rax)
  40480d:	00 00                	add    %al,(%rax)
  40480f:	00 10                	add    %dl,(%rax)
  404811:	02 00                	add    (%rax),%al
  404813:	00 00                	add    %al,(%rax)
  404815:	00 00                	add    %al,(%rax)
  404817:	00 10                	add    %dl,(%rax)
  404819:	02 00                	add    (%rax),%al
  40481b:	00 00                	add    %al,(%rax)
  40481d:	00 00                	add    %al,(%rax)
  40481f:	00 10                	add    %dl,(%rax)
  404821:	02 00                	add    (%rax),%al
  404823:	00 00                	add    %al,(%rax)
  404825:	00 00                	add    %al,(%rax)
  404827:	00 10                	add    %dl,(%rax)
  404829:	02 00                	add    (%rax),%al
  40482b:	00 00                	add    %al,(%rax)
  40482d:	00 00                	add    %al,(%rax)
  40482f:	00 10                	add    %dl,(%rax)
  404831:	02 00                	add    (%rax),%al
  404833:	00 00                	add    %al,(%rax)
  404835:	00 00                	add    %al,(%rax)
  404837:	00 10                	add    %dl,(%rax)
  404839:	02 00                	add    (%rax),%al
  40483b:	00 00                	add    %al,(%rax)
  40483d:	00 00                	add    %al,(%rax)
  40483f:	00 60 02             	add    %ah,0x2(%rax)
  404842:	00 00                	add    %al,(%rax)
  404844:	00 00                	add    %al,(%rax)
  404846:	00 00                	add    %al,(%rax)
  404848:	70 02                	jo     40484c <__intel_avx_rep_memset+0x4bc>
  40484a:	00 00                	add    %al,(%rax)
  40484c:	00 00                	add    %al,(%rax)
  40484e:	00 00                	add    %al,(%rax)
  404850:	50                   	push   %rax
  404851:	02 00                	add    (%rax),%al
  404853:	00 00                	add    %al,(%rax)
  404855:	00 00                	add    %al,(%rax)
  404857:	00 40 02             	add    %al,0x2(%rax)
  40485a:	00 00                	add    %al,(%rax)
  40485c:	00 00                	add    %al,(%rax)
  40485e:	00 00                	add    %al,(%rax)
  404860:	30 02                	xor    %al,(%rdx)
  404862:	00 00                	add    %al,(%rax)
  404864:	00 00                	add    %al,(%rax)
  404866:	00 00                	add    %al,(%rax)
  404868:	20 02                	and    %al,(%rdx)
  40486a:	00 00                	add    %al,(%rax)
  40486c:	00 00                	add    %al,(%rax)
  40486e:	00 00                	add    %al,(%rax)
  404870:	20 02                	and    %al,(%rdx)
  404872:	00 00                	add    %al,(%rax)
  404874:	00 00                	add    %al,(%rax)
  404876:	00 00                	add    %al,(%rax)
  404878:	20 02                	and    %al,(%rdx)
  40487a:	00 00                	add    %al,(%rax)
  40487c:	00 00                	add    %al,(%rax)
  40487e:	00 00                	add    %al,(%rax)
  404880:	10 02                	adc    %al,(%rdx)
  404882:	00 00                	add    %al,(%rax)
  404884:	00 00                	add    %al,(%rax)
  404886:	00 00                	add    %al,(%rax)
  404888:	00 02                	add    %al,(%rdx)
  40488a:	00 00                	add    %al,(%rax)
  40488c:	00 00                	add    %al,(%rax)
  40488e:	00 00                	add    %al,(%rax)
  404890:	00 02                	add    %al,(%rdx)
  404892:	00 00                	add    %al,(%rax)
  404894:	00 00                	add    %al,(%rax)
  404896:	00 00                	add    %al,(%rax)
  404898:	00 02                	add    %al,(%rdx)
  40489a:	00 00                	add    %al,(%rax)
  40489c:	00 00                	add    %al,(%rax)
  40489e:	00 00                	add    %al,(%rax)
  4048a0:	00 02                	add    %al,(%rdx)
