
results_omp_tile/bin/icx_N8192_TS32_T1_static:     file format elf64-x86-64


Disassembly of section .init:

0000000000401000 <_init>:
  401000:	48 83 ec 08          	sub    $0x8,%rsp
  401004:	48 8b 05 ad af 00 00 	mov    0xafad(%rip),%rax        # 40bfb8 <__gmon_start__@Base>
  40100b:	48 85 c0             	test   %rax,%rax
  40100e:	74 02                	je     401012 <_init+0x12>
  401010:	ff d0                	call   *%rax
  401012:	48 83 c4 08          	add    $0x8,%rsp
  401016:	c3                   	ret

Disassembly of section .plt:

0000000000401020 <posix_memalign@plt-0x10>:
  401020:	ff 35 ca af 00 00    	push   0xafca(%rip)        # 40bff0 <_GLOBAL_OFFSET_TABLE_+0x8>
  401026:	ff 25 cc af 00 00    	jmp    *0xafcc(%rip)        # 40bff8 <_GLOBAL_OFFSET_TABLE_+0x10>
  40102c:	0f 1f 40 00          	nopl   0x0(%rax)

0000000000401030 <posix_memalign@plt>:
  401030:	ff 25 ca af 00 00    	jmp    *0xafca(%rip)        # 40c000 <posix_memalign@GLIBC_2.2.5>
  401036:	68 00 00 00 00       	push   $0x0
  40103b:	e9 e0 ff ff ff       	jmp    401020 <_init+0x20>

0000000000401040 <__strncpy_chk@plt>:
  401040:	ff 25 c2 af 00 00    	jmp    *0xafc2(%rip)        # 40c008 <__strncpy_chk@GLIBC_2.3.4>
  401046:	68 01 00 00 00       	push   $0x1
  40104b:	e9 d0 ff ff ff       	jmp    401020 <_init+0x20>

0000000000401050 <__fprintf_chk@plt>:
  401050:	ff 25 ba af 00 00    	jmp    *0xafba(%rip)        # 40c010 <__fprintf_chk@GLIBC_2.3.4>
  401056:	68 02 00 00 00       	push   $0x2
  40105b:	e9 c0 ff ff ff       	jmp    401020 <_init+0x20>

0000000000401060 <exit@plt>:
  401060:	ff 25 b2 af 00 00    	jmp    *0xafb2(%rip)        # 40c018 <exit@GLIBC_2.2.5>
  401066:	68 03 00 00 00       	push   $0x3
  40106b:	e9 b0 ff ff ff       	jmp    401020 <_init+0x20>

0000000000401070 <__printf_chk@plt>:
  401070:	ff 25 aa af 00 00    	jmp    *0xafaa(%rip)        # 40c020 <__printf_chk@GLIBC_2.3.4>
  401076:	68 04 00 00 00       	push   $0x4
  40107b:	e9 a0 ff ff ff       	jmp    401020 <_init+0x20>

0000000000401080 <__kmpc_end_single@plt>:
  401080:	ff 25 a2 af 00 00    	jmp    *0xafa2(%rip)        # 40c028 <__kmpc_end_single@VERSION>
  401086:	68 05 00 00 00       	push   $0x5
  40108b:	e9 90 ff ff ff       	jmp    401020 <_init+0x20>

0000000000401090 <__kmpc_for_static_fini@plt>:
  401090:	ff 25 9a af 00 00    	jmp    *0xaf9a(%rip)        # 40c030 <__kmpc_for_static_fini@VERSION>
  401096:	68 06 00 00 00       	push   $0x6
  40109b:	e9 80 ff ff ff       	jmp    401020 <_init+0x20>

00000000004010a0 <fopen@plt>:
  4010a0:	ff 25 92 af 00 00    	jmp    *0xaf92(%rip)        # 40c038 <fopen@GLIBC_2.2.5>
  4010a6:	68 07 00 00 00       	push   $0x7
  4010ab:	e9 70 ff ff ff       	jmp    401020 <_init+0x20>

00000000004010b0 <catgets@plt>:
  4010b0:	ff 25 8a af 00 00    	jmp    *0xaf8a(%rip)        # 40c040 <catgets@GLIBC_2.2.5>
  4010b6:	68 08 00 00 00       	push   $0x8
  4010bb:	e9 60 ff ff ff       	jmp    401020 <_init+0x20>

00000000004010c0 <__vsnprintf_chk@plt>:
  4010c0:	ff 25 82 af 00 00    	jmp    *0xaf82(%rip)        # 40c048 <__vsnprintf_chk@GLIBC_2.3.4>
  4010c6:	68 09 00 00 00       	push   $0x9
  4010cb:	e9 50 ff ff ff       	jmp    401020 <_init+0x20>

00000000004010d0 <__kmpc_single@plt>:
  4010d0:	ff 25 7a af 00 00    	jmp    *0xaf7a(%rip)        # 40c050 <__kmpc_single@VERSION>
  4010d6:	68 0a 00 00 00       	push   $0xa
  4010db:	e9 40 ff ff ff       	jmp    401020 <_init+0x20>

00000000004010e0 <fputc@plt>:
  4010e0:	ff 25 72 af 00 00    	jmp    *0xaf72(%rip)        # 40c058 <fputc@GLIBC_2.2.5>
  4010e6:	68 0b 00 00 00       	push   $0xb
  4010eb:	e9 30 ff ff ff       	jmp    401020 <_init+0x20>

00000000004010f0 <free@plt>:
  4010f0:	ff 25 6a af 00 00    	jmp    *0xaf6a(%rip)        # 40c060 <free@GLIBC_2.2.5>
  4010f6:	68 0c 00 00 00       	push   $0xc
  4010fb:	e9 20 ff ff ff       	jmp    401020 <_init+0x20>

0000000000401100 <strlen@plt>:
  401100:	ff 25 62 af 00 00    	jmp    *0xaf62(%rip)        # 40c068 <strlen@GLIBC_2.2.5>
  401106:	68 0d 00 00 00       	push   $0xd
  40110b:	e9 10 ff ff ff       	jmp    401020 <_init+0x20>

0000000000401110 <__kmpc_dispatch_next_8@plt>:
  401110:	ff 25 5a af 00 00    	jmp    *0xaf5a(%rip)        # 40c070 <__kmpc_dispatch_next_8@VERSION>
  401116:	68 0e 00 00 00       	push   $0xe
  40111b:	e9 00 ff ff ff       	jmp    401020 <_init+0x20>

0000000000401120 <__kmpc_fork_call@plt>:
  401120:	ff 25 52 af 00 00    	jmp    *0xaf52(%rip)        # 40c078 <__kmpc_fork_call@VERSION>
  401126:	68 0f 00 00 00       	push   $0xf
  40112b:	e9 f0 fe ff ff       	jmp    401020 <_init+0x20>

0000000000401130 <strchr@plt>:
  401130:	ff 25 4a af 00 00    	jmp    *0xaf4a(%rip)        # 40c080 <strchr@GLIBC_2.2.5>
  401136:	68 10 00 00 00       	push   $0x10
  40113b:	e9 e0 fe ff ff       	jmp    401020 <_init+0x20>

0000000000401140 <__kmpc_for_static_init_4@plt>:
  401140:	ff 25 42 af 00 00    	jmp    *0xaf42(%rip)        # 40c088 <__kmpc_for_static_init_4@VERSION>
  401146:	68 11 00 00 00       	push   $0x11
  40114b:	e9 d0 fe ff ff       	jmp    401020 <_init+0x20>

0000000000401150 <setenv@plt>:
  401150:	ff 25 3a af 00 00    	jmp    *0xaf3a(%rip)        # 40c090 <setenv@GLIBC_2.2.5>
  401156:	68 12 00 00 00       	push   $0x12
  40115b:	e9 c0 fe ff ff       	jmp    401020 <_init+0x20>

0000000000401160 <catopen@plt>:
  401160:	ff 25 32 af 00 00    	jmp    *0xaf32(%rip)        # 40c098 <catopen@GLIBC_2.2.5>
  401166:	68 13 00 00 00       	push   $0x13
  40116b:	e9 b0 fe ff ff       	jmp    401020 <_init+0x20>

0000000000401170 <getenv@plt>:
  401170:	ff 25 2a af 00 00    	jmp    *0xaf2a(%rip)        # 40c0a0 <getenv@GLIBC_2.2.5>
  401176:	68 14 00 00 00       	push   $0x14
  40117b:	e9 a0 fe ff ff       	jmp    401020 <_init+0x20>

0000000000401180 <__stack_chk_fail@plt>:
  401180:	ff 25 22 af 00 00    	jmp    *0xaf22(%rip)        # 40c0a8 <__stack_chk_fail@GLIBC_2.4>
  401186:	68 15 00 00 00       	push   $0x15
  40118b:	e9 90 fe ff ff       	jmp    401020 <_init+0x20>

0000000000401190 <omp_get_num_threads@plt>:
  401190:	ff 25 1a af 00 00    	jmp    *0xaf1a(%rip)        # 40c0b0 <omp_get_num_threads@VERSION>
  401196:	68 16 00 00 00       	push   $0x16
  40119b:	e9 80 fe ff ff       	jmp    401020 <_init+0x20>

00000000004011a0 <__kmpc_barrier@plt>:
  4011a0:	ff 25 12 af 00 00    	jmp    *0xaf12(%rip)        # 40c0b8 <__kmpc_barrier@VERSION>
  4011a6:	68 17 00 00 00       	push   $0x17
  4011ab:	e9 70 fe ff ff       	jmp    401020 <_init+0x20>

00000000004011b0 <fclose@plt>:
  4011b0:	ff 25 0a af 00 00    	jmp    *0xaf0a(%rip)        # 40c0c0 <fclose@GLIBC_2.2.5>
  4011b6:	68 18 00 00 00       	push   $0x18
  4011bb:	e9 60 fe ff ff       	jmp    401020 <_init+0x20>

00000000004011c0 <__kmpc_dispatch_init_8@plt>:
  4011c0:	ff 25 02 af 00 00    	jmp    *0xaf02(%rip)        # 40c0c8 <__kmpc_dispatch_init_8@VERSION>
  4011c6:	68 19 00 00 00       	push   $0x19
  4011cb:	e9 50 fe ff ff       	jmp    401020 <_init+0x20>

00000000004011d0 <omp_get_wtime@plt>:
  4011d0:	ff 25 fa ae 00 00    	jmp    *0xaefa(%rip)        # 40c0d0 <omp_get_wtime@VERSION>
  4011d6:	68 1a 00 00 00       	push   $0x1a
  4011db:	e9 40 fe ff ff       	jmp    401020 <_init+0x20>

00000000004011e0 <fprintf@plt>:
  4011e0:	ff 25 f2 ae 00 00    	jmp    *0xaef2(%rip)        # 40c0d8 <fprintf@GLIBC_2.2.5>
  4011e6:	68 1b 00 00 00       	push   $0x1b
  4011eb:	e9 30 fe ff ff       	jmp    401020 <_init+0x20>

00000000004011f0 <__strncat_chk@plt>:
  4011f0:	ff 25 ea ae 00 00    	jmp    *0xaeea(%rip)        # 40c0e0 <__strncat_chk@GLIBC_2.3.4>
  4011f6:	68 1c 00 00 00       	push   $0x1c
  4011fb:	e9 20 fe ff ff       	jmp    401020 <_init+0x20>

Disassembly of section .plt.got:

0000000000401200 <memset@plt>:
  401200:	ff 25 aa ad 00 00    	jmp    *0xadaa(%rip)        # 40bfb0 <memset@GLIBC_2.2.5>
  401206:	66 90                	xchg   %ax,%ax

0000000000401208 <__cxa_finalize@plt>:
  401208:	ff 25 c2 ad 00 00    	jmp    *0xadc2(%rip)        # 40bfd0 <__cxa_finalize@GLIBC_2.2.5>
  40120e:	66 90                	xchg   %ax,%ax

Disassembly of section .text:

0000000000401240 <_GLOBAL__sub_I_fast_mem_ops.c>:
  401240:	f3 0f 1e fa          	endbr64
  401244:	55                   	push   %rbp
  401245:	48 89 e5             	mov    %rsp,%rbp
  401248:	41 56                	push   %r14
  40124a:	53                   	push   %rbx
  40124b:	48 83 ec 20          	sub    $0x20,%rsp
  40124f:	83 3d 36 b7 00 00 00 	cmpl   $0x0,0xb736(%rip)        # 40c98c <_ZL18__libirc_cache_tbl+0xc>
  401256:	0f 84 05 01 00 00    	je     401361 <_GLOBAL__sub_I_fast_mem_ops.c+0x121>
  40125c:	83 3d 1d b7 00 00 00 	cmpl   $0x0,0xb71d(%rip)        # 40c980 <_ZL18__libirc_cache_tbl>
  401263:	0f 84 0a 01 00 00    	je     401373 <_GLOBAL__sub_I_fast_mem_ops.c+0x133>
  401269:	83 3d 14 b7 00 00 00 	cmpl   $0x0,0xb714(%rip)        # 40c984 <_ZL18__libirc_cache_tbl+0x4>
  401270:	0f 84 21 02 00 00    	je     401497 <_GLOBAL__sub_I_fast_mem_ops.c+0x257>
  401276:	53                   	push   %rbx
  401277:	b8 01 00 00 00       	mov    $0x1,%eax
  40127c:	0f a2                	cpuid
  40127e:	89 5d d0             	mov    %ebx,-0x30(%rbp)
  401281:	89 55 e0             	mov    %edx,-0x20(%rbp)
  401284:	89 45 ec             	mov    %eax,-0x14(%rbp)
  401287:	5b                   	pop    %rbx
  401288:	8b 45 e0             	mov    -0x20(%rbp),%eax
  40128b:	89 c1                	mov    %eax,%ecx
  40128d:	c1 e9 17             	shr    $0x17,%ecx
  401290:	83 e1 01             	and    $0x1,%ecx
  401293:	a9 00 00 00 04       	test   $0x4000000,%eax
  401298:	41 be 02 00 00 00    	mov    $0x2,%r14d
  40129e:	44 0f 44 f1          	cmove  %ecx,%r14d
  4012a2:	8b 05 e8 b6 00 00    	mov    0xb6e8(%rip),%eax        # 40c990 <_ZL18__libirc_cache_tbl+0x10>
  4012a8:	85 c0                	test   %eax,%eax
  4012aa:	0f 84 f8 01 00 00    	je     4014a8 <_GLOBAL__sub_I_fast_mem_ops.c+0x268>
  4012b0:	8b 0d f2 b6 00 00    	mov    0xb6f2(%rip),%ecx        # 40c9a8 <_ZL18__libirc_cache_tbl+0x28>
  4012b6:	0f af 0d e7 b6 00 00 	imul   0xb6e7(%rip),%ecx        # 40c9a4 <_ZL18__libirc_cache_tbl+0x24>
  4012bd:	8b 15 dd b6 00 00    	mov    0xb6dd(%rip),%edx        # 40c9a0 <_ZL18__libirc_cache_tbl+0x20>
  4012c3:	8b 35 cf b6 00 00    	mov    0xb6cf(%rip),%esi        # 40c998 <_ZL18__libirc_cache_tbl+0x18>
  4012c9:	0f af 35 c4 b6 00 00 	imul   0xb6c4(%rip),%esi        # 40c994 <_ZL18__libirc_cache_tbl+0x14>
  4012d0:	39 d0                	cmp    %edx,%eax
  4012d2:	0f 47 d0             	cmova  %eax,%edx
  4012d5:	0f 42 f1             	cmovb  %ecx,%esi
  4012d8:	8b 0d da b6 00 00    	mov    0xb6da(%rip),%ecx        # 40c9b8 <_ZL18__libirc_cache_tbl+0x38>
  4012de:	0f af 0d cf b6 00 00 	imul   0xb6cf(%rip),%ecx        # 40c9b4 <_ZL18__libirc_cache_tbl+0x34>
  4012e5:	8b 3d c5 b6 00 00    	mov    0xb6c5(%rip),%edi        # 40c9b0 <_ZL18__libirc_cache_tbl+0x30>
  4012eb:	39 fa                	cmp    %edi,%edx
  4012ed:	0f 43 ce             	cmovae %esi,%ecx
  4012f0:	0f 46 d7             	cmovbe %edi,%edx
  4012f3:	48 89 d6             	mov    %rdx,%rsi
  4012f6:	48 c1 e6 0a          	shl    $0xa,%rsi
  4012fa:	48 89 35 37 af 00 00 	mov    %rsi,0xaf37(%rip)        # 40c238 <__libirc_largest_cache_size>
  401301:	48 c1 e2 09          	shl    $0x9,%rdx
  401305:	48 89 15 34 af 00 00 	mov    %rdx,0xaf34(%rip)        # 40c240 <__libirc_largest_cache_size_half>
  40130c:	c1 e0 0a             	shl    $0xa,%eax
  40130f:	48 89 05 32 af 00 00 	mov    %rax,0xaf32(%rip)        # 40c248 <__libirc_data_cache_size>
  401316:	48 89 c2             	mov    %rax,%rdx
  401319:	48 d1 ea             	shr    %rdx
  40131c:	48 89 15 2d af 00 00 	mov    %rdx,0xaf2d(%rip)        # 40c250 <__libirc_data_cache_size_half>
  401323:	48 89 c2             	mov    %rax,%rdx
  401326:	48 c1 ea 02          	shr    $0x2,%rdx
  40132a:	48 89 15 27 af 00 00 	mov    %rdx,0xaf27(%rip)        # 40c258 <__libirc_largest_cache_size_quoter>
  401331:	48 89 0d 90 b6 00 00 	mov    %rcx,0xb690(%rip)        # 40c9c8 <__libirc_largest_cachelinesize>
  401338:	48 c7 05 1d af 00 00 	movq   $0x2000,0xaf1d(%rip)        # 40c260 <__libirc_copy_loop_threshold>
  40133f:	00 20 00 00 
  401343:	48 01 c0             	add    %rax,%rax
  401346:	48 8d 04 40          	lea    (%rax,%rax,2),%rax
  40134a:	48 89 05 17 af 00 00 	mov    %rax,0xaf17(%rip)        # 40c268 <__libirc_rep_move_threshold>
  401351:	48 c7 05 14 af 00 00 	movq   $0x800,0xaf14(%rip)        # 40c270 <__libirc_set_loop_threshold>
  401358:	00 08 00 00 
  40135c:	e9 5d 01 00 00       	jmp    4014be <_GLOBAL__sub_I_fast_mem_ops.c+0x27e>
  401361:	e8 5a 65 00 00       	call   4078c0 <_ZL23__libirc_init_cache_tblv>
  401366:	83 3d 13 b6 00 00 00 	cmpl   $0x0,0xb613(%rip)        # 40c980 <_ZL18__libirc_cache_tbl>
  40136d:	0f 85 f6 fe ff ff    	jne    401269 <_GLOBAL__sub_I_fast_mem_ops.c+0x29>
  401373:	c7 45 ec 00 00 00 00 	movl   $0x0,-0x14(%rbp)
  40137a:	48 8d 75 d0          	lea    -0x30(%rbp),%rsi
  40137e:	48 89 75 e0          	mov    %rsi,-0x20(%rbp)
  401382:	50                   	push   %rax
  401383:	53                   	push   %rbx
  401384:	51                   	push   %rcx
  401385:	52                   	push   %rdx
  401386:	4c 8b 45 e0          	mov    -0x20(%rbp),%r8
  40138a:	8b 45 ec             	mov    -0x14(%rbp),%eax
  40138d:	0f a2                	cpuid
  40138f:	41 89 00             	mov    %eax,(%r8)
  401392:	41 89 58 04          	mov    %ebx,0x4(%r8)
  401396:	41 89 48 08          	mov    %ecx,0x8(%r8)
  40139a:	41 89 50 0c          	mov    %edx,0xc(%r8)
  40139e:	5a                   	pop    %rdx
  40139f:	59                   	pop    %rcx
  4013a0:	5b                   	pop    %rbx
  4013a1:	58                   	pop    %rax
  4013a2:	45 31 f6             	xor    %r14d,%r14d
  4013a5:	81 7d d4 41 75 74 68 	cmpl   $0x68747541,-0x2c(%rbp)
  4013ac:	0f 85 0c 01 00 00    	jne    4014be <_GLOBAL__sub_I_fast_mem_ops.c+0x27e>
  4013b2:	81 7d dc 65 6e 74 69 	cmpl   $0x69746e65,-0x24(%rbp)
  4013b9:	0f 85 ff 00 00 00    	jne    4014be <_GLOBAL__sub_I_fast_mem_ops.c+0x27e>
  4013bf:	81 7d d8 63 41 4d 44 	cmpl   $0x444d4163,-0x28(%rbp)
  4013c6:	0f 85 f2 00 00 00    	jne    4014be <_GLOBAL__sub_I_fast_mem_ops.c+0x27e>
  4013cc:	c7 45 ec 01 00 00 00 	movl   $0x1,-0x14(%rbp)
  4013d3:	48 89 75 e0          	mov    %rsi,-0x20(%rbp)
  4013d7:	50                   	push   %rax
  4013d8:	53                   	push   %rbx
  4013d9:	51                   	push   %rcx
  4013da:	52                   	push   %rdx
  4013db:	4c 8b 45 e0          	mov    -0x20(%rbp),%r8
  4013df:	8b 45 ec             	mov    -0x14(%rbp),%eax
  4013e2:	0f a2                	cpuid
  4013e4:	41 89 00             	mov    %eax,(%r8)
  4013e7:	41 89 58 04          	mov    %ebx,0x4(%r8)
  4013eb:	41 89 48 08          	mov    %ecx,0x8(%r8)
  4013ef:	41 89 50 0c          	mov    %edx,0xc(%r8)
  4013f3:	5a                   	pop    %rdx
  4013f4:	59                   	pop    %rcx
  4013f5:	5b                   	pop    %rbx
  4013f6:	58                   	pop    %rax
  4013f7:	44 8b 75 dc          	mov    -0x24(%rbp),%r14d
  4013fb:	41 c1 ee 17          	shr    $0x17,%r14d
  4013ff:	41 83 e6 01          	and    $0x1,%r14d
  401403:	c7 45 ec 00 00 00 80 	movl   $0x80000000,-0x14(%rbp)
  40140a:	48 89 75 e0          	mov    %rsi,-0x20(%rbp)
  40140e:	50                   	push   %rax
  40140f:	53                   	push   %rbx
  401410:	51                   	push   %rcx
  401411:	52                   	push   %rdx
  401412:	4c 8b 45 e0          	mov    -0x20(%rbp),%r8
  401416:	8b 45 ec             	mov    -0x14(%rbp),%eax
  401419:	0f a2                	cpuid
  40141b:	41 89 00             	mov    %eax,(%r8)
  40141e:	41 89 58 04          	mov    %ebx,0x4(%r8)
  401422:	41 89 48 08          	mov    %ecx,0x8(%r8)
  401426:	41 89 50 0c          	mov    %edx,0xc(%r8)
  40142a:	5a                   	pop    %rdx
  40142b:	59                   	pop    %rcx
  40142c:	5b                   	pop    %rbx
  40142d:	58                   	pop    %rax
  40142e:	81 7d d0 06 00 00 80 	cmpl   $0x80000006,-0x30(%rbp)
  401435:	0f 82 83 00 00 00    	jb     4014be <_GLOBAL__sub_I_fast_mem_ops.c+0x27e>
  40143b:	c7 45 ec 06 00 00 80 	movl   $0x80000006,-0x14(%rbp)
  401442:	48 89 75 e0          	mov    %rsi,-0x20(%rbp)
  401446:	50                   	push   %rax
  401447:	53                   	push   %rbx
  401448:	51                   	push   %rcx
  401449:	52                   	push   %rdx
  40144a:	4c 8b 45 e0          	mov    -0x20(%rbp),%r8
  40144e:	8b 45 ec             	mov    -0x14(%rbp),%eax
  401451:	0f a2                	cpuid
  401453:	41 89 00             	mov    %eax,(%r8)
  401456:	41 89 58 04          	mov    %ebx,0x4(%r8)
  40145a:	41 89 48 08          	mov    %ecx,0x8(%r8)
  40145e:	41 89 50 0c          	mov    %edx,0xc(%r8)
  401462:	5a                   	pop    %rdx
  401463:	59                   	pop    %rcx
  401464:	5b                   	pop    %rbx
  401465:	58                   	pop    %rax
  401466:	8b 45 d8             	mov    -0x28(%rbp),%eax
  401469:	48 c1 e8 06          	shr    $0x6,%rax
  40146d:	25 00 fc ff 03       	and    $0x3fffc00,%eax
  401472:	48 89 05 bf ad 00 00 	mov    %rax,0xadbf(%rip)        # 40c238 <__libirc_largest_cache_size>
  401479:	48 d1 e8             	shr    %rax
  40147c:	48 89 05 bd ad 00 00 	mov    %rax,0xadbd(%rip)        # 40c240 <__libirc_largest_cache_size_half>
  401483:	48 8b 05 be ad 00 00 	mov    0xadbe(%rip),%rax        # 40c248 <__libirc_data_cache_size>
  40148a:	48 c1 e8 02          	shr    $0x2,%rax
  40148e:	48 89 05 c3 ad 00 00 	mov    %rax,0xadc3(%rip)        # 40c258 <__libirc_largest_cache_size_quoter>
  401495:	eb 27                	jmp    4014be <_GLOBAL__sub_I_fast_mem_ops.c+0x27e>
  401497:	45 31 f6             	xor    %r14d,%r14d
  40149a:	8b 05 f0 b4 00 00    	mov    0xb4f0(%rip),%eax        # 40c990 <_ZL18__libirc_cache_tbl+0x10>
  4014a0:	85 c0                	test   %eax,%eax
  4014a2:	0f 85 08 fe ff ff    	jne    4012b0 <_GLOBAL__sub_I_fast_mem_ops.c+0x70>
  4014a8:	48 8d 3d 21 88 00 00 	lea    0x8821(%rip),%rdi        # 409cd0 <_ZL16cpuid2_cache_tbl+0x800>
  4014af:	e8 bc fc ff ff       	call   401170 <getenv@plt>
  4014b4:	48 85 c0             	test   %rax,%rax
  4014b7:	74 05                	je     4014be <_GLOBAL__sub_I_fast_mem_ops.c+0x27e>
  4014b9:	80 38 00             	cmpb   $0x0,(%rax)
  4014bc:	75 17                	jne    4014d5 <_GLOBAL__sub_I_fast_mem_ops.c+0x295>
  4014be:	44 89 35 fb b4 00 00 	mov    %r14d,0xb4fb(%rip)        # 40c9c0 <__libirc_mem_ops_method>
  4014c5:	44 89 35 04 b5 00 00 	mov    %r14d,0xb504(%rip)        # 40c9d0 <_ZL12__libirc_tmp>
  4014cc:	48 83 c4 20          	add    $0x20,%rsp
  4014d0:	5b                   	pop    %rbx
  4014d1:	41 5e                	pop    %r14
  4014d3:	5d                   	pop    %rbp
  4014d4:	c3                   	ret
  4014d5:	bf 01 00 00 00       	mov    $0x1,%edi
  4014da:	31 f6                	xor    %esi,%esi
  4014dc:	31 d2                	xor    %edx,%edx
  4014de:	31 c0                	xor    %eax,%eax
  4014e0:	e8 0b 6d 00 00       	call   4081f0 <__libirc_print>
  4014e5:	bf 01 00 00 00       	mov    $0x1,%edi
  4014ea:	be 3d 00 00 00       	mov    $0x3d,%esi
  4014ef:	31 d2                	xor    %edx,%edx
  4014f1:	31 c0                	xor    %eax,%eax
  4014f3:	e8 f8 6c 00 00       	call   4081f0 <__libirc_print>
  4014f8:	bf 01 00 00 00       	mov    $0x1,%edi
  4014fd:	31 f6                	xor    %esi,%esi
  4014ff:	31 d2                	xor    %edx,%edx
  401501:	31 c0                	xor    %eax,%eax
  401503:	e8 e8 6c 00 00       	call   4081f0 <__libirc_print>
  401508:	bf 01 00 00 00       	mov    $0x1,%edi
  40150d:	e8 4e fb ff ff       	call   401060 <exit@plt>
  401512:	66 2e 0f 1f 84 00 00 	cs nopw 0x0(%rax,%rax,1)
  401519:	00 00 00 
  40151c:	0f 1f 40 00          	nopl   0x0(%rax)

0000000000401520 <_start>:
  401520:	31 ed                	xor    %ebp,%ebp
  401522:	49 89 d1             	mov    %rdx,%r9
  401525:	5e                   	pop    %rsi
  401526:	48 89 e2             	mov    %rsp,%rdx
  401529:	48 83 e4 f0          	and    $0xfffffffffffffff0,%rsp
  40152d:	50                   	push   %rax
  40152e:	54                   	push   %rsp
  40152f:	45 31 c0             	xor    %r8d,%r8d
  401532:	31 c9                	xor    %ecx,%ecx
  401534:	48 c7 c7 10 16 40 00 	mov    $0x401610,%rdi
  40153b:	ff 15 9f aa 00 00    	call   *0xaa9f(%rip)        # 40bfe0 <__libc_start_main@GLIBC_2.34>
  401541:	f4                   	hlt
  401542:	66 2e 0f 1f 84 00 00 	cs nopw 0x0(%rax,%rax,1)
  401549:	00 00 00 
  40154c:	0f 1f 40 00          	nopl   0x0(%rax)

0000000000401550 <deregister_tm_clones>:
  401550:	48 8d 3d 21 ad 00 00 	lea    0xad21(%rip),%rdi        # 40c278 <__TMC_END__>
  401557:	48 8d 05 1a ad 00 00 	lea    0xad1a(%rip),%rax        # 40c278 <__TMC_END__>
  40155e:	48 39 f8             	cmp    %rdi,%rax
  401561:	74 15                	je     401578 <deregister_tm_clones+0x28>
  401563:	48 8b 05 56 aa 00 00 	mov    0xaa56(%rip),%rax        # 40bfc0 <_ITM_deregisterTMCloneTable@Base>
  40156a:	48 85 c0             	test   %rax,%rax
  40156d:	74 09                	je     401578 <deregister_tm_clones+0x28>
  40156f:	ff e0                	jmp    *%rax
  401571:	0f 1f 80 00 00 00 00 	nopl   0x0(%rax)
  401578:	c3                   	ret
  401579:	0f 1f 80 00 00 00 00 	nopl   0x0(%rax)

0000000000401580 <register_tm_clones>:
  401580:	48 8d 3d f1 ac 00 00 	lea    0xacf1(%rip),%rdi        # 40c278 <__TMC_END__>
  401587:	48 8d 35 ea ac 00 00 	lea    0xacea(%rip),%rsi        # 40c278 <__TMC_END__>
  40158e:	48 29 fe             	sub    %rdi,%rsi
  401591:	48 89 f0             	mov    %rsi,%rax
  401594:	48 c1 ee 3f          	shr    $0x3f,%rsi
  401598:	48 c1 f8 03          	sar    $0x3,%rax
  40159c:	48 01 c6             	add    %rax,%rsi
  40159f:	48 d1 fe             	sar    %rsi
  4015a2:	74 14                	je     4015b8 <register_tm_clones+0x38>
  4015a4:	48 8b 05 1d aa 00 00 	mov    0xaa1d(%rip),%rax        # 40bfc8 <_ITM_registerTMCloneTable@Base>
  4015ab:	48 85 c0             	test   %rax,%rax
  4015ae:	74 08                	je     4015b8 <register_tm_clones+0x38>
  4015b0:	ff e0                	jmp    *%rax
  4015b2:	66 0f 1f 44 00 00    	nopw   0x0(%rax,%rax,1)
  4015b8:	c3                   	ret
  4015b9:	0f 1f 80 00 00 00 00 	nopl   0x0(%rax)

00000000004015c0 <__do_global_dtors_aux>:
  4015c0:	f3 0f 1e fa          	endbr64
  4015c4:	80 3d bd ac 00 00 00 	cmpb   $0x0,0xacbd(%rip)        # 40c288 <completed.0>
  4015cb:	75 2b                	jne    4015f8 <__do_global_dtors_aux+0x38>
  4015cd:	55                   	push   %rbp
  4015ce:	48 83 3d fa a9 00 00 	cmpq   $0x0,0xa9fa(%rip)        # 40bfd0 <__cxa_finalize@GLIBC_2.2.5>
  4015d5:	00 
  4015d6:	48 89 e5             	mov    %rsp,%rbp
  4015d9:	74 0c                	je     4015e7 <__do_global_dtors_aux+0x27>
  4015db:	48 8b 3d 16 ab 00 00 	mov    0xab16(%rip),%rdi        # 40c0f8 <__dso_handle>
  4015e2:	e8 21 fc ff ff       	call   401208 <__cxa_finalize@plt>
  4015e7:	e8 64 ff ff ff       	call   401550 <deregister_tm_clones>
  4015ec:	c6 05 95 ac 00 00 01 	movb   $0x1,0xac95(%rip)        # 40c288 <completed.0>
  4015f3:	5d                   	pop    %rbp
  4015f4:	c3                   	ret
  4015f5:	0f 1f 00             	nopl   (%rax)
  4015f8:	c3                   	ret
  4015f9:	0f 1f 80 00 00 00 00 	nopl   0x0(%rax)

0000000000401600 <frame_dummy>:
  401600:	f3 0f 1e fa          	endbr64
  401604:	e9 77 ff ff ff       	jmp    401580 <register_tm_clones>
  401609:	0f 1f 80 00 00 00 00 	nopl   0x0(%rax)

0000000000401610 <main>:
  401610:	41 57                	push   %r15
  401612:	41 56                	push   %r14
  401614:	41 54                	push   %r12
  401616:	53                   	push   %rbx
  401617:	48 83 ec 78          	sub    $0x78,%rsp
  40161b:	48 be ee 9f 9d 10 00 	movabs $0x100000109d9fee,%rsi
  401622:	00 10 00 
  401625:	bf 03 00 00 00       	mov    $0x3,%edi
  40162a:	e8 31 0d 00 00       	call   402360 <__intel_new_feature_proc_init>
  40162f:	48 c7 44 24 60 00 00 	movq   $0x0,0x60(%rsp)
  401636:	00 00 
  401638:	48 c7 44 24 58 00 00 	movq   $0x0,0x58(%rsp)
  40163f:	00 00 
  401641:	48 c7 44 24 40 00 00 	movq   $0x0,0x40(%rsp)
  401648:	00 00 
  40164a:	48 8d 7c 24 60       	lea    0x60(%rsp),%rdi
  40164f:	be 40 00 00 00       	mov    $0x40,%esi
  401654:	ba 00 00 00 20       	mov    $0x20000000,%edx
  401659:	e8 d2 f9 ff ff       	call   401030 <posix_memalign@plt>
  40165e:	85 c0                	test   %eax,%eax
  401660:	75 33                	jne    401695 <main+0x85>
  401662:	48 8d 7c 24 58       	lea    0x58(%rsp),%rdi
  401667:	be 40 00 00 00       	mov    $0x40,%esi
  40166c:	ba 00 00 00 20       	mov    $0x20000000,%edx
  401671:	e8 ba f9 ff ff       	call   401030 <posix_memalign@plt>
  401676:	85 c0                	test   %eax,%eax
  401678:	75 1b                	jne    401695 <main+0x85>
  40167a:	48 8d 5c 24 40       	lea    0x40(%rsp),%rbx
  40167f:	be 40 00 00 00       	mov    $0x40,%esi
  401684:	ba 00 00 00 20       	mov    $0x20000000,%edx
  401689:	48 89 df             	mov    %rbx,%rdi
  40168c:	e8 9f f9 ff ff       	call   401030 <posix_memalign@plt>
  401691:	85 c0                	test   %eax,%eax
  401693:	74 2f                	je     4016c4 <main+0xb4>
  401695:	48 8b 7c 24 60       	mov    0x60(%rsp),%rdi
  40169a:	e8 51 fa ff ff       	call   4010f0 <free@plt>
  40169f:	48 8b 7c 24 58       	mov    0x58(%rsp),%rdi
  4016a4:	e8 47 fa ff ff       	call   4010f0 <free@plt>
  4016a9:	48 8b 7c 24 40       	mov    0x40(%rsp),%rdi
  4016ae:	e8 3d fa ff ff       	call   4010f0 <free@plt>
  4016b3:	b8 01 00 00 00       	mov    $0x1,%eax
  4016b8:	48 83 c4 78          	add    $0x78,%rsp
  4016bc:	5b                   	pop    %rbx
  4016bd:	41 5c                	pop    %r12
  4016bf:	41 5e                	pop    %r14
  4016c1:	41 5f                	pop    %r15
  4016c3:	c3                   	ret
  4016c4:	48 8b 7c 24 60       	mov    0x60(%rsp),%rdi
  4016c9:	48 85 ff             	test   %rdi,%rdi
  4016cc:	74 cc                	je     40169a <main+0x8a>
  4016ce:	48 83 7c 24 58 00    	cmpq   $0x0,0x58(%rsp)
  4016d4:	74 c4                	je     40169a <main+0x8a>
  4016d6:	48 83 7c 24 40 00    	cmpq   $0x0,0x40(%rsp)
  4016dc:	74 bc                	je     40169a <main+0x8a>
  4016de:	c5 fc 10 05 3a 79 00 	vmovups 0x793a(%rip),%ymm0        # 409020 <_IO_stdin_used+0x20>
  4016e5:	00 
  4016e6:	c5 fc 11 44 24 08    	vmovups %ymm0,0x8(%rsp)
  4016ec:	48 89 1c 24          	mov    %rbx,(%rsp)
  4016f0:	48 c7 44 24 28 ff 1f 	movq   $0x1fff,0x28(%rsp)
  4016f7:	00 00 
  4016f9:	4c 8d 74 24 60       	lea    0x60(%rsp),%r14
  4016fe:	4c 8d 7c 24 58       	lea    0x58(%rsp),%r15
  401703:	bf 20 c2 40 00       	mov    $0x40c220,%edi
  401708:	ba d0 1d 40 00       	mov    $0x401dd0,%edx
  40170d:	b9 00 20 00 00       	mov    $0x2000,%ecx
  401712:	be 09 00 00 00       	mov    $0x9,%esi
  401717:	4d 89 f0             	mov    %r14,%r8
  40171a:	4d 89 f9             	mov    %r15,%r9
  40171d:	31 c0                	xor    %eax,%eax
  40171f:	c5 f8 77             	vzeroupper
  401722:	e8 f9 f9 ff ff       	call   401120 <__kmpc_fork_call@plt>
  401727:	e8 a4 fa ff ff       	call   4011d0 <omp_get_wtime@plt>
  40172c:	c5 fb 11 44 24 48    	vmovsd %xmm0,0x48(%rsp)
  401732:	c4 e2 7d 19 05 05 79 	vbroadcastsd 0x7905(%rip),%ymm0        # 409040 <_IO_stdin_used+0x40>
  401739:	00 00 
  40173b:	c5 fc 11 44 24 08    	vmovups %ymm0,0x8(%rsp)
  401741:	48 89 1c 24          	mov    %rbx,(%rsp)
  401745:	48 c7 44 24 30 ff ff 	movq   $0xffff,0x30(%rsp)
  40174c:	00 00 
  40174e:	48 c7 44 24 28 00 00 	movq   $0x0,0x28(%rsp)
  401755:	00 00 
  401757:	bf c0 c1 40 00       	mov    $0x40c1c0,%edi
  40175c:	ba a0 1a 40 00       	mov    $0x401aa0,%edx
  401761:	b9 00 20 00 00       	mov    $0x2000,%ecx
  401766:	be 0a 00 00 00       	mov    $0xa,%esi
  40176b:	4d 89 f0             	mov    %r14,%r8
  40176e:	4d 89 f9             	mov    %r15,%r9
  401771:	31 c0                	xor    %eax,%eax
  401773:	c5 f8 77             	vzeroupper
  401776:	e8 a5 f9 ff ff       	call   401120 <__kmpc_fork_call@plt>
  40177b:	e8 50 fa ff ff       	call   4011d0 <omp_get_wtime@plt>
  401780:	c5 fb 11 44 24 50    	vmovsd %xmm0,0x50(%rsp)
  401786:	c7 44 24 6c 01 00 00 	movl   $0x1,0x6c(%rsp)
  40178d:	00 
  40178e:	48 8d 4c 24 6c       	lea    0x6c(%rsp),%rcx
  401793:	bf 60 c1 40 00       	mov    $0x40c160,%edi
  401798:	ba 50 1a 40 00       	mov    $0x401a50,%edx
  40179d:	be 01 00 00 00       	mov    $0x1,%esi
  4017a2:	31 c0                	xor    %eax,%eax
  4017a4:	e8 77 f9 ff ff       	call   401120 <__kmpc_fork_call@plt>
  4017a9:	48 8b 3d d0 aa 00 00 	mov    0xaad0(%rip),%rdi        # 40c280 <stderr@GLIBC_2.2.5>
  4017b0:	44 8b 44 24 6c       	mov    0x6c(%rsp),%r8d
  4017b5:	c5 fb 10 44 24 50    	vmovsd 0x50(%rsp),%xmm0
  4017bb:	c5 fb 5c 44 24 48    	vsubsd 0x48(%rsp),%xmm0,%xmm0
  4017c1:	be 58 90 40 00       	mov    $0x409058,%esi
  4017c6:	ba 00 20 00 00       	mov    $0x2000,%edx
  4017cb:	b9 20 00 00 00       	mov    $0x20,%ecx
  4017d0:	b0 01                	mov    $0x1,%al
  4017d2:	e8 09 fa ff ff       	call   4011e0 <fprintf@plt>
  4017d7:	bf 84 90 40 00       	mov    $0x409084,%edi
  4017dc:	be 64 92 40 00       	mov    $0x409264,%esi
  4017e1:	e8 ba f8 ff ff       	call   4010a0 <fopen@plt>
  4017e6:	48 85 c0             	test   %rax,%rax
  4017e9:	0f 84 34 02 00 00    	je     401a23 <main+0x413>
  4017ef:	48 89 c3             	mov    %rax,%rbx
  4017f2:	45 31 f6             	xor    %r14d,%r14d
  4017f5:	be 90 90 40 00       	mov    $0x409090,%esi
  4017fa:	48 89 c7             	mov    %rax,%rdi
  4017fd:	ba 00 20 00 00       	mov    $0x2000,%edx
  401802:	31 c0                	xor    %eax,%eax
  401804:	e8 d7 f9 ff ff       	call   4011e0 <fprintf@plt>
  401809:	be 96 90 40 00       	mov    $0x409096,%esi
  40180e:	48 89 df             	mov    %rbx,%rdi
  401811:	ba 20 00 00 00       	mov    $0x20,%edx
  401816:	31 c0                	xor    %eax,%eax
  401818:	e8 c3 f9 ff ff       	call   4011e0 <fprintf@plt>
  40181d:	48 c7 44 24 48 00 00 	movq   $0x0,0x48(%rsp)
  401824:	00 00 
  401826:	45 31 ff             	xor    %r15d,%r15d
  401829:	48 8b 44 24 40       	mov    0x40(%rsp),%rax
  40182e:	45 31 e4             	xor    %r12d,%r12d
  401831:	c5 fb 10 44 24 48    	vmovsd 0x48(%rsp),%xmm0
  401837:	66 0f 1f 84 00 00 00 	nopw   0x0(%rax,%rax,1)
  40183e:	00 00 
  401840:	c5 fb 11 44 24 48    	vmovsd %xmm0,0x48(%rsp)
  401846:	4c 01 f0             	add    %r14,%rax
  401849:	c4 c1 7b 10 04 04    	vmovsd (%r12,%rax,1),%xmm0
  40184f:	be a0 90 40 00       	mov    $0x4090a0,%esi
  401854:	48 89 df             	mov    %rbx,%rdi
  401857:	b0 01                	mov    $0x1,%al
  401859:	e8 82 f9 ff ff       	call   4011e0 <fprintf@plt>
  40185e:	48 8b 44 24 40       	mov    0x40(%rsp),%rax
  401863:	4c 01 f0             	add    %r14,%rax
  401866:	c4 c1 7b 10 04 04    	vmovsd (%r12,%rax,1),%xmm0
  40186c:	c5 fb 58 44 24 48    	vaddsd 0x48(%rsp),%xmm0,%xmm0
  401872:	c5 fb 11 44 24 48    	vmovsd %xmm0,0x48(%rsp)
  401878:	c4 c1 7b 10 44 04 08 	vmovsd 0x8(%r12,%rax,1),%xmm0
  40187f:	be a0 90 40 00       	mov    $0x4090a0,%esi
  401884:	48 89 df             	mov    %rbx,%rdi
  401887:	b0 01                	mov    $0x1,%al
  401889:	e8 52 f9 ff ff       	call   4011e0 <fprintf@plt>
  40188e:	48 8b 44 24 40       	mov    0x40(%rsp),%rax
  401893:	4c 01 f0             	add    %r14,%rax
  401896:	c4 c1 7b 10 44 04 08 	vmovsd 0x8(%r12,%rax,1),%xmm0
  40189d:	c5 fb 11 44 24 50    	vmovsd %xmm0,0x50(%rsp)
  4018a3:	c4 c1 7b 10 44 04 10 	vmovsd 0x10(%r12,%rax,1),%xmm0
  4018aa:	be a0 90 40 00       	mov    $0x4090a0,%esi
  4018af:	48 89 df             	mov    %rbx,%rdi
  4018b2:	b0 01                	mov    $0x1,%al
  4018b4:	e8 27 f9 ff ff       	call   4011e0 <fprintf@plt>
  4018b9:	48 8b 44 24 40       	mov    0x40(%rsp),%rax
  4018be:	4c 01 f0             	add    %r14,%rax
  4018c1:	c4 c1 7b 10 44 04 10 	vmovsd 0x10(%r12,%rax,1),%xmm0
  4018c8:	c5 fb 58 44 24 50    	vaddsd 0x50(%rsp),%xmm0,%xmm0
  4018ce:	c5 fb 58 44 24 48    	vaddsd 0x48(%rsp),%xmm0,%xmm0
  4018d4:	c5 fb 11 44 24 48    	vmovsd %xmm0,0x48(%rsp)
  4018da:	c4 c1 7b 10 44 04 18 	vmovsd 0x18(%r12,%rax,1),%xmm0
  4018e1:	be a0 90 40 00       	mov    $0x4090a0,%esi
  4018e6:	48 89 df             	mov    %rbx,%rdi
  4018e9:	b0 01                	mov    $0x1,%al
  4018eb:	e8 f0 f8 ff ff       	call   4011e0 <fprintf@plt>
  4018f0:	48 8b 44 24 40       	mov    0x40(%rsp),%rax
  4018f5:	4c 01 f0             	add    %r14,%rax
  4018f8:	c4 c1 7b 10 44 04 18 	vmovsd 0x18(%r12,%rax,1),%xmm0
  4018ff:	c5 fb 11 44 24 50    	vmovsd %xmm0,0x50(%rsp)
  401905:	c4 c1 7b 10 44 04 20 	vmovsd 0x20(%r12,%rax,1),%xmm0
  40190c:	be a0 90 40 00       	mov    $0x4090a0,%esi
  401911:	48 89 df             	mov    %rbx,%rdi
  401914:	b0 01                	mov    $0x1,%al
  401916:	e8 c5 f8 ff ff       	call   4011e0 <fprintf@plt>
  40191b:	48 8b 44 24 40       	mov    0x40(%rsp),%rax
  401920:	4c 01 f0             	add    %r14,%rax
  401923:	c4 c1 7b 10 44 04 20 	vmovsd 0x20(%r12,%rax,1),%xmm0
  40192a:	c5 fb 58 44 24 50    	vaddsd 0x50(%rsp),%xmm0,%xmm0
  401930:	c5 fb 11 44 24 50    	vmovsd %xmm0,0x50(%rsp)
  401936:	c4 c1 7b 10 44 04 28 	vmovsd 0x28(%r12,%rax,1),%xmm0
  40193d:	be a0 90 40 00       	mov    $0x4090a0,%esi
  401942:	48 89 df             	mov    %rbx,%rdi
  401945:	b0 01                	mov    $0x1,%al
  401947:	e8 94 f8 ff ff       	call   4011e0 <fprintf@plt>
  40194c:	48 8b 44 24 40       	mov    0x40(%rsp),%rax
  401951:	4c 01 f0             	add    %r14,%rax
  401954:	c4 c1 7b 10 44 04 28 	vmovsd 0x28(%r12,%rax,1),%xmm0
  40195b:	c5 fb 11 44 24 70    	vmovsd %xmm0,0x70(%rsp)
  401961:	c4 c1 7b 10 44 04 30 	vmovsd 0x30(%r12,%rax,1),%xmm0
  401968:	be a0 90 40 00       	mov    $0x4090a0,%esi
  40196d:	48 89 df             	mov    %rbx,%rdi
  401970:	b0 01                	mov    $0x1,%al
  401972:	e8 69 f8 ff ff       	call   4011e0 <fprintf@plt>
  401977:	48 8b 44 24 40       	mov    0x40(%rsp),%rax
  40197c:	4c 01 f0             	add    %r14,%rax
  40197f:	c5 fb 10 44 24 70    	vmovsd 0x70(%rsp),%xmm0
  401985:	c4 c1 7b 58 44 04 30 	vaddsd 0x30(%r12,%rax,1),%xmm0,%xmm0
  40198c:	c5 fb 58 44 24 50    	vaddsd 0x50(%rsp),%xmm0,%xmm0
  401992:	c5 fb 58 44 24 48    	vaddsd 0x48(%rsp),%xmm0,%xmm0
  401998:	c5 fb 11 44 24 48    	vmovsd %xmm0,0x48(%rsp)
  40199e:	c4 c1 7b 10 44 04 38 	vmovsd 0x38(%r12,%rax,1),%xmm0
  4019a5:	be a0 90 40 00       	mov    $0x4090a0,%esi
  4019aa:	48 89 df             	mov    %rbx,%rdi
  4019ad:	b0 01                	mov    $0x1,%al
  4019af:	e8 2c f8 ff ff       	call   4011e0 <fprintf@plt>
  4019b4:	48 8b 44 24 40       	mov    0x40(%rsp),%rax
  4019b9:	4a 8d 0c 30          	lea    (%rax,%r14,1),%rcx
  4019bd:	c5 fb 10 44 24 48    	vmovsd 0x48(%rsp),%xmm0
  4019c3:	c4 c1 7b 58 44 0c 38 	vaddsd 0x38(%r12,%rcx,1),%xmm0,%xmm0
  4019ca:	49 83 c4 40          	add    $0x40,%r12
  4019ce:	49 81 fc 40 1f 00 00 	cmp    $0x1f40,%r12
  4019d5:	0f 85 65 fe ff ff    	jne    401840 <main+0x230>
  4019db:	c5 fb 11 44 24 48    	vmovsd %xmm0,0x48(%rsp)
  4019e1:	bf 0a 00 00 00       	mov    $0xa,%edi
  4019e6:	48 89 de             	mov    %rbx,%rsi
  4019e9:	e8 f2 f6 ff ff       	call   4010e0 <fputc@plt>
  4019ee:	49 81 c6 00 00 01 00 	add    $0x10000,%r14
  4019f5:	49 81 ff e7 03 00 00 	cmp    $0x3e7,%r15
  4019fc:	4d 8d 7f 01          	lea    0x1(%r15),%r15
  401a00:	0f 85 23 fe ff ff    	jne    401829 <main+0x219>
  401a06:	be a6 90 40 00       	mov    $0x4090a6,%esi
  401a0b:	48 89 df             	mov    %rbx,%rdi
  401a0e:	c5 fb 10 44 24 48    	vmovsd 0x48(%rsp),%xmm0
  401a14:	b0 01                	mov    $0x1,%al
  401a16:	e8 c5 f7 ff ff       	call   4011e0 <fprintf@plt>
  401a1b:	48 89 df             	mov    %rbx,%rdi
  401a1e:	e8 8d f7 ff ff       	call   4011b0 <fclose@plt>
  401a23:	48 8b 7c 24 60       	mov    0x60(%rsp),%rdi
  401a28:	e8 c3 f6 ff ff       	call   4010f0 <free@plt>
  401a2d:	48 8b 7c 24 58       	mov    0x58(%rsp),%rdi
  401a32:	e8 b9 f6 ff ff       	call   4010f0 <free@plt>
  401a37:	48 8b 7c 24 40       	mov    0x40(%rsp),%rdi
  401a3c:	e8 af f6 ff ff       	call   4010f0 <free@plt>
  401a41:	31 c0                	xor    %eax,%eax
  401a43:	e9 70 fc ff ff       	jmp    4016b8 <main+0xa8>
  401a48:	0f 1f 84 00 00 00 00 	nopl   0x0(%rax,%rax,1)
  401a4f:	00 

0000000000401a50 <main.extracted>:
  401a50:	41 56                	push   %r14
  401a52:	53                   	push   %rbx
  401a53:	50                   	push   %rax
  401a54:	49 89 d6             	mov    %rdx,%r14
  401a57:	48 89 fb             	mov    %rdi,%rbx
  401a5a:	8b 37                	mov    (%rdi),%esi
  401a5c:	bf 00 c1 40 00       	mov    $0x40c100,%edi
  401a61:	e8 6a f6 ff ff       	call   4010d0 <__kmpc_single@plt>
  401a66:	83 f8 01             	cmp    $0x1,%eax
  401a69:	75 14                	jne    401a7f <main.extracted+0x2f>
  401a6b:	e8 20 f7 ff ff       	call   401190 <omp_get_num_threads@plt>
  401a70:	41 89 06             	mov    %eax,(%r14)
  401a73:	8b 33                	mov    (%rbx),%esi
  401a75:	bf 20 c1 40 00       	mov    $0x40c120,%edi
  401a7a:	e8 01 f6 ff ff       	call   401080 <__kmpc_end_single@plt>
  401a7f:	8b 33                	mov    (%rbx),%esi
  401a81:	bf 40 c1 40 00       	mov    $0x40c140,%edi
  401a86:	48 83 c4 08          	add    $0x8,%rsp
  401a8a:	5b                   	pop    %rbx
  401a8b:	41 5e                	pop    %r14
  401a8d:	e9 0e f7 ff ff       	jmp    4011a0 <__kmpc_barrier@plt>
  401a92:	66 66 66 66 66 2e 0f 	data16 data16 data16 data16 cs nopw 0x0(%rax,%rax,1)
  401a99:	1f 84 00 00 00 00 00 

0000000000401aa0 <main.extracted.18>:
  401aa0:	55                   	push   %rbp
  401aa1:	41 57                	push   %r15
  401aa3:	41 56                	push   %r14
  401aa5:	41 55                	push   %r13
  401aa7:	41 54                	push   %r12
  401aa9:	53                   	push   %rbx
  401aaa:	48 83 ec 68          	sub    $0x68,%rsp
  401aae:	4c 89 4c 24 58       	mov    %r9,0x58(%rsp)
  401ab3:	4c 89 44 24 50       	mov    %r8,0x50(%rsp)
  401ab8:	48 89 4c 24 48       	mov    %rcx,0x48(%rsp)
  401abd:	c7 44 24 0c 00 00 00 	movl   $0x0,0xc(%rsp)
  401ac4:	00 
  401ac5:	8b 1f                	mov    (%rdi),%ebx
  401ac7:	48 c7 44 24 18 00 00 	movq   $0x0,0x18(%rsp)
  401ace:	00 00 
  401ad0:	48 c7 44 24 10 ff ff 	movq   $0xffff,0x10(%rsp)
  401ad7:	00 00 
  401ad9:	48 c7 44 24 28 01 00 	movq   $0x1,0x28(%rsp)
  401ae0:	00 00 
  401ae2:	48 c7 04 24 00 00 00 	movq   $0x0,(%rsp)
  401ae9:	00 
  401aea:	bf 80 c1 40 00       	mov    $0x40c180,%edi
  401aef:	41 b8 ff ff 00 00    	mov    $0xffff,%r8d
  401af5:	41 b9 01 00 00 00    	mov    $0x1,%r9d
  401afb:	89 de                	mov    %ebx,%esi
  401afd:	ba 25 00 00 00       	mov    $0x25,%edx
  401b02:	31 c9                	xor    %ecx,%ecx
  401b04:	e8 b7 f6 ff ff       	call   4011c0 <__kmpc_dispatch_init_8@plt>
  401b09:	48 8d 54 24 0c       	lea    0xc(%rsp),%rdx
  401b0e:	48 8d 4c 24 18       	lea    0x18(%rsp),%rcx
  401b13:	4c 8d 44 24 10       	lea    0x10(%rsp),%r8
  401b18:	4c 8d 4c 24 28       	lea    0x28(%rsp),%r9
  401b1d:	bf a0 c1 40 00       	mov    $0x40c1a0,%edi
  401b22:	89 5c 24 20          	mov    %ebx,0x20(%rsp)
  401b26:	89 de                	mov    %ebx,%esi
  401b28:	eb 23                	jmp    401b4d <main.extracted.18+0xad>
  401b2a:	66 0f 1f 44 00 00    	nopw   0x0(%rax,%rax,1)
  401b30:	bf a0 c1 40 00       	mov    $0x40c1a0,%edi
  401b35:	8b 74 24 20          	mov    0x20(%rsp),%esi
  401b39:	48 8d 54 24 0c       	lea    0xc(%rsp),%rdx
  401b3e:	48 8d 4c 24 18       	lea    0x18(%rsp),%rcx
  401b43:	4c 8d 44 24 10       	lea    0x10(%rsp),%r8
  401b48:	4c 8d 4c 24 28       	lea    0x28(%rsp),%r9
  401b4d:	c5 f8 77             	vzeroupper
  401b50:	e8 bb f5 ff ff       	call   401110 <__kmpc_dispatch_next_8@plt>
  401b55:	85 c0                	test   %eax,%eax
  401b57:	0f 84 5f 02 00 00    	je     401dbc <main.extracted.18+0x31c>
  401b5d:	48 8b 54 24 18       	mov    0x18(%rsp),%rdx
  401b62:	48 8b 44 24 10       	mov    0x10(%rsp),%rax
  401b67:	48 39 c2             	cmp    %rax,%rdx
  401b6a:	0f 87 4c 02 00 00    	ja     401dbc <main.extracted.18+0x31c>
  401b70:	48 8d 4a 01          	lea    0x1(%rdx),%rcx
  401b74:	48 ff c0             	inc    %rax
  401b77:	48 39 c1             	cmp    %rax,%rcx
  401b7a:	48 0f 4f c1          	cmovg  %rcx,%rax
  401b7e:	48 89 d1             	mov    %rdx,%rcx
  401b81:	48 f7 d1             	not    %rcx
  401b84:	48 01 c1             	add    %rax,%rcx
  401b87:	48 89 4c 24 30       	mov    %rcx,0x30(%rsp)
  401b8c:	31 c9                	xor    %ecx,%ecx
  401b8e:	48 89 54 24 38       	mov    %rdx,0x38(%rsp)
  401b93:	eb 24                	jmp    401bb9 <main.extracted.18+0x119>
  401b95:	66 66 2e 0f 1f 84 00 	data16 cs nopw 0x0(%rax,%rax,1)
  401b9c:	00 00 00 00 
  401ba0:	48 8b 4c 24 40       	mov    0x40(%rsp),%rcx
  401ba5:	48 3b 4c 24 30       	cmp    0x30(%rsp),%rcx
  401baa:	48 8d 49 01          	lea    0x1(%rcx),%rcx
  401bae:	48 8b 54 24 38       	mov    0x38(%rsp),%rdx
  401bb3:	0f 84 77 ff ff ff    	je     401b30 <main.extracted.18+0x90>
  401bb9:	48 89 d0             	mov    %rdx,%rax
  401bbc:	48 01 c8             	add    %rcx,%rax
  401bbf:	48 89 4c 24 40       	mov    %rcx,0x40(%rsp)
  401bc4:	48 8d 94 0a ff 00 00 	lea    0xff(%rdx,%rcx,1),%rdx
  401bcb:	00 
  401bcc:	48 0f 49 d0          	cmovns %rax,%rdx
  401bd0:	48 c1 ea 08          	shr    $0x8,%rdx
  401bd4:	89 d1                	mov    %edx,%ecx
  401bd6:	c1 e1 08             	shl    $0x8,%ecx
  401bd9:	29 c8                	sub    %ecx,%eax
  401bdb:	89 d6                	mov    %edx,%esi
  401bdd:	c1 e6 05             	shl    $0x5,%esi
  401be0:	81 fa ff 00 00 00    	cmp    $0xff,%edx
  401be6:	b9 ff 00 00 00       	mov    $0xff,%ecx
  401beb:	0f 4d d1             	cmovge %ecx,%edx
  401bee:	c1 e2 05             	shl    $0x5,%edx
  401bf1:	83 c2 20             	add    $0x20,%edx
  401bf4:	48 89 54 24 60       	mov    %rdx,0x60(%rsp)
  401bf9:	81 fe e0 1f 00 00    	cmp    $0x1fe0,%esi
  401bff:	41 b8 e0 1f 00 00    	mov    $0x1fe0,%r8d
  401c05:	44 0f 4c c6          	cmovl  %esi,%r8d
  401c09:	41 29 f0             	sub    %esi,%r8d
  401c0c:	41 83 c8 1f          	or     $0x1f,%r8d
  401c10:	c1 e0 05             	shl    $0x5,%eax
  401c13:	48 98                	cltq
  401c15:	89 74 24 24          	mov    %esi,0x24(%rsp)
  401c19:	4c 63 ce             	movslq %esi,%r9
  401c1c:	4d 89 ca             	mov    %r9,%r10
  401c1f:	49 c1 e2 0d          	shl    $0xd,%r10
  401c23:	49 01 c2             	add    %rax,%r10
  401c26:	4c 8d 1c c5 c0 00 00 	lea    0xc0(,%rax,8),%r11
  401c2d:	00 
  401c2e:	49 c1 e1 10          	shl    $0x10,%r9
  401c32:	45 31 ed             	xor    %r13d,%r13d
  401c35:	eb 2b                	jmp    401c62 <main.extracted.18+0x1c2>
  401c37:	66 0f 1f 84 00 00 00 	nopw   0x0(%rax,%rax,1)
  401c3e:	00 00 
  401c40:	41 8d 45 01          	lea    0x1(%r13),%eax
  401c44:	49 81 c3 00 00 20 00 	add    $0x200000,%r11
  401c4b:	49 81 c1 00 01 00 00 	add    $0x100,%r9
  401c52:	41 81 fd ff 00 00 00 	cmp    $0xff,%r13d
  401c59:	41 89 c5             	mov    %eax,%r13d
  401c5c:	0f 84 3e ff ff ff    	je     401ba0 <main.extracted.18+0x100>
  401c62:	48 8b 44 24 60       	mov    0x60(%rsp),%rax
  401c67:	39 44 24 24          	cmp    %eax,0x24(%rsp)
  401c6b:	7d d3                	jge    401c40 <main.extracted.18+0x1a0>
  401c6d:	44 89 e8             	mov    %r13d,%eax
  401c70:	c1 e0 05             	shl    $0x5,%eax
  401c73:	8d 48 20             	lea    0x20(%rax),%ecx
  401c76:	31 d2                	xor    %edx,%edx
  401c78:	81 f9 00 20 00 00    	cmp    $0x2000,%ecx
  401c7e:	0f 9c c2             	setl   %dl
  401c81:	31 c9                	xor    %ecx,%ecx
  401c83:	3d 00 20 00 00       	cmp    $0x2000,%eax
  401c88:	0f 9c c1             	setl   %cl
  401c8b:	38 d1                	cmp    %dl,%cl
  401c8d:	0f 47 d1             	cmova  %ecx,%edx
  401c90:	80 fa 01             	cmp    $0x1,%dl
  401c93:	75 ab                	jne    401c40 <main.extracted.18+0x1a0>
  401c95:	48 8b 44 24 58       	mov    0x58(%rsp),%rax
  401c9a:	48 8b 28             	mov    (%rax),%rbp
  401c9d:	48 8b 44 24 50       	mov    0x50(%rsp),%rax
  401ca2:	48 8b 38             	mov    (%rax),%rdi
  401ca5:	4c 01 df             	add    %r11,%rdi
  401ca8:	48 8b 44 24 48       	mov    0x48(%rsp),%rax
  401cad:	48 8b 08             	mov    (%rax),%rcx
  401cb0:	4c 01 c9             	add    %r9,%rcx
  401cb3:	31 c0                	xor    %eax,%eax
  401cb5:	66 66 2e 0f 1f 84 00 	data16 cs nopw 0x0(%rax,%rax,1)
  401cbc:	00 00 00 00 
  401cc0:	48 89 c2             	mov    %rax,%rdx
  401cc3:	48 c1 e2 0d          	shl    $0xd,%rdx
  401cc7:	49 8d 1c 12          	lea    (%r10,%rdx,1),%rbx
  401ccb:	4e 8d 74 12 08       	lea    0x8(%rdx,%r10,1),%r14
  401cd0:	4e 8d 7c 12 10       	lea    0x10(%rdx,%r10,1),%r15
  401cd5:	4a 8d 54 12 18       	lea    0x18(%rdx,%r10,1),%rdx
  401cda:	49 89 fc             	mov    %rdi,%r12
  401cdd:	31 f6                	xor    %esi,%esi
  401cdf:	90                   	nop
  401ce0:	c4 c1 7d 10 84 24 40 	vmovupd -0xc0(%r12),%ymm0
  401ce7:	ff ff ff 
  401cea:	c4 c1 7d 10 8c 24 60 	vmovupd -0xa0(%r12),%ymm1
  401cf1:	ff ff ff 
  401cf4:	c4 e2 7d 19 14 f1    	vbroadcastsd (%rcx,%rsi,8),%ymm2
  401cfa:	c4 e2 ed a8 4c dd 20 	vfmadd213pd 0x20(%rbp,%rbx,8),%ymm2,%ymm1
  401d01:	c4 e2 ed a8 44 dd 00 	vfmadd213pd 0x0(%rbp,%rbx,8),%ymm2,%ymm0
  401d08:	c5 fd 11 44 dd 00    	vmovupd %ymm0,0x0(%rbp,%rbx,8)
  401d0e:	c5 fd 11 4c dd 20    	vmovupd %ymm1,0x20(%rbp,%rbx,8)
  401d14:	c4 c1 7d 10 44 24 80 	vmovupd -0x80(%r12),%ymm0
  401d1b:	c4 c1 7d 10 4c 24 a0 	vmovupd -0x60(%r12),%ymm1
  401d22:	c4 a2 ed a8 4c f5 20 	vfmadd213pd 0x20(%rbp,%r14,8),%ymm2,%ymm1
  401d29:	c4 a2 ed a8 44 f5 00 	vfmadd213pd 0x0(%rbp,%r14,8),%ymm2,%ymm0
  401d30:	c4 a1 7d 11 44 f5 00 	vmovupd %ymm0,0x0(%rbp,%r14,8)
  401d37:	c4 a1 7d 11 4c f5 20 	vmovupd %ymm1,0x20(%rbp,%r14,8)
  401d3e:	c4 c1 7d 10 44 24 c0 	vmovupd -0x40(%r12),%ymm0
  401d45:	c4 c1 7d 10 4c 24 e0 	vmovupd -0x20(%r12),%ymm1
  401d4c:	c4 a2 ed a8 4c fd 20 	vfmadd213pd 0x20(%rbp,%r15,8),%ymm2,%ymm1
  401d53:	c4 a2 ed a8 44 fd 00 	vfmadd213pd 0x0(%rbp,%r15,8),%ymm2,%ymm0
  401d5a:	c4 a1 7d 11 44 fd 00 	vmovupd %ymm0,0x0(%rbp,%r15,8)
  401d61:	c4 a1 7d 11 4c fd 20 	vmovupd %ymm1,0x20(%rbp,%r15,8)
  401d68:	c4 c1 7d 10 04 24    	vmovupd (%r12),%ymm0
  401d6e:	c4 c1 7d 10 4c 24 20 	vmovupd 0x20(%r12),%ymm1
  401d75:	c4 e2 ed a8 4c d5 20 	vfmadd213pd 0x20(%rbp,%rdx,8),%ymm2,%ymm1
  401d7c:	c4 e2 ed a8 44 d5 00 	vfmadd213pd 0x0(%rbp,%rdx,8),%ymm2,%ymm0
  401d83:	c5 fd 11 44 d5 00    	vmovupd %ymm0,0x0(%rbp,%rdx,8)
  401d89:	c5 fd 11 4c d5 20    	vmovupd %ymm1,0x20(%rbp,%rdx,8)
  401d8f:	48 ff c6             	inc    %rsi
  401d92:	49 81 c4 00 00 01 00 	add    $0x10000,%r12
  401d99:	48 83 fe 20          	cmp    $0x20,%rsi
  401d9d:	0f 85 3d ff ff ff    	jne    401ce0 <main.extracted.18+0x240>
  401da3:	48 81 c1 00 00 01 00 	add    $0x10000,%rcx
  401daa:	4c 39 c0             	cmp    %r8,%rax
  401dad:	48 8d 40 01          	lea    0x1(%rax),%rax
  401db1:	0f 85 09 ff ff ff    	jne    401cc0 <main.extracted.18+0x220>
  401db7:	e9 84 fe ff ff       	jmp    401c40 <main.extracted.18+0x1a0>
  401dbc:	48 83 c4 68          	add    $0x68,%rsp
  401dc0:	5b                   	pop    %rbx
  401dc1:	41 5c                	pop    %r12
  401dc3:	41 5d                	pop    %r13
  401dc5:	41 5e                	pop    %r14
  401dc7:	41 5f                	pop    %r15
  401dc9:	5d                   	pop    %rbp
  401dca:	c3                   	ret
  401dcb:	0f 1f 44 00 00       	nopl   0x0(%rax,%rax,1)

0000000000401dd0 <main.extracted.25>:
  401dd0:	41 57                	push   %r15
  401dd2:	41 56                	push   %r14
  401dd4:	41 55                	push   %r13
  401dd6:	41 54                	push   %r12
  401dd8:	53                   	push   %rbx
  401dd9:	48 83 ec 10          	sub    $0x10,%rsp
  401ddd:	4d 89 ce             	mov    %r9,%r14
  401de0:	4d 89 c7             	mov    %r8,%r15
  401de3:	49 89 cc             	mov    %rcx,%r12
  401de6:	c7 44 24 0c 00 00 00 	movl   $0x0,0xc(%rsp)
  401ded:	00 
  401dee:	8b 1f                	mov    (%rdi),%ebx
  401df0:	c7 44 24 04 00 00 00 	movl   $0x0,0x4(%rsp)
  401df7:	00 
  401df8:	c7 04 24 ff 1f 00 00 	movl   $0x1fff,(%rsp)
  401dff:	c7 44 24 08 01 00 00 	movl   $0x1,0x8(%rsp)
  401e06:	00 
  401e07:	48 83 ec 08          	sub    $0x8,%rsp
  401e0b:	48 8d 44 24 10       	lea    0x10(%rsp),%rax
  401e10:	48 8d 4c 24 14       	lea    0x14(%rsp),%rcx
  401e15:	4c 8d 44 24 0c       	lea    0xc(%rsp),%r8
  401e1a:	4c 8d 4c 24 08       	lea    0x8(%rsp),%r9
  401e1f:	bf e0 c1 40 00       	mov    $0x40c1e0,%edi
  401e24:	89 de                	mov    %ebx,%esi
  401e26:	ba 22 00 00 00       	mov    $0x22,%edx
  401e2b:	6a 01                	push   $0x1
  401e2d:	6a 01                	push   $0x1
  401e2f:	50                   	push   %rax
  401e30:	e8 0b f3 ff ff       	call   401140 <__kmpc_for_static_init_4@plt>
  401e35:	48 83 c4 20          	add    $0x20,%rsp
  401e39:	8b 44 24 04          	mov    0x4(%rsp),%eax
  401e3d:	8b 0c 24             	mov    (%rsp),%ecx
  401e40:	39 c8                	cmp    %ecx,%eax
  401e42:	0f 87 ad 00 00 00    	ja     401ef5 <main.extracted.25+0x125>
  401e48:	4d 8b 24 24          	mov    (%r12),%r12
  401e4c:	4d 8b 3f             	mov    (%r15),%r15
  401e4f:	49 8b 3e             	mov    (%r14),%rdi
  401e52:	48 8d 51 01          	lea    0x1(%rcx),%rdx
  401e56:	39 c2                	cmp    %eax,%edx
  401e58:	75 40                	jne    401e9a <main.extracted.25+0xca>
  401e5a:	48 c1 e0 0d          	shl    $0xd,%rax
  401e5e:	48 c1 e1 0d          	shl    $0xd,%rcx
  401e62:	48 81 c1 00 20 00 00 	add    $0x2000,%rcx
  401e69:	48 ba 00 00 00 00 00 	movabs $0x4000000000000000,%rdx
  401e70:	00 00 40 
  401e73:	48 be 00 00 00 00 00 	movabs $0x4008000000000000,%rsi
  401e7a:	00 08 40 
  401e7d:	0f 1f 00             	nopl   (%rax)
  401e80:	49 89 14 c4          	mov    %rdx,(%r12,%rax,8)
  401e84:	49 89 34 c7          	mov    %rsi,(%r15,%rax,8)
  401e88:	48 c7 04 c7 00 00 00 	movq   $0x0,(%rdi,%rax,8)
  401e8f:	00 
  401e90:	48 ff c0             	inc    %rax
  401e93:	48 39 c1             	cmp    %rax,%rcx
  401e96:	75 e8                	jne    401e80 <main.extracted.25+0xb0>
  401e98:	eb 5b                	jmp    401ef5 <main.extracted.25+0x125>
  401e9a:	48 29 c2             	sub    %rax,%rdx
  401e9d:	49 89 d6             	mov    %rdx,%r14
  401ea0:	49 c1 e6 0d          	shl    $0xd,%r14
  401ea4:	48 c1 e0 10          	shl    $0x10,%rax
  401ea8:	48 01 c7             	add    %rax,%rdi
  401eab:	48 c1 e2 10          	shl    $0x10,%rdx
  401eaf:	31 f6                	xor    %esi,%esi
  401eb1:	49 89 c5             	mov    %rax,%r13
  401eb4:	e8 87 00 00 00       	call   401f40 <_intel_fast_memset>
  401eb9:	31 c0                	xor    %eax,%eax
  401ebb:	4d 01 ef             	add    %r13,%r15
  401ebe:	4d 01 ec             	add    %r13,%r12
  401ec1:	c4 e2 7d 19 05 7e 71 	vbroadcastsd 0x717e(%rip),%ymm0        # 409048 <_IO_stdin_used+0x48>
  401ec8:	00 00 
  401eca:	c4 e2 7d 19 0d 7d 71 	vbroadcastsd 0x717d(%rip),%ymm1        # 409050 <_IO_stdin_used+0x50>
  401ed1:	00 00 
  401ed3:	66 66 66 66 2e 0f 1f 	data16 data16 data16 cs nopw 0x0(%rax,%rax,1)
  401eda:	84 00 00 00 00 00 
  401ee0:	c4 c1 7c 11 04 c4    	vmovups %ymm0,(%r12,%rax,8)
  401ee6:	c4 c1 7c 11 0c c7    	vmovups %ymm1,(%r15,%rax,8)
  401eec:	48 83 c0 04          	add    $0x4,%rax
  401ef0:	4c 39 f0             	cmp    %r14,%rax
  401ef3:	7c eb                	jl     401ee0 <main.extracted.25+0x110>
  401ef5:	bf 00 c2 40 00       	mov    $0x40c200,%edi
  401efa:	89 de                	mov    %ebx,%esi
  401efc:	48 83 c4 10          	add    $0x10,%rsp
  401f00:	5b                   	pop    %rbx
  401f01:	41 5c                	pop    %r12
  401f03:	41 5d                	pop    %r13
  401f05:	41 5e                	pop    %r14
  401f07:	41 5f                	pop    %r15
  401f09:	c5 f8 77             	vzeroupper
  401f0c:	e9 7f f1 ff ff       	jmp    401090 <__kmpc_for_static_fini@plt>
  401f11:	0f 1f 00             	nopl   (%rax)
  401f14:	66 2e 0f 1f 84 00 00 	cs nopw 0x0(%rax,%rax,1)
  401f1b:	00 00 00 
  401f1e:	66 90                	xchg   %ax,%ax

0000000000401f20 <__intel_get_fast_memset_impl.V>:
  401f20:	48 c7 c0 90 3d 40 00 	mov    $0x403d90,%rax
  401f27:	c3                   	ret
  401f28:	0f 1f 84 00 00 00 00 	nopl   0x0(%rax,%rax,1)
  401f2f:	00 

0000000000401f30 <__intel_get_fast_memset_impl.Z>:
  401f30:	48 c7 c0 c0 24 40 00 	mov    $0x4024c0,%rax
  401f37:	c3                   	ret
  401f38:	0f 1f 84 00 00 00 00 	nopl   0x0(%rax,%rax,1)
  401f3f:	00 

0000000000401f40 <_intel_fast_memset>:
  401f40:	f3 0f 1e fa          	endbr64
  401f44:	48 8b 05 45 a3 00 00 	mov    0xa345(%rip),%rax        # 40c290 <__real_memset_impl>
  401f4b:	48 85 c0             	test   %rax,%rax
  401f4e:	0f 84 0c 00 00 00    	je     401f60 <__real_memset_impl_setup>
  401f54:	ff e0                	jmp    *%rax
  401f56:	66 2e 0f 1f 84 00 00 	cs nopw 0x0(%rax,%rax,1)
  401f5d:	00 00 00 

0000000000401f60 <__real_memset_impl_setup>:
  401f60:	55                   	push   %rbp
  401f61:	41 56                	push   %r14
  401f63:	53                   	push   %rbx
  401f64:	48 89 d3             	mov    %rdx,%rbx
  401f67:	89 f5                	mov    %esi,%ebp
  401f69:	49 89 fe             	mov    %rdi,%r14
  401f6c:	48 c7 c1 b0 c2 40 00 	mov    $0x40c2b0,%rcx
  401f73:	48 8b 01             	mov    (%rcx),%rax
  401f76:	48 85 c0             	test   %rax,%rax
  401f79:	75 12                	jne    401f8d <__real_memset_impl_setup+0x2d>
  401f7b:	0f 1f 44 00 00       	nopl   0x0(%rax,%rax,1)
  401f80:	e8 9b 4b 00 00       	call   406b20 <__intel_cpu_features_init_x>
  401f85:	48 8b 01             	mov    (%rcx),%rax
  401f88:	48 85 c0             	test   %rax,%rax
  401f8b:	74 f3                	je     401f80 <__real_memset_impl_setup+0x20>
  401f8d:	48 89 c1             	mov    %rax,%rcx
  401f90:	48 f7 d1             	not    %rcx
  401f93:	48 ba ec 9f 9d 18 07 	movabs $0x7189d9fec,%rdx
  401f9a:	00 00 00 
  401f9d:	48 85 d1             	test   %rdx,%rcx
  401fa0:	75 07                	jne    401fa9 <__real_memset_impl_setup+0x49>
  401fa2:	e8 89 ff ff ff       	call   401f30 <__intel_get_fast_memset_impl.Z>
  401fa7:	eb 29                	jmp    401fd2 <__real_memset_impl_setup+0x72>
  401fa9:	89 c1                	mov    %eax,%ecx
  401fab:	f7 d1                	not    %ecx
  401fad:	f7 c1 ec 9f 9d 00    	test   $0x9d9fec,%ecx
  401fb3:	75 07                	jne    401fbc <__real_memset_impl_setup+0x5c>
  401fb5:	e8 66 ff ff ff       	call   401f20 <__intel_get_fast_memset_impl.V>
  401fba:	eb 16                	jmp    401fd2 <__real_memset_impl_setup+0x72>
  401fbc:	f7 d0                	not    %eax
  401fbe:	a8 6c                	test   $0x6c,%al
  401fc0:	75 09                	jne    401fcb <__real_memset_impl_setup+0x6b>
  401fc2:	48 c7 c0 60 4e 40 00 	mov    $0x404e60,%rax
  401fc9:	eb 07                	jmp    401fd2 <__real_memset_impl_setup+0x72>
  401fcb:	48 8b 05 de 9f 00 00 	mov    0x9fde(%rip),%rax        # 40bfb0 <memset@GLIBC_2.2.5>
  401fd2:	48 89 05 b7 a2 00 00 	mov    %rax,0xa2b7(%rip)        # 40c290 <__real_memset_impl>
  401fd9:	4c 89 f7             	mov    %r14,%rdi
  401fdc:	89 ee                	mov    %ebp,%esi
  401fde:	48 89 da             	mov    %rbx,%rdx
  401fe1:	5b                   	pop    %rbx
  401fe2:	41 5e                	pop    %r14
  401fe4:	5d                   	pop    %rbp
  401fe5:	ff e0                	jmp    *%rax
  401fe7:	90                   	nop
  401fe8:	0f 1f 84 00 00 00 00 	nopl   0x0(%rax,%rax,1)
  401fef:	00 

0000000000401ff0 <__intel_new_feature_proc_init_n>:
  401ff0:	f3 0f 1e fa          	endbr64
  401ff4:	55                   	push   %rbp
  401ff5:	41 57                	push   %r15
  401ff7:	41 56                	push   %r14
  401ff9:	41 55                	push   %r13
  401ffb:	41 54                	push   %r12
  401ffd:	53                   	push   %rbx
  401ffe:	48 81 ec 38 04 00 00 	sub    $0x438,%rsp
  402005:	64 48 8b 04 25 28 00 	mov    %fs:0x28,%rax
  40200c:	00 00 
  40200e:	48 89 84 24 30 04 00 	mov    %rax,0x430(%rsp)
  402015:	00 
  402016:	0f 57 c0             	xorps  %xmm0,%xmm0
  402019:	0f 29 44 24 10       	movaps %xmm0,0x10(%rsp)
  40201e:	48 c7 c1 a0 c2 40 00 	mov    $0x40c2a0,%rcx
  402025:	48 83 39 00          	cmpq   $0x0,(%rcx)
  402029:	75 17                	jne    402042 <__intel_new_feature_proc_init_n+0x52>
  40202b:	e8 10 40 00 00       	call   406040 <__intel_cpu_features_init>
  402030:	85 c0                	test   %eax,%eax
  402032:	0f 85 0b 02 00 00    	jne    402243 <__intel_new_feature_proc_init_n+0x253>
  402038:	48 83 39 00          	cmpq   $0x0,(%rcx)
  40203c:	0f 84 01 02 00 00    	je     402243 <__intel_new_feature_proc_init_n+0x253>
  402042:	83 ff 02             	cmp    $0x2,%edi
  402045:	7d 38                	jge    40207f <__intel_new_feature_proc_init_n+0x8f>
  402047:	48 63 c7             	movslq %edi,%rax
  40204a:	48 8b 0c c1          	mov    (%rcx,%rax,8),%rcx
  40204e:	48 f7 d1             	not    %rcx
  402051:	48 85 ce             	test   %rcx,%rsi
  402054:	75 48                	jne    40209e <__intel_new_feature_proc_init_n+0xae>
  402056:	64 48 8b 04 25 28 00 	mov    %fs:0x28,%rax
  40205d:	00 00 
  40205f:	48 3b 84 24 30 04 00 	cmp    0x430(%rsp),%rax
  402066:	00 
  402067:	0f 85 e8 02 00 00    	jne    402355 <__intel_new_feature_proc_init_n+0x365>
  40206d:	48 81 c4 38 04 00 00 	add    $0x438,%rsp
  402074:	5b                   	pop    %rbx
  402075:	41 5c                	pop    %r12
  402077:	41 5d                	pop    %r13
  402079:	41 5e                	pop    %r14
  40207b:	41 5f                	pop    %r15
  40207d:	5d                   	pop    %rbp
  40207e:	c3                   	ret
  40207f:	bf 01 00 00 00       	mov    $0x1,%edi
  402084:	31 f6                	xor    %esi,%esi
  402086:	31 d2                	xor    %edx,%edx
  402088:	31 c0                	xor    %eax,%eax
  40208a:	e8 61 61 00 00       	call   4081f0 <__libirc_print>
  40208f:	bf 01 00 00 00       	mov    $0x1,%edi
  402094:	be 3a 00 00 00       	mov    $0x3a,%esi
  402099:	e9 bf 01 00 00       	jmp    40225d <__intel_new_feature_proc_init_n+0x26d>
  40209e:	48 21 f1             	and    %rsi,%rcx
  4020a1:	48 89 4c c4 10       	mov    %rcx,0x10(%rsp,%rax,8)
  4020a6:	45 31 ff             	xor    %r15d,%r15d
  4020a9:	bf 39 00 00 00       	mov    $0x39,%edi
  4020ae:	31 f6                	xor    %esi,%esi
  4020b0:	31 c0                	xor    %eax,%eax
  4020b2:	e8 f9 5e 00 00       	call   407fb0 <__libirc_get_msg>
  4020b7:	48 89 04 24          	mov    %rax,(%rsp)
  4020bb:	c6 44 24 30 00       	movb   $0x0,0x30(%rsp)
  4020c0:	bd 01 00 00 00       	mov    $0x1,%ebp
  4020c5:	4c 8d 64 24 10       	lea    0x10(%rsp),%r12
  4020ca:	4c 8d 6c 24 30       	lea    0x30(%rsp),%r13
  4020cf:	31 db                	xor    %ebx,%ebx
  4020d1:	eb 31                	jmp    402104 <__intel_new_feature_proc_init_n+0x114>
  4020d3:	b8 ff 03 00 00       	mov    $0x3ff,%eax
  4020d8:	44 29 f8             	sub    %r15d,%eax
  4020db:	48 63 d0             	movslq %eax,%rdx
  4020de:	b9 00 04 00 00       	mov    $0x400,%ecx
  4020e3:	4c 89 ef             	mov    %r13,%rdi
  4020e6:	4c 89 f6             	mov    %r14,%rsi
  4020e9:	e8 02 f1 ff ff       	call   4011f0 <__strncat_chk@plt>
  4020ee:	4c 89 ef             	mov    %r13,%rdi
  4020f1:	e8 0a f0 ff ff       	call   401100 <strlen@plt>
  4020f6:	49 89 c7             	mov    %rax,%r15
  4020f9:	ff c5                	inc    %ebp
  4020fb:	83 fd 47             	cmp    $0x47,%ebp
  4020fe:	0f 84 26 01 00 00    	je     40222a <__intel_new_feature_proc_init_n+0x23a>
  402104:	89 e8                	mov    %ebp,%eax
  402106:	e8 25 55 00 00       	call   407630 <__libirc_get_feature_bitpos>
  40210b:	85 c0                	test   %eax,%eax
  40210d:	78 ea                	js     4020f9 <__intel_new_feature_proc_init_n+0x109>
  40210f:	4c 89 e7             	mov    %r12,%rdi
  402112:	89 ee                	mov    %ebp,%esi
  402114:	e8 57 55 00 00       	call   407670 <__libirc_get_cpu_feature>
  402119:	85 c0                	test   %eax,%eax
  40211b:	74 dc                	je     4020f9 <__intel_new_feature_proc_init_n+0x109>
  40211d:	4c 89 e7             	mov    %r12,%rdi
  402120:	89 ee                	mov    %ebp,%esi
  402122:	e8 49 55 00 00       	call   407670 <__libirc_get_cpu_feature>
  402127:	85 c0                	test   %eax,%eax
  402129:	0f 88 e6 00 00 00    	js     402215 <__intel_new_feature_proc_init_n+0x225>
  40212f:	89 ef                	mov    %ebp,%edi
  402131:	e8 0a 4a 00 00       	call   406b40 <__libirc_get_feature_name>
  402136:	48 85 c0             	test   %rax,%rax
  402139:	0f 84 d6 00 00 00    	je     402215 <__intel_new_feature_proc_init_n+0x225>
  40213f:	49 89 c6             	mov    %rax,%r14
  402142:	80 38 00             	cmpb   $0x0,(%rax)
  402145:	0f 84 ca 00 00 00    	je     402215 <__intel_new_feature_proc_init_n+0x225>
  40214b:	80 7c 24 30 00       	cmpb   $0x0,0x30(%rsp)
  402150:	74 81                	je     4020d3 <__intel_new_feature_proc_init_n+0xe3>
  402152:	48 85 db             	test   %rbx,%rbx
  402155:	0f 84 b2 00 00 00    	je     40220d <__intel_new_feature_proc_init_n+0x21d>
  40215b:	4d 89 ec             	mov    %r13,%r12
  40215e:	48 89 df             	mov    %rbx,%rdi
  402161:	e8 9a ef ff ff       	call   401100 <strlen@plt>
  402166:	49 89 c5             	mov    %rax,%r13
  402169:	48 8d 3d 66 6f 00 00 	lea    0x6f66(%rip),%rdi        # 4090d6 <_IO_stdin_used+0xd6>
  402170:	e8 8b ef ff ff       	call   401100 <strlen@plt>
  402175:	48 89 44 24 28       	mov    %rax,0x28(%rsp)
  40217a:	48 89 5c 24 08       	mov    %rbx,0x8(%rsp)
  40217f:	49 63 df             	movslq %r15d,%rbx
  402182:	48 8b 3c 24          	mov    (%rsp),%rdi
  402186:	e8 75 ef ff ff       	call   401100 <strlen@plt>
  40218b:	49 89 c7             	mov    %rax,%r15
  40218e:	4c 89 f7             	mov    %r14,%rdi
  402191:	e8 6a ef ff ff       	call   401100 <strlen@plt>
  402196:	49 01 dd             	add    %rbx,%r13
  402199:	4c 03 6c 24 28       	add    0x28(%rsp),%r13
  40219e:	4c 01 f8             	add    %r15,%rax
  4021a1:	4c 01 e8             	add    %r13,%rax
  4021a4:	b9 ff 03 00 00       	mov    $0x3ff,%ecx
  4021a9:	29 d9                	sub    %ebx,%ecx
  4021ab:	48 63 d1             	movslq %ecx,%rdx
  4021ae:	48 3d ff 03 00 00    	cmp    $0x3ff,%rax
  4021b4:	0f 87 dd 00 00 00    	ja     402297 <__intel_new_feature_proc_init_n+0x2a7>
  4021ba:	b9 00 04 00 00       	mov    $0x400,%ecx
  4021bf:	4d 89 e5             	mov    %r12,%r13
  4021c2:	4c 89 e7             	mov    %r12,%rdi
  4021c5:	48 8d 35 0a 6f 00 00 	lea    0x6f0a(%rip),%rsi        # 4090d6 <_IO_stdin_used+0xd6>
  4021cc:	e8 1f f0 ff ff       	call   4011f0 <__strncat_chk@plt>
  4021d1:	4c 89 e7             	mov    %r12,%rdi
  4021d4:	e8 27 ef ff ff       	call   401100 <strlen@plt>
  4021d9:	48 c1 e0 20          	shl    $0x20,%rax
  4021dd:	48 ba 00 00 00 00 ff 	movabs $0x3ff00000000,%rdx
  4021e4:	03 00 00 
  4021e7:	48 29 c2             	sub    %rax,%rdx
  4021ea:	48 c1 fa 20          	sar    $0x20,%rdx
  4021ee:	b9 00 04 00 00       	mov    $0x400,%ecx
  4021f3:	4c 89 e7             	mov    %r12,%rdi
  4021f6:	48 8b 74 24 08       	mov    0x8(%rsp),%rsi
  4021fb:	e8 f0 ef ff ff       	call   4011f0 <__strncat_chk@plt>
  402200:	4c 89 f3             	mov    %r14,%rbx
  402203:	4c 8d 64 24 10       	lea    0x10(%rsp),%r12
  402208:	e9 e1 fe ff ff       	jmp    4020ee <__intel_new_feature_proc_init_n+0xfe>
  40220d:	4c 89 f3             	mov    %r14,%rbx
  402210:	e9 e4 fe ff ff       	jmp    4020f9 <__intel_new_feature_proc_init_n+0x109>
  402215:	bf 01 00 00 00       	mov    $0x1,%edi
  40221a:	31 f6                	xor    %esi,%esi
  40221c:	31 d2                	xor    %edx,%edx
  40221e:	31 c0                	xor    %eax,%eax
  402220:	e8 cb 5f 00 00       	call   4081f0 <__libirc_print>
  402225:	e9 ce 00 00 00       	jmp    4022f8 <__intel_new_feature_proc_init_n+0x308>
  40222a:	48 85 db             	test   %rbx,%rbx
  40222d:	0f 84 ac 00 00 00    	je     4022df <__intel_new_feature_proc_init_n+0x2ef>
  402233:	49 89 dc             	mov    %rbx,%r12
  402236:	b8 ff 03 00 00       	mov    $0x3ff,%eax
  40223b:	44 29 f8             	sub    %r15d,%eax
  40223e:	48 63 d0             	movslq %eax,%rdx
  402241:	eb 59                	jmp    40229c <__intel_new_feature_proc_init_n+0x2ac>
  402243:	bf 01 00 00 00       	mov    $0x1,%edi
  402248:	31 f6                	xor    %esi,%esi
  40224a:	31 d2                	xor    %edx,%edx
  40224c:	31 c0                	xor    %eax,%eax
  40224e:	e8 9d 5f 00 00       	call   4081f0 <__libirc_print>
  402253:	bf 01 00 00 00       	mov    $0x1,%edi
  402258:	be 3b 00 00 00       	mov    $0x3b,%esi
  40225d:	31 d2                	xor    %edx,%edx
  40225f:	31 c0                	xor    %eax,%eax
  402261:	e8 8a 5f 00 00       	call   4081f0 <__libirc_print>
  402266:	64 48 8b 04 25 28 00 	mov    %fs:0x28,%rax
  40226d:	00 00 
  40226f:	48 3b 84 24 30 04 00 	cmp    0x430(%rsp),%rax
  402276:	00 
  402277:	0f 85 d8 00 00 00    	jne    402355 <__intel_new_feature_proc_init_n+0x365>
  40227d:	bf 01 00 00 00       	mov    $0x1,%edi
  402282:	31 f6                	xor    %esi,%esi
  402284:	31 d2                	xor    %edx,%edx
  402286:	31 c0                	xor    %eax,%eax
  402288:	e8 63 5f 00 00       	call   4081f0 <__libirc_print>
  40228d:	bf 01 00 00 00       	mov    $0x1,%edi
  402292:	e8 c9 ed ff ff       	call   401060 <exit@plt>
  402297:	4c 8b 64 24 08       	mov    0x8(%rsp),%r12
  40229c:	4c 8d 74 24 30       	lea    0x30(%rsp),%r14
  4022a1:	b9 00 04 00 00       	mov    $0x400,%ecx
  4022a6:	4c 89 f7             	mov    %r14,%rdi
  4022a9:	48 8b 34 24          	mov    (%rsp),%rsi
  4022ad:	e8 3e ef ff ff       	call   4011f0 <__strncat_chk@plt>
  4022b2:	4c 89 f7             	mov    %r14,%rdi
  4022b5:	e8 46 ee ff ff       	call   401100 <strlen@plt>
  4022ba:	48 c1 e0 20          	shl    $0x20,%rax
  4022be:	48 ba 00 00 00 00 ff 	movabs $0x3ff00000000,%rdx
  4022c5:	03 00 00 
  4022c8:	48 29 c2             	sub    %rax,%rdx
  4022cb:	48 c1 fa 20          	sar    $0x20,%rdx
  4022cf:	b9 00 04 00 00       	mov    $0x400,%ecx
  4022d4:	4c 89 f7             	mov    %r14,%rdi
  4022d7:	4c 89 e6             	mov    %r12,%rsi
  4022da:	e8 11 ef ff ff       	call   4011f0 <__strncat_chk@plt>
  4022df:	0f b6 5c 24 30       	movzbl 0x30(%rsp),%ebx
  4022e4:	bf 01 00 00 00       	mov    $0x1,%edi
  4022e9:	31 f6                	xor    %esi,%esi
  4022eb:	31 d2                	xor    %edx,%edx
  4022ed:	31 c0                	xor    %eax,%eax
  4022ef:	e8 fc 5e 00 00       	call   4081f0 <__libirc_print>
  4022f4:	84 db                	test   %bl,%bl
  4022f6:	75 15                	jne    40230d <__intel_new_feature_proc_init_n+0x31d>
  4022f8:	bf 01 00 00 00       	mov    $0x1,%edi
  4022fd:	be 3a 00 00 00       	mov    $0x3a,%esi
  402302:	31 d2                	xor    %edx,%edx
  402304:	31 c0                	xor    %eax,%eax
  402306:	e8 e5 5e 00 00       	call   4081f0 <__libirc_print>
  40230b:	eb 1b                	jmp    402328 <__intel_new_feature_proc_init_n+0x338>
  40230d:	48 8d 4c 24 30       	lea    0x30(%rsp),%rcx
  402312:	bf 01 00 00 00       	mov    $0x1,%edi
  402317:	be 38 00 00 00       	mov    $0x38,%esi
  40231c:	ba 01 00 00 00       	mov    $0x1,%edx
  402321:	31 c0                	xor    %eax,%eax
  402323:	e8 c8 5e 00 00       	call   4081f0 <__libirc_print>
  402328:	bf 01 00 00 00       	mov    $0x1,%edi
  40232d:	31 f6                	xor    %esi,%esi
  40232f:	31 d2                	xor    %edx,%edx
  402331:	31 c0                	xor    %eax,%eax
  402333:	e8 b8 5e 00 00       	call   4081f0 <__libirc_print>
  402338:	64 48 8b 04 25 28 00 	mov    %fs:0x28,%rax
  40233f:	00 00 
  402341:	48 3b 84 24 30 04 00 	cmp    0x430(%rsp),%rax
  402348:	00 
  402349:	75 0a                	jne    402355 <__intel_new_feature_proc_init_n+0x365>
  40234b:	bf 01 00 00 00       	mov    $0x1,%edi
  402350:	e8 0b ed ff ff       	call   401060 <exit@plt>
  402355:	e8 26 ee ff ff       	call   401180 <__stack_chk_fail@plt>
  40235a:	66 0f 1f 44 00 00    	nopw   0x0(%rax,%rax,1)

0000000000402360 <__intel_new_feature_proc_init>:
  402360:	f3 0f 1e fa          	endbr64
  402364:	53                   	push   %rbx
  402365:	89 fb                	mov    %edi,%ebx
  402367:	31 ff                	xor    %edi,%edi
  402369:	e8 82 fc ff ff       	call   401ff0 <__intel_new_feature_proc_init_n>
  40236e:	48 c7 c7 a0 c2 40 00 	mov    $0x40c2a0,%rdi
  402375:	be 06 00 00 00       	mov    $0x6,%esi
  40237a:	e8 f1 52 00 00       	call   407670 <__libirc_get_cpu_feature>
  40237f:	83 f8 01             	cmp    $0x1,%eax
  402382:	75 0a                	jne    40238e <__intel_new_feature_proc_init+0x2e>
  402384:	31 ff                	xor    %edi,%edi
  402386:	89 de                	mov    %ebx,%esi
  402388:	5b                   	pop    %rbx
  402389:	e9 52 00 00 00       	jmp    4023e0 <__intel_proc_init_ftzdazule>
  40238e:	85 c0                	test   %eax,%eax
  402390:	78 02                	js     402394 <__intel_new_feature_proc_init+0x34>
  402392:	5b                   	pop    %rbx
  402393:	c3                   	ret
  402394:	bf 01 00 00 00       	mov    $0x1,%edi
  402399:	31 f6                	xor    %esi,%esi
  40239b:	31 d2                	xor    %edx,%edx
  40239d:	31 c0                	xor    %eax,%eax
  40239f:	e8 4c 5e 00 00       	call   4081f0 <__libirc_print>
  4023a4:	bf 01 00 00 00       	mov    $0x1,%edi
  4023a9:	be 3a 00 00 00       	mov    $0x3a,%esi
  4023ae:	31 d2                	xor    %edx,%edx
  4023b0:	31 c0                	xor    %eax,%eax
  4023b2:	e8 39 5e 00 00       	call   4081f0 <__libirc_print>
  4023b7:	bf 01 00 00 00       	mov    $0x1,%edi
  4023bc:	31 f6                	xor    %esi,%esi
  4023be:	31 d2                	xor    %edx,%edx
  4023c0:	31 c0                	xor    %eax,%eax
  4023c2:	e8 29 5e 00 00       	call   4081f0 <__libirc_print>
  4023c7:	bf 01 00 00 00       	mov    $0x1,%edi
  4023cc:	e8 8f ec ff ff       	call   401060 <exit@plt>
  4023d1:	0f 1f 00             	nopl   (%rax)
  4023d4:	66 2e 0f 1f 84 00 00 	cs nopw 0x0(%rax,%rax,1)
  4023db:	00 00 00 
  4023de:	66 90                	xchg   %ax,%ax

00000000004023e0 <__intel_proc_init_ftzdazule>:
  4023e0:	f3 0f 1e fa          	endbr64
  4023e4:	55                   	push   %rbp
  4023e5:	41 56                	push   %r14
  4023e7:	53                   	push   %rbx
  4023e8:	48 81 ec 20 02 00 00 	sub    $0x220,%rsp
  4023ef:	89 f3                	mov    %esi,%ebx
  4023f1:	41 89 f6             	mov    %esi,%r14d
  4023f4:	41 83 e6 04          	and    $0x4,%r14d
  4023f8:	89 f5                	mov    %esi,%ebp
  4023fa:	83 e5 02             	and    $0x2,%ebp
  4023fd:	74 07                	je     402406 <__intel_proc_init_ftzdazule+0x26>
  4023ff:	89 f8                	mov    %edi,%eax
  402401:	83 e0 02             	and    $0x2,%eax
  402404:	74 12                	je     402418 <__intel_proc_init_ftzdazule+0x38>
  402406:	31 c0                	xor    %eax,%eax
  402408:	45 85 f6             	test   %r14d,%r14d
  40240b:	74 38                	je     402445 <__intel_proc_init_ftzdazule+0x65>
  40240d:	b8 01 00 00 00       	mov    $0x1,%eax
  402412:	40 f6 c7 04          	test   $0x4,%dil
  402416:	75 2d                	jne    402445 <__intel_proc_init_ftzdazule+0x65>
  402418:	48 8d 7c 24 20       	lea    0x20(%rsp),%rdi
  40241d:	ba 00 02 00 00       	mov    $0x200,%edx
  402422:	31 f6                	xor    %esi,%esi
  402424:	e8 d7 ed ff ff       	call   401200 <memset@plt>
  402429:	0f ae 44 24 20       	fxsave 0x20(%rsp)
  40242e:	8b 44 24 3c          	mov    0x3c(%rsp),%eax
  402432:	89 c1                	mov    %eax,%ecx
  402434:	c1 e1 19             	shl    $0x19,%ecx
  402437:	c1 f9 1f             	sar    $0x1f,%ecx
  40243a:	21 cd                	and    %ecx,%ebp
  40243c:	c1 e0 0e             	shl    $0xe,%eax
  40243f:	c1 f8 1f             	sar    $0x1f,%eax
  402442:	44 21 f0             	and    %r14d,%eax
  402445:	f6 c3 01             	test   $0x1,%bl
  402448:	74 17                	je     402461 <__intel_proc_init_ftzdazule+0x81>
  40244a:	0f ae 5c 24 1c       	stmxcsr 0x1c(%rsp)
  40244f:	b9 00 80 00 00       	mov    $0x8000,%ecx
  402454:	0b 4c 24 1c          	or     0x1c(%rsp),%ecx
  402458:	89 4c 24 18          	mov    %ecx,0x18(%rsp)
  40245c:	0f ae 54 24 18       	ldmxcsr 0x18(%rsp)
  402461:	85 ed                	test   %ebp,%ebp
  402463:	74 15                	je     40247a <__intel_proc_init_ftzdazule+0x9a>
  402465:	0f ae 5c 24 14       	stmxcsr 0x14(%rsp)
  40246a:	8b 4c 24 14          	mov    0x14(%rsp),%ecx
  40246e:	83 c9 40             	or     $0x40,%ecx
  402471:	89 4c 24 10          	mov    %ecx,0x10(%rsp)
  402475:	0f ae 54 24 10       	ldmxcsr 0x10(%rsp)
  40247a:	85 c0                	test   %eax,%eax
  40247c:	74 17                	je     402495 <__intel_proc_init_ftzdazule+0xb5>
  40247e:	0f ae 5c 24 0c       	stmxcsr 0xc(%rsp)
  402483:	b8 00 00 02 00       	mov    $0x20000,%eax
  402488:	0b 44 24 0c          	or     0xc(%rsp),%eax
  40248c:	89 44 24 08          	mov    %eax,0x8(%rsp)
  402490:	0f ae 54 24 08       	ldmxcsr 0x8(%rsp)
  402495:	48 81 c4 20 02 00 00 	add    $0x220,%rsp
  40249c:	5b                   	pop    %rbx
  40249d:	41 5e                	pop    %r14
  40249f:	5d                   	pop    %rbp
  4024a0:	c3                   	ret
  4024a1:	0f 1f 00             	nopl   (%rax)
  4024a4:	66 2e 0f 1f 84 00 00 	cs nopw 0x0(%rax,%rax,1)
  4024ab:	00 00 00 
  4024ae:	66 2e 0f 1f 84 00 00 	cs nopw 0x0(%rax,%rax,1)
  4024b5:	00 00 00 
  4024b8:	0f 1f 84 00 00 00 00 	nopl   0x0(%rax,%rax,1)
  4024bf:	00 

00000000004024c0 <__intel_mic_avx512f_memset>:
  4024c0:	f3 0f 1e fa          	endbr64
  4024c4:	48 89 f8             	mov    %rdi,%rax
  4024c7:	48 c7 c1 58 c2 40 00 	mov    $0x40c258,%rcx
  4024ce:	49 b8 01 01 01 01 01 	movabs $0x101010101010101,%r8
  4024d5:	01 01 01 
  4024d8:	4c 0f b6 ce          	movzbq %sil,%r9
  4024dc:	4d 0f af c8          	imul   %r8,%r9
  4024e0:	48 8d 35 99 14 00 00 	lea    0x1499(%rip),%rsi        # 403980 <__intel_mic_avx512f_memset+0x14c0>
  4024e7:	62 d2 7d 48 7c c1    	vpbroadcastd %r9d,%zmm0
  4024ed:	48 81 fa 80 00 00 00 	cmp    $0x80,%rdx
  4024f4:	7d 0c                	jge    402502 <__intel_mic_avx512f_memset+0x42>
  4024f6:	49 89 f8             	mov    %rdi,%r8
  4024f9:	49 01 d0             	add    %rdx,%r8
  4024fc:	48 2b 34 d6          	sub    (%rsi,%rdx,8),%rsi
  402500:	ff e6                	jmp    *%rsi
  402502:	48 8d 35 77 02 00 00 	lea    0x277(%rip),%rsi        # 402780 <__intel_mic_avx512f_memset+0x2c0>
  402509:	49 89 fa             	mov    %rdi,%r10
  40250c:	49 f7 da             	neg    %r10
  40250f:	49 83 c2 40          	add    $0x40,%r10
  402513:	49 83 e2 3f          	and    $0x3f,%r10
  402517:	74 12                	je     40252b <__intel_mic_avx512f_memset+0x6b>
  402519:	4c 29 d2             	sub    %r10,%rdx
  40251c:	49 89 f8             	mov    %rdi,%r8
  40251f:	4d 01 d0             	add    %r10,%r8
  402522:	4a 2b 34 d6          	sub    (%rsi,%r10,8),%rsi
  402526:	ff e6                	jmp    *%rsi
  402528:	4c 01 d7             	add    %r10,%rdi
  40252b:	48 81 fa 00 02 00 00 	cmp    $0x200,%rdx
  402532:	0f 8c 21 01 00 00    	jl     402659 <__intel_mic_avx512f_memset+0x199>
  402538:	48 3b 11             	cmp    (%rcx),%rdx
  40253b:	73 53                	jae    402590 <__intel_mic_avx512f_memset+0xd0>
  40253d:	62 f1 7c 48 29 07    	vmovaps %zmm0,(%rdi)
  402543:	62 f1 7c 48 29 47 01 	vmovaps %zmm0,0x40(%rdi)
  40254a:	62 f1 7c 48 29 47 02 	vmovaps %zmm0,0x80(%rdi)
  402551:	62 f1 7c 48 29 47 03 	vmovaps %zmm0,0xc0(%rdi)
  402558:	48 8d bf 00 02 00 00 	lea    0x200(%rdi),%rdi
  40255f:	48 81 ea 00 02 00 00 	sub    $0x200,%rdx
  402566:	62 f1 7c 48 29 47 fc 	vmovaps %zmm0,-0x100(%rdi)
  40256d:	62 f1 7c 48 29 47 fd 	vmovaps %zmm0,-0xc0(%rdi)
  402574:	62 f1 7c 48 29 47 fe 	vmovaps %zmm0,-0x80(%rdi)
  40257b:	62 f1 7c 48 29 47 ff 	vmovaps %zmm0,-0x40(%rdi)
  402582:	48 81 fa 00 02 00 00 	cmp    $0x200,%rdx
  402589:	7d b2                	jge    40253d <__intel_mic_avx512f_memset+0x7d>
  40258b:	e9 c9 00 00 00       	jmp    402659 <__intel_mic_avx512f_memset+0x199>
  402590:	62 f1 7d 48 e7 07    	vmovntdq %zmm0,(%rdi)
  402596:	62 f1 7d 48 e7 47 01 	vmovntdq %zmm0,0x40(%rdi)
  40259d:	62 f1 7d 48 e7 47 02 	vmovntdq %zmm0,0x80(%rdi)
  4025a4:	62 f1 7d 48 e7 47 03 	vmovntdq %zmm0,0xc0(%rdi)
  4025ab:	48 8d bf 00 02 00 00 	lea    0x200(%rdi),%rdi
  4025b2:	48 81 ea 00 02 00 00 	sub    $0x200,%rdx
  4025b9:	62 f1 7d 48 e7 47 fc 	vmovntdq %zmm0,-0x100(%rdi)
  4025c0:	62 f1 7d 48 e7 47 fd 	vmovntdq %zmm0,-0xc0(%rdi)
  4025c7:	62 f1 7d 48 e7 47 fe 	vmovntdq %zmm0,-0x80(%rdi)
  4025ce:	62 f1 7d 48 e7 47 ff 	vmovntdq %zmm0,-0x40(%rdi)
  4025d5:	48 81 fa 00 02 00 00 	cmp    $0x200,%rdx
  4025dc:	7d b2                	jge    402590 <__intel_mic_avx512f_memset+0xd0>
  4025de:	0f ae f8             	sfence
  4025e1:	eb 76                	jmp    402659 <__intel_mic_avx512f_memset+0x199>
  4025e3:	44 88 0f             	mov    %r9b,(%rdi)
  4025e6:	e9 3d ff ff ff       	jmp    402528 <__intel_mic_avx512f_memset+0x68>
  4025eb:	66 44 89 0f          	mov    %r9w,(%rdi)
  4025ef:	e9 34 ff ff ff       	jmp    402528 <__intel_mic_avx512f_memset+0x68>
  4025f4:	66 44 89 0f          	mov    %r9w,(%rdi)
  4025f8:	44 88 4f 02          	mov    %r9b,0x2(%rdi)
  4025fc:	e9 27 ff ff ff       	jmp    402528 <__intel_mic_avx512f_memset+0x68>
  402601:	44 89 0f             	mov    %r9d,(%rdi)
  402604:	e9 1f ff ff ff       	jmp    402528 <__intel_mic_avx512f_memset+0x68>
  402609:	44 89 0f             	mov    %r9d,(%rdi)
  40260c:	45 89 48 fc          	mov    %r9d,-0x4(%r8)
  402610:	e9 13 ff ff ff       	jmp    402528 <__intel_mic_avx512f_memset+0x68>
  402615:	4c 89 0f             	mov    %r9,(%rdi)
  402618:	e9 0b ff ff ff       	jmp    402528 <__intel_mic_avx512f_memset+0x68>
  40261d:	4c 89 0f             	mov    %r9,(%rdi)
  402620:	4d 89 48 f8          	mov    %r9,-0x8(%r8)
  402624:	e9 ff fe ff ff       	jmp    402528 <__intel_mic_avx512f_memset+0x68>
  402629:	c5 f8 11 07          	vmovups %xmm0,(%rdi)
  40262d:	e9 f6 fe ff ff       	jmp    402528 <__intel_mic_avx512f_memset+0x68>
  402632:	c5 f8 11 07          	vmovups %xmm0,(%rdi)
  402636:	c4 c1 78 11 40 f0    	vmovups %xmm0,-0x10(%r8)
  40263c:	e9 e7 fe ff ff       	jmp    402528 <__intel_mic_avx512f_memset+0x68>
  402641:	c5 fc 11 07          	vmovups %ymm0,(%rdi)
  402645:	e9 de fe ff ff       	jmp    402528 <__intel_mic_avx512f_memset+0x68>
  40264a:	c5 fc 11 07          	vmovups %ymm0,(%rdi)
  40264e:	c4 c1 7c 11 40 e0    	vmovups %ymm0,-0x20(%r8)
  402654:	e9 cf fe ff ff       	jmp    402528 <__intel_mic_avx512f_memset+0x68>
  402659:	49 89 f8             	mov    %rdi,%r8
  40265c:	49 01 d0             	add    %rdx,%r8
  40265f:	48 01 d7             	add    %rdx,%rdi
  402662:	48 83 e7 c0          	and    $0xffffffffffffffc0,%rdi
  402666:	48 8d 35 13 03 00 00 	lea    0x313(%rip),%rsi        # 402980 <__intel_mic_avx512f_memset+0x4c0>
  40266d:	48 2b 34 d6          	sub    (%rsi,%rdx,8),%rsi
  402671:	ff e6                	jmp    *%rsi
  402673:	62 f1 7c 48 29 47 f9 	vmovaps %zmm0,-0x1c0(%rdi)
  40267a:	62 f1 7c 48 29 47 fa 	vmovaps %zmm0,-0x180(%rdi)
  402681:	62 f1 7c 48 29 47 fb 	vmovaps %zmm0,-0x140(%rdi)
  402688:	62 f1 7c 48 29 47 fc 	vmovaps %zmm0,-0x100(%rdi)
  40268f:	62 f1 7c 48 29 47 fd 	vmovaps %zmm0,-0xc0(%rdi)
  402696:	62 f1 7c 48 29 47 fe 	vmovaps %zmm0,-0x80(%rdi)
  40269d:	62 f1 7c 48 29 47 ff 	vmovaps %zmm0,-0x40(%rdi)
  4026a4:	4c 89 c2             	mov    %r8,%rdx
  4026a7:	48 83 e2 3f          	and    $0x3f,%rdx
  4026ab:	48 8d 35 ce 02 00 00 	lea    0x2ce(%rip),%rsi        # 402980 <__intel_mic_avx512f_memset+0x4c0>
  4026b2:	48 2b 34 d6          	sub    (%rsi,%rdx,8),%rsi
  4026b6:	ff e6                	jmp    *%rsi
  4026b8:	44 88 0f             	mov    %r9b,(%rdi)
  4026bb:	e9 c0 16 00 00       	jmp    403d80 <__intel_mic_avx512f_memset+0x18c0>
  4026c0:	e9 bb 16 00 00       	jmp    403d80 <__intel_mic_avx512f_memset+0x18c0>
  4026c5:	66 44 89 0f          	mov    %r9w,(%rdi)
  4026c9:	e9 b2 16 00 00       	jmp    403d80 <__intel_mic_avx512f_memset+0x18c0>
  4026ce:	66 44 89 0f          	mov    %r9w,(%rdi)
  4026d2:	44 88 4f 02          	mov    %r9b,0x2(%rdi)
  4026d6:	e9 a5 16 00 00       	jmp    403d80 <__intel_mic_avx512f_memset+0x18c0>
  4026db:	44 89 0f             	mov    %r9d,(%rdi)
  4026de:	e9 9d 16 00 00       	jmp    403d80 <__intel_mic_avx512f_memset+0x18c0>
  4026e3:	44 89 0f             	mov    %r9d,(%rdi)
  4026e6:	45 89 48 fc          	mov    %r9d,-0x4(%r8)
  4026ea:	e9 91 16 00 00       	jmp    403d80 <__intel_mic_avx512f_memset+0x18c0>
  4026ef:	4c 89 0f             	mov    %r9,(%rdi)
  4026f2:	e9 89 16 00 00       	jmp    403d80 <__intel_mic_avx512f_memset+0x18c0>
  4026f7:	4c 89 0f             	mov    %r9,(%rdi)
  4026fa:	4d 89 48 f8          	mov    %r9,-0x8(%r8)
  4026fe:	e9 7d 16 00 00       	jmp    403d80 <__intel_mic_avx512f_memset+0x18c0>
  402703:	c5 f8 11 07          	vmovups %xmm0,(%rdi)
  402707:	e9 74 16 00 00       	jmp    403d80 <__intel_mic_avx512f_memset+0x18c0>
  40270c:	c5 f8 11 07          	vmovups %xmm0,(%rdi)
  402710:	c4 c1 78 11 40 f0    	vmovups %xmm0,-0x10(%r8)
  402716:	e9 65 16 00 00       	jmp    403d80 <__intel_mic_avx512f_memset+0x18c0>
  40271b:	c5 fc 11 07          	vmovups %ymm0,(%rdi)
  40271f:	e9 5c 16 00 00       	jmp    403d80 <__intel_mic_avx512f_memset+0x18c0>
  402724:	c5 fc 11 07          	vmovups %ymm0,(%rdi)
  402728:	c4 c1 7c 11 40 e0    	vmovups %ymm0,-0x20(%r8)
  40272e:	e9 4d 16 00 00       	jmp    403d80 <__intel_mic_avx512f_memset+0x18c0>
  402733:	62 f1 7c 48 11 07    	vmovups %zmm0,(%rdi)
  402739:	e9 42 16 00 00       	jmp    403d80 <__intel_mic_avx512f_memset+0x18c0>
  40273e:	62 f1 7c 48 11 07    	vmovups %zmm0,(%rdi)
  402744:	62 d1 7c 48 11 40 ff 	vmovups %zmm0,-0x40(%r8)
  40274b:	e9 30 16 00 00       	jmp    403d80 <__intel_mic_avx512f_memset+0x18c0>
  402750:	66 66 66 66 66 66 2e 	data16 data16 data16 data16 data16 cs nopw 0x0(%rax,%rax,1)
  402757:	0f 1f 84 00 00 00 00 
  40275e:	00 
  40275f:	66 66 66 66 66 66 2e 	data16 data16 data16 data16 data16 cs nopw 0x0(%rax,%rax,1)
  402766:	0f 1f 84 00 00 00 00 
  40276d:	00 
  40276e:	66 66 66 66 66 66 2e 	data16 data16 data16 data16 data16 cs nopw 0x0(%rax,%rax,1)
  402775:	0f 1f 84 00 00 00 00 
  40277c:	00 
  40277d:	0f 1f 00             	nopl   (%rax)
  402780:	9a                   	(bad)
  402781:	01 00                	add    %eax,(%rax)
  402783:	00 00                	add    %al,(%rax)
  402785:	00 00                	add    %al,(%rax)
  402787:	00 9d 01 00 00 00    	add    %bl,0x1(%rbp)
  40278d:	00 00                	add    %al,(%rax)
  40278f:	00 95 01 00 00 00    	add    %dl,0x1(%rbp)
  402795:	00 00                	add    %al,(%rax)
  402797:	00 8c 01 00 00 00 00 	add    %cl,0x0(%rcx,%rax,1)
  40279e:	00 00                	add    %al,(%rax)
  4027a0:	7f 01                	jg     4027a3 <__intel_mic_avx512f_memset+0x2e3>
  4027a2:	00 00                	add    %al,(%rax)
  4027a4:	00 00                	add    %al,(%rax)
  4027a6:	00 00                	add    %al,(%rax)
  4027a8:	77 01                	ja     4027ab <__intel_mic_avx512f_memset+0x2eb>
  4027aa:	00 00                	add    %al,(%rax)
  4027ac:	00 00                	add    %al,(%rax)
  4027ae:	00 00                	add    %al,(%rax)
  4027b0:	77 01                	ja     4027b3 <__intel_mic_avx512f_memset+0x2f3>
  4027b2:	00 00                	add    %al,(%rax)
  4027b4:	00 00                	add    %al,(%rax)
  4027b6:	00 00                	add    %al,(%rax)
  4027b8:	77 01                	ja     4027bb <__intel_mic_avx512f_memset+0x2fb>
  4027ba:	00 00                	add    %al,(%rax)
  4027bc:	00 00                	add    %al,(%rax)
  4027be:	00 00                	add    %al,(%rax)
  4027c0:	6b 01 00             	imul   $0x0,(%rcx),%eax
  4027c3:	00 00                	add    %al,(%rax)
  4027c5:	00 00                	add    %al,(%rax)
  4027c7:	00 63 01             	add    %ah,0x1(%rbx)
  4027ca:	00 00                	add    %al,(%rax)
  4027cc:	00 00                	add    %al,(%rax)
  4027ce:	00 00                	add    %al,(%rax)
  4027d0:	63 01                	movsxd (%rcx),%eax
  4027d2:	00 00                	add    %al,(%rax)
  4027d4:	00 00                	add    %al,(%rax)
  4027d6:	00 00                	add    %al,(%rax)
  4027d8:	63 01                	movsxd (%rcx),%eax
  4027da:	00 00                	add    %al,(%rax)
  4027dc:	00 00                	add    %al,(%rax)
  4027de:	00 00                	add    %al,(%rax)
  4027e0:	63 01                	movsxd (%rcx),%eax
  4027e2:	00 00                	add    %al,(%rax)
  4027e4:	00 00                	add    %al,(%rax)
  4027e6:	00 00                	add    %al,(%rax)
  4027e8:	63 01                	movsxd (%rcx),%eax
  4027ea:	00 00                	add    %al,(%rax)
  4027ec:	00 00                	add    %al,(%rax)
  4027ee:	00 00                	add    %al,(%rax)
  4027f0:	63 01                	movsxd (%rcx),%eax
  4027f2:	00 00                	add    %al,(%rax)
  4027f4:	00 00                	add    %al,(%rax)
  4027f6:	00 00                	add    %al,(%rax)
  4027f8:	63 01                	movsxd (%rcx),%eax
  4027fa:	00 00                	add    %al,(%rax)
  4027fc:	00 00                	add    %al,(%rax)
  4027fe:	00 00                	add    %al,(%rax)
  402800:	57                   	push   %rdi
  402801:	01 00                	add    %eax,(%rax)
  402803:	00 00                	add    %al,(%rax)
  402805:	00 00                	add    %al,(%rax)
  402807:	00 4e 01             	add    %cl,0x1(%rsi)
  40280a:	00 00                	add    %al,(%rax)
  40280c:	00 00                	add    %al,(%rax)
  40280e:	00 00                	add    %al,(%rax)
  402810:	4e 01 00             	rex.WRX add %r8,(%rax)
  402813:	00 00                	add    %al,(%rax)
  402815:	00 00                	add    %al,(%rax)
  402817:	00 4e 01             	add    %cl,0x1(%rsi)
  40281a:	00 00                	add    %al,(%rax)
  40281c:	00 00                	add    %al,(%rax)
  40281e:	00 00                	add    %al,(%rax)
  402820:	4e 01 00             	rex.WRX add %r8,(%rax)
  402823:	00 00                	add    %al,(%rax)
  402825:	00 00                	add    %al,(%rax)
  402827:	00 4e 01             	add    %cl,0x1(%rsi)
  40282a:	00 00                	add    %al,(%rax)
  40282c:	00 00                	add    %al,(%rax)
  40282e:	00 00                	add    %al,(%rax)
  402830:	4e 01 00             	rex.WRX add %r8,(%rax)
  402833:	00 00                	add    %al,(%rax)
  402835:	00 00                	add    %al,(%rax)
  402837:	00 4e 01             	add    %cl,0x1(%rsi)
  40283a:	00 00                	add    %al,(%rax)
  40283c:	00 00                	add    %al,(%rax)
  40283e:	00 00                	add    %al,(%rax)
  402840:	4e 01 00             	rex.WRX add %r8,(%rax)
  402843:	00 00                	add    %al,(%rax)
  402845:	00 00                	add    %al,(%rax)
  402847:	00 4e 01             	add    %cl,0x1(%rsi)
  40284a:	00 00                	add    %al,(%rax)
  40284c:	00 00                	add    %al,(%rax)
  40284e:	00 00                	add    %al,(%rax)
  402850:	4e 01 00             	rex.WRX add %r8,(%rax)
  402853:	00 00                	add    %al,(%rax)
  402855:	00 00                	add    %al,(%rax)
  402857:	00 4e 01             	add    %cl,0x1(%rsi)
  40285a:	00 00                	add    %al,(%rax)
  40285c:	00 00                	add    %al,(%rax)
  40285e:	00 00                	add    %al,(%rax)
  402860:	4e 01 00             	rex.WRX add %r8,(%rax)
  402863:	00 00                	add    %al,(%rax)
  402865:	00 00                	add    %al,(%rax)
  402867:	00 4e 01             	add    %cl,0x1(%rsi)
  40286a:	00 00                	add    %al,(%rax)
  40286c:	00 00                	add    %al,(%rax)
  40286e:	00 00                	add    %al,(%rax)
  402870:	4e 01 00             	rex.WRX add %r8,(%rax)
  402873:	00 00                	add    %al,(%rax)
  402875:	00 00                	add    %al,(%rax)
  402877:	00 4e 01             	add    %cl,0x1(%rsi)
  40287a:	00 00                	add    %al,(%rax)
  40287c:	00 00                	add    %al,(%rax)
  40287e:	00 00                	add    %al,(%rax)
  402880:	3f                   	(bad)
  402881:	01 00                	add    %eax,(%rax)
  402883:	00 00                	add    %al,(%rax)
  402885:	00 00                	add    %al,(%rax)
  402887:	00 36                	add    %dh,(%rsi)
  402889:	01 00                	add    %eax,(%rax)
  40288b:	00 00                	add    %al,(%rax)
  40288d:	00 00                	add    %al,(%rax)
  40288f:	00 36                	add    %dh,(%rsi)
  402891:	01 00                	add    %eax,(%rax)
  402893:	00 00                	add    %al,(%rax)
  402895:	00 00                	add    %al,(%rax)
  402897:	00 36                	add    %dh,(%rsi)
  402899:	01 00                	add    %eax,(%rax)
  40289b:	00 00                	add    %al,(%rax)
  40289d:	00 00                	add    %al,(%rax)
  40289f:	00 36                	add    %dh,(%rsi)
  4028a1:	01 00                	add    %eax,(%rax)
  4028a3:	00 00                	add    %al,(%rax)
  4028a5:	00 00                	add    %al,(%rax)
  4028a7:	00 36                	add    %dh,(%rsi)
  4028a9:	01 00                	add    %eax,(%rax)
  4028ab:	00 00                	add    %al,(%rax)
  4028ad:	00 00                	add    %al,(%rax)
  4028af:	00 36                	add    %dh,(%rsi)
  4028b1:	01 00                	add    %eax,(%rax)
  4028b3:	00 00                	add    %al,(%rax)
  4028b5:	00 00                	add    %al,(%rax)
  4028b7:	00 36                	add    %dh,(%rsi)
  4028b9:	01 00                	add    %eax,(%rax)
  4028bb:	00 00                	add    %al,(%rax)
  4028bd:	00 00                	add    %al,(%rax)
  4028bf:	00 36                	add    %dh,(%rsi)
  4028c1:	01 00                	add    %eax,(%rax)
  4028c3:	00 00                	add    %al,(%rax)
  4028c5:	00 00                	add    %al,(%rax)
  4028c7:	00 36                	add    %dh,(%rsi)
  4028c9:	01 00                	add    %eax,(%rax)
  4028cb:	00 00                	add    %al,(%rax)
  4028cd:	00 00                	add    %al,(%rax)
  4028cf:	00 36                	add    %dh,(%rsi)
  4028d1:	01 00                	add    %eax,(%rax)
  4028d3:	00 00                	add    %al,(%rax)
  4028d5:	00 00                	add    %al,(%rax)
  4028d7:	00 36                	add    %dh,(%rsi)
  4028d9:	01 00                	add    %eax,(%rax)
  4028db:	00 00                	add    %al,(%rax)
  4028dd:	00 00                	add    %al,(%rax)
  4028df:	00 36                	add    %dh,(%rsi)
  4028e1:	01 00                	add    %eax,(%rax)
  4028e3:	00 00                	add    %al,(%rax)
  4028e5:	00 00                	add    %al,(%rax)
  4028e7:	00 36                	add    %dh,(%rsi)
  4028e9:	01 00                	add    %eax,(%rax)
  4028eb:	00 00                	add    %al,(%rax)
  4028ed:	00 00                	add    %al,(%rax)
  4028ef:	00 36                	add    %dh,(%rsi)
  4028f1:	01 00                	add    %eax,(%rax)
  4028f3:	00 00                	add    %al,(%rax)
  4028f5:	00 00                	add    %al,(%rax)
  4028f7:	00 36                	add    %dh,(%rsi)
  4028f9:	01 00                	add    %eax,(%rax)
  4028fb:	00 00                	add    %al,(%rax)
  4028fd:	00 00                	add    %al,(%rax)
  4028ff:	00 36                	add    %dh,(%rsi)
  402901:	01 00                	add    %eax,(%rax)
  402903:	00 00                	add    %al,(%rax)
  402905:	00 00                	add    %al,(%rax)
  402907:	00 36                	add    %dh,(%rsi)
  402909:	01 00                	add    %eax,(%rax)
  40290b:	00 00                	add    %al,(%rax)
  40290d:	00 00                	add    %al,(%rax)
  40290f:	00 36                	add    %dh,(%rsi)
  402911:	01 00                	add    %eax,(%rax)
  402913:	00 00                	add    %al,(%rax)
  402915:	00 00                	add    %al,(%rax)
  402917:	00 36                	add    %dh,(%rsi)
  402919:	01 00                	add    %eax,(%rax)
  40291b:	00 00                	add    %al,(%rax)
  40291d:	00 00                	add    %al,(%rax)
  40291f:	00 36                	add    %dh,(%rsi)
  402921:	01 00                	add    %eax,(%rax)
  402923:	00 00                	add    %al,(%rax)
  402925:	00 00                	add    %al,(%rax)
  402927:	00 36                	add    %dh,(%rsi)
  402929:	01 00                	add    %eax,(%rax)
  40292b:	00 00                	add    %al,(%rax)
  40292d:	00 00                	add    %al,(%rax)
  40292f:	00 36                	add    %dh,(%rsi)
  402931:	01 00                	add    %eax,(%rax)
  402933:	00 00                	add    %al,(%rax)
  402935:	00 00                	add    %al,(%rax)
  402937:	00 36                	add    %dh,(%rsi)
  402939:	01 00                	add    %eax,(%rax)
  40293b:	00 00                	add    %al,(%rax)
  40293d:	00 00                	add    %al,(%rax)
  40293f:	00 36                	add    %dh,(%rsi)
  402941:	01 00                	add    %eax,(%rax)
  402943:	00 00                	add    %al,(%rax)
  402945:	00 00                	add    %al,(%rax)
  402947:	00 36                	add    %dh,(%rsi)
  402949:	01 00                	add    %eax,(%rax)
  40294b:	00 00                	add    %al,(%rax)
  40294d:	00 00                	add    %al,(%rax)
  40294f:	00 36                	add    %dh,(%rsi)
  402951:	01 00                	add    %eax,(%rax)
  402953:	00 00                	add    %al,(%rax)
  402955:	00 00                	add    %al,(%rax)
  402957:	00 36                	add    %dh,(%rsi)
  402959:	01 00                	add    %eax,(%rax)
  40295b:	00 00                	add    %al,(%rax)
  40295d:	00 00                	add    %al,(%rax)
  40295f:	00 36                	add    %dh,(%rsi)
  402961:	01 00                	add    %eax,(%rax)
  402963:	00 00                	add    %al,(%rax)
  402965:	00 00                	add    %al,(%rax)
  402967:	00 36                	add    %dh,(%rsi)
  402969:	01 00                	add    %eax,(%rax)
  40296b:	00 00                	add    %al,(%rax)
  40296d:	00 00                	add    %al,(%rax)
  40296f:	00 36                	add    %dh,(%rsi)
  402971:	01 00                	add    %eax,(%rax)
  402973:	00 00                	add    %al,(%rax)
  402975:	00 00                	add    %al,(%rax)
  402977:	00 36                	add    %dh,(%rsi)
  402979:	01 00                	add    %eax,(%rax)
  40297b:	00 00                	add    %al,(%rax)
  40297d:	00 00                	add    %al,(%rax)
  40297f:	00 c0                	add    %al,%al
  402981:	02 00                	add    (%rax),%al
  402983:	00 00                	add    %al,(%rax)
  402985:	00 00                	add    %al,(%rax)
  402987:	00 c8                	add    %cl,%al
  402989:	02 00                	add    (%rax),%al
  40298b:	00 00                	add    %al,(%rax)
  40298d:	00 00                	add    %al,(%rax)
  40298f:	00 bb 02 00 00 00    	add    %bh,0x2(%rbx)
  402995:	00 00                	add    %al,(%rax)
  402997:	00 b2 02 00 00 00    	add    %dh,0x2(%rdx)
  40299d:	00 00                	add    %al,(%rax)
  40299f:	00 a5 02 00 00 00    	add    %ah,0x2(%rbp)
  4029a5:	00 00                	add    %al,(%rax)
  4029a7:	00 9d 02 00 00 00    	add    %bl,0x2(%rbp)
  4029ad:	00 00                	add    %al,(%rax)
  4029af:	00 9d 02 00 00 00    	add    %bl,0x2(%rbp)
  4029b5:	00 00                	add    %al,(%rax)
  4029b7:	00 9d 02 00 00 00    	add    %bl,0x2(%rbp)
  4029bd:	00 00                	add    %al,(%rax)
  4029bf:	00 91 02 00 00 00    	add    %dl,0x2(%rcx)
  4029c5:	00 00                	add    %al,(%rax)
  4029c7:	00 89 02 00 00 00    	add    %cl,0x2(%rcx)
  4029cd:	00 00                	add    %al,(%rax)
  4029cf:	00 89 02 00 00 00    	add    %cl,0x2(%rcx)
  4029d5:	00 00                	add    %al,(%rax)
  4029d7:	00 89 02 00 00 00    	add    %cl,0x2(%rcx)
  4029dd:	00 00                	add    %al,(%rax)
  4029df:	00 89 02 00 00 00    	add    %cl,0x2(%rcx)
  4029e5:	00 00                	add    %al,(%rax)
  4029e7:	00 89 02 00 00 00    	add    %cl,0x2(%rcx)
  4029ed:	00 00                	add    %al,(%rax)
  4029ef:	00 89 02 00 00 00    	add    %cl,0x2(%rcx)
  4029f5:	00 00                	add    %al,(%rax)
  4029f7:	00 89 02 00 00 00    	add    %cl,0x2(%rcx)
  4029fd:	00 00                	add    %al,(%rax)
  4029ff:	00 7d 02             	add    %bh,0x2(%rbp)
  402a02:	00 00                	add    %al,(%rax)
  402a04:	00 00                	add    %al,(%rax)
  402a06:	00 00                	add    %al,(%rax)
  402a08:	74 02                	je     402a0c <__intel_mic_avx512f_memset+0x54c>
  402a0a:	00 00                	add    %al,(%rax)
  402a0c:	00 00                	add    %al,(%rax)
  402a0e:	00 00                	add    %al,(%rax)
  402a10:	74 02                	je     402a14 <__intel_mic_avx512f_memset+0x554>
  402a12:	00 00                	add    %al,(%rax)
  402a14:	00 00                	add    %al,(%rax)
  402a16:	00 00                	add    %al,(%rax)
  402a18:	74 02                	je     402a1c <__intel_mic_avx512f_memset+0x55c>
  402a1a:	00 00                	add    %al,(%rax)
  402a1c:	00 00                	add    %al,(%rax)
  402a1e:	00 00                	add    %al,(%rax)
  402a20:	74 02                	je     402a24 <__intel_mic_avx512f_memset+0x564>
  402a22:	00 00                	add    %al,(%rax)
  402a24:	00 00                	add    %al,(%rax)
  402a26:	00 00                	add    %al,(%rax)
  402a28:	74 02                	je     402a2c <__intel_mic_avx512f_memset+0x56c>
  402a2a:	00 00                	add    %al,(%rax)
  402a2c:	00 00                	add    %al,(%rax)
  402a2e:	00 00                	add    %al,(%rax)
  402a30:	74 02                	je     402a34 <__intel_mic_avx512f_memset+0x574>
  402a32:	00 00                	add    %al,(%rax)
  402a34:	00 00                	add    %al,(%rax)
  402a36:	00 00                	add    %al,(%rax)
  402a38:	74 02                	je     402a3c <__intel_mic_avx512f_memset+0x57c>
  402a3a:	00 00                	add    %al,(%rax)
  402a3c:	00 00                	add    %al,(%rax)
  402a3e:	00 00                	add    %al,(%rax)
  402a40:	74 02                	je     402a44 <__intel_mic_avx512f_memset+0x584>
  402a42:	00 00                	add    %al,(%rax)
  402a44:	00 00                	add    %al,(%rax)
  402a46:	00 00                	add    %al,(%rax)
  402a48:	74 02                	je     402a4c <__intel_mic_avx512f_memset+0x58c>
  402a4a:	00 00                	add    %al,(%rax)
  402a4c:	00 00                	add    %al,(%rax)
  402a4e:	00 00                	add    %al,(%rax)
  402a50:	74 02                	je     402a54 <__intel_mic_avx512f_memset+0x594>
  402a52:	00 00                	add    %al,(%rax)
  402a54:	00 00                	add    %al,(%rax)
  402a56:	00 00                	add    %al,(%rax)
  402a58:	74 02                	je     402a5c <__intel_mic_avx512f_memset+0x59c>
  402a5a:	00 00                	add    %al,(%rax)
  402a5c:	00 00                	add    %al,(%rax)
  402a5e:	00 00                	add    %al,(%rax)
  402a60:	74 02                	je     402a64 <__intel_mic_avx512f_memset+0x5a4>
  402a62:	00 00                	add    %al,(%rax)
  402a64:	00 00                	add    %al,(%rax)
  402a66:	00 00                	add    %al,(%rax)
  402a68:	74 02                	je     402a6c <__intel_mic_avx512f_memset+0x5ac>
  402a6a:	00 00                	add    %al,(%rax)
  402a6c:	00 00                	add    %al,(%rax)
  402a6e:	00 00                	add    %al,(%rax)
  402a70:	74 02                	je     402a74 <__intel_mic_avx512f_memset+0x5b4>
  402a72:	00 00                	add    %al,(%rax)
  402a74:	00 00                	add    %al,(%rax)
  402a76:	00 00                	add    %al,(%rax)
  402a78:	74 02                	je     402a7c <__intel_mic_avx512f_memset+0x5bc>
  402a7a:	00 00                	add    %al,(%rax)
  402a7c:	00 00                	add    %al,(%rax)
  402a7e:	00 00                	add    %al,(%rax)
  402a80:	65 02 00             	add    %gs:(%rax),%al
  402a83:	00 00                	add    %al,(%rax)
  402a85:	00 00                	add    %al,(%rax)
  402a87:	00 5c 02 00          	add    %bl,0x0(%rdx,%rax,1)
  402a8b:	00 00                	add    %al,(%rax)
  402a8d:	00 00                	add    %al,(%rax)
  402a8f:	00 5c 02 00          	add    %bl,0x0(%rdx,%rax,1)
  402a93:	00 00                	add    %al,(%rax)
  402a95:	00 00                	add    %al,(%rax)
  402a97:	00 5c 02 00          	add    %bl,0x0(%rdx,%rax,1)
  402a9b:	00 00                	add    %al,(%rax)
  402a9d:	00 00                	add    %al,(%rax)
  402a9f:	00 5c 02 00          	add    %bl,0x0(%rdx,%rax,1)
  402aa3:	00 00                	add    %al,(%rax)
  402aa5:	00 00                	add    %al,(%rax)
  402aa7:	00 5c 02 00          	add    %bl,0x0(%rdx,%rax,1)
  402aab:	00 00                	add    %al,(%rax)
  402aad:	00 00                	add    %al,(%rax)
  402aaf:	00 5c 02 00          	add    %bl,0x0(%rdx,%rax,1)
  402ab3:	00 00                	add    %al,(%rax)
  402ab5:	00 00                	add    %al,(%rax)
  402ab7:	00 5c 02 00          	add    %bl,0x0(%rdx,%rax,1)
  402abb:	00 00                	add    %al,(%rax)
  402abd:	00 00                	add    %al,(%rax)
  402abf:	00 5c 02 00          	add    %bl,0x0(%rdx,%rax,1)
  402ac3:	00 00                	add    %al,(%rax)
  402ac5:	00 00                	add    %al,(%rax)
  402ac7:	00 5c 02 00          	add    %bl,0x0(%rdx,%rax,1)
  402acb:	00 00                	add    %al,(%rax)
  402acd:	00 00                	add    %al,(%rax)
  402acf:	00 5c 02 00          	add    %bl,0x0(%rdx,%rax,1)
  402ad3:	00 00                	add    %al,(%rax)
  402ad5:	00 00                	add    %al,(%rax)
  402ad7:	00 5c 02 00          	add    %bl,0x0(%rdx,%rax,1)
  402adb:	00 00                	add    %al,(%rax)
  402add:	00 00                	add    %al,(%rax)
  402adf:	00 5c 02 00          	add    %bl,0x0(%rdx,%rax,1)
  402ae3:	00 00                	add    %al,(%rax)
  402ae5:	00 00                	add    %al,(%rax)
  402ae7:	00 5c 02 00          	add    %bl,0x0(%rdx,%rax,1)
  402aeb:	00 00                	add    %al,(%rax)
  402aed:	00 00                	add    %al,(%rax)
  402aef:	00 5c 02 00          	add    %bl,0x0(%rdx,%rax,1)
  402af3:	00 00                	add    %al,(%rax)
  402af5:	00 00                	add    %al,(%rax)
  402af7:	00 5c 02 00          	add    %bl,0x0(%rdx,%rax,1)
  402afb:	00 00                	add    %al,(%rax)
  402afd:	00 00                	add    %al,(%rax)
  402aff:	00 5c 02 00          	add    %bl,0x0(%rdx,%rax,1)
  402b03:	00 00                	add    %al,(%rax)
  402b05:	00 00                	add    %al,(%rax)
  402b07:	00 5c 02 00          	add    %bl,0x0(%rdx,%rax,1)
  402b0b:	00 00                	add    %al,(%rax)
  402b0d:	00 00                	add    %al,(%rax)
  402b0f:	00 5c 02 00          	add    %bl,0x0(%rdx,%rax,1)
  402b13:	00 00                	add    %al,(%rax)
  402b15:	00 00                	add    %al,(%rax)
  402b17:	00 5c 02 00          	add    %bl,0x0(%rdx,%rax,1)
  402b1b:	00 00                	add    %al,(%rax)
  402b1d:	00 00                	add    %al,(%rax)
  402b1f:	00 5c 02 00          	add    %bl,0x0(%rdx,%rax,1)
  402b23:	00 00                	add    %al,(%rax)
  402b25:	00 00                	add    %al,(%rax)
  402b27:	00 5c 02 00          	add    %bl,0x0(%rdx,%rax,1)
  402b2b:	00 00                	add    %al,(%rax)
  402b2d:	00 00                	add    %al,(%rax)
  402b2f:	00 5c 02 00          	add    %bl,0x0(%rdx,%rax,1)
  402b33:	00 00                	add    %al,(%rax)
  402b35:	00 00                	add    %al,(%rax)
  402b37:	00 5c 02 00          	add    %bl,0x0(%rdx,%rax,1)
  402b3b:	00 00                	add    %al,(%rax)
  402b3d:	00 00                	add    %al,(%rax)
  402b3f:	00 5c 02 00          	add    %bl,0x0(%rdx,%rax,1)
  402b43:	00 00                	add    %al,(%rax)
  402b45:	00 00                	add    %al,(%rax)
  402b47:	00 5c 02 00          	add    %bl,0x0(%rdx,%rax,1)
  402b4b:	00 00                	add    %al,(%rax)
  402b4d:	00 00                	add    %al,(%rax)
  402b4f:	00 5c 02 00          	add    %bl,0x0(%rdx,%rax,1)
  402b53:	00 00                	add    %al,(%rax)
  402b55:	00 00                	add    %al,(%rax)
  402b57:	00 5c 02 00          	add    %bl,0x0(%rdx,%rax,1)
  402b5b:	00 00                	add    %al,(%rax)
  402b5d:	00 00                	add    %al,(%rax)
  402b5f:	00 5c 02 00          	add    %bl,0x0(%rdx,%rax,1)
  402b63:	00 00                	add    %al,(%rax)
  402b65:	00 00                	add    %al,(%rax)
  402b67:	00 5c 02 00          	add    %bl,0x0(%rdx,%rax,1)
  402b6b:	00 00                	add    %al,(%rax)
  402b6d:	00 00                	add    %al,(%rax)
  402b6f:	00 5c 02 00          	add    %bl,0x0(%rdx,%rax,1)
  402b73:	00 00                	add    %al,(%rax)
  402b75:	00 00                	add    %al,(%rax)
  402b77:	00 5c 02 00          	add    %bl,0x0(%rdx,%rax,1)
  402b7b:	00 00                	add    %al,(%rax)
  402b7d:	00 00                	add    %al,(%rax)
  402b7f:	00 e3                	add    %ah,%bl
  402b81:	02 00                	add    (%rax),%al
  402b83:	00 00                	add    %al,(%rax)
  402b85:	00 00                	add    %al,(%rax)
  402b87:	00 e3                	add    %ah,%bl
  402b89:	02 00                	add    (%rax),%al
  402b8b:	00 00                	add    %al,(%rax)
  402b8d:	00 00                	add    %al,(%rax)
  402b8f:	00 e3                	add    %ah,%bl
  402b91:	02 00                	add    (%rax),%al
  402b93:	00 00                	add    %al,(%rax)
  402b95:	00 00                	add    %al,(%rax)
  402b97:	00 e3                	add    %ah,%bl
  402b99:	02 00                	add    (%rax),%al
  402b9b:	00 00                	add    %al,(%rax)
  402b9d:	00 00                	add    %al,(%rax)
  402b9f:	00 e3                	add    %ah,%bl
  402ba1:	02 00                	add    (%rax),%al
  402ba3:	00 00                	add    %al,(%rax)
  402ba5:	00 00                	add    %al,(%rax)
  402ba7:	00 e3                	add    %ah,%bl
  402ba9:	02 00                	add    (%rax),%al
  402bab:	00 00                	add    %al,(%rax)
  402bad:	00 00                	add    %al,(%rax)
  402baf:	00 e3                	add    %ah,%bl
  402bb1:	02 00                	add    (%rax),%al
  402bb3:	00 00                	add    %al,(%rax)
  402bb5:	00 00                	add    %al,(%rax)
  402bb7:	00 e3                	add    %ah,%bl
  402bb9:	02 00                	add    (%rax),%al
  402bbb:	00 00                	add    %al,(%rax)
  402bbd:	00 00                	add    %al,(%rax)
  402bbf:	00 e3                	add    %ah,%bl
  402bc1:	02 00                	add    (%rax),%al
  402bc3:	00 00                	add    %al,(%rax)
  402bc5:	00 00                	add    %al,(%rax)
  402bc7:	00 e3                	add    %ah,%bl
  402bc9:	02 00                	add    (%rax),%al
  402bcb:	00 00                	add    %al,(%rax)
  402bcd:	00 00                	add    %al,(%rax)
  402bcf:	00 e3                	add    %ah,%bl
  402bd1:	02 00                	add    (%rax),%al
  402bd3:	00 00                	add    %al,(%rax)
  402bd5:	00 00                	add    %al,(%rax)
  402bd7:	00 e3                	add    %ah,%bl
  402bd9:	02 00                	add    (%rax),%al
  402bdb:	00 00                	add    %al,(%rax)
  402bdd:	00 00                	add    %al,(%rax)
  402bdf:	00 e3                	add    %ah,%bl
  402be1:	02 00                	add    (%rax),%al
  402be3:	00 00                	add    %al,(%rax)
  402be5:	00 00                	add    %al,(%rax)
  402be7:	00 e3                	add    %ah,%bl
  402be9:	02 00                	add    (%rax),%al
  402beb:	00 00                	add    %al,(%rax)
  402bed:	00 00                	add    %al,(%rax)
  402bef:	00 e3                	add    %ah,%bl
  402bf1:	02 00                	add    (%rax),%al
  402bf3:	00 00                	add    %al,(%rax)
  402bf5:	00 00                	add    %al,(%rax)
  402bf7:	00 e3                	add    %ah,%bl
  402bf9:	02 00                	add    (%rax),%al
  402bfb:	00 00                	add    %al,(%rax)
  402bfd:	00 00                	add    %al,(%rax)
  402bff:	00 e3                	add    %ah,%bl
  402c01:	02 00                	add    (%rax),%al
  402c03:	00 00                	add    %al,(%rax)
  402c05:	00 00                	add    %al,(%rax)
  402c07:	00 e3                	add    %ah,%bl
  402c09:	02 00                	add    (%rax),%al
  402c0b:	00 00                	add    %al,(%rax)
  402c0d:	00 00                	add    %al,(%rax)
  402c0f:	00 e3                	add    %ah,%bl
  402c11:	02 00                	add    (%rax),%al
  402c13:	00 00                	add    %al,(%rax)
  402c15:	00 00                	add    %al,(%rax)
  402c17:	00 e3                	add    %ah,%bl
  402c19:	02 00                	add    (%rax),%al
  402c1b:	00 00                	add    %al,(%rax)
  402c1d:	00 00                	add    %al,(%rax)
  402c1f:	00 e3                	add    %ah,%bl
  402c21:	02 00                	add    (%rax),%al
  402c23:	00 00                	add    %al,(%rax)
  402c25:	00 00                	add    %al,(%rax)
  402c27:	00 e3                	add    %ah,%bl
  402c29:	02 00                	add    (%rax),%al
  402c2b:	00 00                	add    %al,(%rax)
  402c2d:	00 00                	add    %al,(%rax)
  402c2f:	00 e3                	add    %ah,%bl
  402c31:	02 00                	add    (%rax),%al
  402c33:	00 00                	add    %al,(%rax)
  402c35:	00 00                	add    %al,(%rax)
  402c37:	00 e3                	add    %ah,%bl
  402c39:	02 00                	add    (%rax),%al
  402c3b:	00 00                	add    %al,(%rax)
  402c3d:	00 00                	add    %al,(%rax)
  402c3f:	00 e3                	add    %ah,%bl
  402c41:	02 00                	add    (%rax),%al
  402c43:	00 00                	add    %al,(%rax)
  402c45:	00 00                	add    %al,(%rax)
  402c47:	00 e3                	add    %ah,%bl
  402c49:	02 00                	add    (%rax),%al
  402c4b:	00 00                	add    %al,(%rax)
  402c4d:	00 00                	add    %al,(%rax)
  402c4f:	00 e3                	add    %ah,%bl
  402c51:	02 00                	add    (%rax),%al
  402c53:	00 00                	add    %al,(%rax)
  402c55:	00 00                	add    %al,(%rax)
  402c57:	00 e3                	add    %ah,%bl
  402c59:	02 00                	add    (%rax),%al
  402c5b:	00 00                	add    %al,(%rax)
  402c5d:	00 00                	add    %al,(%rax)
  402c5f:	00 e3                	add    %ah,%bl
  402c61:	02 00                	add    (%rax),%al
  402c63:	00 00                	add    %al,(%rax)
  402c65:	00 00                	add    %al,(%rax)
  402c67:	00 e3                	add    %ah,%bl
  402c69:	02 00                	add    (%rax),%al
  402c6b:	00 00                	add    %al,(%rax)
  402c6d:	00 00                	add    %al,(%rax)
  402c6f:	00 e3                	add    %ah,%bl
  402c71:	02 00                	add    (%rax),%al
  402c73:	00 00                	add    %al,(%rax)
  402c75:	00 00                	add    %al,(%rax)
  402c77:	00 e3                	add    %ah,%bl
  402c79:	02 00                	add    (%rax),%al
  402c7b:	00 00                	add    %al,(%rax)
  402c7d:	00 00                	add    %al,(%rax)
  402c7f:	00 e3                	add    %ah,%bl
  402c81:	02 00                	add    (%rax),%al
  402c83:	00 00                	add    %al,(%rax)
  402c85:	00 00                	add    %al,(%rax)
  402c87:	00 e3                	add    %ah,%bl
  402c89:	02 00                	add    (%rax),%al
  402c8b:	00 00                	add    %al,(%rax)
  402c8d:	00 00                	add    %al,(%rax)
  402c8f:	00 e3                	add    %ah,%bl
  402c91:	02 00                	add    (%rax),%al
  402c93:	00 00                	add    %al,(%rax)
  402c95:	00 00                	add    %al,(%rax)
  402c97:	00 e3                	add    %ah,%bl
  402c99:	02 00                	add    (%rax),%al
  402c9b:	00 00                	add    %al,(%rax)
  402c9d:	00 00                	add    %al,(%rax)
  402c9f:	00 e3                	add    %ah,%bl
  402ca1:	02 00                	add    (%rax),%al
  402ca3:	00 00                	add    %al,(%rax)
  402ca5:	00 00                	add    %al,(%rax)
  402ca7:	00 e3                	add    %ah,%bl
  402ca9:	02 00                	add    (%rax),%al
  402cab:	00 00                	add    %al,(%rax)
  402cad:	00 00                	add    %al,(%rax)
  402caf:	00 e3                	add    %ah,%bl
  402cb1:	02 00                	add    (%rax),%al
  402cb3:	00 00                	add    %al,(%rax)
  402cb5:	00 00                	add    %al,(%rax)
  402cb7:	00 e3                	add    %ah,%bl
  402cb9:	02 00                	add    (%rax),%al
  402cbb:	00 00                	add    %al,(%rax)
  402cbd:	00 00                	add    %al,(%rax)
  402cbf:	00 e3                	add    %ah,%bl
  402cc1:	02 00                	add    (%rax),%al
  402cc3:	00 00                	add    %al,(%rax)
  402cc5:	00 00                	add    %al,(%rax)
  402cc7:	00 e3                	add    %ah,%bl
  402cc9:	02 00                	add    (%rax),%al
  402ccb:	00 00                	add    %al,(%rax)
  402ccd:	00 00                	add    %al,(%rax)
  402ccf:	00 e3                	add    %ah,%bl
  402cd1:	02 00                	add    (%rax),%al
  402cd3:	00 00                	add    %al,(%rax)
  402cd5:	00 00                	add    %al,(%rax)
  402cd7:	00 e3                	add    %ah,%bl
  402cd9:	02 00                	add    (%rax),%al
  402cdb:	00 00                	add    %al,(%rax)
  402cdd:	00 00                	add    %al,(%rax)
  402cdf:	00 e3                	add    %ah,%bl
  402ce1:	02 00                	add    (%rax),%al
  402ce3:	00 00                	add    %al,(%rax)
  402ce5:	00 00                	add    %al,(%rax)
  402ce7:	00 e3                	add    %ah,%bl
  402ce9:	02 00                	add    (%rax),%al
  402ceb:	00 00                	add    %al,(%rax)
  402ced:	00 00                	add    %al,(%rax)
  402cef:	00 e3                	add    %ah,%bl
  402cf1:	02 00                	add    (%rax),%al
  402cf3:	00 00                	add    %al,(%rax)
  402cf5:	00 00                	add    %al,(%rax)
  402cf7:	00 e3                	add    %ah,%bl
  402cf9:	02 00                	add    (%rax),%al
  402cfb:	00 00                	add    %al,(%rax)
  402cfd:	00 00                	add    %al,(%rax)
  402cff:	00 e3                	add    %ah,%bl
  402d01:	02 00                	add    (%rax),%al
  402d03:	00 00                	add    %al,(%rax)
  402d05:	00 00                	add    %al,(%rax)
  402d07:	00 e3                	add    %ah,%bl
  402d09:	02 00                	add    (%rax),%al
  402d0b:	00 00                	add    %al,(%rax)
  402d0d:	00 00                	add    %al,(%rax)
  402d0f:	00 e3                	add    %ah,%bl
  402d11:	02 00                	add    (%rax),%al
  402d13:	00 00                	add    %al,(%rax)
  402d15:	00 00                	add    %al,(%rax)
  402d17:	00 e3                	add    %ah,%bl
  402d19:	02 00                	add    (%rax),%al
  402d1b:	00 00                	add    %al,(%rax)
  402d1d:	00 00                	add    %al,(%rax)
  402d1f:	00 e3                	add    %ah,%bl
  402d21:	02 00                	add    (%rax),%al
  402d23:	00 00                	add    %al,(%rax)
  402d25:	00 00                	add    %al,(%rax)
  402d27:	00 e3                	add    %ah,%bl
  402d29:	02 00                	add    (%rax),%al
  402d2b:	00 00                	add    %al,(%rax)
  402d2d:	00 00                	add    %al,(%rax)
  402d2f:	00 e3                	add    %ah,%bl
  402d31:	02 00                	add    (%rax),%al
  402d33:	00 00                	add    %al,(%rax)
  402d35:	00 00                	add    %al,(%rax)
  402d37:	00 e3                	add    %ah,%bl
  402d39:	02 00                	add    (%rax),%al
  402d3b:	00 00                	add    %al,(%rax)
  402d3d:	00 00                	add    %al,(%rax)
  402d3f:	00 e3                	add    %ah,%bl
  402d41:	02 00                	add    (%rax),%al
  402d43:	00 00                	add    %al,(%rax)
  402d45:	00 00                	add    %al,(%rax)
  402d47:	00 e3                	add    %ah,%bl
  402d49:	02 00                	add    (%rax),%al
  402d4b:	00 00                	add    %al,(%rax)
  402d4d:	00 00                	add    %al,(%rax)
  402d4f:	00 e3                	add    %ah,%bl
  402d51:	02 00                	add    (%rax),%al
  402d53:	00 00                	add    %al,(%rax)
  402d55:	00 00                	add    %al,(%rax)
  402d57:	00 e3                	add    %ah,%bl
  402d59:	02 00                	add    (%rax),%al
  402d5b:	00 00                	add    %al,(%rax)
  402d5d:	00 00                	add    %al,(%rax)
  402d5f:	00 e3                	add    %ah,%bl
  402d61:	02 00                	add    (%rax),%al
  402d63:	00 00                	add    %al,(%rax)
  402d65:	00 00                	add    %al,(%rax)
  402d67:	00 e3                	add    %ah,%bl
  402d69:	02 00                	add    (%rax),%al
  402d6b:	00 00                	add    %al,(%rax)
  402d6d:	00 00                	add    %al,(%rax)
  402d6f:	00 e3                	add    %ah,%bl
  402d71:	02 00                	add    (%rax),%al
  402d73:	00 00                	add    %al,(%rax)
  402d75:	00 00                	add    %al,(%rax)
  402d77:	00 e3                	add    %ah,%bl
  402d79:	02 00                	add    (%rax),%al
  402d7b:	00 00                	add    %al,(%rax)
  402d7d:	00 00                	add    %al,(%rax)
  402d7f:	00 ea                	add    %ch,%dl
  402d81:	02 00                	add    (%rax),%al
  402d83:	00 00                	add    %al,(%rax)
  402d85:	00 00                	add    %al,(%rax)
  402d87:	00 ea                	add    %ch,%dl
  402d89:	02 00                	add    (%rax),%al
  402d8b:	00 00                	add    %al,(%rax)
  402d8d:	00 00                	add    %al,(%rax)
  402d8f:	00 ea                	add    %ch,%dl
  402d91:	02 00                	add    (%rax),%al
  402d93:	00 00                	add    %al,(%rax)
  402d95:	00 00                	add    %al,(%rax)
  402d97:	00 ea                	add    %ch,%dl
  402d99:	02 00                	add    (%rax),%al
  402d9b:	00 00                	add    %al,(%rax)
  402d9d:	00 00                	add    %al,(%rax)
  402d9f:	00 ea                	add    %ch,%dl
  402da1:	02 00                	add    (%rax),%al
  402da3:	00 00                	add    %al,(%rax)
  402da5:	00 00                	add    %al,(%rax)
  402da7:	00 ea                	add    %ch,%dl
  402da9:	02 00                	add    (%rax),%al
  402dab:	00 00                	add    %al,(%rax)
  402dad:	00 00                	add    %al,(%rax)
  402daf:	00 ea                	add    %ch,%dl
  402db1:	02 00                	add    (%rax),%al
  402db3:	00 00                	add    %al,(%rax)
  402db5:	00 00                	add    %al,(%rax)
  402db7:	00 ea                	add    %ch,%dl
  402db9:	02 00                	add    (%rax),%al
  402dbb:	00 00                	add    %al,(%rax)
  402dbd:	00 00                	add    %al,(%rax)
  402dbf:	00 ea                	add    %ch,%dl
  402dc1:	02 00                	add    (%rax),%al
  402dc3:	00 00                	add    %al,(%rax)
  402dc5:	00 00                	add    %al,(%rax)
  402dc7:	00 ea                	add    %ch,%dl
  402dc9:	02 00                	add    (%rax),%al
  402dcb:	00 00                	add    %al,(%rax)
  402dcd:	00 00                	add    %al,(%rax)
  402dcf:	00 ea                	add    %ch,%dl
  402dd1:	02 00                	add    (%rax),%al
  402dd3:	00 00                	add    %al,(%rax)
  402dd5:	00 00                	add    %al,(%rax)
  402dd7:	00 ea                	add    %ch,%dl
  402dd9:	02 00                	add    (%rax),%al
  402ddb:	00 00                	add    %al,(%rax)
  402ddd:	00 00                	add    %al,(%rax)
  402ddf:	00 ea                	add    %ch,%dl
  402de1:	02 00                	add    (%rax),%al
  402de3:	00 00                	add    %al,(%rax)
  402de5:	00 00                	add    %al,(%rax)
  402de7:	00 ea                	add    %ch,%dl
  402de9:	02 00                	add    (%rax),%al
  402deb:	00 00                	add    %al,(%rax)
  402ded:	00 00                	add    %al,(%rax)
  402def:	00 ea                	add    %ch,%dl
  402df1:	02 00                	add    (%rax),%al
  402df3:	00 00                	add    %al,(%rax)
  402df5:	00 00                	add    %al,(%rax)
  402df7:	00 ea                	add    %ch,%dl
  402df9:	02 00                	add    (%rax),%al
  402dfb:	00 00                	add    %al,(%rax)
  402dfd:	00 00                	add    %al,(%rax)
  402dff:	00 ea                	add    %ch,%dl
  402e01:	02 00                	add    (%rax),%al
  402e03:	00 00                	add    %al,(%rax)
  402e05:	00 00                	add    %al,(%rax)
  402e07:	00 ea                	add    %ch,%dl
  402e09:	02 00                	add    (%rax),%al
  402e0b:	00 00                	add    %al,(%rax)
  402e0d:	00 00                	add    %al,(%rax)
  402e0f:	00 ea                	add    %ch,%dl
  402e11:	02 00                	add    (%rax),%al
  402e13:	00 00                	add    %al,(%rax)
  402e15:	00 00                	add    %al,(%rax)
  402e17:	00 ea                	add    %ch,%dl
  402e19:	02 00                	add    (%rax),%al
  402e1b:	00 00                	add    %al,(%rax)
  402e1d:	00 00                	add    %al,(%rax)
  402e1f:	00 ea                	add    %ch,%dl
  402e21:	02 00                	add    (%rax),%al
  402e23:	00 00                	add    %al,(%rax)
  402e25:	00 00                	add    %al,(%rax)
  402e27:	00 ea                	add    %ch,%dl
  402e29:	02 00                	add    (%rax),%al
  402e2b:	00 00                	add    %al,(%rax)
  402e2d:	00 00                	add    %al,(%rax)
  402e2f:	00 ea                	add    %ch,%dl
  402e31:	02 00                	add    (%rax),%al
  402e33:	00 00                	add    %al,(%rax)
  402e35:	00 00                	add    %al,(%rax)
  402e37:	00 ea                	add    %ch,%dl
  402e39:	02 00                	add    (%rax),%al
  402e3b:	00 00                	add    %al,(%rax)
  402e3d:	00 00                	add    %al,(%rax)
  402e3f:	00 ea                	add    %ch,%dl
  402e41:	02 00                	add    (%rax),%al
  402e43:	00 00                	add    %al,(%rax)
  402e45:	00 00                	add    %al,(%rax)
  402e47:	00 ea                	add    %ch,%dl
  402e49:	02 00                	add    (%rax),%al
  402e4b:	00 00                	add    %al,(%rax)
  402e4d:	00 00                	add    %al,(%rax)
  402e4f:	00 ea                	add    %ch,%dl
  402e51:	02 00                	add    (%rax),%al
  402e53:	00 00                	add    %al,(%rax)
  402e55:	00 00                	add    %al,(%rax)
  402e57:	00 ea                	add    %ch,%dl
  402e59:	02 00                	add    (%rax),%al
  402e5b:	00 00                	add    %al,(%rax)
  402e5d:	00 00                	add    %al,(%rax)
  402e5f:	00 ea                	add    %ch,%dl
  402e61:	02 00                	add    (%rax),%al
  402e63:	00 00                	add    %al,(%rax)
  402e65:	00 00                	add    %al,(%rax)
  402e67:	00 ea                	add    %ch,%dl
  402e69:	02 00                	add    (%rax),%al
  402e6b:	00 00                	add    %al,(%rax)
  402e6d:	00 00                	add    %al,(%rax)
  402e6f:	00 ea                	add    %ch,%dl
  402e71:	02 00                	add    (%rax),%al
  402e73:	00 00                	add    %al,(%rax)
  402e75:	00 00                	add    %al,(%rax)
  402e77:	00 ea                	add    %ch,%dl
  402e79:	02 00                	add    (%rax),%al
  402e7b:	00 00                	add    %al,(%rax)
  402e7d:	00 00                	add    %al,(%rax)
  402e7f:	00 ea                	add    %ch,%dl
  402e81:	02 00                	add    (%rax),%al
  402e83:	00 00                	add    %al,(%rax)
  402e85:	00 00                	add    %al,(%rax)
  402e87:	00 ea                	add    %ch,%dl
  402e89:	02 00                	add    (%rax),%al
  402e8b:	00 00                	add    %al,(%rax)
  402e8d:	00 00                	add    %al,(%rax)
  402e8f:	00 ea                	add    %ch,%dl
  402e91:	02 00                	add    (%rax),%al
  402e93:	00 00                	add    %al,(%rax)
  402e95:	00 00                	add    %al,(%rax)
  402e97:	00 ea                	add    %ch,%dl
  402e99:	02 00                	add    (%rax),%al
  402e9b:	00 00                	add    %al,(%rax)
  402e9d:	00 00                	add    %al,(%rax)
  402e9f:	00 ea                	add    %ch,%dl
  402ea1:	02 00                	add    (%rax),%al
  402ea3:	00 00                	add    %al,(%rax)
  402ea5:	00 00                	add    %al,(%rax)
  402ea7:	00 ea                	add    %ch,%dl
  402ea9:	02 00                	add    (%rax),%al
  402eab:	00 00                	add    %al,(%rax)
  402ead:	00 00                	add    %al,(%rax)
  402eaf:	00 ea                	add    %ch,%dl
  402eb1:	02 00                	add    (%rax),%al
  402eb3:	00 00                	add    %al,(%rax)
  402eb5:	00 00                	add    %al,(%rax)
  402eb7:	00 ea                	add    %ch,%dl
  402eb9:	02 00                	add    (%rax),%al
  402ebb:	00 00                	add    %al,(%rax)
  402ebd:	00 00                	add    %al,(%rax)
  402ebf:	00 ea                	add    %ch,%dl
  402ec1:	02 00                	add    (%rax),%al
  402ec3:	00 00                	add    %al,(%rax)
  402ec5:	00 00                	add    %al,(%rax)
  402ec7:	00 ea                	add    %ch,%dl
  402ec9:	02 00                	add    (%rax),%al
  402ecb:	00 00                	add    %al,(%rax)
  402ecd:	00 00                	add    %al,(%rax)
  402ecf:	00 ea                	add    %ch,%dl
  402ed1:	02 00                	add    (%rax),%al
  402ed3:	00 00                	add    %al,(%rax)
  402ed5:	00 00                	add    %al,(%rax)
  402ed7:	00 ea                	add    %ch,%dl
  402ed9:	02 00                	add    (%rax),%al
  402edb:	00 00                	add    %al,(%rax)
  402edd:	00 00                	add    %al,(%rax)
  402edf:	00 ea                	add    %ch,%dl
  402ee1:	02 00                	add    (%rax),%al
  402ee3:	00 00                	add    %al,(%rax)
  402ee5:	00 00                	add    %al,(%rax)
  402ee7:	00 ea                	add    %ch,%dl
  402ee9:	02 00                	add    (%rax),%al
  402eeb:	00 00                	add    %al,(%rax)
  402eed:	00 00                	add    %al,(%rax)
  402eef:	00 ea                	add    %ch,%dl
  402ef1:	02 00                	add    (%rax),%al
  402ef3:	00 00                	add    %al,(%rax)
  402ef5:	00 00                	add    %al,(%rax)
  402ef7:	00 ea                	add    %ch,%dl
  402ef9:	02 00                	add    (%rax),%al
  402efb:	00 00                	add    %al,(%rax)
  402efd:	00 00                	add    %al,(%rax)
  402eff:	00 ea                	add    %ch,%dl
  402f01:	02 00                	add    (%rax),%al
  402f03:	00 00                	add    %al,(%rax)
  402f05:	00 00                	add    %al,(%rax)
  402f07:	00 ea                	add    %ch,%dl
  402f09:	02 00                	add    (%rax),%al
  402f0b:	00 00                	add    %al,(%rax)
  402f0d:	00 00                	add    %al,(%rax)
  402f0f:	00 ea                	add    %ch,%dl
  402f11:	02 00                	add    (%rax),%al
  402f13:	00 00                	add    %al,(%rax)
  402f15:	00 00                	add    %al,(%rax)
  402f17:	00 ea                	add    %ch,%dl
  402f19:	02 00                	add    (%rax),%al
  402f1b:	00 00                	add    %al,(%rax)
  402f1d:	00 00                	add    %al,(%rax)
  402f1f:	00 ea                	add    %ch,%dl
  402f21:	02 00                	add    (%rax),%al
  402f23:	00 00                	add    %al,(%rax)
  402f25:	00 00                	add    %al,(%rax)
  402f27:	00 ea                	add    %ch,%dl
  402f29:	02 00                	add    (%rax),%al
  402f2b:	00 00                	add    %al,(%rax)
  402f2d:	00 00                	add    %al,(%rax)
  402f2f:	00 ea                	add    %ch,%dl
  402f31:	02 00                	add    (%rax),%al
  402f33:	00 00                	add    %al,(%rax)
  402f35:	00 00                	add    %al,(%rax)
  402f37:	00 ea                	add    %ch,%dl
  402f39:	02 00                	add    (%rax),%al
  402f3b:	00 00                	add    %al,(%rax)
  402f3d:	00 00                	add    %al,(%rax)
  402f3f:	00 ea                	add    %ch,%dl
  402f41:	02 00                	add    (%rax),%al
  402f43:	00 00                	add    %al,(%rax)
  402f45:	00 00                	add    %al,(%rax)
  402f47:	00 ea                	add    %ch,%dl
  402f49:	02 00                	add    (%rax),%al
  402f4b:	00 00                	add    %al,(%rax)
  402f4d:	00 00                	add    %al,(%rax)
  402f4f:	00 ea                	add    %ch,%dl
  402f51:	02 00                	add    (%rax),%al
  402f53:	00 00                	add    %al,(%rax)
  402f55:	00 00                	add    %al,(%rax)
  402f57:	00 ea                	add    %ch,%dl
  402f59:	02 00                	add    (%rax),%al
  402f5b:	00 00                	add    %al,(%rax)
  402f5d:	00 00                	add    %al,(%rax)
  402f5f:	00 ea                	add    %ch,%dl
  402f61:	02 00                	add    (%rax),%al
  402f63:	00 00                	add    %al,(%rax)
  402f65:	00 00                	add    %al,(%rax)
  402f67:	00 ea                	add    %ch,%dl
  402f69:	02 00                	add    (%rax),%al
  402f6b:	00 00                	add    %al,(%rax)
  402f6d:	00 00                	add    %al,(%rax)
  402f6f:	00 ea                	add    %ch,%dl
  402f71:	02 00                	add    (%rax),%al
  402f73:	00 00                	add    %al,(%rax)
  402f75:	00 00                	add    %al,(%rax)
  402f77:	00 ea                	add    %ch,%dl
  402f79:	02 00                	add    (%rax),%al
  402f7b:	00 00                	add    %al,(%rax)
  402f7d:	00 00                	add    %al,(%rax)
  402f7f:	00 f1                	add    %dh,%cl
  402f81:	02 00                	add    (%rax),%al
  402f83:	00 00                	add    %al,(%rax)
  402f85:	00 00                	add    %al,(%rax)
  402f87:	00 f1                	add    %dh,%cl
  402f89:	02 00                	add    (%rax),%al
  402f8b:	00 00                	add    %al,(%rax)
  402f8d:	00 00                	add    %al,(%rax)
  402f8f:	00 f1                	add    %dh,%cl
  402f91:	02 00                	add    (%rax),%al
  402f93:	00 00                	add    %al,(%rax)
  402f95:	00 00                	add    %al,(%rax)
  402f97:	00 f1                	add    %dh,%cl
  402f99:	02 00                	add    (%rax),%al
  402f9b:	00 00                	add    %al,(%rax)
  402f9d:	00 00                	add    %al,(%rax)
  402f9f:	00 f1                	add    %dh,%cl
  402fa1:	02 00                	add    (%rax),%al
  402fa3:	00 00                	add    %al,(%rax)
  402fa5:	00 00                	add    %al,(%rax)
  402fa7:	00 f1                	add    %dh,%cl
  402fa9:	02 00                	add    (%rax),%al
  402fab:	00 00                	add    %al,(%rax)
  402fad:	00 00                	add    %al,(%rax)
  402faf:	00 f1                	add    %dh,%cl
  402fb1:	02 00                	add    (%rax),%al
  402fb3:	00 00                	add    %al,(%rax)
  402fb5:	00 00                	add    %al,(%rax)
  402fb7:	00 f1                	add    %dh,%cl
  402fb9:	02 00                	add    (%rax),%al
  402fbb:	00 00                	add    %al,(%rax)
  402fbd:	00 00                	add    %al,(%rax)
  402fbf:	00 f1                	add    %dh,%cl
  402fc1:	02 00                	add    (%rax),%al
  402fc3:	00 00                	add    %al,(%rax)
  402fc5:	00 00                	add    %al,(%rax)
  402fc7:	00 f1                	add    %dh,%cl
  402fc9:	02 00                	add    (%rax),%al
  402fcb:	00 00                	add    %al,(%rax)
  402fcd:	00 00                	add    %al,(%rax)
  402fcf:	00 f1                	add    %dh,%cl
  402fd1:	02 00                	add    (%rax),%al
  402fd3:	00 00                	add    %al,(%rax)
  402fd5:	00 00                	add    %al,(%rax)
  402fd7:	00 f1                	add    %dh,%cl
  402fd9:	02 00                	add    (%rax),%al
  402fdb:	00 00                	add    %al,(%rax)
  402fdd:	00 00                	add    %al,(%rax)
  402fdf:	00 f1                	add    %dh,%cl
  402fe1:	02 00                	add    (%rax),%al
  402fe3:	00 00                	add    %al,(%rax)
  402fe5:	00 00                	add    %al,(%rax)
  402fe7:	00 f1                	add    %dh,%cl
  402fe9:	02 00                	add    (%rax),%al
  402feb:	00 00                	add    %al,(%rax)
  402fed:	00 00                	add    %al,(%rax)
  402fef:	00 f1                	add    %dh,%cl
  402ff1:	02 00                	add    (%rax),%al
  402ff3:	00 00                	add    %al,(%rax)
  402ff5:	00 00                	add    %al,(%rax)
  402ff7:	00 f1                	add    %dh,%cl
  402ff9:	02 00                	add    (%rax),%al
  402ffb:	00 00                	add    %al,(%rax)
  402ffd:	00 00                	add    %al,(%rax)
  402fff:	00 f1                	add    %dh,%cl
  403001:	02 00                	add    (%rax),%al
  403003:	00 00                	add    %al,(%rax)
  403005:	00 00                	add    %al,(%rax)
  403007:	00 f1                	add    %dh,%cl
  403009:	02 00                	add    (%rax),%al
  40300b:	00 00                	add    %al,(%rax)
  40300d:	00 00                	add    %al,(%rax)
  40300f:	00 f1                	add    %dh,%cl
  403011:	02 00                	add    (%rax),%al
  403013:	00 00                	add    %al,(%rax)
  403015:	00 00                	add    %al,(%rax)
  403017:	00 f1                	add    %dh,%cl
  403019:	02 00                	add    (%rax),%al
  40301b:	00 00                	add    %al,(%rax)
  40301d:	00 00                	add    %al,(%rax)
  40301f:	00 f1                	add    %dh,%cl
  403021:	02 00                	add    (%rax),%al
  403023:	00 00                	add    %al,(%rax)
  403025:	00 00                	add    %al,(%rax)
  403027:	00 f1                	add    %dh,%cl
  403029:	02 00                	add    (%rax),%al
  40302b:	00 00                	add    %al,(%rax)
  40302d:	00 00                	add    %al,(%rax)
  40302f:	00 f1                	add    %dh,%cl
  403031:	02 00                	add    (%rax),%al
  403033:	00 00                	add    %al,(%rax)
  403035:	00 00                	add    %al,(%rax)
  403037:	00 f1                	add    %dh,%cl
  403039:	02 00                	add    (%rax),%al
  40303b:	00 00                	add    %al,(%rax)
  40303d:	00 00                	add    %al,(%rax)
  40303f:	00 f1                	add    %dh,%cl
  403041:	02 00                	add    (%rax),%al
  403043:	00 00                	add    %al,(%rax)
  403045:	00 00                	add    %al,(%rax)
  403047:	00 f1                	add    %dh,%cl
  403049:	02 00                	add    (%rax),%al
  40304b:	00 00                	add    %al,(%rax)
  40304d:	00 00                	add    %al,(%rax)
  40304f:	00 f1                	add    %dh,%cl
  403051:	02 00                	add    (%rax),%al
  403053:	00 00                	add    %al,(%rax)
  403055:	00 00                	add    %al,(%rax)
  403057:	00 f1                	add    %dh,%cl
  403059:	02 00                	add    (%rax),%al
  40305b:	00 00                	add    %al,(%rax)
  40305d:	00 00                	add    %al,(%rax)
  40305f:	00 f1                	add    %dh,%cl
  403061:	02 00                	add    (%rax),%al
  403063:	00 00                	add    %al,(%rax)
  403065:	00 00                	add    %al,(%rax)
  403067:	00 f1                	add    %dh,%cl
  403069:	02 00                	add    (%rax),%al
  40306b:	00 00                	add    %al,(%rax)
  40306d:	00 00                	add    %al,(%rax)
  40306f:	00 f1                	add    %dh,%cl
  403071:	02 00                	add    (%rax),%al
  403073:	00 00                	add    %al,(%rax)
  403075:	00 00                	add    %al,(%rax)
  403077:	00 f1                	add    %dh,%cl
  403079:	02 00                	add    (%rax),%al
  40307b:	00 00                	add    %al,(%rax)
  40307d:	00 00                	add    %al,(%rax)
  40307f:	00 f1                	add    %dh,%cl
  403081:	02 00                	add    (%rax),%al
  403083:	00 00                	add    %al,(%rax)
  403085:	00 00                	add    %al,(%rax)
  403087:	00 f1                	add    %dh,%cl
  403089:	02 00                	add    (%rax),%al
  40308b:	00 00                	add    %al,(%rax)
  40308d:	00 00                	add    %al,(%rax)
  40308f:	00 f1                	add    %dh,%cl
  403091:	02 00                	add    (%rax),%al
  403093:	00 00                	add    %al,(%rax)
  403095:	00 00                	add    %al,(%rax)
  403097:	00 f1                	add    %dh,%cl
  403099:	02 00                	add    (%rax),%al
  40309b:	00 00                	add    %al,(%rax)
  40309d:	00 00                	add    %al,(%rax)
  40309f:	00 f1                	add    %dh,%cl
  4030a1:	02 00                	add    (%rax),%al
  4030a3:	00 00                	add    %al,(%rax)
  4030a5:	00 00                	add    %al,(%rax)
  4030a7:	00 f1                	add    %dh,%cl
  4030a9:	02 00                	add    (%rax),%al
  4030ab:	00 00                	add    %al,(%rax)
  4030ad:	00 00                	add    %al,(%rax)
  4030af:	00 f1                	add    %dh,%cl
  4030b1:	02 00                	add    (%rax),%al
  4030b3:	00 00                	add    %al,(%rax)
  4030b5:	00 00                	add    %al,(%rax)
  4030b7:	00 f1                	add    %dh,%cl
  4030b9:	02 00                	add    (%rax),%al
  4030bb:	00 00                	add    %al,(%rax)
  4030bd:	00 00                	add    %al,(%rax)
  4030bf:	00 f1                	add    %dh,%cl
  4030c1:	02 00                	add    (%rax),%al
  4030c3:	00 00                	add    %al,(%rax)
  4030c5:	00 00                	add    %al,(%rax)
  4030c7:	00 f1                	add    %dh,%cl
  4030c9:	02 00                	add    (%rax),%al
  4030cb:	00 00                	add    %al,(%rax)
  4030cd:	00 00                	add    %al,(%rax)
  4030cf:	00 f1                	add    %dh,%cl
  4030d1:	02 00                	add    (%rax),%al
  4030d3:	00 00                	add    %al,(%rax)
  4030d5:	00 00                	add    %al,(%rax)
  4030d7:	00 f1                	add    %dh,%cl
  4030d9:	02 00                	add    (%rax),%al
  4030db:	00 00                	add    %al,(%rax)
  4030dd:	00 00                	add    %al,(%rax)
  4030df:	00 f1                	add    %dh,%cl
  4030e1:	02 00                	add    (%rax),%al
  4030e3:	00 00                	add    %al,(%rax)
  4030e5:	00 00                	add    %al,(%rax)
  4030e7:	00 f1                	add    %dh,%cl
  4030e9:	02 00                	add    (%rax),%al
  4030eb:	00 00                	add    %al,(%rax)
  4030ed:	00 00                	add    %al,(%rax)
  4030ef:	00 f1                	add    %dh,%cl
  4030f1:	02 00                	add    (%rax),%al
  4030f3:	00 00                	add    %al,(%rax)
  4030f5:	00 00                	add    %al,(%rax)
  4030f7:	00 f1                	add    %dh,%cl
  4030f9:	02 00                	add    (%rax),%al
  4030fb:	00 00                	add    %al,(%rax)
  4030fd:	00 00                	add    %al,(%rax)
  4030ff:	00 f1                	add    %dh,%cl
  403101:	02 00                	add    (%rax),%al
  403103:	00 00                	add    %al,(%rax)
  403105:	00 00                	add    %al,(%rax)
  403107:	00 f1                	add    %dh,%cl
  403109:	02 00                	add    (%rax),%al
  40310b:	00 00                	add    %al,(%rax)
  40310d:	00 00                	add    %al,(%rax)
  40310f:	00 f1                	add    %dh,%cl
  403111:	02 00                	add    (%rax),%al
  403113:	00 00                	add    %al,(%rax)
  403115:	00 00                	add    %al,(%rax)
  403117:	00 f1                	add    %dh,%cl
  403119:	02 00                	add    (%rax),%al
  40311b:	00 00                	add    %al,(%rax)
  40311d:	00 00                	add    %al,(%rax)
  40311f:	00 f1                	add    %dh,%cl
  403121:	02 00                	add    (%rax),%al
  403123:	00 00                	add    %al,(%rax)
  403125:	00 00                	add    %al,(%rax)
  403127:	00 f1                	add    %dh,%cl
  403129:	02 00                	add    (%rax),%al
  40312b:	00 00                	add    %al,(%rax)
  40312d:	00 00                	add    %al,(%rax)
  40312f:	00 f1                	add    %dh,%cl
  403131:	02 00                	add    (%rax),%al
  403133:	00 00                	add    %al,(%rax)
  403135:	00 00                	add    %al,(%rax)
  403137:	00 f1                	add    %dh,%cl
  403139:	02 00                	add    (%rax),%al
  40313b:	00 00                	add    %al,(%rax)
  40313d:	00 00                	add    %al,(%rax)
  40313f:	00 f1                	add    %dh,%cl
  403141:	02 00                	add    (%rax),%al
  403143:	00 00                	add    %al,(%rax)
  403145:	00 00                	add    %al,(%rax)
  403147:	00 f1                	add    %dh,%cl
  403149:	02 00                	add    (%rax),%al
  40314b:	00 00                	add    %al,(%rax)
  40314d:	00 00                	add    %al,(%rax)
  40314f:	00 f1                	add    %dh,%cl
  403151:	02 00                	add    (%rax),%al
  403153:	00 00                	add    %al,(%rax)
  403155:	00 00                	add    %al,(%rax)
  403157:	00 f1                	add    %dh,%cl
  403159:	02 00                	add    (%rax),%al
  40315b:	00 00                	add    %al,(%rax)
  40315d:	00 00                	add    %al,(%rax)
  40315f:	00 f1                	add    %dh,%cl
  403161:	02 00                	add    (%rax),%al
  403163:	00 00                	add    %al,(%rax)
  403165:	00 00                	add    %al,(%rax)
  403167:	00 f1                	add    %dh,%cl
  403169:	02 00                	add    (%rax),%al
  40316b:	00 00                	add    %al,(%rax)
  40316d:	00 00                	add    %al,(%rax)
  40316f:	00 f1                	add    %dh,%cl
  403171:	02 00                	add    (%rax),%al
  403173:	00 00                	add    %al,(%rax)
  403175:	00 00                	add    %al,(%rax)
  403177:	00 f1                	add    %dh,%cl
  403179:	02 00                	add    (%rax),%al
  40317b:	00 00                	add    %al,(%rax)
  40317d:	00 00                	add    %al,(%rax)
  40317f:	00 f8                	add    %bh,%al
  403181:	02 00                	add    (%rax),%al
  403183:	00 00                	add    %al,(%rax)
  403185:	00 00                	add    %al,(%rax)
  403187:	00 f8                	add    %bh,%al
  403189:	02 00                	add    (%rax),%al
  40318b:	00 00                	add    %al,(%rax)
  40318d:	00 00                	add    %al,(%rax)
  40318f:	00 f8                	add    %bh,%al
  403191:	02 00                	add    (%rax),%al
  403193:	00 00                	add    %al,(%rax)
  403195:	00 00                	add    %al,(%rax)
  403197:	00 f8                	add    %bh,%al
  403199:	02 00                	add    (%rax),%al
  40319b:	00 00                	add    %al,(%rax)
  40319d:	00 00                	add    %al,(%rax)
  40319f:	00 f8                	add    %bh,%al
  4031a1:	02 00                	add    (%rax),%al
  4031a3:	00 00                	add    %al,(%rax)
  4031a5:	00 00                	add    %al,(%rax)
  4031a7:	00 f8                	add    %bh,%al
  4031a9:	02 00                	add    (%rax),%al
  4031ab:	00 00                	add    %al,(%rax)
  4031ad:	00 00                	add    %al,(%rax)
  4031af:	00 f8                	add    %bh,%al
  4031b1:	02 00                	add    (%rax),%al
  4031b3:	00 00                	add    %al,(%rax)
  4031b5:	00 00                	add    %al,(%rax)
  4031b7:	00 f8                	add    %bh,%al
  4031b9:	02 00                	add    (%rax),%al
  4031bb:	00 00                	add    %al,(%rax)
  4031bd:	00 00                	add    %al,(%rax)
  4031bf:	00 f8                	add    %bh,%al
  4031c1:	02 00                	add    (%rax),%al
  4031c3:	00 00                	add    %al,(%rax)
  4031c5:	00 00                	add    %al,(%rax)
  4031c7:	00 f8                	add    %bh,%al
  4031c9:	02 00                	add    (%rax),%al
  4031cb:	00 00                	add    %al,(%rax)
  4031cd:	00 00                	add    %al,(%rax)
  4031cf:	00 f8                	add    %bh,%al
  4031d1:	02 00                	add    (%rax),%al
  4031d3:	00 00                	add    %al,(%rax)
  4031d5:	00 00                	add    %al,(%rax)
  4031d7:	00 f8                	add    %bh,%al
  4031d9:	02 00                	add    (%rax),%al
  4031db:	00 00                	add    %al,(%rax)
  4031dd:	00 00                	add    %al,(%rax)
  4031df:	00 f8                	add    %bh,%al
  4031e1:	02 00                	add    (%rax),%al
  4031e3:	00 00                	add    %al,(%rax)
  4031e5:	00 00                	add    %al,(%rax)
  4031e7:	00 f8                	add    %bh,%al
  4031e9:	02 00                	add    (%rax),%al
  4031eb:	00 00                	add    %al,(%rax)
  4031ed:	00 00                	add    %al,(%rax)
  4031ef:	00 f8                	add    %bh,%al
  4031f1:	02 00                	add    (%rax),%al
  4031f3:	00 00                	add    %al,(%rax)
  4031f5:	00 00                	add    %al,(%rax)
  4031f7:	00 f8                	add    %bh,%al
  4031f9:	02 00                	add    (%rax),%al
  4031fb:	00 00                	add    %al,(%rax)
  4031fd:	00 00                	add    %al,(%rax)
  4031ff:	00 f8                	add    %bh,%al
  403201:	02 00                	add    (%rax),%al
  403203:	00 00                	add    %al,(%rax)
  403205:	00 00                	add    %al,(%rax)
  403207:	00 f8                	add    %bh,%al
  403209:	02 00                	add    (%rax),%al
  40320b:	00 00                	add    %al,(%rax)
  40320d:	00 00                	add    %al,(%rax)
  40320f:	00 f8                	add    %bh,%al
  403211:	02 00                	add    (%rax),%al
  403213:	00 00                	add    %al,(%rax)
  403215:	00 00                	add    %al,(%rax)
  403217:	00 f8                	add    %bh,%al
  403219:	02 00                	add    (%rax),%al
  40321b:	00 00                	add    %al,(%rax)
  40321d:	00 00                	add    %al,(%rax)
  40321f:	00 f8                	add    %bh,%al
  403221:	02 00                	add    (%rax),%al
  403223:	00 00                	add    %al,(%rax)
  403225:	00 00                	add    %al,(%rax)
  403227:	00 f8                	add    %bh,%al
  403229:	02 00                	add    (%rax),%al
  40322b:	00 00                	add    %al,(%rax)
  40322d:	00 00                	add    %al,(%rax)
  40322f:	00 f8                	add    %bh,%al
  403231:	02 00                	add    (%rax),%al
  403233:	00 00                	add    %al,(%rax)
  403235:	00 00                	add    %al,(%rax)
  403237:	00 f8                	add    %bh,%al
  403239:	02 00                	add    (%rax),%al
  40323b:	00 00                	add    %al,(%rax)
  40323d:	00 00                	add    %al,(%rax)
  40323f:	00 f8                	add    %bh,%al
  403241:	02 00                	add    (%rax),%al
  403243:	00 00                	add    %al,(%rax)
  403245:	00 00                	add    %al,(%rax)
  403247:	00 f8                	add    %bh,%al
  403249:	02 00                	add    (%rax),%al
  40324b:	00 00                	add    %al,(%rax)
  40324d:	00 00                	add    %al,(%rax)
  40324f:	00 f8                	add    %bh,%al
  403251:	02 00                	add    (%rax),%al
  403253:	00 00                	add    %al,(%rax)
  403255:	00 00                	add    %al,(%rax)
  403257:	00 f8                	add    %bh,%al
  403259:	02 00                	add    (%rax),%al
  40325b:	00 00                	add    %al,(%rax)
  40325d:	00 00                	add    %al,(%rax)
  40325f:	00 f8                	add    %bh,%al
  403261:	02 00                	add    (%rax),%al
  403263:	00 00                	add    %al,(%rax)
  403265:	00 00                	add    %al,(%rax)
  403267:	00 f8                	add    %bh,%al
  403269:	02 00                	add    (%rax),%al
  40326b:	00 00                	add    %al,(%rax)
  40326d:	00 00                	add    %al,(%rax)
  40326f:	00 f8                	add    %bh,%al
  403271:	02 00                	add    (%rax),%al
  403273:	00 00                	add    %al,(%rax)
  403275:	00 00                	add    %al,(%rax)
  403277:	00 f8                	add    %bh,%al
  403279:	02 00                	add    (%rax),%al
  40327b:	00 00                	add    %al,(%rax)
  40327d:	00 00                	add    %al,(%rax)
  40327f:	00 f8                	add    %bh,%al
  403281:	02 00                	add    (%rax),%al
  403283:	00 00                	add    %al,(%rax)
  403285:	00 00                	add    %al,(%rax)
  403287:	00 f8                	add    %bh,%al
  403289:	02 00                	add    (%rax),%al
  40328b:	00 00                	add    %al,(%rax)
  40328d:	00 00                	add    %al,(%rax)
  40328f:	00 f8                	add    %bh,%al
  403291:	02 00                	add    (%rax),%al
  403293:	00 00                	add    %al,(%rax)
  403295:	00 00                	add    %al,(%rax)
  403297:	00 f8                	add    %bh,%al
  403299:	02 00                	add    (%rax),%al
  40329b:	00 00                	add    %al,(%rax)
  40329d:	00 00                	add    %al,(%rax)
  40329f:	00 f8                	add    %bh,%al
  4032a1:	02 00                	add    (%rax),%al
  4032a3:	00 00                	add    %al,(%rax)
  4032a5:	00 00                	add    %al,(%rax)
  4032a7:	00 f8                	add    %bh,%al
  4032a9:	02 00                	add    (%rax),%al
  4032ab:	00 00                	add    %al,(%rax)
  4032ad:	00 00                	add    %al,(%rax)
  4032af:	00 f8                	add    %bh,%al
  4032b1:	02 00                	add    (%rax),%al
  4032b3:	00 00                	add    %al,(%rax)
  4032b5:	00 00                	add    %al,(%rax)
  4032b7:	00 f8                	add    %bh,%al
  4032b9:	02 00                	add    (%rax),%al
  4032bb:	00 00                	add    %al,(%rax)
  4032bd:	00 00                	add    %al,(%rax)
  4032bf:	00 f8                	add    %bh,%al
  4032c1:	02 00                	add    (%rax),%al
  4032c3:	00 00                	add    %al,(%rax)
  4032c5:	00 00                	add    %al,(%rax)
  4032c7:	00 f8                	add    %bh,%al
  4032c9:	02 00                	add    (%rax),%al
  4032cb:	00 00                	add    %al,(%rax)
  4032cd:	00 00                	add    %al,(%rax)
  4032cf:	00 f8                	add    %bh,%al
  4032d1:	02 00                	add    (%rax),%al
  4032d3:	00 00                	add    %al,(%rax)
  4032d5:	00 00                	add    %al,(%rax)
  4032d7:	00 f8                	add    %bh,%al
  4032d9:	02 00                	add    (%rax),%al
  4032db:	00 00                	add    %al,(%rax)
  4032dd:	00 00                	add    %al,(%rax)
  4032df:	00 f8                	add    %bh,%al
  4032e1:	02 00                	add    (%rax),%al
  4032e3:	00 00                	add    %al,(%rax)
  4032e5:	00 00                	add    %al,(%rax)
  4032e7:	00 f8                	add    %bh,%al
  4032e9:	02 00                	add    (%rax),%al
  4032eb:	00 00                	add    %al,(%rax)
  4032ed:	00 00                	add    %al,(%rax)
  4032ef:	00 f8                	add    %bh,%al
  4032f1:	02 00                	add    (%rax),%al
  4032f3:	00 00                	add    %al,(%rax)
  4032f5:	00 00                	add    %al,(%rax)
  4032f7:	00 f8                	add    %bh,%al
  4032f9:	02 00                	add    (%rax),%al
  4032fb:	00 00                	add    %al,(%rax)
  4032fd:	00 00                	add    %al,(%rax)
  4032ff:	00 f8                	add    %bh,%al
  403301:	02 00                	add    (%rax),%al
  403303:	00 00                	add    %al,(%rax)
  403305:	00 00                	add    %al,(%rax)
  403307:	00 f8                	add    %bh,%al
  403309:	02 00                	add    (%rax),%al
  40330b:	00 00                	add    %al,(%rax)
  40330d:	00 00                	add    %al,(%rax)
  40330f:	00 f8                	add    %bh,%al
  403311:	02 00                	add    (%rax),%al
  403313:	00 00                	add    %al,(%rax)
  403315:	00 00                	add    %al,(%rax)
  403317:	00 f8                	add    %bh,%al
  403319:	02 00                	add    (%rax),%al
  40331b:	00 00                	add    %al,(%rax)
  40331d:	00 00                	add    %al,(%rax)
  40331f:	00 f8                	add    %bh,%al
  403321:	02 00                	add    (%rax),%al
  403323:	00 00                	add    %al,(%rax)
  403325:	00 00                	add    %al,(%rax)
  403327:	00 f8                	add    %bh,%al
  403329:	02 00                	add    (%rax),%al
  40332b:	00 00                	add    %al,(%rax)
  40332d:	00 00                	add    %al,(%rax)
  40332f:	00 f8                	add    %bh,%al
  403331:	02 00                	add    (%rax),%al
  403333:	00 00                	add    %al,(%rax)
  403335:	00 00                	add    %al,(%rax)
  403337:	00 f8                	add    %bh,%al
  403339:	02 00                	add    (%rax),%al
  40333b:	00 00                	add    %al,(%rax)
  40333d:	00 00                	add    %al,(%rax)
  40333f:	00 f8                	add    %bh,%al
  403341:	02 00                	add    (%rax),%al
  403343:	00 00                	add    %al,(%rax)
  403345:	00 00                	add    %al,(%rax)
  403347:	00 f8                	add    %bh,%al
  403349:	02 00                	add    (%rax),%al
  40334b:	00 00                	add    %al,(%rax)
  40334d:	00 00                	add    %al,(%rax)
  40334f:	00 f8                	add    %bh,%al
  403351:	02 00                	add    (%rax),%al
  403353:	00 00                	add    %al,(%rax)
  403355:	00 00                	add    %al,(%rax)
  403357:	00 f8                	add    %bh,%al
  403359:	02 00                	add    (%rax),%al
  40335b:	00 00                	add    %al,(%rax)
  40335d:	00 00                	add    %al,(%rax)
  40335f:	00 f8                	add    %bh,%al
  403361:	02 00                	add    (%rax),%al
  403363:	00 00                	add    %al,(%rax)
  403365:	00 00                	add    %al,(%rax)
  403367:	00 f8                	add    %bh,%al
  403369:	02 00                	add    (%rax),%al
  40336b:	00 00                	add    %al,(%rax)
  40336d:	00 00                	add    %al,(%rax)
  40336f:	00 f8                	add    %bh,%al
  403371:	02 00                	add    (%rax),%al
  403373:	00 00                	add    %al,(%rax)
  403375:	00 00                	add    %al,(%rax)
  403377:	00 f8                	add    %bh,%al
  403379:	02 00                	add    (%rax),%al
  40337b:	00 00                	add    %al,(%rax)
  40337d:	00 00                	add    %al,(%rax)
  40337f:	00 ff                	add    %bh,%bh
  403381:	02 00                	add    (%rax),%al
  403383:	00 00                	add    %al,(%rax)
  403385:	00 00                	add    %al,(%rax)
  403387:	00 ff                	add    %bh,%bh
  403389:	02 00                	add    (%rax),%al
  40338b:	00 00                	add    %al,(%rax)
  40338d:	00 00                	add    %al,(%rax)
  40338f:	00 ff                	add    %bh,%bh
  403391:	02 00                	add    (%rax),%al
  403393:	00 00                	add    %al,(%rax)
  403395:	00 00                	add    %al,(%rax)
  403397:	00 ff                	add    %bh,%bh
  403399:	02 00                	add    (%rax),%al
  40339b:	00 00                	add    %al,(%rax)
  40339d:	00 00                	add    %al,(%rax)
  40339f:	00 ff                	add    %bh,%bh
  4033a1:	02 00                	add    (%rax),%al
  4033a3:	00 00                	add    %al,(%rax)
  4033a5:	00 00                	add    %al,(%rax)
  4033a7:	00 ff                	add    %bh,%bh
  4033a9:	02 00                	add    (%rax),%al
  4033ab:	00 00                	add    %al,(%rax)
  4033ad:	00 00                	add    %al,(%rax)
  4033af:	00 ff                	add    %bh,%bh
  4033b1:	02 00                	add    (%rax),%al
  4033b3:	00 00                	add    %al,(%rax)
  4033b5:	00 00                	add    %al,(%rax)
  4033b7:	00 ff                	add    %bh,%bh
  4033b9:	02 00                	add    (%rax),%al
  4033bb:	00 00                	add    %al,(%rax)
  4033bd:	00 00                	add    %al,(%rax)
  4033bf:	00 ff                	add    %bh,%bh
  4033c1:	02 00                	add    (%rax),%al
  4033c3:	00 00                	add    %al,(%rax)
  4033c5:	00 00                	add    %al,(%rax)
  4033c7:	00 ff                	add    %bh,%bh
  4033c9:	02 00                	add    (%rax),%al
  4033cb:	00 00                	add    %al,(%rax)
  4033cd:	00 00                	add    %al,(%rax)
  4033cf:	00 ff                	add    %bh,%bh
  4033d1:	02 00                	add    (%rax),%al
  4033d3:	00 00                	add    %al,(%rax)
  4033d5:	00 00                	add    %al,(%rax)
  4033d7:	00 ff                	add    %bh,%bh
  4033d9:	02 00                	add    (%rax),%al
  4033db:	00 00                	add    %al,(%rax)
  4033dd:	00 00                	add    %al,(%rax)
  4033df:	00 ff                	add    %bh,%bh
  4033e1:	02 00                	add    (%rax),%al
  4033e3:	00 00                	add    %al,(%rax)
  4033e5:	00 00                	add    %al,(%rax)
  4033e7:	00 ff                	add    %bh,%bh
  4033e9:	02 00                	add    (%rax),%al
  4033eb:	00 00                	add    %al,(%rax)
  4033ed:	00 00                	add    %al,(%rax)
  4033ef:	00 ff                	add    %bh,%bh
  4033f1:	02 00                	add    (%rax),%al
  4033f3:	00 00                	add    %al,(%rax)
  4033f5:	00 00                	add    %al,(%rax)
  4033f7:	00 ff                	add    %bh,%bh
  4033f9:	02 00                	add    (%rax),%al
  4033fb:	00 00                	add    %al,(%rax)
  4033fd:	00 00                	add    %al,(%rax)
  4033ff:	00 ff                	add    %bh,%bh
  403401:	02 00                	add    (%rax),%al
  403403:	00 00                	add    %al,(%rax)
  403405:	00 00                	add    %al,(%rax)
  403407:	00 ff                	add    %bh,%bh
  403409:	02 00                	add    (%rax),%al
  40340b:	00 00                	add    %al,(%rax)
  40340d:	00 00                	add    %al,(%rax)
  40340f:	00 ff                	add    %bh,%bh
  403411:	02 00                	add    (%rax),%al
  403413:	00 00                	add    %al,(%rax)
  403415:	00 00                	add    %al,(%rax)
  403417:	00 ff                	add    %bh,%bh
  403419:	02 00                	add    (%rax),%al
  40341b:	00 00                	add    %al,(%rax)
  40341d:	00 00                	add    %al,(%rax)
  40341f:	00 ff                	add    %bh,%bh
  403421:	02 00                	add    (%rax),%al
  403423:	00 00                	add    %al,(%rax)
  403425:	00 00                	add    %al,(%rax)
  403427:	00 ff                	add    %bh,%bh
  403429:	02 00                	add    (%rax),%al
  40342b:	00 00                	add    %al,(%rax)
  40342d:	00 00                	add    %al,(%rax)
  40342f:	00 ff                	add    %bh,%bh
  403431:	02 00                	add    (%rax),%al
  403433:	00 00                	add    %al,(%rax)
  403435:	00 00                	add    %al,(%rax)
  403437:	00 ff                	add    %bh,%bh
  403439:	02 00                	add    (%rax),%al
  40343b:	00 00                	add    %al,(%rax)
  40343d:	00 00                	add    %al,(%rax)
  40343f:	00 ff                	add    %bh,%bh
  403441:	02 00                	add    (%rax),%al
  403443:	00 00                	add    %al,(%rax)
  403445:	00 00                	add    %al,(%rax)
  403447:	00 ff                	add    %bh,%bh
  403449:	02 00                	add    (%rax),%al
  40344b:	00 00                	add    %al,(%rax)
  40344d:	00 00                	add    %al,(%rax)
  40344f:	00 ff                	add    %bh,%bh
  403451:	02 00                	add    (%rax),%al
  403453:	00 00                	add    %al,(%rax)
  403455:	00 00                	add    %al,(%rax)
  403457:	00 ff                	add    %bh,%bh
  403459:	02 00                	add    (%rax),%al
  40345b:	00 00                	add    %al,(%rax)
  40345d:	00 00                	add    %al,(%rax)
  40345f:	00 ff                	add    %bh,%bh
  403461:	02 00                	add    (%rax),%al
  403463:	00 00                	add    %al,(%rax)
  403465:	00 00                	add    %al,(%rax)
  403467:	00 ff                	add    %bh,%bh
  403469:	02 00                	add    (%rax),%al
  40346b:	00 00                	add    %al,(%rax)
  40346d:	00 00                	add    %al,(%rax)
  40346f:	00 ff                	add    %bh,%bh
  403471:	02 00                	add    (%rax),%al
  403473:	00 00                	add    %al,(%rax)
  403475:	00 00                	add    %al,(%rax)
  403477:	00 ff                	add    %bh,%bh
  403479:	02 00                	add    (%rax),%al
  40347b:	00 00                	add    %al,(%rax)
  40347d:	00 00                	add    %al,(%rax)
  40347f:	00 ff                	add    %bh,%bh
  403481:	02 00                	add    (%rax),%al
  403483:	00 00                	add    %al,(%rax)
  403485:	00 00                	add    %al,(%rax)
  403487:	00 ff                	add    %bh,%bh
  403489:	02 00                	add    (%rax),%al
  40348b:	00 00                	add    %al,(%rax)
  40348d:	00 00                	add    %al,(%rax)
  40348f:	00 ff                	add    %bh,%bh
  403491:	02 00                	add    (%rax),%al
  403493:	00 00                	add    %al,(%rax)
  403495:	00 00                	add    %al,(%rax)
  403497:	00 ff                	add    %bh,%bh
  403499:	02 00                	add    (%rax),%al
  40349b:	00 00                	add    %al,(%rax)
  40349d:	00 00                	add    %al,(%rax)
  40349f:	00 ff                	add    %bh,%bh
  4034a1:	02 00                	add    (%rax),%al
  4034a3:	00 00                	add    %al,(%rax)
  4034a5:	00 00                	add    %al,(%rax)
  4034a7:	00 ff                	add    %bh,%bh
  4034a9:	02 00                	add    (%rax),%al
  4034ab:	00 00                	add    %al,(%rax)
  4034ad:	00 00                	add    %al,(%rax)
  4034af:	00 ff                	add    %bh,%bh
  4034b1:	02 00                	add    (%rax),%al
  4034b3:	00 00                	add    %al,(%rax)
  4034b5:	00 00                	add    %al,(%rax)
  4034b7:	00 ff                	add    %bh,%bh
  4034b9:	02 00                	add    (%rax),%al
  4034bb:	00 00                	add    %al,(%rax)
  4034bd:	00 00                	add    %al,(%rax)
  4034bf:	00 ff                	add    %bh,%bh
  4034c1:	02 00                	add    (%rax),%al
  4034c3:	00 00                	add    %al,(%rax)
  4034c5:	00 00                	add    %al,(%rax)
  4034c7:	00 ff                	add    %bh,%bh
  4034c9:	02 00                	add    (%rax),%al
  4034cb:	00 00                	add    %al,(%rax)
  4034cd:	00 00                	add    %al,(%rax)
  4034cf:	00 ff                	add    %bh,%bh
  4034d1:	02 00                	add    (%rax),%al
  4034d3:	00 00                	add    %al,(%rax)
  4034d5:	00 00                	add    %al,(%rax)
  4034d7:	00 ff                	add    %bh,%bh
  4034d9:	02 00                	add    (%rax),%al
  4034db:	00 00                	add    %al,(%rax)
  4034dd:	00 00                	add    %al,(%rax)
  4034df:	00 ff                	add    %bh,%bh
  4034e1:	02 00                	add    (%rax),%al
  4034e3:	00 00                	add    %al,(%rax)
  4034e5:	00 00                	add    %al,(%rax)
  4034e7:	00 ff                	add    %bh,%bh
  4034e9:	02 00                	add    (%rax),%al
  4034eb:	00 00                	add    %al,(%rax)
  4034ed:	00 00                	add    %al,(%rax)
  4034ef:	00 ff                	add    %bh,%bh
  4034f1:	02 00                	add    (%rax),%al
  4034f3:	00 00                	add    %al,(%rax)
  4034f5:	00 00                	add    %al,(%rax)
  4034f7:	00 ff                	add    %bh,%bh
  4034f9:	02 00                	add    (%rax),%al
  4034fb:	00 00                	add    %al,(%rax)
  4034fd:	00 00                	add    %al,(%rax)
  4034ff:	00 ff                	add    %bh,%bh
  403501:	02 00                	add    (%rax),%al
  403503:	00 00                	add    %al,(%rax)
  403505:	00 00                	add    %al,(%rax)
  403507:	00 ff                	add    %bh,%bh
  403509:	02 00                	add    (%rax),%al
  40350b:	00 00                	add    %al,(%rax)
  40350d:	00 00                	add    %al,(%rax)
  40350f:	00 ff                	add    %bh,%bh
  403511:	02 00                	add    (%rax),%al
  403513:	00 00                	add    %al,(%rax)
  403515:	00 00                	add    %al,(%rax)
  403517:	00 ff                	add    %bh,%bh
  403519:	02 00                	add    (%rax),%al
  40351b:	00 00                	add    %al,(%rax)
  40351d:	00 00                	add    %al,(%rax)
  40351f:	00 ff                	add    %bh,%bh
  403521:	02 00                	add    (%rax),%al
  403523:	00 00                	add    %al,(%rax)
  403525:	00 00                	add    %al,(%rax)
  403527:	00 ff                	add    %bh,%bh
  403529:	02 00                	add    (%rax),%al
  40352b:	00 00                	add    %al,(%rax)
  40352d:	00 00                	add    %al,(%rax)
  40352f:	00 ff                	add    %bh,%bh
  403531:	02 00                	add    (%rax),%al
  403533:	00 00                	add    %al,(%rax)
  403535:	00 00                	add    %al,(%rax)
  403537:	00 ff                	add    %bh,%bh
  403539:	02 00                	add    (%rax),%al
  40353b:	00 00                	add    %al,(%rax)
  40353d:	00 00                	add    %al,(%rax)
  40353f:	00 ff                	add    %bh,%bh
  403541:	02 00                	add    (%rax),%al
  403543:	00 00                	add    %al,(%rax)
  403545:	00 00                	add    %al,(%rax)
  403547:	00 ff                	add    %bh,%bh
  403549:	02 00                	add    (%rax),%al
  40354b:	00 00                	add    %al,(%rax)
  40354d:	00 00                	add    %al,(%rax)
  40354f:	00 ff                	add    %bh,%bh
  403551:	02 00                	add    (%rax),%al
  403553:	00 00                	add    %al,(%rax)
  403555:	00 00                	add    %al,(%rax)
  403557:	00 ff                	add    %bh,%bh
  403559:	02 00                	add    (%rax),%al
  40355b:	00 00                	add    %al,(%rax)
  40355d:	00 00                	add    %al,(%rax)
  40355f:	00 ff                	add    %bh,%bh
  403561:	02 00                	add    (%rax),%al
  403563:	00 00                	add    %al,(%rax)
  403565:	00 00                	add    %al,(%rax)
  403567:	00 ff                	add    %bh,%bh
  403569:	02 00                	add    (%rax),%al
  40356b:	00 00                	add    %al,(%rax)
  40356d:	00 00                	add    %al,(%rax)
  40356f:	00 ff                	add    %bh,%bh
  403571:	02 00                	add    (%rax),%al
  403573:	00 00                	add    %al,(%rax)
  403575:	00 00                	add    %al,(%rax)
  403577:	00 ff                	add    %bh,%bh
  403579:	02 00                	add    (%rax),%al
  40357b:	00 00                	add    %al,(%rax)
  40357d:	00 00                	add    %al,(%rax)
  40357f:	00 06                	add    %al,(%rsi)
  403581:	03 00                	add    (%rax),%eax
  403583:	00 00                	add    %al,(%rax)
  403585:	00 00                	add    %al,(%rax)
  403587:	00 06                	add    %al,(%rsi)
  403589:	03 00                	add    (%rax),%eax
  40358b:	00 00                	add    %al,(%rax)
  40358d:	00 00                	add    %al,(%rax)
  40358f:	00 06                	add    %al,(%rsi)
  403591:	03 00                	add    (%rax),%eax
  403593:	00 00                	add    %al,(%rax)
  403595:	00 00                	add    %al,(%rax)
  403597:	00 06                	add    %al,(%rsi)
  403599:	03 00                	add    (%rax),%eax
  40359b:	00 00                	add    %al,(%rax)
  40359d:	00 00                	add    %al,(%rax)
  40359f:	00 06                	add    %al,(%rsi)
  4035a1:	03 00                	add    (%rax),%eax
  4035a3:	00 00                	add    %al,(%rax)
  4035a5:	00 00                	add    %al,(%rax)
  4035a7:	00 06                	add    %al,(%rsi)
  4035a9:	03 00                	add    (%rax),%eax
  4035ab:	00 00                	add    %al,(%rax)
  4035ad:	00 00                	add    %al,(%rax)
  4035af:	00 06                	add    %al,(%rsi)
  4035b1:	03 00                	add    (%rax),%eax
  4035b3:	00 00                	add    %al,(%rax)
  4035b5:	00 00                	add    %al,(%rax)
  4035b7:	00 06                	add    %al,(%rsi)
  4035b9:	03 00                	add    (%rax),%eax
  4035bb:	00 00                	add    %al,(%rax)
  4035bd:	00 00                	add    %al,(%rax)
  4035bf:	00 06                	add    %al,(%rsi)
  4035c1:	03 00                	add    (%rax),%eax
  4035c3:	00 00                	add    %al,(%rax)
  4035c5:	00 00                	add    %al,(%rax)
  4035c7:	00 06                	add    %al,(%rsi)
  4035c9:	03 00                	add    (%rax),%eax
  4035cb:	00 00                	add    %al,(%rax)
  4035cd:	00 00                	add    %al,(%rax)
  4035cf:	00 06                	add    %al,(%rsi)
  4035d1:	03 00                	add    (%rax),%eax
  4035d3:	00 00                	add    %al,(%rax)
  4035d5:	00 00                	add    %al,(%rax)
  4035d7:	00 06                	add    %al,(%rsi)
  4035d9:	03 00                	add    (%rax),%eax
  4035db:	00 00                	add    %al,(%rax)
  4035dd:	00 00                	add    %al,(%rax)
  4035df:	00 06                	add    %al,(%rsi)
  4035e1:	03 00                	add    (%rax),%eax
  4035e3:	00 00                	add    %al,(%rax)
  4035e5:	00 00                	add    %al,(%rax)
  4035e7:	00 06                	add    %al,(%rsi)
  4035e9:	03 00                	add    (%rax),%eax
  4035eb:	00 00                	add    %al,(%rax)
  4035ed:	00 00                	add    %al,(%rax)
  4035ef:	00 06                	add    %al,(%rsi)
  4035f1:	03 00                	add    (%rax),%eax
  4035f3:	00 00                	add    %al,(%rax)
  4035f5:	00 00                	add    %al,(%rax)
  4035f7:	00 06                	add    %al,(%rsi)
  4035f9:	03 00                	add    (%rax),%eax
  4035fb:	00 00                	add    %al,(%rax)
  4035fd:	00 00                	add    %al,(%rax)
  4035ff:	00 06                	add    %al,(%rsi)
  403601:	03 00                	add    (%rax),%eax
  403603:	00 00                	add    %al,(%rax)
  403605:	00 00                	add    %al,(%rax)
  403607:	00 06                	add    %al,(%rsi)
  403609:	03 00                	add    (%rax),%eax
  40360b:	00 00                	add    %al,(%rax)
  40360d:	00 00                	add    %al,(%rax)
  40360f:	00 06                	add    %al,(%rsi)
  403611:	03 00                	add    (%rax),%eax
  403613:	00 00                	add    %al,(%rax)
  403615:	00 00                	add    %al,(%rax)
  403617:	00 06                	add    %al,(%rsi)
  403619:	03 00                	add    (%rax),%eax
  40361b:	00 00                	add    %al,(%rax)
  40361d:	00 00                	add    %al,(%rax)
  40361f:	00 06                	add    %al,(%rsi)
  403621:	03 00                	add    (%rax),%eax
  403623:	00 00                	add    %al,(%rax)
  403625:	00 00                	add    %al,(%rax)
  403627:	00 06                	add    %al,(%rsi)
  403629:	03 00                	add    (%rax),%eax
  40362b:	00 00                	add    %al,(%rax)
  40362d:	00 00                	add    %al,(%rax)
  40362f:	00 06                	add    %al,(%rsi)
  403631:	03 00                	add    (%rax),%eax
  403633:	00 00                	add    %al,(%rax)
  403635:	00 00                	add    %al,(%rax)
  403637:	00 06                	add    %al,(%rsi)
  403639:	03 00                	add    (%rax),%eax
  40363b:	00 00                	add    %al,(%rax)
  40363d:	00 00                	add    %al,(%rax)
  40363f:	00 06                	add    %al,(%rsi)
  403641:	03 00                	add    (%rax),%eax
  403643:	00 00                	add    %al,(%rax)
  403645:	00 00                	add    %al,(%rax)
  403647:	00 06                	add    %al,(%rsi)
  403649:	03 00                	add    (%rax),%eax
  40364b:	00 00                	add    %al,(%rax)
  40364d:	00 00                	add    %al,(%rax)
  40364f:	00 06                	add    %al,(%rsi)
  403651:	03 00                	add    (%rax),%eax
  403653:	00 00                	add    %al,(%rax)
  403655:	00 00                	add    %al,(%rax)
  403657:	00 06                	add    %al,(%rsi)
  403659:	03 00                	add    (%rax),%eax
  40365b:	00 00                	add    %al,(%rax)
  40365d:	00 00                	add    %al,(%rax)
  40365f:	00 06                	add    %al,(%rsi)
  403661:	03 00                	add    (%rax),%eax
  403663:	00 00                	add    %al,(%rax)
  403665:	00 00                	add    %al,(%rax)
  403667:	00 06                	add    %al,(%rsi)
  403669:	03 00                	add    (%rax),%eax
  40366b:	00 00                	add    %al,(%rax)
  40366d:	00 00                	add    %al,(%rax)
  40366f:	00 06                	add    %al,(%rsi)
  403671:	03 00                	add    (%rax),%eax
  403673:	00 00                	add    %al,(%rax)
  403675:	00 00                	add    %al,(%rax)
  403677:	00 06                	add    %al,(%rsi)
  403679:	03 00                	add    (%rax),%eax
  40367b:	00 00                	add    %al,(%rax)
  40367d:	00 00                	add    %al,(%rax)
  40367f:	00 06                	add    %al,(%rsi)
  403681:	03 00                	add    (%rax),%eax
  403683:	00 00                	add    %al,(%rax)
  403685:	00 00                	add    %al,(%rax)
  403687:	00 06                	add    %al,(%rsi)
  403689:	03 00                	add    (%rax),%eax
  40368b:	00 00                	add    %al,(%rax)
  40368d:	00 00                	add    %al,(%rax)
  40368f:	00 06                	add    %al,(%rsi)
  403691:	03 00                	add    (%rax),%eax
  403693:	00 00                	add    %al,(%rax)
  403695:	00 00                	add    %al,(%rax)
  403697:	00 06                	add    %al,(%rsi)
  403699:	03 00                	add    (%rax),%eax
  40369b:	00 00                	add    %al,(%rax)
  40369d:	00 00                	add    %al,(%rax)
  40369f:	00 06                	add    %al,(%rsi)
  4036a1:	03 00                	add    (%rax),%eax
  4036a3:	00 00                	add    %al,(%rax)
  4036a5:	00 00                	add    %al,(%rax)
  4036a7:	00 06                	add    %al,(%rsi)
  4036a9:	03 00                	add    (%rax),%eax
  4036ab:	00 00                	add    %al,(%rax)
  4036ad:	00 00                	add    %al,(%rax)
  4036af:	00 06                	add    %al,(%rsi)
  4036b1:	03 00                	add    (%rax),%eax
  4036b3:	00 00                	add    %al,(%rax)
  4036b5:	00 00                	add    %al,(%rax)
  4036b7:	00 06                	add    %al,(%rsi)
  4036b9:	03 00                	add    (%rax),%eax
  4036bb:	00 00                	add    %al,(%rax)
  4036bd:	00 00                	add    %al,(%rax)
  4036bf:	00 06                	add    %al,(%rsi)
  4036c1:	03 00                	add    (%rax),%eax
  4036c3:	00 00                	add    %al,(%rax)
  4036c5:	00 00                	add    %al,(%rax)
  4036c7:	00 06                	add    %al,(%rsi)
  4036c9:	03 00                	add    (%rax),%eax
  4036cb:	00 00                	add    %al,(%rax)
  4036cd:	00 00                	add    %al,(%rax)
  4036cf:	00 06                	add    %al,(%rsi)
  4036d1:	03 00                	add    (%rax),%eax
  4036d3:	00 00                	add    %al,(%rax)
  4036d5:	00 00                	add    %al,(%rax)
  4036d7:	00 06                	add    %al,(%rsi)
  4036d9:	03 00                	add    (%rax),%eax
  4036db:	00 00                	add    %al,(%rax)
  4036dd:	00 00                	add    %al,(%rax)
  4036df:	00 06                	add    %al,(%rsi)
  4036e1:	03 00                	add    (%rax),%eax
  4036e3:	00 00                	add    %al,(%rax)
  4036e5:	00 00                	add    %al,(%rax)
  4036e7:	00 06                	add    %al,(%rsi)
  4036e9:	03 00                	add    (%rax),%eax
  4036eb:	00 00                	add    %al,(%rax)
  4036ed:	00 00                	add    %al,(%rax)
  4036ef:	00 06                	add    %al,(%rsi)
  4036f1:	03 00                	add    (%rax),%eax
  4036f3:	00 00                	add    %al,(%rax)
  4036f5:	00 00                	add    %al,(%rax)
  4036f7:	00 06                	add    %al,(%rsi)
  4036f9:	03 00                	add    (%rax),%eax
  4036fb:	00 00                	add    %al,(%rax)
  4036fd:	00 00                	add    %al,(%rax)
  4036ff:	00 06                	add    %al,(%rsi)
  403701:	03 00                	add    (%rax),%eax
  403703:	00 00                	add    %al,(%rax)
  403705:	00 00                	add    %al,(%rax)
  403707:	00 06                	add    %al,(%rsi)
  403709:	03 00                	add    (%rax),%eax
  40370b:	00 00                	add    %al,(%rax)
  40370d:	00 00                	add    %al,(%rax)
  40370f:	00 06                	add    %al,(%rsi)
  403711:	03 00                	add    (%rax),%eax
  403713:	00 00                	add    %al,(%rax)
  403715:	00 00                	add    %al,(%rax)
  403717:	00 06                	add    %al,(%rsi)
  403719:	03 00                	add    (%rax),%eax
  40371b:	00 00                	add    %al,(%rax)
  40371d:	00 00                	add    %al,(%rax)
  40371f:	00 06                	add    %al,(%rsi)
  403721:	03 00                	add    (%rax),%eax
  403723:	00 00                	add    %al,(%rax)
  403725:	00 00                	add    %al,(%rax)
  403727:	00 06                	add    %al,(%rsi)
  403729:	03 00                	add    (%rax),%eax
  40372b:	00 00                	add    %al,(%rax)
  40372d:	00 00                	add    %al,(%rax)
  40372f:	00 06                	add    %al,(%rsi)
  403731:	03 00                	add    (%rax),%eax
  403733:	00 00                	add    %al,(%rax)
  403735:	00 00                	add    %al,(%rax)
  403737:	00 06                	add    %al,(%rsi)
  403739:	03 00                	add    (%rax),%eax
  40373b:	00 00                	add    %al,(%rax)
  40373d:	00 00                	add    %al,(%rax)
  40373f:	00 06                	add    %al,(%rsi)
  403741:	03 00                	add    (%rax),%eax
  403743:	00 00                	add    %al,(%rax)
  403745:	00 00                	add    %al,(%rax)
  403747:	00 06                	add    %al,(%rsi)
  403749:	03 00                	add    (%rax),%eax
  40374b:	00 00                	add    %al,(%rax)
  40374d:	00 00                	add    %al,(%rax)
  40374f:	00 06                	add    %al,(%rsi)
  403751:	03 00                	add    (%rax),%eax
  403753:	00 00                	add    %al,(%rax)
  403755:	00 00                	add    %al,(%rax)
  403757:	00 06                	add    %al,(%rsi)
  403759:	03 00                	add    (%rax),%eax
  40375b:	00 00                	add    %al,(%rax)
  40375d:	00 00                	add    %al,(%rax)
  40375f:	00 06                	add    %al,(%rsi)
  403761:	03 00                	add    (%rax),%eax
  403763:	00 00                	add    %al,(%rax)
  403765:	00 00                	add    %al,(%rax)
  403767:	00 06                	add    %al,(%rsi)
  403769:	03 00                	add    (%rax),%eax
  40376b:	00 00                	add    %al,(%rax)
  40376d:	00 00                	add    %al,(%rax)
  40376f:	00 06                	add    %al,(%rsi)
  403771:	03 00                	add    (%rax),%eax
  403773:	00 00                	add    %al,(%rax)
  403775:	00 00                	add    %al,(%rax)
  403777:	00 06                	add    %al,(%rsi)
  403779:	03 00                	add    (%rax),%eax
  40377b:	00 00                	add    %al,(%rax)
  40377d:	00 00                	add    %al,(%rax)
  40377f:	00 0d 03 00 00 00    	add    %cl,0x3(%rip)        # 403788 <__intel_mic_avx512f_memset+0x12c8>
  403785:	00 00                	add    %al,(%rax)
  403787:	00 0d 03 00 00 00    	add    %cl,0x3(%rip)        # 403790 <__intel_mic_avx512f_memset+0x12d0>
  40378d:	00 00                	add    %al,(%rax)
  40378f:	00 0d 03 00 00 00    	add    %cl,0x3(%rip)        # 403798 <__intel_mic_avx512f_memset+0x12d8>
  403795:	00 00                	add    %al,(%rax)
  403797:	00 0d 03 00 00 00    	add    %cl,0x3(%rip)        # 4037a0 <__intel_mic_avx512f_memset+0x12e0>
  40379d:	00 00                	add    %al,(%rax)
  40379f:	00 0d 03 00 00 00    	add    %cl,0x3(%rip)        # 4037a8 <__intel_mic_avx512f_memset+0x12e8>
  4037a5:	00 00                	add    %al,(%rax)
  4037a7:	00 0d 03 00 00 00    	add    %cl,0x3(%rip)        # 4037b0 <__intel_mic_avx512f_memset+0x12f0>
  4037ad:	00 00                	add    %al,(%rax)
  4037af:	00 0d 03 00 00 00    	add    %cl,0x3(%rip)        # 4037b8 <__intel_mic_avx512f_memset+0x12f8>
  4037b5:	00 00                	add    %al,(%rax)
  4037b7:	00 0d 03 00 00 00    	add    %cl,0x3(%rip)        # 4037c0 <__intel_mic_avx512f_memset+0x1300>
  4037bd:	00 00                	add    %al,(%rax)
  4037bf:	00 0d 03 00 00 00    	add    %cl,0x3(%rip)        # 4037c8 <__intel_mic_avx512f_memset+0x1308>
  4037c5:	00 00                	add    %al,(%rax)
  4037c7:	00 0d 03 00 00 00    	add    %cl,0x3(%rip)        # 4037d0 <__intel_mic_avx512f_memset+0x1310>
  4037cd:	00 00                	add    %al,(%rax)
  4037cf:	00 0d 03 00 00 00    	add    %cl,0x3(%rip)        # 4037d8 <__intel_mic_avx512f_memset+0x1318>
  4037d5:	00 00                	add    %al,(%rax)
  4037d7:	00 0d 03 00 00 00    	add    %cl,0x3(%rip)        # 4037e0 <__intel_mic_avx512f_memset+0x1320>
  4037dd:	00 00                	add    %al,(%rax)
  4037df:	00 0d 03 00 00 00    	add    %cl,0x3(%rip)        # 4037e8 <__intel_mic_avx512f_memset+0x1328>
  4037e5:	00 00                	add    %al,(%rax)
  4037e7:	00 0d 03 00 00 00    	add    %cl,0x3(%rip)        # 4037f0 <__intel_mic_avx512f_memset+0x1330>
  4037ed:	00 00                	add    %al,(%rax)
  4037ef:	00 0d 03 00 00 00    	add    %cl,0x3(%rip)        # 4037f8 <__intel_mic_avx512f_memset+0x1338>
  4037f5:	00 00                	add    %al,(%rax)
  4037f7:	00 0d 03 00 00 00    	add    %cl,0x3(%rip)        # 403800 <__intel_mic_avx512f_memset+0x1340>
  4037fd:	00 00                	add    %al,(%rax)
  4037ff:	00 0d 03 00 00 00    	add    %cl,0x3(%rip)        # 403808 <__intel_mic_avx512f_memset+0x1348>
  403805:	00 00                	add    %al,(%rax)
  403807:	00 0d 03 00 00 00    	add    %cl,0x3(%rip)        # 403810 <__intel_mic_avx512f_memset+0x1350>
  40380d:	00 00                	add    %al,(%rax)
  40380f:	00 0d 03 00 00 00    	add    %cl,0x3(%rip)        # 403818 <__intel_mic_avx512f_memset+0x1358>
  403815:	00 00                	add    %al,(%rax)
  403817:	00 0d 03 00 00 00    	add    %cl,0x3(%rip)        # 403820 <__intel_mic_avx512f_memset+0x1360>
  40381d:	00 00                	add    %al,(%rax)
  40381f:	00 0d 03 00 00 00    	add    %cl,0x3(%rip)        # 403828 <__intel_mic_avx512f_memset+0x1368>
  403825:	00 00                	add    %al,(%rax)
  403827:	00 0d 03 00 00 00    	add    %cl,0x3(%rip)        # 403830 <__intel_mic_avx512f_memset+0x1370>
  40382d:	00 00                	add    %al,(%rax)
  40382f:	00 0d 03 00 00 00    	add    %cl,0x3(%rip)        # 403838 <__intel_mic_avx512f_memset+0x1378>
  403835:	00 00                	add    %al,(%rax)
  403837:	00 0d 03 00 00 00    	add    %cl,0x3(%rip)        # 403840 <__intel_mic_avx512f_memset+0x1380>
  40383d:	00 00                	add    %al,(%rax)
  40383f:	00 0d 03 00 00 00    	add    %cl,0x3(%rip)        # 403848 <__intel_mic_avx512f_memset+0x1388>
  403845:	00 00                	add    %al,(%rax)
  403847:	00 0d 03 00 00 00    	add    %cl,0x3(%rip)        # 403850 <__intel_mic_avx512f_memset+0x1390>
  40384d:	00 00                	add    %al,(%rax)
  40384f:	00 0d 03 00 00 00    	add    %cl,0x3(%rip)        # 403858 <__intel_mic_avx512f_memset+0x1398>
  403855:	00 00                	add    %al,(%rax)
  403857:	00 0d 03 00 00 00    	add    %cl,0x3(%rip)        # 403860 <__intel_mic_avx512f_memset+0x13a0>
  40385d:	00 00                	add    %al,(%rax)
  40385f:	00 0d 03 00 00 00    	add    %cl,0x3(%rip)        # 403868 <__intel_mic_avx512f_memset+0x13a8>
  403865:	00 00                	add    %al,(%rax)
  403867:	00 0d 03 00 00 00    	add    %cl,0x3(%rip)        # 403870 <__intel_mic_avx512f_memset+0x13b0>
  40386d:	00 00                	add    %al,(%rax)
  40386f:	00 0d 03 00 00 00    	add    %cl,0x3(%rip)        # 403878 <__intel_mic_avx512f_memset+0x13b8>
  403875:	00 00                	add    %al,(%rax)
  403877:	00 0d 03 00 00 00    	add    %cl,0x3(%rip)        # 403880 <__intel_mic_avx512f_memset+0x13c0>
  40387d:	00 00                	add    %al,(%rax)
  40387f:	00 0d 03 00 00 00    	add    %cl,0x3(%rip)        # 403888 <__intel_mic_avx512f_memset+0x13c8>
  403885:	00 00                	add    %al,(%rax)
  403887:	00 0d 03 00 00 00    	add    %cl,0x3(%rip)        # 403890 <__intel_mic_avx512f_memset+0x13d0>
  40388d:	00 00                	add    %al,(%rax)
  40388f:	00 0d 03 00 00 00    	add    %cl,0x3(%rip)        # 403898 <__intel_mic_avx512f_memset+0x13d8>
  403895:	00 00                	add    %al,(%rax)
  403897:	00 0d 03 00 00 00    	add    %cl,0x3(%rip)        # 4038a0 <__intel_mic_avx512f_memset+0x13e0>
  40389d:	00 00                	add    %al,(%rax)
  40389f:	00 0d 03 00 00 00    	add    %cl,0x3(%rip)        # 4038a8 <__intel_mic_avx512f_memset+0x13e8>
  4038a5:	00 00                	add    %al,(%rax)
  4038a7:	00 0d 03 00 00 00    	add    %cl,0x3(%rip)        # 4038b0 <__intel_mic_avx512f_memset+0x13f0>
  4038ad:	00 00                	add    %al,(%rax)
  4038af:	00 0d 03 00 00 00    	add    %cl,0x3(%rip)        # 4038b8 <__intel_mic_avx512f_memset+0x13f8>
  4038b5:	00 00                	add    %al,(%rax)
  4038b7:	00 0d 03 00 00 00    	add    %cl,0x3(%rip)        # 4038c0 <__intel_mic_avx512f_memset+0x1400>
  4038bd:	00 00                	add    %al,(%rax)
  4038bf:	00 0d 03 00 00 00    	add    %cl,0x3(%rip)        # 4038c8 <__intel_mic_avx512f_memset+0x1408>
  4038c5:	00 00                	add    %al,(%rax)
  4038c7:	00 0d 03 00 00 00    	add    %cl,0x3(%rip)        # 4038d0 <__intel_mic_avx512f_memset+0x1410>
  4038cd:	00 00                	add    %al,(%rax)
  4038cf:	00 0d 03 00 00 00    	add    %cl,0x3(%rip)        # 4038d8 <__intel_mic_avx512f_memset+0x1418>
  4038d5:	00 00                	add    %al,(%rax)
  4038d7:	00 0d 03 00 00 00    	add    %cl,0x3(%rip)        # 4038e0 <__intel_mic_avx512f_memset+0x1420>
  4038dd:	00 00                	add    %al,(%rax)
  4038df:	00 0d 03 00 00 00    	add    %cl,0x3(%rip)        # 4038e8 <__intel_mic_avx512f_memset+0x1428>
  4038e5:	00 00                	add    %al,(%rax)
  4038e7:	00 0d 03 00 00 00    	add    %cl,0x3(%rip)        # 4038f0 <__intel_mic_avx512f_memset+0x1430>
  4038ed:	00 00                	add    %al,(%rax)
  4038ef:	00 0d 03 00 00 00    	add    %cl,0x3(%rip)        # 4038f8 <__intel_mic_avx512f_memset+0x1438>
  4038f5:	00 00                	add    %al,(%rax)
  4038f7:	00 0d 03 00 00 00    	add    %cl,0x3(%rip)        # 403900 <__intel_mic_avx512f_memset+0x1440>
  4038fd:	00 00                	add    %al,(%rax)
  4038ff:	00 0d 03 00 00 00    	add    %cl,0x3(%rip)        # 403908 <__intel_mic_avx512f_memset+0x1448>
  403905:	00 00                	add    %al,(%rax)
  403907:	00 0d 03 00 00 00    	add    %cl,0x3(%rip)        # 403910 <__intel_mic_avx512f_memset+0x1450>
  40390d:	00 00                	add    %al,(%rax)
  40390f:	00 0d 03 00 00 00    	add    %cl,0x3(%rip)        # 403918 <__intel_mic_avx512f_memset+0x1458>
  403915:	00 00                	add    %al,(%rax)
  403917:	00 0d 03 00 00 00    	add    %cl,0x3(%rip)        # 403920 <__intel_mic_avx512f_memset+0x1460>
  40391d:	00 00                	add    %al,(%rax)
  40391f:	00 0d 03 00 00 00    	add    %cl,0x3(%rip)        # 403928 <__intel_mic_avx512f_memset+0x1468>
  403925:	00 00                	add    %al,(%rax)
  403927:	00 0d 03 00 00 00    	add    %cl,0x3(%rip)        # 403930 <__intel_mic_avx512f_memset+0x1470>
  40392d:	00 00                	add    %al,(%rax)
  40392f:	00 0d 03 00 00 00    	add    %cl,0x3(%rip)        # 403938 <__intel_mic_avx512f_memset+0x1478>
  403935:	00 00                	add    %al,(%rax)
  403937:	00 0d 03 00 00 00    	add    %cl,0x3(%rip)        # 403940 <__intel_mic_avx512f_memset+0x1480>
  40393d:	00 00                	add    %al,(%rax)
  40393f:	00 0d 03 00 00 00    	add    %cl,0x3(%rip)        # 403948 <__intel_mic_avx512f_memset+0x1488>
  403945:	00 00                	add    %al,(%rax)
  403947:	00 0d 03 00 00 00    	add    %cl,0x3(%rip)        # 403950 <__intel_mic_avx512f_memset+0x1490>
  40394d:	00 00                	add    %al,(%rax)
  40394f:	00 0d 03 00 00 00    	add    %cl,0x3(%rip)        # 403958 <__intel_mic_avx512f_memset+0x1498>
  403955:	00 00                	add    %al,(%rax)
  403957:	00 0d 03 00 00 00    	add    %cl,0x3(%rip)        # 403960 <__intel_mic_avx512f_memset+0x14a0>
  40395d:	00 00                	add    %al,(%rax)
  40395f:	00 0d 03 00 00 00    	add    %cl,0x3(%rip)        # 403968 <__intel_mic_avx512f_memset+0x14a8>
  403965:	00 00                	add    %al,(%rax)
  403967:	00 0d 03 00 00 00    	add    %cl,0x3(%rip)        # 403970 <__intel_mic_avx512f_memset+0x14b0>
  40396d:	00 00                	add    %al,(%rax)
  40396f:	00 0d 03 00 00 00    	add    %cl,0x3(%rip)        # 403978 <__intel_mic_avx512f_memset+0x14b8>
  403975:	00 00                	add    %al,(%rax)
  403977:	00 0d 03 00 00 00    	add    %cl,0x3(%rip)        # 403980 <__intel_mic_avx512f_memset+0x14c0>
  40397d:	00 00                	add    %al,(%rax)
  40397f:	00 c0                	add    %al,%al
  403981:	12 00                	adc    (%rax),%al
  403983:	00 00                	add    %al,(%rax)
  403985:	00 00                	add    %al,(%rax)
  403987:	00 c8                	add    %cl,%al
  403989:	12 00                	adc    (%rax),%al
  40398b:	00 00                	add    %al,(%rax)
  40398d:	00 00                	add    %al,(%rax)
  40398f:	00 bb 12 00 00 00    	add    %bh,0x12(%rbx)
  403995:	00 00                	add    %al,(%rax)
  403997:	00 b2 12 00 00 00    	add    %dh,0x12(%rdx)
  40399d:	00 00                	add    %al,(%rax)
  40399f:	00 a5 12 00 00 00    	add    %ah,0x12(%rbp)
  4039a5:	00 00                	add    %al,(%rax)
  4039a7:	00 9d 12 00 00 00    	add    %bl,0x12(%rbp)
  4039ad:	00 00                	add    %al,(%rax)
  4039af:	00 9d 12 00 00 00    	add    %bl,0x12(%rbp)
  4039b5:	00 00                	add    %al,(%rax)
  4039b7:	00 9d 12 00 00 00    	add    %bl,0x12(%rbp)
  4039bd:	00 00                	add    %al,(%rax)
  4039bf:	00 91 12 00 00 00    	add    %dl,0x12(%rcx)
  4039c5:	00 00                	add    %al,(%rax)
  4039c7:	00 89 12 00 00 00    	add    %cl,0x12(%rcx)
  4039cd:	00 00                	add    %al,(%rax)
  4039cf:	00 89 12 00 00 00    	add    %cl,0x12(%rcx)
  4039d5:	00 00                	add    %al,(%rax)
  4039d7:	00 89 12 00 00 00    	add    %cl,0x12(%rcx)
  4039dd:	00 00                	add    %al,(%rax)
  4039df:	00 89 12 00 00 00    	add    %cl,0x12(%rcx)
  4039e5:	00 00                	add    %al,(%rax)
  4039e7:	00 89 12 00 00 00    	add    %cl,0x12(%rcx)
  4039ed:	00 00                	add    %al,(%rax)
  4039ef:	00 89 12 00 00 00    	add    %cl,0x12(%rcx)
  4039f5:	00 00                	add    %al,(%rax)
  4039f7:	00 89 12 00 00 00    	add    %cl,0x12(%rcx)
  4039fd:	00 00                	add    %al,(%rax)
  4039ff:	00 7d 12             	add    %bh,0x12(%rbp)
  403a02:	00 00                	add    %al,(%rax)
  403a04:	00 00                	add    %al,(%rax)
  403a06:	00 00                	add    %al,(%rax)
  403a08:	74 12                	je     403a1c <__intel_mic_avx512f_memset+0x155c>
  403a0a:	00 00                	add    %al,(%rax)
  403a0c:	00 00                	add    %al,(%rax)
  403a0e:	00 00                	add    %al,(%rax)
  403a10:	74 12                	je     403a24 <__intel_mic_avx512f_memset+0x1564>
  403a12:	00 00                	add    %al,(%rax)
  403a14:	00 00                	add    %al,(%rax)
  403a16:	00 00                	add    %al,(%rax)
  403a18:	74 12                	je     403a2c <__intel_mic_avx512f_memset+0x156c>
  403a1a:	00 00                	add    %al,(%rax)
  403a1c:	00 00                	add    %al,(%rax)
  403a1e:	00 00                	add    %al,(%rax)
  403a20:	74 12                	je     403a34 <__intel_mic_avx512f_memset+0x1574>
  403a22:	00 00                	add    %al,(%rax)
  403a24:	00 00                	add    %al,(%rax)
  403a26:	00 00                	add    %al,(%rax)
  403a28:	74 12                	je     403a3c <__intel_mic_avx512f_memset+0x157c>
  403a2a:	00 00                	add    %al,(%rax)
  403a2c:	00 00                	add    %al,(%rax)
  403a2e:	00 00                	add    %al,(%rax)
  403a30:	74 12                	je     403a44 <__intel_mic_avx512f_memset+0x1584>
  403a32:	00 00                	add    %al,(%rax)
  403a34:	00 00                	add    %al,(%rax)
  403a36:	00 00                	add    %al,(%rax)
  403a38:	74 12                	je     403a4c <__intel_mic_avx512f_memset+0x158c>
  403a3a:	00 00                	add    %al,(%rax)
  403a3c:	00 00                	add    %al,(%rax)
  403a3e:	00 00                	add    %al,(%rax)
  403a40:	74 12                	je     403a54 <__intel_mic_avx512f_memset+0x1594>
  403a42:	00 00                	add    %al,(%rax)
  403a44:	00 00                	add    %al,(%rax)
  403a46:	00 00                	add    %al,(%rax)
  403a48:	74 12                	je     403a5c <__intel_mic_avx512f_memset+0x159c>
  403a4a:	00 00                	add    %al,(%rax)
  403a4c:	00 00                	add    %al,(%rax)
  403a4e:	00 00                	add    %al,(%rax)
  403a50:	74 12                	je     403a64 <__intel_mic_avx512f_memset+0x15a4>
  403a52:	00 00                	add    %al,(%rax)
  403a54:	00 00                	add    %al,(%rax)
  403a56:	00 00                	add    %al,(%rax)
  403a58:	74 12                	je     403a6c <__intel_mic_avx512f_memset+0x15ac>
  403a5a:	00 00                	add    %al,(%rax)
  403a5c:	00 00                	add    %al,(%rax)
  403a5e:	00 00                	add    %al,(%rax)
  403a60:	74 12                	je     403a74 <__intel_mic_avx512f_memset+0x15b4>
  403a62:	00 00                	add    %al,(%rax)
  403a64:	00 00                	add    %al,(%rax)
  403a66:	00 00                	add    %al,(%rax)
  403a68:	74 12                	je     403a7c <__intel_mic_avx512f_memset+0x15bc>
  403a6a:	00 00                	add    %al,(%rax)
  403a6c:	00 00                	add    %al,(%rax)
  403a6e:	00 00                	add    %al,(%rax)
  403a70:	74 12                	je     403a84 <__intel_mic_avx512f_memset+0x15c4>
  403a72:	00 00                	add    %al,(%rax)
  403a74:	00 00                	add    %al,(%rax)
  403a76:	00 00                	add    %al,(%rax)
  403a78:	74 12                	je     403a8c <__intel_mic_avx512f_memset+0x15cc>
  403a7a:	00 00                	add    %al,(%rax)
  403a7c:	00 00                	add    %al,(%rax)
  403a7e:	00 00                	add    %al,(%rax)
  403a80:	65 12 00             	adc    %gs:(%rax),%al
  403a83:	00 00                	add    %al,(%rax)
  403a85:	00 00                	add    %al,(%rax)
  403a87:	00 5c 12 00          	add    %bl,0x0(%rdx,%rdx,1)
  403a8b:	00 00                	add    %al,(%rax)
  403a8d:	00 00                	add    %al,(%rax)
  403a8f:	00 5c 12 00          	add    %bl,0x0(%rdx,%rdx,1)
  403a93:	00 00                	add    %al,(%rax)
  403a95:	00 00                	add    %al,(%rax)
  403a97:	00 5c 12 00          	add    %bl,0x0(%rdx,%rdx,1)
  403a9b:	00 00                	add    %al,(%rax)
  403a9d:	00 00                	add    %al,(%rax)
  403a9f:	00 5c 12 00          	add    %bl,0x0(%rdx,%rdx,1)
  403aa3:	00 00                	add    %al,(%rax)
  403aa5:	00 00                	add    %al,(%rax)
  403aa7:	00 5c 12 00          	add    %bl,0x0(%rdx,%rdx,1)
  403aab:	00 00                	add    %al,(%rax)
  403aad:	00 00                	add    %al,(%rax)
  403aaf:	00 5c 12 00          	add    %bl,0x0(%rdx,%rdx,1)
  403ab3:	00 00                	add    %al,(%rax)
  403ab5:	00 00                	add    %al,(%rax)
  403ab7:	00 5c 12 00          	add    %bl,0x0(%rdx,%rdx,1)
  403abb:	00 00                	add    %al,(%rax)
  403abd:	00 00                	add    %al,(%rax)
  403abf:	00 5c 12 00          	add    %bl,0x0(%rdx,%rdx,1)
  403ac3:	00 00                	add    %al,(%rax)
  403ac5:	00 00                	add    %al,(%rax)
  403ac7:	00 5c 12 00          	add    %bl,0x0(%rdx,%rdx,1)
  403acb:	00 00                	add    %al,(%rax)
  403acd:	00 00                	add    %al,(%rax)
  403acf:	00 5c 12 00          	add    %bl,0x0(%rdx,%rdx,1)
  403ad3:	00 00                	add    %al,(%rax)
  403ad5:	00 00                	add    %al,(%rax)
  403ad7:	00 5c 12 00          	add    %bl,0x0(%rdx,%rdx,1)
  403adb:	00 00                	add    %al,(%rax)
  403add:	00 00                	add    %al,(%rax)
  403adf:	00 5c 12 00          	add    %bl,0x0(%rdx,%rdx,1)
  403ae3:	00 00                	add    %al,(%rax)
  403ae5:	00 00                	add    %al,(%rax)
  403ae7:	00 5c 12 00          	add    %bl,0x0(%rdx,%rdx,1)
  403aeb:	00 00                	add    %al,(%rax)
  403aed:	00 00                	add    %al,(%rax)
  403aef:	00 5c 12 00          	add    %bl,0x0(%rdx,%rdx,1)
  403af3:	00 00                	add    %al,(%rax)
  403af5:	00 00                	add    %al,(%rax)
  403af7:	00 5c 12 00          	add    %bl,0x0(%rdx,%rdx,1)
  403afb:	00 00                	add    %al,(%rax)
  403afd:	00 00                	add    %al,(%rax)
  403aff:	00 5c 12 00          	add    %bl,0x0(%rdx,%rdx,1)
  403b03:	00 00                	add    %al,(%rax)
  403b05:	00 00                	add    %al,(%rax)
  403b07:	00 5c 12 00          	add    %bl,0x0(%rdx,%rdx,1)
  403b0b:	00 00                	add    %al,(%rax)
  403b0d:	00 00                	add    %al,(%rax)
  403b0f:	00 5c 12 00          	add    %bl,0x0(%rdx,%rdx,1)
  403b13:	00 00                	add    %al,(%rax)
  403b15:	00 00                	add    %al,(%rax)
  403b17:	00 5c 12 00          	add    %bl,0x0(%rdx,%rdx,1)
  403b1b:	00 00                	add    %al,(%rax)
  403b1d:	00 00                	add    %al,(%rax)
  403b1f:	00 5c 12 00          	add    %bl,0x0(%rdx,%rdx,1)
  403b23:	00 00                	add    %al,(%rax)
  403b25:	00 00                	add    %al,(%rax)
  403b27:	00 5c 12 00          	add    %bl,0x0(%rdx,%rdx,1)
  403b2b:	00 00                	add    %al,(%rax)
  403b2d:	00 00                	add    %al,(%rax)
  403b2f:	00 5c 12 00          	add    %bl,0x0(%rdx,%rdx,1)
  403b33:	00 00                	add    %al,(%rax)
  403b35:	00 00                	add    %al,(%rax)
  403b37:	00 5c 12 00          	add    %bl,0x0(%rdx,%rdx,1)
  403b3b:	00 00                	add    %al,(%rax)
  403b3d:	00 00                	add    %al,(%rax)
  403b3f:	00 5c 12 00          	add    %bl,0x0(%rdx,%rdx,1)
  403b43:	00 00                	add    %al,(%rax)
  403b45:	00 00                	add    %al,(%rax)
  403b47:	00 5c 12 00          	add    %bl,0x0(%rdx,%rdx,1)
  403b4b:	00 00                	add    %al,(%rax)
  403b4d:	00 00                	add    %al,(%rax)
  403b4f:	00 5c 12 00          	add    %bl,0x0(%rdx,%rdx,1)
  403b53:	00 00                	add    %al,(%rax)
  403b55:	00 00                	add    %al,(%rax)
  403b57:	00 5c 12 00          	add    %bl,0x0(%rdx,%rdx,1)
  403b5b:	00 00                	add    %al,(%rax)
  403b5d:	00 00                	add    %al,(%rax)
  403b5f:	00 5c 12 00          	add    %bl,0x0(%rdx,%rdx,1)
  403b63:	00 00                	add    %al,(%rax)
  403b65:	00 00                	add    %al,(%rax)
  403b67:	00 5c 12 00          	add    %bl,0x0(%rdx,%rdx,1)
  403b6b:	00 00                	add    %al,(%rax)
  403b6d:	00 00                	add    %al,(%rax)
  403b6f:	00 5c 12 00          	add    %bl,0x0(%rdx,%rdx,1)
  403b73:	00 00                	add    %al,(%rax)
  403b75:	00 00                	add    %al,(%rax)
  403b77:	00 5c 12 00          	add    %bl,0x0(%rdx,%rdx,1)
  403b7b:	00 00                	add    %al,(%rax)
  403b7d:	00 00                	add    %al,(%rax)
  403b7f:	00 4d 12             	add    %cl,0x12(%rbp)
  403b82:	00 00                	add    %al,(%rax)
  403b84:	00 00                	add    %al,(%rax)
  403b86:	00 00                	add    %al,(%rax)
  403b88:	42 12 00             	rex.X adc (%rax),%al
  403b8b:	00 00                	add    %al,(%rax)
  403b8d:	00 00                	add    %al,(%rax)
  403b8f:	00 42 12             	add    %al,0x12(%rdx)
  403b92:	00 00                	add    %al,(%rax)
  403b94:	00 00                	add    %al,(%rax)
  403b96:	00 00                	add    %al,(%rax)
  403b98:	42 12 00             	rex.X adc (%rax),%al
  403b9b:	00 00                	add    %al,(%rax)
  403b9d:	00 00                	add    %al,(%rax)
  403b9f:	00 42 12             	add    %al,0x12(%rdx)
  403ba2:	00 00                	add    %al,(%rax)
  403ba4:	00 00                	add    %al,(%rax)
  403ba6:	00 00                	add    %al,(%rax)
  403ba8:	42 12 00             	rex.X adc (%rax),%al
  403bab:	00 00                	add    %al,(%rax)
  403bad:	00 00                	add    %al,(%rax)
  403baf:	00 42 12             	add    %al,0x12(%rdx)
  403bb2:	00 00                	add    %al,(%rax)
  403bb4:	00 00                	add    %al,(%rax)
  403bb6:	00 00                	add    %al,(%rax)
  403bb8:	42 12 00             	rex.X adc (%rax),%al
  403bbb:	00 00                	add    %al,(%rax)
  403bbd:	00 00                	add    %al,(%rax)
  403bbf:	00 42 12             	add    %al,0x12(%rdx)
  403bc2:	00 00                	add    %al,(%rax)
  403bc4:	00 00                	add    %al,(%rax)
  403bc6:	00 00                	add    %al,(%rax)
  403bc8:	42 12 00             	rex.X adc (%rax),%al
  403bcb:	00 00                	add    %al,(%rax)
  403bcd:	00 00                	add    %al,(%rax)
  403bcf:	00 42 12             	add    %al,0x12(%rdx)
  403bd2:	00 00                	add    %al,(%rax)
  403bd4:	00 00                	add    %al,(%rax)
  403bd6:	00 00                	add    %al,(%rax)
  403bd8:	42 12 00             	rex.X adc (%rax),%al
  403bdb:	00 00                	add    %al,(%rax)
  403bdd:	00 00                	add    %al,(%rax)
  403bdf:	00 42 12             	add    %al,0x12(%rdx)
  403be2:	00 00                	add    %al,(%rax)
  403be4:	00 00                	add    %al,(%rax)
  403be6:	00 00                	add    %al,(%rax)
  403be8:	42 12 00             	rex.X adc (%rax),%al
  403beb:	00 00                	add    %al,(%rax)
  403bed:	00 00                	add    %al,(%rax)
  403bef:	00 42 12             	add    %al,0x12(%rdx)
  403bf2:	00 00                	add    %al,(%rax)
  403bf4:	00 00                	add    %al,(%rax)
  403bf6:	00 00                	add    %al,(%rax)
  403bf8:	42 12 00             	rex.X adc (%rax),%al
  403bfb:	00 00                	add    %al,(%rax)
  403bfd:	00 00                	add    %al,(%rax)
  403bff:	00 42 12             	add    %al,0x12(%rdx)
  403c02:	00 00                	add    %al,(%rax)
  403c04:	00 00                	add    %al,(%rax)
  403c06:	00 00                	add    %al,(%rax)
  403c08:	42 12 00             	rex.X adc (%rax),%al
  403c0b:	00 00                	add    %al,(%rax)
  403c0d:	00 00                	add    %al,(%rax)
  403c0f:	00 42 12             	add    %al,0x12(%rdx)
  403c12:	00 00                	add    %al,(%rax)
  403c14:	00 00                	add    %al,(%rax)
  403c16:	00 00                	add    %al,(%rax)
  403c18:	42 12 00             	rex.X adc (%rax),%al
  403c1b:	00 00                	add    %al,(%rax)
  403c1d:	00 00                	add    %al,(%rax)
  403c1f:	00 42 12             	add    %al,0x12(%rdx)
  403c22:	00 00                	add    %al,(%rax)
  403c24:	00 00                	add    %al,(%rax)
  403c26:	00 00                	add    %al,(%rax)
  403c28:	42 12 00             	rex.X adc (%rax),%al
  403c2b:	00 00                	add    %al,(%rax)
  403c2d:	00 00                	add    %al,(%rax)
  403c2f:	00 42 12             	add    %al,0x12(%rdx)
  403c32:	00 00                	add    %al,(%rax)
  403c34:	00 00                	add    %al,(%rax)
  403c36:	00 00                	add    %al,(%rax)
  403c38:	42 12 00             	rex.X adc (%rax),%al
  403c3b:	00 00                	add    %al,(%rax)
  403c3d:	00 00                	add    %al,(%rax)
  403c3f:	00 42 12             	add    %al,0x12(%rdx)
  403c42:	00 00                	add    %al,(%rax)
  403c44:	00 00                	add    %al,(%rax)
  403c46:	00 00                	add    %al,(%rax)
  403c48:	42 12 00             	rex.X adc (%rax),%al
  403c4b:	00 00                	add    %al,(%rax)
  403c4d:	00 00                	add    %al,(%rax)
  403c4f:	00 42 12             	add    %al,0x12(%rdx)
  403c52:	00 00                	add    %al,(%rax)
  403c54:	00 00                	add    %al,(%rax)
  403c56:	00 00                	add    %al,(%rax)
  403c58:	42 12 00             	rex.X adc (%rax),%al
  403c5b:	00 00                	add    %al,(%rax)
  403c5d:	00 00                	add    %al,(%rax)
  403c5f:	00 42 12             	add    %al,0x12(%rdx)
  403c62:	00 00                	add    %al,(%rax)
  403c64:	00 00                	add    %al,(%rax)
  403c66:	00 00                	add    %al,(%rax)
  403c68:	42 12 00             	rex.X adc (%rax),%al
  403c6b:	00 00                	add    %al,(%rax)
  403c6d:	00 00                	add    %al,(%rax)
  403c6f:	00 42 12             	add    %al,0x12(%rdx)
  403c72:	00 00                	add    %al,(%rax)
  403c74:	00 00                	add    %al,(%rax)
  403c76:	00 00                	add    %al,(%rax)
  403c78:	42 12 00             	rex.X adc (%rax),%al
  403c7b:	00 00                	add    %al,(%rax)
  403c7d:	00 00                	add    %al,(%rax)
  403c7f:	00 42 12             	add    %al,0x12(%rdx)
  403c82:	00 00                	add    %al,(%rax)
  403c84:	00 00                	add    %al,(%rax)
  403c86:	00 00                	add    %al,(%rax)
  403c88:	42 12 00             	rex.X adc (%rax),%al
  403c8b:	00 00                	add    %al,(%rax)
  403c8d:	00 00                	add    %al,(%rax)
  403c8f:	00 42 12             	add    %al,0x12(%rdx)
  403c92:	00 00                	add    %al,(%rax)
  403c94:	00 00                	add    %al,(%rax)
  403c96:	00 00                	add    %al,(%rax)
  403c98:	42 12 00             	rex.X adc (%rax),%al
  403c9b:	00 00                	add    %al,(%rax)
  403c9d:	00 00                	add    %al,(%rax)
  403c9f:	00 42 12             	add    %al,0x12(%rdx)
  403ca2:	00 00                	add    %al,(%rax)
  403ca4:	00 00                	add    %al,(%rax)
  403ca6:	00 00                	add    %al,(%rax)
  403ca8:	42 12 00             	rex.X adc (%rax),%al
  403cab:	00 00                	add    %al,(%rax)
  403cad:	00 00                	add    %al,(%rax)
  403caf:	00 42 12             	add    %al,0x12(%rdx)
  403cb2:	00 00                	add    %al,(%rax)
  403cb4:	00 00                	add    %al,(%rax)
  403cb6:	00 00                	add    %al,(%rax)
  403cb8:	42 12 00             	rex.X adc (%rax),%al
  403cbb:	00 00                	add    %al,(%rax)
  403cbd:	00 00                	add    %al,(%rax)
  403cbf:	00 42 12             	add    %al,0x12(%rdx)
  403cc2:	00 00                	add    %al,(%rax)
  403cc4:	00 00                	add    %al,(%rax)
  403cc6:	00 00                	add    %al,(%rax)
  403cc8:	42 12 00             	rex.X adc (%rax),%al
  403ccb:	00 00                	add    %al,(%rax)
  403ccd:	00 00                	add    %al,(%rax)
  403ccf:	00 42 12             	add    %al,0x12(%rdx)
  403cd2:	00 00                	add    %al,(%rax)
  403cd4:	00 00                	add    %al,(%rax)
  403cd6:	00 00                	add    %al,(%rax)
  403cd8:	42 12 00             	rex.X adc (%rax),%al
  403cdb:	00 00                	add    %al,(%rax)
  403cdd:	00 00                	add    %al,(%rax)
  403cdf:	00 42 12             	add    %al,0x12(%rdx)
  403ce2:	00 00                	add    %al,(%rax)
  403ce4:	00 00                	add    %al,(%rax)
  403ce6:	00 00                	add    %al,(%rax)
  403ce8:	42 12 00             	rex.X adc (%rax),%al
  403ceb:	00 00                	add    %al,(%rax)
  403ced:	00 00                	add    %al,(%rax)
  403cef:	00 42 12             	add    %al,0x12(%rdx)
  403cf2:	00 00                	add    %al,(%rax)
  403cf4:	00 00                	add    %al,(%rax)
  403cf6:	00 00                	add    %al,(%rax)
  403cf8:	42 12 00             	rex.X adc (%rax),%al
  403cfb:	00 00                	add    %al,(%rax)
  403cfd:	00 00                	add    %al,(%rax)
  403cff:	00 42 12             	add    %al,0x12(%rdx)
  403d02:	00 00                	add    %al,(%rax)
  403d04:	00 00                	add    %al,(%rax)
  403d06:	00 00                	add    %al,(%rax)
  403d08:	42 12 00             	rex.X adc (%rax),%al
  403d0b:	00 00                	add    %al,(%rax)
  403d0d:	00 00                	add    %al,(%rax)
  403d0f:	00 42 12             	add    %al,0x12(%rdx)
  403d12:	00 00                	add    %al,(%rax)
  403d14:	00 00                	add    %al,(%rax)
  403d16:	00 00                	add    %al,(%rax)
  403d18:	42 12 00             	rex.X adc (%rax),%al
  403d1b:	00 00                	add    %al,(%rax)
  403d1d:	00 00                	add    %al,(%rax)
  403d1f:	00 42 12             	add    %al,0x12(%rdx)
  403d22:	00 00                	add    %al,(%rax)
  403d24:	00 00                	add    %al,(%rax)
  403d26:	00 00                	add    %al,(%rax)
  403d28:	42 12 00             	rex.X adc (%rax),%al
  403d2b:	00 00                	add    %al,(%rax)
  403d2d:	00 00                	add    %al,(%rax)
  403d2f:	00 42 12             	add    %al,0x12(%rdx)
  403d32:	00 00                	add    %al,(%rax)
  403d34:	00 00                	add    %al,(%rax)
  403d36:	00 00                	add    %al,(%rax)
  403d38:	42 12 00             	rex.X adc (%rax),%al
  403d3b:	00 00                	add    %al,(%rax)
  403d3d:	00 00                	add    %al,(%rax)
  403d3f:	00 42 12             	add    %al,0x12(%rdx)
  403d42:	00 00                	add    %al,(%rax)
  403d44:	00 00                	add    %al,(%rax)
  403d46:	00 00                	add    %al,(%rax)
  403d48:	42 12 00             	rex.X adc (%rax),%al
  403d4b:	00 00                	add    %al,(%rax)
  403d4d:	00 00                	add    %al,(%rax)
  403d4f:	00 42 12             	add    %al,0x12(%rdx)
  403d52:	00 00                	add    %al,(%rax)
  403d54:	00 00                	add    %al,(%rax)
  403d56:	00 00                	add    %al,(%rax)
  403d58:	42 12 00             	rex.X adc (%rax),%al
  403d5b:	00 00                	add    %al,(%rax)
  403d5d:	00 00                	add    %al,(%rax)
  403d5f:	00 42 12             	add    %al,0x12(%rdx)
  403d62:	00 00                	add    %al,(%rax)
  403d64:	00 00                	add    %al,(%rax)
  403d66:	00 00                	add    %al,(%rax)
  403d68:	42 12 00             	rex.X adc (%rax),%al
  403d6b:	00 00                	add    %al,(%rax)
  403d6d:	00 00                	add    %al,(%rax)
  403d6f:	00 42 12             	add    %al,0x12(%rdx)
  403d72:	00 00                	add    %al,(%rax)
  403d74:	00 00                	add    %al,(%rax)
  403d76:	00 00                	add    %al,(%rax)
  403d78:	42 12 00             	rex.X adc (%rax),%al
  403d7b:	00 00                	add    %al,(%rax)
  403d7d:	00 00                	add    %al,(%rax)
  403d7f:	00 c3                	add    %al,%bl
  403d81:	0f 1f 00             	nopl   (%rax)
  403d84:	66 2e 0f 1f 84 00 00 	cs nopw 0x0(%rax,%rax,1)
  403d8b:	00 00 00 
  403d8e:	66 90                	xchg   %ax,%ax

0000000000403d90 <__intel_avx_rep_memset>:
  403d90:	f3 0f 1e fa          	endbr64
  403d94:	49 89 f8             	mov    %rdi,%r8
  403d97:	49 c7 c2 48 c2 40 00 	mov    $0x40c248,%r10
  403d9e:	49 89 fb             	mov    %rdi,%r11
  403da1:	48 b8 01 01 01 01 01 	movabs $0x101010101010101,%rax
  403da8:	01 01 01 
  403dab:	4c 0f b6 ce          	movzbq %sil,%r9
  403daf:	4c 0f af c8          	imul   %rax,%r9
  403db3:	48 8d 35 86 0c 00 00 	lea    0xc86(%rip),%rsi        # 404a40 <__intel_avx_rep_memset+0xcb0>
  403dba:	c4 c1 f9 6e c1       	vmovq  %r9,%xmm0
  403dbf:	48 81 fa 80 00 00 00 	cmp    $0x80,%rdx
  403dc6:	77 18                	ja     403de0 <__intel_avx_rep_memset+0x50>
  403dc8:	4c 89 df             	mov    %r11,%rdi
  403dcb:	48 01 d7             	add    %rdx,%rdi
  403dce:	48 2b 34 d6          	sub    (%rsi,%rdx,8),%rsi
  403dd2:	3e ff e6             	notrack jmp *%rsi
  403dd5:	66 66 2e 0f 1f 84 00 	data16 cs nopw 0x0(%rax,%rax,1)
  403ddc:	00 00 00 00 
  403de0:	48 8d 35 59 03 00 00 	lea    0x359(%rip),%rsi        # 404140 <__intel_avx_rep_memset+0x3b0>
  403de7:	4c 89 d9             	mov    %r11,%rcx
  403dea:	48 83 e1 1f          	and    $0x1f,%rcx
  403dee:	74 23                	je     403e13 <__intel_avx_rep_memset+0x83>
  403df0:	48 f7 d9             	neg    %rcx
  403df3:	48 83 c1 20          	add    $0x20,%rcx
  403df7:	48 29 ca             	sub    %rcx,%rdx
  403dfa:	4c 89 df             	mov    %r11,%rdi
  403dfd:	48 01 cf             	add    %rcx,%rdi
  403e00:	48 2b 34 ce          	sub    (%rsi,%rcx,8),%rsi
  403e04:	3e ff e6             	notrack jmp *%rsi
  403e07:	66 0f 1f 84 00 00 00 	nopw   0x0(%rax,%rax,1)
  403e0e:	00 00 
  403e10:	49 01 cb             	add    %rcx,%r11
  403e13:	48 81 fa 00 01 00 00 	cmp    $0x100,%rdx
  403e1a:	0f 8c 30 01 00 00    	jl     403f50 <__intel_avx_rep_memset+0x1c0>
  403e20:	49 8b 0a             	mov    (%r10),%rcx
  403e23:	48 89 cf             	mov    %rcx,%rdi
  403e26:	48 c1 e9 04          	shr    $0x4,%rcx
  403e2a:	48 29 cf             	sub    %rcx,%rdi
  403e2d:	48 39 fa             	cmp    %rdi,%rdx
  403e30:	73 5e                	jae    403e90 <__intel_avx_rep_memset+0x100>
  403e32:	c4 e2 7d 58 c0       	vpbroadcastd %xmm0,%ymm0
  403e37:	c4 c1 7d 7f 03       	vmovdqa %ymm0,(%r11)
  403e3c:	c4 c1 7d 7f 43 20    	vmovdqa %ymm0,0x20(%r11)
  403e42:	c4 c1 7d 7f 43 40    	vmovdqa %ymm0,0x40(%r11)
  403e48:	c4 c1 7d 7f 43 60    	vmovdqa %ymm0,0x60(%r11)
  403e4e:	49 81 c3 00 01 00 00 	add    $0x100,%r11
  403e55:	48 81 ea 00 01 00 00 	sub    $0x100,%rdx
  403e5c:	c4 c1 7d 7f 43 80    	vmovdqa %ymm0,-0x80(%r11)
  403e62:	c4 c1 7d 7f 43 a0    	vmovdqa %ymm0,-0x60(%r11)
  403e68:	c4 c1 7d 7f 43 c0    	vmovdqa %ymm0,-0x40(%r11)
  403e6e:	c4 c1 7d 7f 43 e0    	vmovdqa %ymm0,-0x20(%r11)
  403e74:	48 81 fa 00 01 00 00 	cmp    $0x100,%rdx
  403e7b:	7d ba                	jge    403e37 <__intel_avx_rep_memset+0xa7>
  403e7d:	e9 de 00 00 00       	jmp    403f60 <__intel_avx_rep_memset+0x1d0>
  403e82:	66 66 66 66 66 2e 0f 	data16 data16 data16 data16 cs nopw 0x0(%rax,%rax,1)
  403e89:	1f 84 00 00 00 00 00 
  403e90:	4c 89 df             	mov    %r11,%rdi
  403e93:	4c 89 c8             	mov    %r9,%rax
  403e96:	48 89 d1             	mov    %rdx,%rcx
  403e99:	fc                   	cld
  403e9a:	f3 aa                	rep stos %al,%es:(%rdi)
  403e9c:	e9 af 0f 00 00       	jmp    404e50 <__intel_avx_rep_memset+0x10c0>
  403ea1:	66 66 66 66 66 66 2e 	data16 data16 data16 data16 data16 cs nopw 0x0(%rax,%rax,1)
  403ea8:	0f 1f 84 00 00 00 00 
  403eaf:	00 
  403eb0:	45 88 0b             	mov    %r9b,(%r11)
  403eb3:	e9 58 ff ff ff       	jmp    403e10 <__intel_avx_rep_memset+0x80>
  403eb8:	0f 1f 84 00 00 00 00 	nopl   0x0(%rax,%rax,1)
  403ebf:	00 
  403ec0:	66 45 89 0b          	mov    %r9w,(%r11)
  403ec4:	e9 47 ff ff ff       	jmp    403e10 <__intel_avx_rep_memset+0x80>
  403ec9:	0f 1f 80 00 00 00 00 	nopl   0x0(%rax)
  403ed0:	66 45 89 0b          	mov    %r9w,(%r11)
  403ed4:	45 88 4b 02          	mov    %r9b,0x2(%r11)
  403ed8:	e9 33 ff ff ff       	jmp    403e10 <__intel_avx_rep_memset+0x80>
  403edd:	0f 1f 00             	nopl   (%rax)
  403ee0:	45 89 0b             	mov    %r9d,(%r11)
  403ee3:	e9 28 ff ff ff       	jmp    403e10 <__intel_avx_rep_memset+0x80>
  403ee8:	0f 1f 84 00 00 00 00 	nopl   0x0(%rax,%rax,1)
  403eef:	00 
  403ef0:	45 89 0b             	mov    %r9d,(%r11)
  403ef3:	44 89 4f fc          	mov    %r9d,-0x4(%rdi)
  403ef7:	e9 14 ff ff ff       	jmp    403e10 <__intel_avx_rep_memset+0x80>
  403efc:	0f 1f 40 00          	nopl   0x0(%rax)
  403f00:	4d 89 0b             	mov    %r9,(%r11)
  403f03:	e9 08 ff ff ff       	jmp    403e10 <__intel_avx_rep_memset+0x80>
  403f08:	0f 1f 84 00 00 00 00 	nopl   0x0(%rax,%rax,1)
  403f0f:	00 
  403f10:	4d 89 0b             	mov    %r9,(%r11)
  403f13:	4c 89 4f f8          	mov    %r9,-0x8(%rdi)
  403f17:	e9 f4 fe ff ff       	jmp    403e10 <__intel_avx_rep_memset+0x80>
  403f1c:	0f 1f 40 00          	nopl   0x0(%rax)
  403f20:	4d 89 0b             	mov    %r9,(%r11)
  403f23:	4d 89 4b 08          	mov    %r9,0x8(%r11)
  403f27:	e9 e4 fe ff ff       	jmp    403e10 <__intel_avx_rep_memset+0x80>
  403f2c:	0f 1f 40 00          	nopl   0x0(%rax)
  403f30:	4d 89 0b             	mov    %r9,(%r11)
  403f33:	4d 89 4b 08          	mov    %r9,0x8(%r11)
  403f37:	4c 89 4f f0          	mov    %r9,-0x10(%rdi)
  403f3b:	4c 89 4f f8          	mov    %r9,-0x8(%rdi)
  403f3f:	e9 cc fe ff ff       	jmp    403e10 <__intel_avx_rep_memset+0x80>
  403f44:	66 66 66 2e 0f 1f 84 	data16 data16 cs nopw 0x0(%rax,%rax,1)
  403f4b:	00 00 00 00 00 
  403f50:	c4 e2 7d 58 c0       	vpbroadcastd %xmm0,%ymm0
  403f55:	66 66 2e 0f 1f 84 00 	data16 cs nopw 0x0(%rax,%rax,1)
  403f5c:	00 00 00 00 
  403f60:	49 01 d3             	add    %rdx,%r11
  403f63:	4c 89 df             	mov    %r11,%rdi
  403f66:	49 83 e3 e0          	and    $0xffffffffffffffe0,%r11
  403f6a:	48 8d 35 cf 02 00 00 	lea    0x2cf(%rip),%rsi        # 404240 <__intel_avx_rep_memset+0x4b0>
  403f71:	48 2b 34 d6          	sub    (%rsi,%rdx,8),%rsi
  403f75:	3e ff e6             	notrack jmp *%rsi
  403f78:	0f 1f 84 00 00 00 00 	nopl   0x0(%rax,%rax,1)
  403f7f:	00 
  403f80:	c4 c1 7c 29 83 20 ff 	vmovaps %ymm0,-0xe0(%r11)
  403f87:	ff ff 
  403f89:	c4 c1 7c 29 83 40 ff 	vmovaps %ymm0,-0xc0(%r11)
  403f90:	ff ff 
  403f92:	c4 c1 7c 29 83 60 ff 	vmovaps %ymm0,-0xa0(%r11)
  403f99:	ff ff 
  403f9b:	0f 1f 44 00 00       	nopl   0x0(%rax,%rax,1)
  403fa0:	c4 c1 7c 29 43 80    	vmovaps %ymm0,-0x80(%r11)
  403fa6:	c4 c1 7c 29 43 a0    	vmovaps %ymm0,-0x60(%r11)
  403fac:	c4 c1 7c 29 43 c0    	vmovaps %ymm0,-0x40(%r11)
  403fb2:	c4 c1 7c 29 43 e0    	vmovaps %ymm0,-0x20(%r11)
  403fb8:	48 89 fa             	mov    %rdi,%rdx
  403fbb:	48 83 e2 1f          	and    $0x1f,%rdx
  403fbf:	48 8d 35 7a 02 00 00 	lea    0x27a(%rip),%rsi        # 404240 <__intel_avx_rep_memset+0x4b0>
  403fc6:	48 2b 34 d6          	sub    (%rsi,%rdx,8),%rsi
  403fca:	3e ff e6             	notrack jmp *%rsi
  403fcd:	0f 1f 00             	nopl   (%rax)
  403fd0:	45 88 0b             	mov    %r9b,(%r11)
  403fd3:	e9 78 0e 00 00       	jmp    404e50 <__intel_avx_rep_memset+0x10c0>
  403fd8:	0f 1f 84 00 00 00 00 	nopl   0x0(%rax,%rax,1)
  403fdf:	00 
  403fe0:	e9 6b 0e 00 00       	jmp    404e50 <__intel_avx_rep_memset+0x10c0>
  403fe5:	66 66 2e 0f 1f 84 00 	data16 cs nopw 0x0(%rax,%rax,1)
  403fec:	00 00 00 00 
  403ff0:	66 45 89 0b          	mov    %r9w,(%r11)
  403ff4:	e9 57 0e 00 00       	jmp    404e50 <__intel_avx_rep_memset+0x10c0>
  403ff9:	0f 1f 80 00 00 00 00 	nopl   0x0(%rax)
  404000:	66 45 89 0b          	mov    %r9w,(%r11)
  404004:	45 88 4b 02          	mov    %r9b,0x2(%r11)
  404008:	e9 43 0e 00 00       	jmp    404e50 <__intel_avx_rep_memset+0x10c0>
  40400d:	0f 1f 00             	nopl   (%rax)
  404010:	45 89 0b             	mov    %r9d,(%r11)
  404013:	e9 38 0e 00 00       	jmp    404e50 <__intel_avx_rep_memset+0x10c0>
  404018:	0f 1f 84 00 00 00 00 	nopl   0x0(%rax,%rax,1)
  40401f:	00 
  404020:	45 89 0b             	mov    %r9d,(%r11)
  404023:	44 89 4f fc          	mov    %r9d,-0x4(%rdi)
  404027:	e9 24 0e 00 00       	jmp    404e50 <__intel_avx_rep_memset+0x10c0>
  40402c:	0f 1f 40 00          	nopl   0x0(%rax)
  404030:	4d 89 0b             	mov    %r9,(%r11)
  404033:	e9 18 0e 00 00       	jmp    404e50 <__intel_avx_rep_memset+0x10c0>
  404038:	0f 1f 84 00 00 00 00 	nopl   0x0(%rax,%rax,1)
  40403f:	00 
  404040:	4d 89 0b             	mov    %r9,(%r11)
  404043:	4c 89 4f f8          	mov    %r9,-0x8(%rdi)
  404047:	e9 04 0e 00 00       	jmp    404e50 <__intel_avx_rep_memset+0x10c0>
  40404c:	0f 1f 40 00          	nopl   0x0(%rax)
  404050:	c4 c1 78 11 03       	vmovups %xmm0,(%r11)
  404055:	e9 f6 0d 00 00       	jmp    404e50 <__intel_avx_rep_memset+0x10c0>
  40405a:	66 0f 1f 44 00 00    	nopw   0x0(%rax,%rax,1)
  404060:	c4 c1 78 11 03       	vmovups %xmm0,(%r11)
  404065:	c5 f8 11 47 f0       	vmovups %xmm0,-0x10(%rdi)
  40406a:	e9 e1 0d 00 00       	jmp    404e50 <__intel_avx_rep_memset+0x10c0>
  40406f:	90                   	nop
  404070:	c4 e2 7d 58 c0       	vpbroadcastd %xmm0,%ymm0
  404075:	c4 c1 7c 11 03       	vmovups %ymm0,(%r11)
  40407a:	e9 d1 0d 00 00       	jmp    404e50 <__intel_avx_rep_memset+0x10c0>
  40407f:	90                   	nop
  404080:	c4 e2 7d 58 c0       	vpbroadcastd %xmm0,%ymm0
  404085:	c4 c1 7c 11 03       	vmovups %ymm0,(%r11)
  40408a:	c5 fc 11 47 e0       	vmovups %ymm0,-0x20(%rdi)
  40408f:	e9 bc 0d 00 00       	jmp    404e50 <__intel_avx_rep_memset+0x10c0>
  404094:	66 66 66 2e 0f 1f 84 	data16 data16 cs nopw 0x0(%rax,%rax,1)
  40409b:	00 00 00 00 00 
  4040a0:	c4 e2 7d 58 c0       	vpbroadcastd %xmm0,%ymm0
  4040a5:	c4 c1 7c 11 03       	vmovups %ymm0,(%r11)
  4040aa:	c4 c1 7c 11 43 20    	vmovups %ymm0,0x20(%r11)
  4040b0:	e9 9b 0d 00 00       	jmp    404e50 <__intel_avx_rep_memset+0x10c0>
  4040b5:	66 66 2e 0f 1f 84 00 	data16 cs nopw 0x0(%rax,%rax,1)
  4040bc:	00 00 00 00 
  4040c0:	c4 e2 7d 58 c0       	vpbroadcastd %xmm0,%ymm0
  4040c5:	c4 c1 7c 11 03       	vmovups %ymm0,(%r11)
  4040ca:	c4 c1 7c 11 43 20    	vmovups %ymm0,0x20(%r11)
  4040d0:	c5 fc 11 47 e0       	vmovups %ymm0,-0x20(%rdi)
  4040d5:	c5 fc 11 47 c0       	vmovups %ymm0,-0x40(%rdi)
  4040da:	e9 71 0d 00 00       	jmp    404e50 <__intel_avx_rep_memset+0x10c0>
  4040df:	90                   	nop
  4040e0:	c4 e2 7d 58 c0       	vpbroadcastd %xmm0,%ymm0
  4040e5:	c4 c1 7c 11 03       	vmovups %ymm0,(%r11)
  4040ea:	c4 c1 7c 11 43 20    	vmovups %ymm0,0x20(%r11)
  4040f0:	c4 c1 7c 11 43 40    	vmovups %ymm0,0x40(%r11)
  4040f6:	c4 c1 7c 11 43 60    	vmovups %ymm0,0x60(%r11)
  4040fc:	e9 4f 0d 00 00       	jmp    404e50 <__intel_avx_rep_memset+0x10c0>
  404101:	66 66 66 66 66 66 2e 	data16 data16 data16 data16 data16 cs nopw 0x0(%rax,%rax,1)
  404108:	0f 1f 84 00 00 00 00 
  40410f:	00 
  404110:	66 0f 6c c0          	punpcklqdq %xmm0,%xmm0
  404114:	c4 c1 78 11 03       	vmovups %xmm0,(%r11)
  404119:	e9 32 0d 00 00       	jmp    404e50 <__intel_avx_rep_memset+0x10c0>
  40411e:	66 90                	xchg   %ax,%ax
  404120:	66 0f 6c c0          	punpcklqdq %xmm0,%xmm0
  404124:	c4 c1 78 11 03       	vmovups %xmm0,(%r11)
  404129:	c5 f8 11 47 f0       	vmovups %xmm0,-0x10(%rdi)
  40412e:	e9 1d 0d 00 00       	jmp    404e50 <__intel_avx_rep_memset+0x10c0>
  404133:	66 66 66 66 2e 0f 1f 	data16 data16 data16 cs nopw 0x0(%rax,%rax,1)
  40413a:	84 00 00 00 00 00 
  404140:	8d 02                	lea    (%rdx),%eax
  404142:	00 00                	add    %al,(%rax)
  404144:	00 00                	add    %al,(%rax)
  404146:	00 00                	add    %al,(%rax)
  404148:	90                   	nop
  404149:	02 00                	add    (%rax),%al
  40414b:	00 00                	add    %al,(%rax)
  40414d:	00 00                	add    %al,(%rax)
  40414f:	00 80 02 00 00 00    	add    %al,0x2(%rax)
  404155:	00 00                	add    %al,(%rax)
  404157:	00 70 02             	add    %dh,0x2(%rax)
  40415a:	00 00                	add    %al,(%rax)
  40415c:	00 00                	add    %al,(%rax)
  40415e:	00 00                	add    %al,(%rax)
  404160:	60                   	(bad)
  404161:	02 00                	add    (%rax),%al
  404163:	00 00                	add    %al,(%rax)
  404165:	00 00                	add    %al,(%rax)
  404167:	00 50 02             	add    %dl,0x2(%rax)
  40416a:	00 00                	add    %al,(%rax)
  40416c:	00 00                	add    %al,(%rax)
  40416e:	00 00                	add    %al,(%rax)
  404170:	50                   	push   %rax
  404171:	02 00                	add    (%rax),%al
  404173:	00 00                	add    %al,(%rax)
  404175:	00 00                	add    %al,(%rax)
  404177:	00 50 02             	add    %dl,0x2(%rax)
  40417a:	00 00                	add    %al,(%rax)
  40417c:	00 00                	add    %al,(%rax)
  40417e:	00 00                	add    %al,(%rax)
  404180:	40 02 00             	rex add (%rax),%al
  404183:	00 00                	add    %al,(%rax)
  404185:	00 00                	add    %al,(%rax)
  404187:	00 30                	add    %dh,(%rax)
  404189:	02 00                	add    (%rax),%al
  40418b:	00 00                	add    %al,(%rax)
  40418d:	00 00                	add    %al,(%rax)
  40418f:	00 30                	add    %dh,(%rax)
  404191:	02 00                	add    (%rax),%al
  404193:	00 00                	add    %al,(%rax)
  404195:	00 00                	add    %al,(%rax)
  404197:	00 30                	add    %dh,(%rax)
  404199:	02 00                	add    (%rax),%al
  40419b:	00 00                	add    %al,(%rax)
  40419d:	00 00                	add    %al,(%rax)
  40419f:	00 30                	add    %dh,(%rax)
  4041a1:	02 00                	add    (%rax),%al
  4041a3:	00 00                	add    %al,(%rax)
  4041a5:	00 00                	add    %al,(%rax)
  4041a7:	00 30                	add    %dh,(%rax)
  4041a9:	02 00                	add    (%rax),%al
  4041ab:	00 00                	add    %al,(%rax)
  4041ad:	00 00                	add    %al,(%rax)
  4041af:	00 30                	add    %dh,(%rax)
  4041b1:	02 00                	add    (%rax),%al
  4041b3:	00 00                	add    %al,(%rax)
  4041b5:	00 00                	add    %al,(%rax)
  4041b7:	00 30                	add    %dh,(%rax)
  4041b9:	02 00                	add    (%rax),%al
  4041bb:	00 00                	add    %al,(%rax)
  4041bd:	00 00                	add    %al,(%rax)
  4041bf:	00 20                	add    %ah,(%rax)
  4041c1:	02 00                	add    (%rax),%al
  4041c3:	00 00                	add    %al,(%rax)
  4041c5:	00 00                	add    %al,(%rax)
  4041c7:	00 10                	add    %dl,(%rax)
  4041c9:	02 00                	add    (%rax),%al
  4041cb:	00 00                	add    %al,(%rax)
  4041cd:	00 00                	add    %al,(%rax)
  4041cf:	00 10                	add    %dl,(%rax)
  4041d1:	02 00                	add    (%rax),%al
  4041d3:	00 00                	add    %al,(%rax)
  4041d5:	00 00                	add    %al,(%rax)
  4041d7:	00 10                	add    %dl,(%rax)
  4041d9:	02 00                	add    (%rax),%al
  4041db:	00 00                	add    %al,(%rax)
  4041dd:	00 00                	add    %al,(%rax)
  4041df:	00 10                	add    %dl,(%rax)
  4041e1:	02 00                	add    (%rax),%al
  4041e3:	00 00                	add    %al,(%rax)
  4041e5:	00 00                	add    %al,(%rax)
  4041e7:	00 10                	add    %dl,(%rax)
  4041e9:	02 00                	add    (%rax),%al
  4041eb:	00 00                	add    %al,(%rax)
  4041ed:	00 00                	add    %al,(%rax)
  4041ef:	00 10                	add    %dl,(%rax)
  4041f1:	02 00                	add    (%rax),%al
  4041f3:	00 00                	add    %al,(%rax)
  4041f5:	00 00                	add    %al,(%rax)
  4041f7:	00 10                	add    %dl,(%rax)
  4041f9:	02 00                	add    (%rax),%al
  4041fb:	00 00                	add    %al,(%rax)
  4041fd:	00 00                	add    %al,(%rax)
  4041ff:	00 10                	add    %dl,(%rax)
  404201:	02 00                	add    (%rax),%al
  404203:	00 00                	add    %al,(%rax)
  404205:	00 00                	add    %al,(%rax)
  404207:	00 10                	add    %dl,(%rax)
  404209:	02 00                	add    (%rax),%al
  40420b:	00 00                	add    %al,(%rax)
  40420d:	00 00                	add    %al,(%rax)
  40420f:	00 10                	add    %dl,(%rax)
  404211:	02 00                	add    (%rax),%al
  404213:	00 00                	add    %al,(%rax)
  404215:	00 00                	add    %al,(%rax)
  404217:	00 10                	add    %dl,(%rax)
  404219:	02 00                	add    (%rax),%al
  40421b:	00 00                	add    %al,(%rax)
  40421d:	00 00                	add    %al,(%rax)
  40421f:	00 10                	add    %dl,(%rax)
  404221:	02 00                	add    (%rax),%al
  404223:	00 00                	add    %al,(%rax)
  404225:	00 00                	add    %al,(%rax)
  404227:	00 10                	add    %dl,(%rax)
  404229:	02 00                	add    (%rax),%al
  40422b:	00 00                	add    %al,(%rax)
  40422d:	00 00                	add    %al,(%rax)
  40422f:	00 10                	add    %dl,(%rax)
  404231:	02 00                	add    (%rax),%al
  404233:	00 00                	add    %al,(%rax)
  404235:	00 00                	add    %al,(%rax)
  404237:	00 10                	add    %dl,(%rax)
  404239:	02 00                	add    (%rax),%al
  40423b:	00 00                	add    %al,(%rax)
  40423d:	00 00                	add    %al,(%rax)
  40423f:	00 60 02             	add    %ah,0x2(%rax)
  404242:	00 00                	add    %al,(%rax)
  404244:	00 00                	add    %al,(%rax)
  404246:	00 00                	add    %al,(%rax)
  404248:	70 02                	jo     40424c <__intel_avx_rep_memset+0x4bc>
  40424a:	00 00                	add    %al,(%rax)
  40424c:	00 00                	add    %al,(%rax)
  40424e:	00 00                	add    %al,(%rax)
  404250:	50                   	push   %rax
  404251:	02 00                	add    (%rax),%al
  404253:	00 00                	add    %al,(%rax)
  404255:	00 00                	add    %al,(%rax)
  404257:	00 40 02             	add    %al,0x2(%rax)
  40425a:	00 00                	add    %al,(%rax)
  40425c:	00 00                	add    %al,(%rax)
  40425e:	00 00                	add    %al,(%rax)
  404260:	30 02                	xor    %al,(%rdx)
  404262:	00 00                	add    %al,(%rax)
  404264:	00 00                	add    %al,(%rax)
  404266:	00 00                	add    %al,(%rax)
  404268:	20 02                	and    %al,(%rdx)
  40426a:	00 00                	add    %al,(%rax)
  40426c:	00 00                	add    %al,(%rax)
  40426e:	00 00                	add    %al,(%rax)
  404270:	20 02                	and    %al,(%rdx)
  404272:	00 00                	add    %al,(%rax)
  404274:	00 00                	add    %al,(%rax)
  404276:	00 00                	add    %al,(%rax)
  404278:	20 02                	and    %al,(%rdx)
  40427a:	00 00                	add    %al,(%rax)
  40427c:	00 00                	add    %al,(%rax)
  40427e:	00 00                	add    %al,(%rax)
  404280:	10 02                	adc    %al,(%rdx)
  404282:	00 00                	add    %al,(%rax)
  404284:	00 00                	add    %al,(%rax)
  404286:	00 00                	add    %al,(%rax)
  404288:	00 02                	add    %al,(%rdx)
  40428a:	00 00                	add    %al,(%rax)
  40428c:	00 00                	add    %al,(%rax)
  40428e:	00 00                	add    %al,(%rax)
  404290:	00 02                	add    %al,(%rdx)
  404292:	00 00                	add    %al,(%rax)
  404294:	00 00                	add    %al,(%rax)
  404296:	00 00                	add    %al,(%rax)
  404298:	00 02                	add    %al,(%rdx)
  40429a:	00 00                	add    %al,(%rax)
  40429c:	00 00                	add    %al,(%rax)
  40429e:	00 00                	add    %al,(%rax)
  4042a0:	00 02                	add    %al,(%rdx)
  4042a2:	00 00                	add    %al,(%rax)
  4042a4:	00 00                	add    %al,(%rax)
  4042a6:	00 00                	add    %al,(%rax)
  4042a8:	00 02                	add    %al,(%rdx)
  4042aa:	00 00                	add    %al,(%rax)
  4042ac:	00 00                	add    %al,(%rax)
  4042ae:	00 00                	add    %al,(%rax)
  4042b0:	00 02                	add    %al,(%rdx)
  4042b2:	00 00                	add    %al,(%rax)
  4042b4:	00 00                	add    %al,(%rax)
  4042b6:	00 00                	add    %al,(%rax)
  4042b8:	00 02                	add    %al,(%rdx)
  4042ba:	00 00                	add    %al,(%rax)
  4042bc:	00 00                	add    %al,(%rax)
  4042be:	00 00                	add    %al,(%rax)
  4042c0:	f0 01 00             	lock add %eax,(%rax)
  4042c3:	00 00                	add    %al,(%rax)
  4042c5:	00 00                	add    %al,(%rax)
  4042c7:	00 e0                	add    %ah,%al
  4042c9:	01 00                	add    %eax,(%rax)
  4042cb:	00 00                	add    %al,(%rax)
  4042cd:	00 00                	add    %al,(%rax)
  4042cf:	00 e0                	add    %ah,%al
  4042d1:	01 00                	add    %eax,(%rax)
  4042d3:	00 00                	add    %al,(%rax)
  4042d5:	00 00                	add    %al,(%rax)
  4042d7:	00 e0                	add    %ah,%al
  4042d9:	01 00                	add    %eax,(%rax)
  4042db:	00 00                	add    %al,(%rax)
  4042dd:	00 00                	add    %al,(%rax)
  4042df:	00 e0                	add    %ah,%al
  4042e1:	01 00                	add    %eax,(%rax)
  4042e3:	00 00                	add    %al,(%rax)
  4042e5:	00 00                	add    %al,(%rax)
  4042e7:	00 e0                	add    %ah,%al
  4042e9:	01 00                	add    %eax,(%rax)
  4042eb:	00 00                	add    %al,(%rax)
  4042ed:	00 00                	add    %al,(%rax)
  4042ef:	00 e0                	add    %ah,%al
  4042f1:	01 00                	add    %eax,(%rax)
  4042f3:	00 00                	add    %al,(%rax)
  4042f5:	00 00                	add    %al,(%rax)
  4042f7:	00 e0                	add    %ah,%al
  4042f9:	01 00                	add    %eax,(%rax)
  4042fb:	00 00                	add    %al,(%rax)
  4042fd:	00 00                	add    %al,(%rax)
  4042ff:	00 e0                	add    %ah,%al
  404301:	01 00                	add    %eax,(%rax)
  404303:	00 00                	add    %al,(%rax)
  404305:	00 00                	add    %al,(%rax)
  404307:	00 e0                	add    %ah,%al
  404309:	01 00                	add    %eax,(%rax)
  40430b:	00 00                	add    %al,(%rax)
  40430d:	00 00                	add    %al,(%rax)
  40430f:	00 e0                	add    %ah,%al
  404311:	01 00                	add    %eax,(%rax)
  404313:	00 00                	add    %al,(%rax)
  404315:	00 00                	add    %al,(%rax)
  404317:	00 e0                	add    %ah,%al
  404319:	01 00                	add    %eax,(%rax)
  40431b:	00 00                	add    %al,(%rax)
  40431d:	00 00                	add    %al,(%rax)
  40431f:	00 e0                	add    %ah,%al
  404321:	01 00                	add    %eax,(%rax)
  404323:	00 00                	add    %al,(%rax)
  404325:	00 00                	add    %al,(%rax)
  404327:	00 e0                	add    %ah,%al
  404329:	01 00                	add    %eax,(%rax)
  40432b:	00 00                	add    %al,(%rax)
  40432d:	00 00                	add    %al,(%rax)
  40432f:	00 e0                	add    %ah,%al
  404331:	01 00                	add    %eax,(%rax)
  404333:	00 00                	add    %al,(%rax)
  404335:	00 00                	add    %al,(%rax)
  404337:	00 e0                	add    %ah,%al
  404339:	01 00                	add    %eax,(%rax)
  40433b:	00 00                	add    %al,(%rax)
  40433d:	00 00                	add    %al,(%rax)
  40433f:	00 8e 02 00 00 00    	add    %cl,0x2(%rsi)
  404345:	00 00                	add    %al,(%rax)
  404347:	00 8e 02 00 00 00    	add    %cl,0x2(%rsi)
  40434d:	00 00                	add    %al,(%rax)
  40434f:	00 8e 02 00 00 00    	add    %cl,0x2(%rsi)
  404355:	00 00                	add    %al,(%rax)
  404357:	00 8e 02 00 00 00    	add    %cl,0x2(%rsi)
  40435d:	00 00                	add    %al,(%rax)
  40435f:	00 8e 02 00 00 00    	add    %cl,0x2(%rsi)
  404365:	00 00                	add    %al,(%rax)
  404367:	00 8e 02 00 00 00    	add    %cl,0x2(%rsi)
  40436d:	00 00                	add    %al,(%rax)
  40436f:	00 8e 02 00 00 00    	add    %cl,0x2(%rsi)
  404375:	00 00                	add    %al,(%rax)
  404377:	00 8e 02 00 00 00    	add    %cl,0x2(%rsi)
  40437d:	00 00                	add    %al,(%rax)
  40437f:	00 8e 02 00 00 00    	add    %cl,0x2(%rsi)
  404385:	00 00                	add    %al,(%rax)
  404387:	00 8e 02 00 00 00    	add    %cl,0x2(%rsi)
  40438d:	00 00                	add    %al,(%rax)
  40438f:	00 8e 02 00 00 00    	add    %cl,0x2(%rsi)
  404395:	00 00                	add    %al,(%rax)
  404397:	00 8e 02 00 00 00    	add    %cl,0x2(%rsi)
  40439d:	00 00                	add    %al,(%rax)
  40439f:	00 8e 02 00 00 00    	add    %cl,0x2(%rsi)
  4043a5:	00 00                	add    %al,(%rax)
  4043a7:	00 8e 02 00 00 00    	add    %cl,0x2(%rsi)
  4043ad:	00 00                	add    %al,(%rax)
  4043af:	00 8e 02 00 00 00    	add    %cl,0x2(%rsi)
  4043b5:	00 00                	add    %al,(%rax)
  4043b7:	00 8e 02 00 00 00    	add    %cl,0x2(%rsi)
  4043bd:	00 00                	add    %al,(%rax)
  4043bf:	00 8e 02 00 00 00    	add    %cl,0x2(%rsi)
  4043c5:	00 00                	add    %al,(%rax)
  4043c7:	00 8e 02 00 00 00    	add    %cl,0x2(%rsi)
  4043cd:	00 00                	add    %al,(%rax)
  4043cf:	00 8e 02 00 00 00    	add    %cl,0x2(%rsi)
  4043d5:	00 00                	add    %al,(%rax)
  4043d7:	00 8e 02 00 00 00    	add    %cl,0x2(%rsi)
  4043dd:	00 00                	add    %al,(%rax)
  4043df:	00 8e 02 00 00 00    	add    %cl,0x2(%rsi)
  4043e5:	00 00                	add    %al,(%rax)
  4043e7:	00 8e 02 00 00 00    	add    %cl,0x2(%rsi)
  4043ed:	00 00                	add    %al,(%rax)
  4043ef:	00 8e 02 00 00 00    	add    %cl,0x2(%rsi)
  4043f5:	00 00                	add    %al,(%rax)
  4043f7:	00 8e 02 00 00 00    	add    %cl,0x2(%rsi)
  4043fd:	00 00                	add    %al,(%rax)
  4043ff:	00 8e 02 00 00 00    	add    %cl,0x2(%rsi)
  404405:	00 00                	add    %al,(%rax)
  404407:	00 8e 02 00 00 00    	add    %cl,0x2(%rsi)
  40440d:	00 00                	add    %al,(%rax)
  40440f:	00 8e 02 00 00 00    	add    %cl,0x2(%rsi)
  404415:	00 00                	add    %al,(%rax)
  404417:	00 8e 02 00 00 00    	add    %cl,0x2(%rsi)
  40441d:	00 00                	add    %al,(%rax)
  40441f:	00 8e 02 00 00 00    	add    %cl,0x2(%rsi)
  404425:	00 00                	add    %al,(%rax)
  404427:	00 8e 02 00 00 00    	add    %cl,0x2(%rsi)
  40442d:	00 00                	add    %al,(%rax)
  40442f:	00 8e 02 00 00 00    	add    %cl,0x2(%rsi)
  404435:	00 00                	add    %al,(%rax)
  404437:	00 8e 02 00 00 00    	add    %cl,0x2(%rsi)
  40443d:	00 00                	add    %al,(%rax)
  40443f:	00 94 02 00 00 00 00 	add    %dl,0x0(%rdx,%rax,1)
  404446:	00 00                	add    %al,(%rax)
  404448:	94                   	xchg   %eax,%esp
  404449:	02 00                	add    (%rax),%al
  40444b:	00 00                	add    %al,(%rax)
  40444d:	00 00                	add    %al,(%rax)
  40444f:	00 94 02 00 00 00 00 	add    %dl,0x0(%rdx,%rax,1)
  404456:	00 00                	add    %al,(%rax)
  404458:	94                   	xchg   %eax,%esp
  404459:	02 00                	add    (%rax),%al
  40445b:	00 00                	add    %al,(%rax)
  40445d:	00 00                	add    %al,(%rax)
  40445f:	00 94 02 00 00 00 00 	add    %dl,0x0(%rdx,%rax,1)
  404466:	00 00                	add    %al,(%rax)
  404468:	94                   	xchg   %eax,%esp
  404469:	02 00                	add    (%rax),%al
  40446b:	00 00                	add    %al,(%rax)
  40446d:	00 00                	add    %al,(%rax)
  40446f:	00 94 02 00 00 00 00 	add    %dl,0x0(%rdx,%rax,1)
  404476:	00 00                	add    %al,(%rax)
  404478:	94                   	xchg   %eax,%esp
  404479:	02 00                	add    (%rax),%al
  40447b:	00 00                	add    %al,(%rax)
  40447d:	00 00                	add    %al,(%rax)
  40447f:	00 94 02 00 00 00 00 	add    %dl,0x0(%rdx,%rax,1)
  404486:	00 00                	add    %al,(%rax)
  404488:	94                   	xchg   %eax,%esp
  404489:	02 00                	add    (%rax),%al
  40448b:	00 00                	add    %al,(%rax)
  40448d:	00 00                	add    %al,(%rax)
  40448f:	00 94 02 00 00 00 00 	add    %dl,0x0(%rdx,%rax,1)
  404496:	00 00                	add    %al,(%rax)
  404498:	94                   	xchg   %eax,%esp
  404499:	02 00                	add    (%rax),%al
  40449b:	00 00                	add    %al,(%rax)
  40449d:	00 00                	add    %al,(%rax)
  40449f:	00 94 02 00 00 00 00 	add    %dl,0x0(%rdx,%rax,1)
  4044a6:	00 00                	add    %al,(%rax)
  4044a8:	94                   	xchg   %eax,%esp
  4044a9:	02 00                	add    (%rax),%al
  4044ab:	00 00                	add    %al,(%rax)
  4044ad:	00 00                	add    %al,(%rax)
  4044af:	00 94 02 00 00 00 00 	add    %dl,0x0(%rdx,%rax,1)
  4044b6:	00 00                	add    %al,(%rax)
  4044b8:	94                   	xchg   %eax,%esp
  4044b9:	02 00                	add    (%rax),%al
  4044bb:	00 00                	add    %al,(%rax)
  4044bd:	00 00                	add    %al,(%rax)
  4044bf:	00 94 02 00 00 00 00 	add    %dl,0x0(%rdx,%rax,1)
  4044c6:	00 00                	add    %al,(%rax)
  4044c8:	94                   	xchg   %eax,%esp
  4044c9:	02 00                	add    (%rax),%al
  4044cb:	00 00                	add    %al,(%rax)
  4044cd:	00 00                	add    %al,(%rax)
  4044cf:	00 94 02 00 00 00 00 	add    %dl,0x0(%rdx,%rax,1)
  4044d6:	00 00                	add    %al,(%rax)
  4044d8:	94                   	xchg   %eax,%esp
  4044d9:	02 00                	add    (%rax),%al
  4044db:	00 00                	add    %al,(%rax)
  4044dd:	00 00                	add    %al,(%rax)
  4044df:	00 94 02 00 00 00 00 	add    %dl,0x0(%rdx,%rax,1)
  4044e6:	00 00                	add    %al,(%rax)
  4044e8:	94                   	xchg   %eax,%esp
  4044e9:	02 00                	add    (%rax),%al
  4044eb:	00 00                	add    %al,(%rax)
  4044ed:	00 00                	add    %al,(%rax)
  4044ef:	00 94 02 00 00 00 00 	add    %dl,0x0(%rdx,%rax,1)
  4044f6:	00 00                	add    %al,(%rax)
  4044f8:	94                   	xchg   %eax,%esp
  4044f9:	02 00                	add    (%rax),%al
  4044fb:	00 00                	add    %al,(%rax)
  4044fd:	00 00                	add    %al,(%rax)
  4044ff:	00 94 02 00 00 00 00 	add    %dl,0x0(%rdx,%rax,1)
  404506:	00 00                	add    %al,(%rax)
  404508:	94                   	xchg   %eax,%esp
  404509:	02 00                	add    (%rax),%al
  40450b:	00 00                	add    %al,(%rax)
  40450d:	00 00                	add    %al,(%rax)
  40450f:	00 94 02 00 00 00 00 	add    %dl,0x0(%rdx,%rax,1)
  404516:	00 00                	add    %al,(%rax)
  404518:	94                   	xchg   %eax,%esp
  404519:	02 00                	add    (%rax),%al
  40451b:	00 00                	add    %al,(%rax)
  40451d:	00 00                	add    %al,(%rax)
  40451f:	00 94 02 00 00 00 00 	add    %dl,0x0(%rdx,%rax,1)
  404526:	00 00                	add    %al,(%rax)
  404528:	94                   	xchg   %eax,%esp
  404529:	02 00                	add    (%rax),%al
  40452b:	00 00                	add    %al,(%rax)
  40452d:	00 00                	add    %al,(%rax)
  40452f:	00 94 02 00 00 00 00 	add    %dl,0x0(%rdx,%rax,1)
  404536:	00 00                	add    %al,(%rax)
  404538:	94                   	xchg   %eax,%esp
  404539:	02 00                	add    (%rax),%al
  40453b:	00 00                	add    %al,(%rax)
  40453d:	00 00                	add    %al,(%rax)
  40453f:	00 9a 02 00 00 00    	add    %bl,0x2(%rdx)
  404545:	00 00                	add    %al,(%rax)
  404547:	00 9a 02 00 00 00    	add    %bl,0x2(%rdx)
  40454d:	00 00                	add    %al,(%rax)
  40454f:	00 9a 02 00 00 00    	add    %bl,0x2(%rdx)
  404555:	00 00                	add    %al,(%rax)
  404557:	00 9a 02 00 00 00    	add    %bl,0x2(%rdx)
  40455d:	00 00                	add    %al,(%rax)
  40455f:	00 9a 02 00 00 00    	add    %bl,0x2(%rdx)
  404565:	00 00                	add    %al,(%rax)
  404567:	00 9a 02 00 00 00    	add    %bl,0x2(%rdx)
  40456d:	00 00                	add    %al,(%rax)
  40456f:	00 9a 02 00 00 00    	add    %bl,0x2(%rdx)
  404575:	00 00                	add    %al,(%rax)
  404577:	00 9a 02 00 00 00    	add    %bl,0x2(%rdx)
  40457d:	00 00                	add    %al,(%rax)
  40457f:	00 9a 02 00 00 00    	add    %bl,0x2(%rdx)
  404585:	00 00                	add    %al,(%rax)
  404587:	00 9a 02 00 00 00    	add    %bl,0x2(%rdx)
  40458d:	00 00                	add    %al,(%rax)
  40458f:	00 9a 02 00 00 00    	add    %bl,0x2(%rdx)
  404595:	00 00                	add    %al,(%rax)
  404597:	00 9a 02 00 00 00    	add    %bl,0x2(%rdx)
  40459d:	00 00                	add    %al,(%rax)
  40459f:	00 9a 02 00 00 00    	add    %bl,0x2(%rdx)
  4045a5:	00 00                	add    %al,(%rax)
  4045a7:	00 9a 02 00 00 00    	add    %bl,0x2(%rdx)
  4045ad:	00 00                	add    %al,(%rax)
  4045af:	00 9a 02 00 00 00    	add    %bl,0x2(%rdx)
  4045b5:	00 00                	add    %al,(%rax)
  4045b7:	00 9a 02 00 00 00    	add    %bl,0x2(%rdx)
  4045bd:	00 00                	add    %al,(%rax)
  4045bf:	00 9a 02 00 00 00    	add    %bl,0x2(%rdx)
  4045c5:	00 00                	add    %al,(%rax)
  4045c7:	00 9a 02 00 00 00    	add    %bl,0x2(%rdx)
  4045cd:	00 00                	add    %al,(%rax)
  4045cf:	00 9a 02 00 00 00    	add    %bl,0x2(%rdx)
  4045d5:	00 00                	add    %al,(%rax)
  4045d7:	00 9a 02 00 00 00    	add    %bl,0x2(%rdx)
  4045dd:	00 00                	add    %al,(%rax)
  4045df:	00 9a 02 00 00 00    	add    %bl,0x2(%rdx)
  4045e5:	00 00                	add    %al,(%rax)
  4045e7:	00 9a 02 00 00 00    	add    %bl,0x2(%rdx)
  4045ed:	00 00                	add    %al,(%rax)
  4045ef:	00 9a 02 00 00 00    	add    %bl,0x2(%rdx)
  4045f5:	00 00                	add    %al,(%rax)
  4045f7:	00 9a 02 00 00 00    	add    %bl,0x2(%rdx)
  4045fd:	00 00                	add    %al,(%rax)
  4045ff:	00 9a 02 00 00 00    	add    %bl,0x2(%rdx)
  404605:	00 00                	add    %al,(%rax)
  404607:	00 9a 02 00 00 00    	add    %bl,0x2(%rdx)
  40460d:	00 00                	add    %al,(%rax)
  40460f:	00 9a 02 00 00 00    	add    %bl,0x2(%rdx)
  404615:	00 00                	add    %al,(%rax)
  404617:	00 9a 02 00 00 00    	add    %bl,0x2(%rdx)
  40461d:	00 00                	add    %al,(%rax)
  40461f:	00 9a 02 00 00 00    	add    %bl,0x2(%rdx)
  404625:	00 00                	add    %al,(%rax)
  404627:	00 9a 02 00 00 00    	add    %bl,0x2(%rdx)
  40462d:	00 00                	add    %al,(%rax)
  40462f:	00 9a 02 00 00 00    	add    %bl,0x2(%rdx)
  404635:	00 00                	add    %al,(%rax)
  404637:	00 9a 02 00 00 00    	add    %bl,0x2(%rdx)
  40463d:	00 00                	add    %al,(%rax)
